; Disassembly of ROM file
; Base address: $10000
; Size: 32768 bytes (32KB)
; Generated by disasm6809.js
;
        ORG     $10000

10000: 7E 43 D4       JMP     $43D4
10003: 7E 46 79       JMP     $4679
10006: 7E 45 62       JMP     $4562
10009: 7E 40 22       JMP     $4022
1000C: 7E 47 9D       JMP     $479D
1000F: 7E 47 74       JMP     $4774
10012: 7E 45 3C       JMP     $453C
10015: 7E 46 2E       JMP     $462E
10018: 7E 44 58       JMP     $4458
1001B: 7E 42 D7       JMP     $42D7
1001E: 7E 44 67       JMP     $4467
10021: 39             RTS
10022: 34 7E          PSHS    A,B,DP,X,Y,U
10024: 4F             CLRA
10025: 1F 8B          TFR     A,DP
10027: A6 84          LDA     ,X
10029: 84 0F          ANDA    #$0F
1002B: 48             ASLA
1002C: 10 8E 40 34    LDY     #$4034
10030: AD B6          JSR     [A,Y]
10032: 35 FE          PULS    A,B,DP,X,Y,U,PC
10034: 40             NEGA
10035: 3E             FCB     $3E
10036: 40             NEGA
10037: 77 40 B6       ASR     $40B6
1003A: 40             NEGA
1003B: B6 41 1E       LDA     $411E
1003E: 34 7E          PSHS    A,B,DP,X,Y,U
10040: A6 05          LDA     5,X
10042: E6 0A          LDB     10,X
10044: E3 0F          ADDD    15,X
10046: A7 05          STA     5,X
10048: E7 0A          STB     10,X
1004A: A6 04          LDA     4,X
1004C: 89 00          ADCA    #$00
1004E: A7 04          STA     4,X
10050: A6 0F          LDA     15,X
10052: 2A 06          BPL     $1005A
10054: A6 04          LDA     4,X
10056: 8B FF          ADDA    #$FF
10058: A7 04          STA     4,X
L1005A:
1005A: A6 09          LDA     9,X
1005C: E6 0C          LDB     12,X
1005E: E3 88 11       ADDD    17,X
10061: A7 09          STA     9,X
10063: E7 0C          STB     12,X
10065: A6 08          LDA     8,X
10067: 89 00          ADCA    #$00
10069: A7 08          STA     8,X
1006B: A6 0F          LDA     15,X
1006D: 2A 06          BPL     $10075
1006F: A6 08          LDA     8,X
10071: 8B FF          ADDA    #$FF
10073: A7 08          STA     8,X
L10075:
10075: 35 FE          PULS    A,B,DP,X,Y,U,PC
10077: 34 7E          PSHS    A,B,DP,X,Y,U
10079: E6 0E          LDB     14,X
1007B: A6 0D          LDA     13,X
1007D: 17 00 DD       LBSR    $1015D
10080: A6 05          LDA     5,X
10082: E6 0A          LDB     10,X
10084: D3 00          ADDD    <$00
10086: E7 0A          STB     10,X
10088: A7 05          STA     5,X
1008A: A6 04          LDA     4,X
1008C: 89 00          ADCA    #$00
1008E: A7 04          STA     4,X
10090: 96 00          LDA     <$00
10092: 2A 06          BPL     $1009A
10094: A6 04          LDA     4,X
10096: 8B FF          ADDA    #$FF
10098: A7 04          STA     4,X
L1009A:
1009A: E6 0B          LDB     11,X
1009C: A6 07          LDA     7,X
1009E: D3 02          ADDD    <$02
100A0: E7 0B          STB     11,X
100A2: A7 07          STA     7,X
100A4: A6 06          LDA     6,X
100A6: 89 00          ADCA    #$00
100A8: A7 06          STA     6,X
100AA: 96 02          LDA     <$02
100AC: 2A 06          BPL     $100B4
100AE: A6 06          LDA     6,X
100B0: 8B FF          ADDA    #$FF
100B2: A7 06          STA     6,X
L100B4:
100B4: 35 FE          PULS    A,B,DP,X,Y,U,PC
100B6: 34 7E          PSHS    A,B,DP,X,Y,U
100B8: E6 0A          LDB     10,X
100BA: A6 05          LDA     5,X
100BC: E3 0F          ADDD    15,X
100BE: E7 0A          STB     10,X
100C0: A7 05          STA     5,X
100C2: A6 04          LDA     4,X
100C4: 89 00          ADCA    #$00
100C6: A7 04          STA     4,X
100C8: A6 0F          LDA     15,X
100CA: 2A 06          BPL     $100D2
100CC: A6 04          LDA     4,X
100CE: 8B FF          ADDA    #$FF
100D0: A7 04          STA     4,X
L100D2:
100D2: A6 84          LDA     ,X
100D4: 84 0F          ANDA    #$0F
100D6: 81 03          CMPA    #$03
100D8: 26 1E          BNE     $100F8
100DA: E6 0C          LDB     12,X
100DC: A6 09          LDA     9,X
100DE: A3 88 11       SUBD    17,X
100E1: E7 0C          STB     12,X
100E3: A7 09          STA     9,X
100E5: A6 08          LDA     8,X
100E7: 82 00          SBCA    #$00
100E9: A7 08          STA     8,X
100EB: A6 88 11       LDA     17,X
100EE: 2A 24          BPL     $10114
100F0: A6 08          LDA     8,X
100F2: 8B 01          ADDA    #$01
100F4: A7 08          STA     8,X
100F6: 20 1C          BRA     $10114
L100F8:
100F8: E6 0C          LDB     12,X
100FA: A6 09          LDA     9,X
100FC: E3 88 11       ADDD    17,X
100FF: E7 0C          STB     12,X
10101: A7 09          STA     9,X
10103: A6 08          LDA     8,X
10105: 89 00          ADCA    #$00
10107: A7 08          STA     8,X
10109: A6 88 11       LDA     17,X
1010C: 2A 06          BPL     $10114
1010E: A6 08          LDA     8,X
10110: 8B FF          ADDA    #$FF
10112: A7 08          STA     8,X
L10114:
10114: EC 88 11       LDD     17,X
10117: A3 0D          SUBD    13,X
10119: ED 88 11       STD     17,X
1011C: 35 FE          PULS    A,B,DP,X,Y,U,PC
1011E: 34 7E          PSHS    A,B,DP,X,Y,U
10120: E6 0E          LDB     14,X
10122: A6 0D          LDA     13,X
10124: 17 00 36       LBSR    $1015D
10127: A6 05          LDA     5,X
10129: E6 0A          LDB     10,X
1012B: D3 00          ADDD    <$00
1012D: E7 0A          STB     10,X
1012F: A7 05          STA     5,X
10131: A6 04          LDA     4,X
10133: 89 00          ADCA    #$00
10135: A7 04          STA     4,X
10137: 96 00          LDA     <$00
10139: 2A 06          BPL     $10141
1013B: A6 04          LDA     4,X
1013D: 8B FF          ADDA    #$FF
1013F: A7 04          STA     4,X
L10141:
10141: E6 0C          LDB     12,X
10143: A6 09          LDA     9,X
10145: D3 02          ADDD    <$02
10147: E7 0C          STB     12,X
10149: A7 09          STA     9,X
1014B: A6 08          LDA     8,X
1014D: 89 00          ADCA    #$00
1014F: A7 08          STA     8,X
10151: 96 02          LDA     <$02
10153: 2A 06          BPL     $1015B
10155: A6 08          LDA     8,X
10157: 8B FF          ADDA    #$FF
10159: A7 08          STA     8,X
L1015B:
1015B: 35 FE          PULS    A,B,DP,X,Y,U,PC
L1015D:
1015D: 34 36          PSHS    A,B,X,Y
1015F: 32 78          LEAS    -8,S
10161: 44             LSRA
10162: 44             LSRA
10163: 44             LSRA
10164: 44             LSRA
10165: 44             LSRA
10166: A7 E4          STA     ,S
10168: 1F 89          TFR     A,B
1016A: A6 68          LDA     8,S
1016C: 84 1F          ANDA    #$1F
1016E: A7 61          STA     1,S
10170: 8E 41 BB       LDX     #$41BB
10173: E6 85          LDB     B,X
10175: E7 62          STB     2,S
10177: C4 01          ANDB    #$01
10179: CB 03          ADDB    #$03
1017B: A6 61          LDA     1,S
1017D: 6D 62          TST     2,S
1017F: 2A 04          BPL     $10185
10181: 43             COMA
10182: 84 1F          ANDA    #$1F
10184: 4C             INCA
L10185:
10185: A7 E5          STA     B,S
10187: C8 07          EORB    #$07
10189: 86 20          LDA     #$20
1018B: A7 E5          STA     B,S
1018D: A6 64          LDA     4,S
1018F: E6 69          LDB     9,S
10191: 3D             MUL
10192: DD 02          STD     <$02
10194: A6 63          LDA     3,S
10196: E6 69          LDB     9,S
10198: 3D             MUL
10199: DD 00          STD     <$00
1019B: A6 68          LDA     8,S
1019D: 2A 07          BPL     $101A6
1019F: CC 00 00       LDD     #$0000
101A2: 93 00          SUBD    <$00
101A4: DD 00          STD     <$00
L101A6:
101A6: A6 68          LDA     8,S
101A8: 81 40          CMPA    #$40
101AA: 25 0B          BCS     $101B7
101AC: 81 C0          CMPA    #$C0
101AE: 24 07          BCC     $101B7
101B0: CC 00 00       LDD     #$0000
101B3: 93 02          SUBD    <$02
101B5: DD 02          STD     <$02
L101B7:
101B7: 32 68          LEAS    8,S
101B9: 35 B6          PULS    A,B,X,Y,PC
101BB: 00 81          NEG     <$81
101BD: 01             FCB     $01
101BE: 80 00          SUBA    #$00
101C0: 81 01          CMPA    #$01
101C2: 80 34          SUBA    #$34
101C4: 31 6F          LEAY    15,S
101C6: 80 31          SUBA    #$31
101C8: 3F             SWI
101C9: 26 FA          BNE     $101C5
101CB: 35 B1          PULS    CC,X,Y,PC
101CD: 34 31          PSHS    CC,X,Y
101CF: 8E 00 20       LDX     #$0020
101D2: 10 8E 0F 71    LDY     #$0F71
101D6: 8D EB          BSR     $101C3
101D8: 35 B1          PULS    CC,X,Y,PC
101DA: 34 31          PSHS    CC,X,Y
101DC: 8E 30 00       LDX     #$3000
101DF: 10 8E 08 00    LDY     #$0800
101E3: 8D DE          BSR     $101C3
101E5: 35 B1          PULS    CC,X,Y,PC
101E7: 34 31          PSHS    CC,X,Y
101E9: 8E 18 00       LDX     #$1800
101EC: 10 8E 08 00    LDY     #$0800
101F0: 8D D1          BSR     $101C3
101F2: 35 B1          PULS    CC,X,Y,PC
L101F4:
101F4: 34 57          PSHS    CC,A,B,X,U
101F6: 1F 98          TFR     B,A
101F8: F0 21 FD       SUBB    $21FD
101FB: 23 18          BLS     $10215
101FD: 34 04          PSHS    B
101FF: C6 05          LDB     #$05
10201: 3D             MUL
10202: CE 20 81       LDU     #$2081
10205: 33 CB          LEAU    D,U
10207: 35 04          PULS    B
10209: 8E 00 00       LDX     #$0000
1020C: 86 00          LDA     #$00
L1020E:
1020E: 36 10          PSHU    X
10210: 36 12          PSHU    A,X
10212: 5A             DECB
10213: 26 F9          BNE     $1020E
L10215:
10215: 35 D7          PULS    CC,A,B,X,U,PC
10217: 34 77          PSHS    CC,A,B,X,Y,U
10219: 7F 21 FD       CLR     $21FD
1021C: 7F 03 A1       CLR     $03A1
1021F: 7F 03 A2       CLR     $03A2
10222: C6 4C          LDB     #$4C
10224: 8D CE          BSR     $101F4
10226: CC 01 80       LDD     #$0180
10229: 8E 28 00       LDX     #$2800
L1022C:
1022C: 6F 80          CLR     ,X+
1022E: 83 00 01       SUBD    #$0001
10231: 26 F9          BNE     $1022C
10233: 35 F7          PULS    CC,A,B,X,Y,U,PC
10235: 8E 20 81       LDX     #$2081
10238: 10 8E 28 00    LDY     #$2800
L1023C:
1023C: EC 81          LDD     ,X++
1023E: ED A1          STD     ,Y++
10240: 8C 21 FD       CMPX    #$21FD
10243: 25 F7          BCS     $1023C
10245: 39             RTS
10246: 34 48          PSHS    DP,U
10248: 32 7F          LEAS    -1,S
1024A: 4F             CLRA
1024B: 1F 8B          TFR     A,DP
1024D: A7 E4          STA     ,S
L1024F:
1024F: A6 E4          LDA     ,S
10251: C6 04          LDB     #$04
10253: 3D             MUL
10254: C3 00 61       ADDD    #$0061
10257: 1F 03          TFR     D,U
10259: A6 C4          LDA     ,U
1025B: 27 1E          BEQ     $1027B
1025D: 2A 04          BPL     $10263
1025F: 6A 41          DEC     1,U
10261: 26 18          BNE     $1027B
L10263:
10263: E6 42          LDB     2,U
10265: 4F             CLRA
10266: 1F 01          TFR     D,X
10268: E6 43          LDB     3,U
1026A: 1F 02          TFR     D,Y
1026C: A6 C4          LDA     ,U
1026E: BD FC 50       JSR     $FC50
10271: A6 C4          LDA     ,U
10273: 88 80          EORA    #$80
10275: A7 C4          STA     ,U
10277: 2B 02          BMI     $1027B
10279: 6F C4          CLR     ,U
L1027B:
1027B: 6C E4          INC     ,S
1027D: E6 E4          LDB     ,S
1027F: C1 04          CMPB    #$04
10281: 10 25 FF CA    LBCS    $1024F
10285: 32 61          LEAS    1,S
10287: 35 C8          PULS    DP,U,PC
10289: 34 37          PSHS    CC,A,B,X,Y
1028B: D6 26          LDB     <$26
1028D: 26 09          BNE     $10298
1028F: F6 38 04       LDB     $3804
10292: C4 04          ANDB    #$04
10294: 26 02          BNE     $10298
10296: 0F 57          CLR     <$57
L10298:
10298: 96 57          LDA     <$57
1029A: 27 1A          BEQ     $102B6
L1029C:
1029C: 96 59          LDA     <$59
1029E: B7 3A 08       STA     $3A08
102A1: 5F             CLRB
102A2: 8E 00 5A       LDX     #$005A
102A5: 10 8E 00 59    LDY     #$0059
L102A9:
102A9: A6 85          LDA     B,X
102AB: A7 A5          STA     B,Y
102AD: 5C             INCB
102AE: C1 03          CMPB    #$03
102B0: 25 F7          BCS     $102A9
102B2: 0A 57          DEC     <$57
102B4: 26 E6          BNE     $1029C
L102B6:
102B6: 35 B7          PULS    CC,A,B,X,Y,PC
102B8: 34 07          PSHS    CC,A,B
102BA: B6 38 03       LDA     $3803
102BD: 43             COMA
102BE: C6 01          LDB     #$01
102C0: 85 40          BITA    #$40
102C2: 27 02          BEQ     $102C6
102C4: C6 01          LDB     #$01
L102C6:
102C6: 85 80          BITA    #$80
102C8: 27 02          BEQ     $102CC
102CA: C8 01          EORB    #$01
L102CC:
102CC: 58             ASLB
102CD: 58             ASLB
102CE: DA 3A          ORB     <$3A
102D0: D7 3A          STB     <$3A
102D2: F7 38 08       STB     $3808
102D5: 35 87          PULS    CC,A,B,PC
102D7: 34 77          PSHS    CC,A,B,X,Y,U
102D9: D6 26          LDB     <$26
102DB: 10 27 00 5D    LBEQ    $1033C
102DF: C6 03          LDB     #$03
102E1: 3D             MUL
102E2: 10 8E 43 4A    LDY     #$434A
102E6: 31 AB          LEAY    D,Y
102E8: A6 22          LDA     2,Y
102EA: AB 88 4B       ADDA    75,X
102ED: 19             DAA
102EE: A7 88 4B       STA     75,X
102F1: A6 21          LDA     1,Y
102F3: A9 88 4A       ADCA    74,X
102F6: 19             DAA
102F7: A7 88 4A       STA     74,X
102FA: A6 A4          LDA     ,Y
102FC: A9 88 49       ADCA    73,X
102FF: 19             DAA
10300: A7 88 49       STA     73,X
10303: 24 0D          BCC     $10312
10305: 86 99          LDA     #$99
10307: A7 88 49       STA     73,X
1030A: A7 88 4A       STA     74,X
1030D: 86 90          LDA     #$90
1030F: A7 88 4B       STA     75,X
L10312:
10312: 96 26          LDA     <$26
10314: 10 27 00 24    LBEQ    $1033C
10318: 4F             CLRA
10319: BD FC 78       JSR     $FC78
1031C: 86 05          LDA     #$05
1031E: BD FC 78       JSR     $FC78
10321: 96 25          LDA     <$25
10323: A0 88 4B       SUBA    75,X
10326: 96 24          LDA     <$24
10328: A2 88 4A       SBCA    74,X
1032B: 96 23          LDA     <$23
1032D: A2 88 49       SBCA    73,X
10330: 24 0A          BCC     $1033C
10332: EC 88 49       LDD     73,X
10335: DD 23          STD     <$23
10337: A6 88 4B       LDA     75,X
1033A: 97 25          STA     <$25
L1033C:
1033C: 35 F7          PULS    CC,A,B,X,Y,U,PC
1033E: 03 00          COM     <$00
10340: 04 00          LSR     <$00
10342: 02             FCB     $02
10343: 00 04          NEG     <$04
10345: 00 06          NEG     <$06
10347: 08 08          ASL     <$08
10349: 08 00          ASL     <$00
1034B: 00 00          NEG     <$00
1034D: 00 00          NEG     <$00
1034F: 10 00          FCB     $10,$00
10351: 00 20          NEG     <$20
10353: 00 00          NEG     <$00
10355: 30 00          LEAX    ,X
10357: 00 40          NEG     <$40
10359: 00 00          NEG     <$00
1035B: 50             NEGB
1035C: 00 00          NEG     <$00
1035E: 60 00          NEG     ,X
10360: 00 70          NEG     <$70
10362: 00 00          NEG     <$00
10364: 80 00          SUBA    #$00
10366: 00 90          NEG     <$90
10368: 00 01          NEG     <$01
1036A: 00 00          NEG     <$00
1036C: 02             FCB     $02
1036D: 00 00          NEG     <$00
1036F: 03 00          COM     <$00
10371: 00 04          NEG     <$04
10373: 00 00          NEG     <$00
10375: 05             FCB     $05
10376: 00 00          NEG     <$00
10378: 06 00          ROR     <$00
1037A: 00 07          NEG     <$07
1037C: 00 00          NEG     <$00
1037E: 08 00          ASL     <$00
10380: 00 09          NEG     <$09
10382: 00 00          NEG     <$00
10384: 10 00          FCB     $10,$00
10386: 00 20          NEG     <$20
10388: 00 00          NEG     <$00
1038A: 30 00          LEAX    ,X
1038C: 00 40          NEG     <$40
1038E: 00 00          NEG     <$00
10390: 50             NEGB
10391: 00 00          NEG     <$00
10393: 60 00          NEG     ,X
10395: 00 70          NEG     <$70
10397: 00 00          NEG     <$00
10399: 80 00          SUBA    #$00
1039B: 00 90          NEG     <$90
1039D: 00 01          NEG     <$01
1039F: 00 00          NEG     <$00
103A1: 02             FCB     $02
103A2: 00 00          NEG     <$00
103A4: 03 00          COM     <$00
103A6: 00 04          NEG     <$04
103A8: 00 00          NEG     <$00
103AA: 05             FCB     $05
103AB: 00 00          NEG     <$00
103AD: 06 00          ROR     <$00
103AF: 00 07          NEG     <$07
103B1: 00 00          NEG     <$00
103B3: 08 00          ASL     <$00
103B5: 00 09          NEG     <$09
103B7: 00 00          NEG     <$00
103B9: 10 00          FCB     $10,$00
103BB: 00 20          NEG     <$20
103BD: 00 00          NEG     <$00
103BF: 30 00          LEAX    ,X
103C1: 00 40          NEG     <$40
103C3: 00 00          NEG     <$00
103C5: 00 01          NEG     <$01
103C7: 50             NEGB
103C8: 00 15          NEG     <$15
103CA: 00 50          NEG     <$50
103CC: 00 00          NEG     <$00
103CE: 00 01          NEG     <$01
103D0: 20 00          BRA     $103D2
L103D2:
103D2: 01             FCB     $01
103D3: 80 96          SUBA    #$96
103D5: 26 26          BNE     $103FD
103D7: 11 A6          FCB     $11,$A6
103D9: 88 5C          EORA    #$5C
103DB: 27 05          BEQ     $103E2
103DD: 6A 88 5C       DEC     92,X
103E0: 20 03          BRA     $103E5
L103E2:
103E2: 17 B6 BB       LBSR    $BAA0
L103E5:
103E5: A6 88 5A       LDA     90,X
103E8: 39             RTS
103E9: 10 8E 38 00    LDY     #$3800
103ED: D6 2A          LDB     <$2A
103EF: A6 A5          LDA     B,Y
103F1: 43             COMA
103F2: 84 3F          ANDA    #$3F
103F4: 1F 89          TFR     A,B
103F6: 84 30          ANDA    #$30
103F8: 34 02          PSHS    A
103FA: 4F             CLRA
103FB: 54             LSRB
103FC: 49             ROLA
L103FD:
103FD: 54             LSRB
103FE: 49             ROLA
103FF: 54             LSRB
10400: 49             ROLA
10401: 54             LSRB
10402: 49             ROLA
10403: AA E4          ORA     ,S
10405: A7 E4          STA     ,S
10407: B6 38 02       LDA     $3802
1040A: 43             COMA
1040B: 84 06          ANDA    #$06
1040D: 44             LSRA
1040E: 44             LSRA
1040F: 46             RORA
10410: 46             RORA
10411: 0D 2A          TST     <$2A
10413: 27 01          BEQ     $10416
10415: 46             RORA
L10416:
10416: 84 40          ANDA    #$40
10418: AA E4          ORA     ,S
1041A: 32 61          LEAS    1,S
1041C: 39             RTS
1041D: A7 88 5A       STA     90,X
10420: A1 88 5B       CMPA    91,X
10423: 26 0E          BNE     $10433
10425: 6C 88 5C       INC     92,X
10428: A6 88 5C       LDA     92,X
1042B: 81 FF          CMPA    #$FF
1042D: 27 04          BEQ     $10433
L1042F:
1042F: A6 88 5A       LDA     90,X
10432: 39             RTS
L10433:
10433: 17 B6 82       LBSR    $BAB8
10436: 6F 88 5C       CLR     92,X
10439: A6 88 5A       LDA     90,X
1043C: A7 88 5B       STA     91,X
1043F: E6 88 5D       LDB     93,X
10442: CB 01          ADDB    #$01
10444: E7 88 5D       STB     93,X
10447: A6 88 33       LDA     51,X
1044A: 89 00          ADCA    #$00
1044C: A7 88 33       STA     51,X
1044F: 10 83 04 00    CMPD    #$0400
10453: 25 DA          BCS     $1042F
10455: 7E 44 55       JMP     $4455
10458: D6 26          LDB     <$26
1045A: 26 07          BNE     $10463
1045C: F6 38 04       LDB     $3804
1045F: C4 04          ANDB    #$04
10461: 27 03          BEQ     $10466
L10463:
10463: B7 38 0E       STA     $380E
L10466:
10466: 39             RTS
10467: 34 76          PSHS    A,B,X,Y,U
10469: 32 78          LEAS    -8,S
1046B: 9E 00          LDX     <$00
1046D: 96 02          LDA     <$02
1046F: 84 03          ANDA    #$03
10471: 10 8E 44 EB    LDY     #$44EB
10475: 48             ASLA
10476: 10 AE A6       LDY     A,Y
10479: 1F 23          TFR     Y,U
1047B: 0D 02          TST     <$02
1047D: 2B 34          BMI     $104B3
1047F: B6 0C 9C       LDA     $0C9C
10482: 81 10          CMPA    #$10
10484: 10 24 00 5F    LBCC    $104E7
10488: 7C 0C 9C       INC     $0C9C
1048B: C6 04          LDB     #$04
1048D: 3D             MUL
1048E: 10 8E 0C 5C    LDY     #$0C5C
10492: 31 AB          LEAY    D,Y
10494: 96 03          LDA     <$03
10496: C6 10          LDB     #$10
10498: 3D             MUL
10499: 33 CB          LEAU    D,U
1049B: 96 04          LDA     <$04
1049D: 33 C6          LEAU    A,U
1049F: EF A1          STU     ,Y++
104A1: EC 81          LDD     ,X++
104A3: 34 04          PSHS    B
104A5: 58             ASLB
104A6: 49             ROLA
104A7: 58             ASLB
104A8: 49             ROLA
104A9: 58             ASLB
104AA: 49             ROLA
104AB: 58             ASLB
104AC: 49             ROLA
104AD: 35 04          PULS    B
104AF: ED A4          STD     ,Y
104B1: 20 34          BRA     $104E7
L104B3:
104B3: B6 0E BD       LDA     $0EBD
104B6: 81 10          CMPA    #$10
104B8: 24 2D          BCC     $104E7
104BA: 7C 0E BD       INC     $0EBD
104BD: C6 22          LDB     #$22
104BF: 3D             MUL
104C0: 10 8E 0C 9D    LDY     #$0C9D
104C4: 31 AB          LEAY    D,Y
104C6: 96 03          LDA     <$03
104C8: C6 10          LDB     #$10
104CA: 3D             MUL
104CB: 33 CB          LEAU    D,U
104CD: EF A1          STU     ,Y++
104CF: 86 10          LDA     #$10
104D1: A7 62          STA     2,S
L104D3:
104D3: EC 81          LDD     ,X++
104D5: 34 04          PSHS    B
104D7: 58             ASLB
104D8: 49             ROLA
104D9: 58             ASLB
104DA: 49             ROLA
104DB: 58             ASLB
104DC: 49             ROLA
104DD: 58             ASLB
104DE: 49             ROLA
104DF: 35 04          PULS    B
104E1: ED A1          STD     ,Y++
104E3: 6A 62          DEC     2,S
104E5: 26 EC          BNE     $104D3
L104E7:
104E7: 32 68          LEAS    8,S
104E9: 35 F6          PULS    A,B,X,Y,U,PC
104EB: 3C 80          CWAI    #$80
104ED: 3D             MUL
104EE: 00 3C          NEG     <$3C
104F0: 00 34          NEG     <$34
104F2: 76 B6 0C       ROR     $B60C
104F5: 9C 27          CMPX    <$27
104F7: 1B             FCB     $1B
104F8: 8E 0C 5C       LDX     #$0C5C
104FB: C6 04          LDB     #$04
104FD: 4A             DECA
104FE: 3D             MUL
104FF: 30 8B          LEAX    D,X
10501: 10 AE 81       LDY     ,X++
10504: A6 80          LDA     ,X+
10506: A7 A4          STA     ,Y
10508: A6 80          LDA     ,X+
1050A: A7 A9 02 00    STA     512,Y
1050E: 7A 0C 9C       DEC     $0C9C
10511: 20 E0          BRA     $104F3
L10513:
10513: B6 0E BD       LDA     $0EBD
10516: 27 22          BEQ     $1053A
10518: 8E 0C 9D       LDX     #$0C9D
1051B: C6 22          LDB     #$22
1051D: 4A             DECA
1051E: 3D             MUL
1051F: 30 8B          LEAX    D,X
10521: 10 AE 81       LDY     ,X++
10524: C6 10          LDB     #$10
L10526:
10526: A6 80          LDA     ,X+
10528: A7 A4          STA     ,Y
1052A: A6 80          LDA     ,X+
1052C: A7 A9 02 00    STA     512,Y
10530: 31 21          LEAY    1,Y
10532: 5A             DECB
10533: 26 F1          BNE     $10526
10535: 7A 0E BD       DEC     $0EBD
10538: 20 D9          BRA     $10513
L1053A:
1053A: 35 F6          PULS    A,B,X,Y,U,PC
1053C: 34 0C          PSHS    B,DP
1053E: 4F             CLRA
1053F: 1F 8B          TFR     A,DP
10541: C6 04          LDB     #$04
10543: 0C 43          INC     <$43
10545: 0C 45          INC     <$45
L10547:
10547: 06 44          ROR     <$44
10549: 06 45          ROR     <$45
1054B: 06 46          ROR     <$46
1054D: 25 06          BCS     $10555
1054F: 96 45          LDA     <$45
10551: 99 43          ADCA    <$43
10553: 97 45          STA     <$45
L10555:
10555: 5A             DECB
10556: 26 EF          BNE     $10547
10558: 96 44          LDA     <$44
1055A: 99 46          ADCA    <$46
1055C: 97 46          STA     <$46
1055E: 99 45          ADCA    <$45
10560: 35 8C          PULS    B,DP,PC
10562: 34 7E          PSHS    A,B,DP,X,Y,U
10564: 10 9E 00       LDY     <$00
10567: 0F 00          CLR     <$00
10569: EC 26          LDD     6,Y
1056B: A3 06          SUBD    6,X
1056D: DD 03          STD     <$03
1056F: 2A 0D          BPL     $1057E
10571: 96 00          LDA     <$00
10573: 8A 02          ORA     #$02
10575: 97 00          STA     <$00
10577: CC 00 00       LDD     #$0000
1057A: 93 03          SUBD    <$03
1057C: DD 03          STD     <$03
L1057E:
1057E: EC 24          LDD     4,Y
10580: A3 04          SUBD    4,X
10582: DD 01          STD     <$01
10584: 2A 0D          BPL     $10593
10586: 96 00          LDA     <$00
10588: 8A 01          ORA     #$01
1058A: 97 00          STA     <$00
1058C: CC 00 00       LDD     #$0000
1058F: 93 01          SUBD    <$01
10591: DD 01          STD     <$01
L10593:
10593: 35 FE          PULS    A,B,DP,X,Y,U,PC
10595: 34 7E          PSHS    A,B,DP,X,Y,U
10597: 10 9E 00       LDY     <$00
1059A: 0F 00          CLR     <$00
1059C: EC 26          LDD     6,Y
1059E: A3 06          SUBD    6,X
105A0: DD 03          STD     <$03
105A2: 2A 0D          BPL     $105B1
105A4: 96 00          LDA     <$00
105A6: 8A 02          ORA     #$02
105A8: 97 00          STA     <$00
105AA: CC 00 00       LDD     #$0000
105AD: 93 03          SUBD    <$03
105AF: DD 03          STD     <$03
L105B1:
105B1: EC 24          LDD     4,Y
105B3: A3 04          SUBD    4,X
105B5: DD 01          STD     <$01
105B7: 2A 0D          BPL     $105C6
105B9: 96 00          LDA     <$00
105BB: 8A 01          ORA     #$01
105BD: 97 00          STA     <$00
105BF: CC 00 00       LDD     #$0000
105C2: 93 01          SUBD    <$01
105C4: DD 01          STD     <$01
L105C6:
105C6: EC 28          LDD     8,Y
105C8: A3 08          SUBD    8,X
105CA: DD 05          STD     <$05
105CC: 2A 0D          BPL     $105DB
105CE: 96 00          LDA     <$00
105D0: 8A 04          ORA     #$04
105D2: 97 00          STA     <$00
105D4: CC 00 00       LDD     #$0000
105D7: 93 05          SUBD    <$05
105D9: DD 05          STD     <$05
L105DB:
105DB: 35 FE          PULS    A,B,DP,X,Y,U,PC
105DD: 34 7E          PSHS    A,B,DP,X,Y,U
105DF: 32 71          LEAS    -15,S
105E1: BD 45 62       JSR     $4562
105E4: BD 46 2E       JSR     $462E
105E7: 25 3D          BCS     $10626
105E9: D6 02          LDB     <$02
105EB: 0D 01          TST     <$01
105ED: 27 02          BEQ     $105F1
105EF: C6 FF          LDB     #$FF
L105F1:
105F1: 4F             CLRA
105F2: ED E4          STD     ,S
105F4: D6 04          LDB     <$04
105F6: 0D 03          TST     <$03
105F8: 27 02          BEQ     $105FC
105FA: C6 FF          LDB     #$FF
L105FC:
105FC: 4F             CLRA
105FD: ED 62          STD     2,S
105FF: E3 E4          ADDD    ,S
10601: ED 64          STD     4,S
10603: E6 61          LDB     1,S
10605: 96 00          LDA     <$00
10607: 27 06          BEQ     $1060F
10609: 81 03          CMPA    #$03
1060B: 27 02          BEQ     $1060F
1060D: E6 63          LDB     3,S
L1060F:
1060F: 86 40          LDA     #$40
10611: 3D             MUL
10612: 10 AE 64       LDY     4,S
10615: BD 48 50       JSR     $4850
10618: ED 64          STD     4,S
1061A: 10 8E 46 2A    LDY     #$462A
1061E: 96 00          LDA     <$00
10620: A6 A6          LDA     A,Y
10622: AB 65          ADDA    5,S
10624: 1C FE          ANDCC   #$FE
L10626:
10626: 32 6F          LEAS    15,S
10628: 35 FE          PULS    A,B,DP,X,Y,U,PC
1062A: 00 40          NEG     <$40
1062C: C0 80          SUBB    #$80
1062E: A6 88 17       LDA     23,X
10631: 81 11          CMPA    #$11
10633: 27 04          BEQ     $10639
10635: 81 17          CMPA    #$17
10637: 26 03          BNE     $1063C
L10639:
10639: 1C FE          ANDCC   #$FE
1063B: 39             RTS
L1063C:
1063C: 32 7C          LEAS    -4,S
1063E: EC 04          LDD     4,X
10640: ED E4          STD     ,S
10642: EC 06          LDD     6,X
L10644:
10644: E3 08          ADDD    8,X
10646: ED 62          STD     2,S
10648: EC E4          LDD     ,S
1064A: C3 00 40       ADDD    #$0040
1064D: 81 FF          CMPA    #$FF
1064F: 27 25          BEQ     $10676
10651: 10 93 3C       CMPD    <$3C
10654: 25 20          BCS     $10676
10656: DC 3C          LDD     <$3C
10658: C3 01 40       ADDD    #$0140
1065B: 10 A3 E4       CMPD    ,S
1065E: 25 16          BCS     $10676
10660: EC 62          LDD     2,S
10662: C3 00 40       ADDD    #$0040
10665: 81 FF          CMPA    #$FF
10667: 27 0D          BEQ     $10676
10669: 10 93 3F       CMPD    <$3F
1066C: 25 08          BCS     $10676
1066E: DC 3F          LDD     <$3F
10670: C3 01 40       ADDD    #$0140
10673: 10 A3 62       CMPD    2,S
L10676:
10676: 32 64          LEAS    4,S
10678: 39             RTS
10679: 34 34          PSHS    B,X,Y
1067B: 32 7B          LEAS    -5,S
L1067D:
1067D: BD 45 62       JSR     $4562
10680: 96 00          LDA     <$00
10682: 1F 89          TFR     A,B
10684: 48             ASLA
10685: 48             ASLA
10686: 48             ASLA
10687: 84 08          ANDA    #$08
10689: 97 00          STA     <$00
1068B: 58             ASLB
1068C: C4 04          ANDB    #$04
1068E: DA 00          ORB     <$00
10690: D7 00          STB     <$00
10692: DC 01          LDD     <$01
10694: 10 93 03       CMPD    <$03
10697: 25 0F          BCS     $106A8
10699: 0C 00          INC     <$00
1069B: 0C 00          INC     <$00
1069D: 44             LSRA
1069E: 56             RORB
1069F: 10 93 03       CMPD    <$03
106A2: 24 0F          BCC     $106B3
106A4: 0C 00          INC     <$00
106A6: 20 0B          BRA     $106B3
L106A8:
106A8: DC 03          LDD     <$03
106AA: 44             LSRA
106AB: 56             RORB
106AC: 10 93 01       CMPD    <$01
106AF: 24 02          BCC     $106B3
106B1: 0C 00          INC     <$00
L106B3:
106B3: 10 8E 46 BF    LDY     #$46BF
106B7: D6 00          LDB     <$00
106B9: A6 A5          LDA     B,Y
106BB: 32 65          LEAS    5,S
106BD: 35 B4          PULS    B,X,Y,PC
106BF: 00 20          NEG     <$20
106C1: 40             NEGA
106C2: 20 80          BRA     $10644
106C4: 60 40          NEG     ,U
106C6: 60 00          NEG     ,X
106C8: E0 C0          SUBB    ,U+
106CA: E0 80          SUBB    ,X+
106CC: A0 C0          SUBA    ,U+
106CE: A0 34          SUBA    -12,Y
106D0: 66 32          ROR     -14,Y
106D2: 7F EE 88       CLR     $EE88
106D5: 2D A6          BLT     $1067D
106D7: 02             FCB     $02
106D8: 84 7F          ANDA    #$7F
106DA: 81 7F          CMPA    #$7F
106DC: 10 27 00 7F    LBEQ    $1075F
106E0: 10 8E 02 81    LDY     #$0281
106E4: B6 03 A1       LDA     $03A1
106E7: 81 10          CMPA    #$10
106E9: 10 24 00 72    LBCC    $1075F
106ED: C6 08          LDB     #$08
106EF: 3D             MUL
106F0: 31 AB          LEAY    D,Y
106F2: A6 88 16       LDA     22,X
106F5: 84 06          ANDA    #$06
106F7: 27 0C          BEQ     $10705
106F9: E6 41          LDB     1,U
106FB: E7 A4          STB     ,Y
106FD: 84 02          ANDA    #$02
106FF: 27 08          BEQ     $10709
10701: A6 42          LDA     2,U
10703: 20 06          BRA     $1070B
L10705:
10705: A6 01          LDA     1,X
10707: A7 A4          STA     ,Y
L10709:
10709: A6 02          LDA     2,X
L1070B:
1070B: A7 21          STA     1,Y
1070D: EC 04          LDD     4,X
1070F: ED 22          STD     2,Y
10711: EC 06          LDD     6,X
10713: ED 24          STD     4,Y
10715: EC 08          LDD     8,X
10717: ED 26          STD     6,Y
10719: A6 88 1B       LDA     27,X
1071C: 84 3F          ANDA    #$3F
1071E: 81 06          CMPA    #$06
10720: 27 16          BEQ     $10738
10722: 81 0A          CMPA    #$0A
10724: 27 12          BEQ     $10738
10726: 81 08          CMPA    #$08
10728: 27 0E          BEQ     $10738
1072A: 86 07          LDA     #$07
1072C: 26 22          BNE     $10750
1072E: A6 01          LDA     1,X
10730: 81 04          CMPA    #$04
10732: 27 04          BEQ     $10738
10734: 81 06          CMPA    #$06
10736: 26 18          BNE     $10750
L10738:
10738: A6 01          LDA     1,X
1073A: 81 02          CMPA    #$02
1073C: 25 08          BCS     $10746
1073E: A6 41          LDA     1,U
10740: 81 01          CMPA    #$01
10742: 26 0C          BNE     $10750
10744: 27 04          BEQ     $1074A
L10746:
10746: 81 00          CMPA    #$00
10748: 27 06          BEQ     $10750
L1074A:
1074A: A6 A4          LDA     ,Y
1074C: 8A 80          ORA     #$80
1074E: A7 A4          STA     ,Y
L10750:
10750: CE 03 81       LDU     #$0381
10753: B6 03 A1       LDA     $03A1
10756: C6 02          LDB     #$02
10758: 3D             MUL
10759: 10 AF CB       STY     D,U
1075C: 7C 03 A1       INC     $03A1
L1075F:
1075F: 32 61          LEAS    1,S
10761: 35 E6          PULS    A,B,Y,U,PC
10763: 34 36          PSHS    A,B,X,Y
10765: D6 35          LDB     <$35
10767: C1 04          CMPB    #$04
10769: 24 07          BCC     $10772
1076B: 8E 00 31       LDX     #$0031
1076E: A7 85          STA     B,X
10770: 0C 35          INC     <$35
L10772:
10772: 35 B6          PULS    A,B,X,Y,PC
10774: CC 00 00       LDD     #$0000
10777: A3 0F          SUBD    15,X
10779: ED 0F          STD     15,X
1077B: 39             RTS
1077C: 67 0F          ASR     15,X
1077E: 66 88 10       ROR     16,X
10781: 39             RTS
10782: A6 0F          LDA     15,X
10784: 2B 0A          BMI     $10790
10786: 81 01          CMPA    #$01
10788: 24 12          BCC     $1079C
1078A: CC 01 00       LDD     #$0100
1078D: ED 0F          STD     15,X
1078F: 39             RTS
L10790:
10790: EC 0F          LDD     15,X
10792: 83 00 00       SUBD    #$0000
10795: 25 05          BCS     $1079C
10797: CC FF 00       LDD     #$FF00
1079A: ED 0F          STD     15,X
L1079C:
1079C: 39             RTS
1079D: 34 7E          PSHS    A,B,DP,X,Y,U
1079F: 97 00          STA     <$00
107A1: D6 00          LDB     <$00
107A3: 58             ASLB
107A4: 58             ASLB
107A5: DB 00          ADDB    <$00
107A7: DB 00          ADDB    <$00
107A9: 4F             CLRA
107AA: 10 8E 47 C7    LDY     #$47C7
107AE: 31 AB          LEAY    D,Y
107B0: EC A1          LDD     ,Y++
107B2: ED 88 11       STD     17,X
107B5: EC A1          LDD     ,Y++
107B7: ED 0F          STD     15,X
107B9: EC A1          LDD     ,Y++
107BB: ED 0D          STD     13,X
107BD: A6 84          LDA     ,X
107BF: 84 F0          ANDA    #$F0
107C1: 8A 02          ORA     #$02
107C3: A7 84          STA     ,X
107C5: 35 FE          PULS    A,B,DP,X,Y,U,PC
107C7: 01             FCB     $01
107C8: 00 01          NEG     <$01
107CA: 00 00          NEG     <$00
107CC: 90 01          SUBA    <$01
107CE: 00 FF          NEG     <$FF
107D0: 00 00          NEG     <$00
107D2: 90 01          SUBA    <$01
107D4: 00 00          NEG     <$00
107D6: 00 00          NEG     <$00
107D8: 90 08          SUBA    <$08
107DA: 00 03          NEG     <$03
107DC: 00 00          NEG     <$00
107DE: C0 01          SUBB    #$01
107E0: 00 00          NEG     <$00
107E2: 00 00          NEG     <$00
107E4: 90 06          SUBA    <$06
107E6: 00 02          NEG     <$02
107E8: 00 00          NEG     <$00
107EA: 90 01          SUBA    <$01
107EC: 00 03          NEG     <$03
107EE: 00 00          NEG     <$00
107F0: 90 00          SUBA    <$00
107F2: 00 00          NEG     <$00
107F4: 00 00          NEG     <$00
107F6: 50             NEGB
107F7: 0A 00          DEC     <$00
107F9: 02             FCB     $02
107FA: 00 00          NEG     <$00
107FC: D0 09          SUBB    <$09
107FE: 00 02          NEG     <$02
10800: 00 01          NEG     <$01
10802: 00 07          NEG     <$07
10804: 00 00          NEG     <$00
10806: 00 00          NEG     <$00
10808: E0 09          SUBB    9,X
1080A: F0 02 00       SUBB    $0200
1080D: 01             FCB     $01
1080E: 00 07          NEG     <$07
10810: 00 00          NEG     <$00
10812: 00 00          NEG     <$00
10814: E0 07          SUBB    7,X
10816: 00 00          NEG     <$00
10818: 00 00          NEG     <$00
1081A: E0 00          SUBB    ,X
1081C: 00 01          NEG     <$01
1081E: 80 00          SUBA    #$00
10820: 50             NEGB
10821: 02             FCB     $02
10822: 00 08          NEG     <$08
10824: 00 00          NEG     <$00
10826: A0 34          SUBA    -12,Y
10828: 1F 35          TFR     U,PC
1082A: 9F 34          STX     <$34
1082C: 37 8E          PULU    A,B,DP,PC
1082E: 00 61          NEG     <$61
L10830:
10830: 6D 84          TST     ,X
10832: 26 12          BNE     $10846
10834: A7 84          STA     ,X
10836: E7 01          STB     1,X
10838: 84 40          ANDA    #$40
1083A: 27 12          BEQ     $1084E
1083C: A6 64          LDA     4,S
1083E: A7 02          STA     2,X
10840: A6 66          LDA     6,S
10842: A7 03          STA     3,X
10844: 35 B7          PULS    CC,A,B,X,Y,PC
L10846:
10846: C6 04          LDB     #$04
10848: 3A             ABX
10849: 8C 00 81       CMPX    #$0081
1084C: 25 E2          BCS     $10830
L1084E:
1084E: 35 B7          PULS    CC,A,B,X,Y,PC
10850: 10 83 00 00    CMPD    #$0000
10854: 27 2D          BEQ     $10883
10856: 10 8C 00 00    CMPY    #$0000
1085A: 27 27          BEQ     $10883
1085C: 32 7B          LEAS    -5,S
1085E: ED E4          STD     ,S
10860: 10 AF 62       STY     2,S
10863: 86 10          LDA     #$10
10865: A7 64          STA     4,S
10867: 4F             CLRA
10868: 5F             CLRB
L10869:
10869: 68 61          ASL     1,S
1086B: 69 E4          ROL     ,S
1086D: 59             ROLB
1086E: 49             ROLA
1086F: 10 A3 62       CMPD    2,S
10872: 25 04          BCS     $10878
10874: A3 62          SUBD    2,S
10876: 6C 61          INC     1,S
L10878:
10878: 6A 64          DEC     4,S
1087A: 26 ED          BNE     $10869
1087C: 1F 02          TFR     D,Y
1087E: EC E4          LDD     ,S
10880: 32 65          LEAS    5,S
10882: 39             RTS
L10883:
10883: 8E 00 00       LDX     #$0000
10886: CC 00 00       LDD     #$0000
10889: 39             RTS
1088A: 8C 00 00       CMPX    #$0000
1088D: 27 29          BEQ     $108B8
1088F: C1 00          CMPB    #$00
10891: 27 25          BEQ     $108B8
10893: 32 71          LEAS    -15,S
10895: AF E4          STX     ,S
10897: E7 62          STB     2,S
10899: 86 10          LDA     #$10
1089B: A7 63          STA     3,S
1089D: 4F             CLRA
1089E: 5F             CLRB
L1089F:
1089F: 68 61          ASL     1,S
108A1: 69 E4          ROL     ,S
108A3: 59             ROLB
108A4: 49             ROLA
108A5: E1 62          CMPB    2,S
108A7: 25 04          BCS     $108AD
108A9: E0 62          SUBB    2,S
108AB: 6C 61          INC     1,S
L108AD:
108AD: 6A 63          DEC     3,S
108AF: 26 EE          BNE     $1089F
108B1: 1F 02          TFR     D,Y
108B3: AE E4          LDX     ,S
108B5: 32 6F          LEAS    15,S
108B7: 39             RTS
L108B8:
108B8: 8E 00 00       LDX     #$0000
108BB: 10 8E 00 00    LDY     #$0000
108BF: 39             RTS
108C0: 81 00          CMPA    #$00
108C2: 27 28          BEQ     $108EC
108C4: C1 00          CMPB    #$00
108C6: 27 24          BEQ     $108EC
108C8: 32 71          LEAS    -15,S
108CA: A7 E4          STA     ,S
108CC: E7 61          STB     1,S
108CE: 86 08          LDA     #$08
108D0: A7 62          STA     2,S
108D2: 6F 63          CLR     3,S
108D4: 4F             CLRA
L108D5:
108D5: 68 63          ASL     3,S
108D7: 58             ASLB
108D8: 49             ROLA
108D9: A1 E4          CMPA    ,S
108DB: 25 04          BCS     $108E1
108DD: A0 E4          SUBA    ,S
108DF: 6C 63          INC     3,S
L108E1:
108E1: 6A 62          DEC     2,S
108E3: 26 F0          BNE     $108D5
108E5: 1F 89          TFR     A,B
108E7: A6 63          LDA     3,S
108E9: 32 6F          LEAS    15,S
108EB: 39             RTS
L108EC:
108EC: 4F             CLRA
108ED: 5F             CLRB
108EE: 39             RTS
108EF: 8C 00 00       CMPX    #$0000
108F2: 27 43          BEQ     $10937
108F4: 10 8C 00 00    CMPY    #$0000
108F8: 27 3D          BEQ     $10937
108FA: 32 71          LEAS    -15,S
108FC: 6F 64          CLR     4,S
108FE: 6F 65          CLR     5,S
10900: 6F 66          CLR     6,S
10902: 6F 67          CLR     7,S
10904: AF E4          STX     ,S
10906: 10 AF 62       STY     2,S
10909: A6 61          LDA     1,S
1090B: E6 63          LDB     3,S
1090D: 3D             MUL
1090E: ED 66          STD     6,S
10910: A6 E4          LDA     ,S
10912: E6 63          LDB     3,S
10914: 3D             MUL
10915: E3 65          ADDD    5,S
10917: ED 65          STD     5,S
10919: A6 61          LDA     1,S
1091B: E6 62          LDB     2,S
1091D: 3D             MUL
1091E: E3 65          ADDD    5,S
10920: ED 65          STD     5,S
10922: 24 02          BCC     $10926
10924: 6C 64          INC     4,S
L10926:
10926: A6 E4          LDA     ,S
10928: E6 62          LDB     2,S
1092A: 3D             MUL
1092B: E3 64          ADDD    4,S
1092D: ED 64          STD     4,S
1092F: 10 AE 64       LDY     4,S
10932: AE 66          LDX     6,S
10934: 32 6F          LEAS    15,S
10936: 39             RTS
L10937:
10937: 8E 00 00       LDX     #$0000
1093A: 10 8E 00 00    LDY     #$0000
1093E: 39             RTS
1093F: D6 38          LDB     <$38
10941: 26 0C          BNE     $1094F
10943: 7F 0B 12       CLR     $0B12
10946: 7F 0B BF       CLR     $0BBF
10949: 7F 0B AE       CLR     $0BAE
1094C: 7F 0B A9       CLR     $0BA9
L1094F:
1094F: 0F 00          CLR     <$00
10951: 7F 0B DF       CLR     $0BDF
10954: 7F 0B 79       CLR     $0B79
10957: 7F 0B A9       CLR     $0BA9
1095A: 7F 0F 66       CLR     $0F66
1095D: 7F 0B B8       CLR     $0BB8
10960: 7F 0B CE       CLR     $0BCE
10963: 7F 0B D1       CLR     $0BD1
10966: 7F 0B D6       CLR     $0BD6
10969: 7F 0B D8       CLR     $0BD8
1096C: 7F 0B D9       CLR     $0BD9
1096F: 7F 0B DA       CLR     $0BDA
10972: 7F 0B DB       CLR     $0BDB
10975: 7F 0B DC       CLR     $0BDC
10978: 7F 0B DE       CLR     $0BDE
1097B: 7F 0F 7D       CLR     $0F7D
1097E: 7F 0B DD       CLR     $0BDD
10981: 7F 0F 82       CLR     $0F82
10984: 7F 0F 8E       CLR     $0F8E
10987: 7F 0F 8F       CLR     $0F8F
1098A: 7F 0F 90       CLR     $0F90
1098D: BD 4A 0B       JSR     $4A0B
10990: 39             RTS
10991: 8D 64          BSR     $109F7
10993: B6 0B C0       LDA     $0BC0
10996: 84 C0          ANDA    #$C0
10998: 81 C0          CMPA    #$C0
1099A: 27 08          BEQ     $109A4
1099C: 8E 49 A5       LDX     #$49A5
1099F: 96 36          LDA     <$36
109A1: 48             ASLA
109A2: AD 96          JSR     [A,X]
L109A4:
109A4: 39             RTS
109A5: 49             ROLA
109A6: AD 49          JSR     9,U
109A8: B7 49 C4       STA     $49C4
109AB: 49             ROLA
109AC: D7 BD          STB     <$BD
109AE: 4C             INCA
109AF: 46             RORA
109B0: BD 4D F7       JSR     $4DF7
109B3: BD 52 DF       JSR     $52DF
109B6: 39             RTS
109B7: BD 4C 4B       JSR     $4C4B
109BA: BD FE 73       JSR     $FE73
109BD: BD 53 EC       JSR     $53EC
109C0: BD 50 8F       JSR     $508F
109C3: 39             RTS
109C4: BD 4C 50       JSR     $4C50
109C7: BD 56 B7       JSR     $56B7
109CA: BD 4F F4       JSR     $4FF4
109CD: BD 52 75       JSR     $5275
109D0: BD 51 3A       JSR     $513A
109D3: BD 52 DF       JSR     $52DF
109D6: 39             RTS
109D7: BD 4C 55       JSR     $4C55
109DA: BD 50 B9       JSR     $50B9
109DD: 96 37          LDA     <$37
109DF: 27 09          BEQ     $109EA
109E1: 86 0A          LDA     #$0A
109E3: 97 4B          STA     <$4B
109E5: BD 51 99       JSR     $5199
109E8: 20 0C          BRA     $109F6
L109EA:
109EA: DC 3C          LDD     <$3C
109EC: 10 83 16 00    CMPD    #$1600
109F0: 25 04          BCS     $109F6
109F2: 86 06          LDA     #$06
109F4: 97 4B          STA     <$4B
L109F6:
109F6: 39             RTS
L109F7:
109F7: 7D 0A AC       TST     $0AAC
109FA: 2A 03          BPL     $109FF
109FC: 7F 0A AC       CLR     $0AAC
L109FF:
109FF: 39             RTS
10A00: 7D 0B 11       TST     $0B11
10A03: 27 25          BEQ     $10A2A
10A05: 7F 0B 11       CLR     $0B11
10A08: 7C 0B 12       INC     $0B12
10A0B: 8E 4B 85       LDX     #$4B85
10A0E: D6 36          LDB     <$36
10A10: 58             ASLB
10A11: AE 85          LDX     B,X
10A13: 86 05          LDA     #$05
10A15: F6 0B 12       LDB     $0B12
10A18: 3D             MUL
10A19: 30 8B          LEAX    D,X
10A1B: A6 80          LDA     ,X+
10A1D: B7 0B 13       STA     $0B13
10A20: EC 81          LDD     ,X++
10A22: FD 0B 14       STD     $0B14
10A25: EC 81          LDD     ,X++
10A27: FD 0B 16       STD     $0B16
L10A2A:
10A2A: 39             RTS
10A2B: F6 0B 13       LDB     $0B13
10A2E: C1 00          CMPB    #$00
10A30: 26 08          BNE     $10A3A
10A32: CC 00 00       LDD     #$0000
10A35: FD 0A FF       STD     $0AFF
10A38: 20 37          BRA     $10A71
L10A3A:
10A3A: F6 0B 13       LDB     $0B13
10A3D: C1 01          CMPB    #$01
10A3F: 26 0D          BNE     $10A4E
10A41: 7D 0A FF       TST     $0AFF
10A44: 2A 2B          BPL     $10A71
10A46: CC 00 00       LDD     #$0000
10A49: FD 0A FF       STD     $0AFF
10A4C: 20 23          BRA     $10A71
L10A4E:
10A4E: F6 0B 13       LDB     $0B13
10A51: C1 02          CMPB    #$02
10A53: 26 0D          BNE     $10A62
10A55: 7D 0A FF       TST     $0AFF
10A58: 2B 17          BMI     $10A71
10A5A: CC 00 00       LDD     #$0000
10A5D: FD 0A FF       STD     $0AFF
10A60: 20 0F          BRA     $10A71
L10A62:
10A62: F6 0B 13       LDB     $0B13
10A65: C1 04          CMPB    #$04
10A67: 26 08          BNE     $10A71
10A69: 8E 4A 72       LDX     #$4A72
10A6C: D6 36          LDB     <$36
10A6E: 58             ASLB
10A6F: AD 95          JSR     [B,X]
L10A71:
10A71: 39             RTS
10A72: 4A             DECA
10A73: 7A 4A 98       DEC     $4A98
10A76: 4A             DECA
10A77: F4 4B 35       ANDB    $4B35
10A7A: CC 00 00       LDD     #$0000
10A7D: FD 0A FF       STD     $0AFF
10A80: FD 0B 01       STD     $0B01
10A83: FC 0B 1C       LDD     $0B1C
10A86: 10 83 04 00    CMPD    #$0400
10A8A: 24 08          BCC     $10A94
10A8C: CC FE 00       LDD     #$FE00
10A8F: FD 0B 01       STD     $0B01
10A92: 20 03          BRA     $10A97
L10A94:
10A94: 7F 0B 13       CLR     $0B13
L10A97:
10A97: 39             RTS
10A98: CC 00 00       LDD     #$0000
10A9B: FD 0A FF       STD     $0AFF
10A9E: FD 0B 01       STD     $0B01
10AA1: FC 0B 1C       LDD     $0B1C
10AA4: 10 83 08 00    CMPD    #$0800
10AA8: 24 08          BCC     $10AB2
10AAA: CC 01 00       LDD     #$0100
10AAD: FD 0A FF       STD     $0AFF
10AB0: 20 41          BRA     $10AF3
L10AB2:
10AB2: B6 0B BF       LDA     $0BBF
10AB5: 2B 05          BMI     $10ABC
10AB7: 8A 80          ORA     #$80
10AB9: B7 0B BF       STA     $0BBF
L10ABC:
10ABC: FC 0B 1F       LDD     $0B1F
10ABF: 10 83 02 70    CMPD    #$0270
10AC3: 23 08          BLS     $10ACD
10AC5: CC FF 00       LDD     #$FF00
10AC8: FD 0B 01       STD     $0B01
10ACB: 20 26          BRA     $10AF3
L10ACD:
10ACD: FC 0B 1C       LDD     $0B1C
10AD0: 10 83 08 00    CMPD    #$0800
10AD4: 25 1D          BCS     $10AF3
10AD6: B6 0E F6       LDA     $0EF6
10AD9: 84 03          ANDA    #$03
10ADB: 81 03          CMPA    #$03
10ADD: 26 14          BNE     $10AF3
10ADF: FC 0B 1F       LDD     $0B1F
10AE2: 10 83 01 80    CMPD    #$0180
10AE6: 23 08          BLS     $10AF0
10AE8: CC FF 00       LDD     #$FF00
10AEB: FD 0B 01       STD     $0B01
10AEE: 20 03          BRA     $10AF3
L10AF0:
10AF0: 7F 0B 13       CLR     $0B13
L10AF3:
10AF3: 39             RTS
10AF4: CC 00 00       LDD     #$0000
10AF7: FD 0A FF       STD     $0AFF
10AFA: FD 0B 01       STD     $0B01
10AFD: FC 0B 1C       LDD     $0B1C
10B00: 10 83 0F 00    CMPD    #$0F00
10B04: 24 08          BCC     $10B0E
10B06: CC 01 00       LDD     #$0100
10B09: FD 0A FF       STD     $0AFF
10B0C: 20 26          BRA     $10B34
L10B0E:
10B0E: B6 0E F6       LDA     $0EF6
10B11: 84 03          ANDA    #$03
10B13: 81 03          CMPA    #$03
10B15: 26 1D          BNE     $10B34
10B17: CC 01 00       LDD     #$0100
10B1A: FD 0B 01       STD     $0B01
10B1D: FC 0B 1F       LDD     $0B1F
10B20: 10 83 03 00    CMPD    #$0300
10B24: 24 08          BCC     $10B2E
10B26: CC 01 00       LDD     #$0100
10B29: FD 0B 01       STD     $0B01
10B2C: 20 06          BRA     $10B34
L10B2E:
10B2E: 7F 0B 13       CLR     $0B13
10B31: 73 0B 11       COM     $0B11
L10B34:
10B34: 39             RTS
10B35: 39             RTS
10B36: FC 0B 1C       LDD     $0B1C
10B39: 10 83 1A 05    CMPD    #$1A05
10B3D: 23 08          BLS     $10B47
10B3F: CC FE 00       LDD     #$FE00
10B42: FD 0A FF       STD     $0AFF
10B45: 20 03          BRA     $10B4A
L10B47:
10B47: 73 0B 11       COM     $0B11
L10B4A:
10B4A: 39             RTS
10B4B: F6 0B 13       LDB     $0B13
10B4E: C1 01          CMPB    #$01
10B50: 26 05          BNE     $10B57
10B52: BD 4B 6B       JSR     $4B6B
10B55: 20 13          BRA     $10B6A
L10B57:
10B57: C1 02          CMPB    #$02
10B59: 26 05          BNE     $10B60
10B5B: BD 4B 78       JSR     $4B78
10B5E: 20 0A          BRA     $10B6A
L10B60:
10B60: C1 03          CMPB    #$03
10B62: 26 06          BNE     $10B6A
10B64: BD 4B 6B       JSR     $4B6B
10B67: BD 4B 78       JSR     $4B78
L10B6A:
10B6A: 39             RTS
10B6B: FC 0B 16       LDD     $0B16
10B6E: 10 B3 0B 03    CMPD    $0B03
10B72: 24 03          BCC     $10B77
10B74: FD 0B 03       STD     $0B03
L10B77:
10B77: 39             RTS
10B78: FC 0B 14       LDD     $0B14
10B7B: 10 B3 0B 03    CMPD    $0B03
10B7F: 23 03          BLS     $10B84
10B81: FD 0B 03       STD     $0B03
L10B84:
10B84: 39             RTS
10B85: 4B             FCB     $4B
10B86: 8D 4B          BSR     $10BD3
10B88: B0 4B CE       SUBA    $4BCE
10B8B: 4C             INCA
10B8C: 19             DAA
10B8D: 01             FCB     $01
10B8E: 00 00          NEG     <$00
10B90: 00 80          NEG     <$80
10B92: 00 00          NEG     <$00
10B94: 00 FF          NEG     <$FF
10B96: FF 01 00       STU     $0100
10B99: 80 02          SUBA    #$02
10B9B: 40             NEGA
10B9C: 00 00          NEG     <$00
10B9E: 00 FF          NEG     <$FF
10BA0: FF 01 02       STU     $0102
10BA3: 40             NEGA
10BA4: 04 00          LSR     <$00
10BA6: 04 00          LSR     <$00
10BA8: 00 FF          NEG     <$FF
10BAA: FF FF 00       STU     $FF00
10BAD: 00 FF          NEG     <$FF
10BAF: FF 01 05       STU     $0105
10BB2: 00 FF          NEG     <$FF
10BB4: FF 03 05       STU     $0305
10BB7: 7C 06 1E       INC     $061E
10BBA: 03 05          COM     <$05
10BBC: 7C FF FF       INC     $FFFF
10BBF: 03 07          COM     <$07
10BC1: 50             NEGB
10BC2: 07 C0          ASR     <$C0
10BC4: 04 00          LSR     <$00
10BC6: 00 FF          NEG     <$FF
10BC8: FF FF 00       STU     $FF00
10BCB: 00 FF          NEG     <$FF
10BCD: FF 01 08       STU     $0108
10BD0: 00 08          NEG     <$08
10BD2: 10 00          FCB     $10,$00
10BD4: 00 00          NEG     <$00
10BD6: FF FF 01       STU     $FF01
10BD9: 08 10          ASL     <$10
10BDB: 09 10          ROL     <$10
10BDD: 00 00          NEG     <$00
10BDF: 00 FF          NEG     <$FF
10BE1: FF 01 09       STU     $0109
10BE4: 10 0A          FCB     $10,$0A
10BE6: 80 00          SUBA    #$00
10BE8: 00 00          NEG     <$00
10BEA: FF FF 01       STU     $FF01
10BED: 0A 80          DEC     <$80
10BEF: 0C 00          INC     <$00
10BF1: 00 00          NEG     <$00
10BF3: 00 FF          NEG     <$FF
10BF5: FF 01 0C       STU     $010C
10BF8: 00 0E          NEG     <$0E
10BFA: 00 00          NEG     <$00
10BFC: 00 00          NEG     <$00
10BFE: FF FF 01       STU     $FF01
10C01: 0E 00          JMP     <$00
10C03: 0F 00          CLR     <$00
10C05: 00 00          NEG     <$00
10C07: 00 FF          NEG     <$FF
10C09: FF 04 00       STU     $0400
10C0C: 00 FF          NEG     <$FF
10C0E: FF 01 00       STU     $0100
10C11: 00 10          NEG     <$10
10C13: 82 00          SBCA    #$00
10C15: 00 00          NEG     <$00
10C17: FF FF 01       STU     $FF01
10C1A: 00 00          NEG     <$00
10C1C: 13             SYNC
10C1D: 00 00          NEG     <$00
10C1F: 00 00          NEG     <$00
10C21: FF FF 01       STU     $FF01
10C24: 13             SYNC
10C25: 00 14          NEG     <$14
10C27: F0 01 14       SUBB    $0114
10C2A: 60 15          NEG     -11,X
10C2C: 00 01          NEG     <$01
10C2E: 14             FCB     $14
10C2F: B0 16 00       SUBA    $1600
10C32: 03 16          COM     <$16
10C34: 00 16          NEG     <$16
10C36: A0 04          SUBA    4,X
10C38: 00 00          NEG     <$00
10C3A: FF FF 00       STU     $FF00
10C3D: 00 00          NEG     <$00
10C3F: FF FF FF       STU     $FFFF
10C42: 00 00          NEG     <$00
10C44: FF FF 8E       STU     $FF8E
10C47: 4C             INCA
10C48: 64 20          LSR     ,Y
10C4A: 0F 8E          CLR     <$8E
10C4C: 4C             INCA
10C4D: 70 20 0A       NEG     $200A
10C50: 8E 4C 7A       LDX     #$4C7A
10C53: 20 05          BRA     $10C5A
10C55: 8E 4C 98       LDX     #$4C98
10C58: 20 00          BRA     $10C5A
L10C5A:
10C5A: BD 4D BD       JSR     $4DBD
10C5D: F6 0B 12       LDB     $0B12
10C60: 58             ASLB
10C61: AD 95          JSR     [B,X]
10C63: 39             RTS
10C64: 4C             INCA
10C65: A8 4C          EORA    12,U
10C67: B4 4C CE       ANDA    $4CCE
10C6A: 4C             INCA
10C6B: B4 7B E5       ANDA    $7BE5
10C6E: 7B             FCB     $7B
10C6F: E5 4C          BITB    12,U
10C71: DA 4C          ORB     <$4C
10C73: B4 4C E7       ANDA    $4CE7
10C76: 7B             FCB     $7B
10C77: E5 7B          BITB    -5,S
10C79: E5 4C          BITB    12,U
10C7B: F4 4C B4       ANDB    $4CB4
10C7E: 4D             TSTA
10C7F: 01             FCB     $01
10C80: 4C             INCA
10C81: B4 4D 0E       ANDA    $4D0E
10C84: 4C             INCA
10C85: B4 4D 1B       ANDA    $4D1B
10C88: 4C             INCA
10C89: B4 4D 28       ANDA    $4D28
10C8C: 4C             INCA
10C8D: B4 4D 3B       ANDA    $4D3B
10C90: 4D             TSTA
10C91: 48             ASLA
10C92: 7B             FCB     $7B
10C93: E5 4D          BITB    13,U
10C95: 63 7B          COM     -5,S
10C97: E5 4D          BITB    13,U
10C99: 70 4D 7D       NEG     $4D7D
10C9C: 4D             TSTA
10C9D: 86 4D          LDA     #$4D
10C9F: 9E 4D          LDX     <$4D
10CA1: AF 4D          STX     13,U
10CA3: BC 7B E5       CMPX    $7BE5
10CA6: 7B             FCB     $7B
10CA7: E5 DC 3C       BITB    [$10CE6,PCR]
10CAA: 10 83 00 80    CMPD    #$0080
10CAE: 25 03          BCS     $10CB3
10CB0: 73 0B 11       COM     $0B11
L10CB3:
10CB3: 39             RTS
10CB4: B6 0A AC       LDA     $0AAC
10CB7: 27 04          BEQ     $10CBD
10CB9: 2B 02          BMI     $10CBD
10CBB: 20 10          BRA     $10CCD
L10CBD:
10CBD: 7F 0A AC       CLR     $0AAC
10CC0: 73 0B 11       COM     $0B11
10CC3: 0C 38          INC     <$38
10CC5: 86 01          LDA     #$01
10CC7: B7 0F 64       STA     $0F64
10CCA: 7F 0B DC       CLR     $0BDC
L10CCD:
10CCD: 39             RTS
10CCE: DC 3C          LDD     <$3C
10CD0: 10 83 02 40    CMPD    #$0240
10CD4: 25 03          BCS     $10CD9
10CD6: 73 0B 11       COM     $0B11
L10CD9:
10CD9: 39             RTS
10CDA: FC 0B 1C       LDD     $0B1C
10CDD: 10 83 05 7C    CMPD    #$057C
10CE1: 25 03          BCS     $10CE6
10CE3: 73 0B 11       COM     $0B11
L10CE6:
10CE6: 39             RTS
10CE7: FC 0B 1C       LDD     $0B1C
10CEA: 10 83 07 50    CMPD    #$0750
10CEE: 25 03          BCS     $10CF3
10CF0: 73 0B 11       COM     $0B11
L10CF3:
10CF3: 39             RTS
10CF4: FC 0B 1C       LDD     $0B1C
10CF7: 10 83 08 10    CMPD    #$0810
10CFB: 25 03          BCS     $10D00
10CFD: 73 0B 11       COM     $0B11
L10D00:
10D00: 39             RTS
10D01: FC 0B 1C       LDD     $0B1C
10D04: 10 83 09 10    CMPD    #$0910
10D08: 25 03          BCS     $10D0D
10D0A: 73 0B 11       COM     $0B11
L10D0D:
10D0D: 39             RTS
10D0E: FC 0B 1C       LDD     $0B1C
10D11: 10 83 0A 80    CMPD    #$0A80
10D15: 25 F6          BCS     $10D0D
10D17: 73 0B 11       COM     $0B11
10D1A: 39             RTS
10D1B: FC 0B 1C       LDD     $0B1C
10D1E: 10 83 0C 00    CMPD    #$0C00
10D22: 25 E9          BCS     $10D0D
10D24: 73 0B 11       COM     $0B11
10D27: 39             RTS
10D28: FC 0B 1C       LDD     $0B1C
10D2B: 10 83 0E 00    CMPD    #$0E00
10D2F: 25 DC          BCS     $10D0D
10D31: 7F 0B A9       CLR     $0BA9
10D34: 7F 0E F6       CLR     $0EF6
10D37: 73 0B 11       COM     $0B11
10D3A: 39             RTS
10D3B: FC 0B 1C       LDD     $0B1C
10D3E: 10 83 0F 00    CMPD    #$0F00
10D42: 25 C9          BCS     $10D0D
10D44: 73 0B 11       COM     $0B11
10D47: 39             RTS
10D48: 7D 0A AC       TST     $0AAC
10D4B: 27 04          BEQ     $10D51
10D4D: 2B 02          BMI     $10D51
10D4F: 20 11          BRA     $10D62
L10D51:
10D51: 7F 0A AC       CLR     $0AAC
10D54: BD 4C C3       JSR     $4CC3
10D57: B6 0A AF       LDA     $0AAF
10D5A: 8A 80          ORA     #$80
10D5C: B7 0A AF       STA     $0AAF
10D5F: 73 0B 11       COM     $0B11
L10D62:
10D62: 39             RTS
10D63: FC 0B 1C       LDD     $0B1C
10D66: 10 83 10 82    CMPD    #$1082
10D6A: 25 03          BCS     $10D6F
10D6C: 73 0B 11       COM     $0B11
L10D6F:
10D6F: 39             RTS
10D70: FC 0B 1C       LDD     $0B1C
10D73: 10 83 13 00    CMPD    #$1300
10D77: 25 03          BCS     $10D7C
10D79: 73 0B 11       COM     $0B11
L10D7C:
10D7C: 39             RTS
10D7D: B6 0A AC       LDA     $0AAC
10D80: 26 03          BNE     $10D85
10D82: 73 0B 11       COM     $0B11
L10D85:
10D85: 39             RTS
10D86: FC 0B 1F       LDD     $0B1F
10D89: 10 83 02 40    CMPD    #$0240
10D8D: 24 0E          BCC     $10D9D
10D8F: 0C 38          INC     <$38
10D91: 86 01          LDA     #$01
10D93: B7 0F 64       STA     $0F64
10D96: 86 05          LDA     #$05
10D98: 97 4B          STA     <$4B
10D9A: 73 0B 11       COM     $0B11
L10D9D:
10D9D: 39             RTS
10D9E: FC 0B 01       LDD     $0B01
10DA1: 2B 08          BMI     $10DAB
10DA3: 27 06          BEQ     $10DAB
10DA5: 7F 0B 01       CLR     $0B01
10DA8: 7F 0B 02       CLR     $0B02
L10DAB:
10DAB: BD 4C B4       JSR     $4CB4
10DAE: 39             RTS
10DAF: FC 0B 1C       LDD     $0B1C
10DB2: 10 83 16 00    CMPD    #$1600
10DB6: 25 C4          BCS     $10D7C
10DB8: 73 0B 11       COM     $0B11
10DBB: 39             RTS
10DBC: 39             RTS
10DBD: B6 0A AF       LDA     $0AAF
10DC0: 2B 34          BMI     $10DF6
10DC2: 96 36          LDA     <$36
10DC4: D6 38          LDB     <$38
10DC6: 10 83 00 02    CMPD    #$0002
10DCA: 27 2A          BEQ     $10DF6
10DCC: 10 83 01 01    CMPD    #$0101
10DD0: 27 24          BEQ     $10DF6
10DD2: 10 83 02 05    CMPD    #$0205
10DD6: 27 1E          BEQ     $10DF6
10DD8: 10 83 02 06    CMPD    #$0206
10DDC: 27 18          BEQ     $10DF6
10DDE: 10 83 03 02    CMPD    #$0302
10DE2: 24 12          BCC     $10DF6
10DE4: 7D 0B DC       TST     $0BDC
10DE7: 26 0D          BNE     $10DF6
10DE9: 7D 0A AC       TST     $0AAC
10DEC: 26 08          BNE     $10DF6
10DEE: 7C 0B DC       INC     $0BDC
10DF1: 86 01          LDA     #$01
10DF3: B7 0F 2A       STA     $0F2A
L10DF6:
10DF6: 39             RTS
10DF7: B6 0B B8       LDA     $0BB8
10DFA: 85 01          BITA    #$01
10DFC: 26 21          BNE     $10E1F
10DFE: 85 80          BITA    #$80
10E00: 26 03          BNE     $10E05
10E02: BD 4E 20       JSR     $4E20
L10E05:
10E05: 8E 4F D6       LDX     #$4FD6
10E08: 96 36          LDA     <$36
10E0A: 48             ASLA
10E0B: AE 86          LDX     A,X
10E0D: DC 3C          LDD     <$3C
10E0F: 10 A3 02       CMPD    2,X
10E12: 24 0B          BCC     $10E1F
10E14: C3 00 C0       ADDD    #$00C0
10E17: 10 A3 84       CMPD    ,X
10E1A: 25 03          BCS     $10E1F
10E1C: BD 4E 35       JSR     $4E35
L10E1F:
10E1F: 39             RTS
10E20: 7F 0B B9       CLR     $0BB9
10E23: 7F 0B BA       CLR     $0BBA
10E26: 7F 0B CC       CLR     $0BCC
10E29: 7F 0B CD       CLR     $0BCD
10E2C: 7F 0F 02       CLR     $0F02
10E2F: 86 80          LDA     #$80
10E31: B7 0B B8       STA     $0BB8
10E34: 39             RTS
10E35: 8E 4E 3F       LDX     #$4E3F
10E38: F6 0B B9       LDB     $0BB9
10E3B: 58             ASLB
10E3C: AD 95          JSR     [B,X]
10E3E: 39             RTS
10E3F: 4E             FCB     $4E
10E40: 49             ROLA
10E41: 4F             CLRA
10E42: 61             FCB     $61
10E43: 4F             CLRA
10E44: 9C 4F          CMPX    <$4F
10E46: B0 4F C5       SUBA    $4FC5
10E49: B6 0B BA       LDA     $0BBA
10E4C: 26 1D          BNE     $10E6B
10E4E: BD 4E 6F       JSR     $4E6F
10E51: 24 1B          BCC     $10E6E
10E53: 86 08          LDA     #$08
10E55: B7 0F 02       STA     $0F02
10E58: 86 80          LDA     #$80
10E5A: D6 36          LDB     <$36
10E5C: 27 02          BEQ     $10E60
10E5E: 8A 01          ORA     #$01
L10E60:
10E60: B7 0E F3       STA     $0EF3
10E63: 7C 0B B9       INC     $0BB9
10E66: 7F 0B BA       CLR     $0BBA
10E69: 20 03          BRA     $10E6E
L10E6B:
10E6B: 7A 0B BA       DEC     $0BBA
L10E6E:
10E6E: 39             RTS
10E6F: 32 78          LEAS    -8,S
10E71: 7F 0B CC       CLR     $0BCC
10E74: 10 8E 4F 22    LDY     #$4F22
10E78: 96 36          LDA     <$36
10E7A: 26 06          BNE     $10E82
10E7C: 10 8E 4F 3A    LDY     #$4F3A
10E80: 20 0A          BRA     $10E8C
L10E82:
10E82: BD 45 3C       JSR     $453C
10E85: 84 07          ANDA    #$07
10E87: C6 03          LDB     #$03
10E89: 3D             MUL
10E8A: 31 AB          LEAY    D,Y
L10E8C:
10E8C: 10 AF E4       STY     ,S
10E8F: 10 8E 4F 3D    LDY     #$4F3D
10E93: 96 36          LDA     <$36
10E95: 27 04          BEQ     $10E9B
10E97: 10 8E 4F 4F    LDY     #$4F4F
L10E9B:
10E9B: 10 AF 62       STY     2,S
10E9E: 86 01          LDA     #$01
10EA0: A7 64          STA     4,S
10EA2: 8E 04 60       LDX     #$0460
L10EA5:
10EA5: 6D 84          TST     ,X
10EA7: 2A 0A          BPL     $10EB3
10EA9: 30 88 63       LEAX    99,X
10EAC: 8C 07 78       CMPX    #$0778
10EAF: 26 F4          BNE     $10EA5
10EB1: 20 61          BRA     $10F14
L10EB3:
10EB3: 86 81          LDA     #$81
10EB5: A7 84          STA     ,X
10EB7: BD 5B 0B       JSR     $5B0B
10EBA: 10 AE E4       LDY     ,S
10EBD: A6 A0          LDA     ,Y+
10EBF: A7 01          STA     1,X
10EC1: BD 5C 58       JSR     $5C58
10EC4: 80 02          SUBA    #$02
10EC6: A7 88 17       STA     23,X
10EC9: 10 AF E4       STY     ,S
10ECC: 86 57          LDA     #$57
10ECE: A7 88 1B       STA     27,X
10ED1: 10 AE 62       LDY     2,S
10ED4: EC A1          LDD     ,Y++
10ED6: ED 04          STD     4,X
10ED8: EC A1          LDD     ,Y++
10EDA: ED 06          STD     6,X
10EDC: EC A1          LDD     ,Y++
10EDE: ED 08          STD     8,X
10EE0: 10 AF 62       STY     2,S
10EE3: A6 01          LDA     1,X
10EE5: BD 5B EC       JSR     $5BEC
10EE8: E7 88 1F       STB     31,X
10EEB: B6 0B CC       LDA     $0BCC
10EEE: 26 0C          BNE     $10EFC
10EF0: A6 88 17       LDA     23,X
10EF3: 81 08          CMPA    #$08
10EF5: 26 05          BNE     $10EFC
10EF7: 86 07          LDA     #$07
10EF9: BD 5B 5B       JSR     $5B5B
L10EFC:
10EFC: B6 0B CC       LDA     $0BCC
10EFF: 48             ASLA
10F00: 10 8E 0B C3    LDY     #$0BC3
10F04: 31 A6          LEAY    A,Y
10F06: AF A4          STX     ,Y
10F08: 7C 0A AC       INC     $0AAC
10F0B: 7C 0B CC       INC     $0BCC
10F0E: 6A 64          DEC     4,S
10F10: A6 64          LDA     4,S
10F12: 26 91          BNE     $10EA5
L10F14:
10F14: B6 0B CC       LDA     $0BCC
10F17: 27 04          BEQ     $10F1D
10F19: 1A 01          ORCC    #$01
10F1B: 20 02          BRA     $10F1F
L10F1D:
10F1D: 1C FE          ANDCC   #$FE
L10F1F:
10F1F: 32 68          LEAS    8,S
10F21: 39             RTS
10F22: 0A 09          DEC     <$09
10F24: 08 0A          ASL     <$0A
10F26: 09 08          ROL     <$08
10F28: 0A 08          DEC     <$08
10F2A: 09 0A          ROL     <$0A
10F2C: 08 09          ASL     <$09
10F2E: 0A 0A          DEC     <$0A
10F30: 09 0A          ROL     <$0A
10F32: 0A 09          DEC     <$09
10F34: 0A 0A          DEC     <$0A
10F36: 08 0A          ASL     <$0A
10F38: 09 09          ROL     <$09
10F3A: 04 04          LSR     <$04
10F3C: 04 02          LSR     <$02
10F3E: 78 01 20       ASL     $0120
10F41: 03 00          COM     <$00
10F43: 02             FCB     $02
10F44: 7B             FCB     $7B
10F45: 01             FCB     $01
10F46: 20 03          BRA     $10F4B
10F48: 00 02          NEG     <$02
10F4A: 75             FCB     $75
L10F4B:
10F4B: 01             FCB     $01
10F4C: 20 03          BRA     $10F51
10F4E: 00 09          NEG     <$09
10F50: 58             ASLB
L10F51:
10F51: 00 E0          NEG     <$E0
10F53: 01             FCB     $01
10F54: 00 09          NEG     <$09
10F56: 5B             FCB     $5B
10F57: 00 E0          NEG     <$E0
10F59: 01             FCB     $01
10F5A: 00 09          NEG     <$09
10F5C: 55             FCB     $55
10F5D: 00 E0          NEG     <$E0
10F5F: 01             FCB     $01
10F60: 00 B6          NEG     <$B6
10F62: 0E F4          JMP     <$F4
10F64: 85 01          BITA    #$01
10F66: 27 33          BEQ     $10F9B
10F68: B6 0B BA       LDA     $0BBA
10F6B: 26 21          BNE     $10F8E
10F6D: 8E 0B C3       LDX     #$0BC3
10F70: B6 0B CD       LDA     $0BCD
10F73: 48             ASLA
10F74: AE 86          LDX     A,X
10F76: A6 84          LDA     ,X
10F78: 8A 40          ORA     #$40
10F7A: A7 84          STA     ,X
10F7C: 7C 0B CD       INC     $0BCD
10F7F: B6 0B CD       LDA     $0BCD
10F82: B1 0B CC       CMPA    $0BCC
10F85: 27 0C          BEQ     $10F93
10F87: 86 20          LDA     #$20
10F89: B7 0B BA       STA     $0BBA
10F8C: 20 0D          BRA     $10F9B
L10F8E:
10F8E: 7A 0B BA       DEC     $0BBA
L10F91:
10F91: 20 08          BRA     $10F9B
L10F93:
10F93: 7C 0B B9       INC     $0BB9
10F96: 86 80          LDA     #$80
10F98: B7 0B BA       STA     $0BBA
L10F9B:
10F9B: 39             RTS
10F9C: 7A 0B BA       DEC     $0BBA
10F9F: 26 0E          BNE     $10FAF
10FA1: 86 40          LDA     #$40
10FA3: D6 36          LDB     <$36
10FA5: 27 02          BEQ     $10FA9
10FA7: 8A 01          ORA     #$01
L10FA9:
10FA9: B7 0E F3       STA     $0EF3
10FAC: 7C 0B B9       INC     $0BB9
L10FAF:
10FAF: 39             RTS
10FB0: B6 0E F4       LDA     $0EF4
10FB3: 85 01          BITA    #$01
10FB5: 26 0D          BNE     $10FC4
10FB7: 86 02          LDA     #$02
10FB9: B7 0F 02       STA     $0F02
10FBC: 86 FF          LDA     #$FF
10FBE: B7 0B BA       STA     $0BBA
10FC1: 7C 0B B9       INC     $0BB9
L10FC4:
10FC4: 39             RTS
10FC5: 7A 0B BA       DEC     $0BBA
10FC8: 26 0B          BNE     $10FD5
10FCA: 7F 0B B9       CLR     $0BB9
10FCD: B6 0B B8       LDA     $0BB8
10FD0: 8A 01          ORA     #$01
10FD2: B7 0B B8       STA     $0BB8
L10FD5:
10FD5: 39             RTS
10FD6: 4F             CLRA
10FD7: DE 4F          LDU     <$4F
10FD9: DE 4F          LDU     <$4F
10FDB: E4 4F          ANDB    15,U
10FDD: E4 02          ANDB    2,X
10FDF: 60 02          NEG     2,X
10FE1: 90 04          SUBA    <$04
10FE3: 20 09          BRA     $10FEE
10FE5: 70 09 A0       NEG     $09A0
10FE8: 01             FCB     $01
10FE9: E0 00          SUBB    ,X
10FEB: 40             NEGA
10FEC: 00 30          NEG     <$30
L10FEE:
10FEE: 00 20          NEG     <$20
10FF0: 00 10          NEG     <$10
10FF2: 00 00          NEG     <$00
10FF4: 34 30          PSHS    X,Y
10FF6: 96 38          LDA     <$38
10FF8: 81 02          CMPA    #$02
10FFA: 26 33          BNE     $1102F
10FFC: B6 0F 79       LDA     $0F79
10FFF: 2B 2E          BMI     $1102F
11001: B6 0F 79       LDA     $0F79
11004: 8A 80          ORA     #$80
11006: B7 0F 79       STA     $0F79
11009: BD 50 31       JSR     $5031
1100C: 10 8E 50 7B    LDY     #$507B
11010: BD 50 43       JSR     $5043
11013: BF 0F 0A       STX     $0F0A
11016: 6F 03          CLR     3,X
11018: BD 50 31       JSR     $5031
1101B: 10 8E 50 85    LDY     #$5085
1101F: BD 50 43       JSR     $5043
11022: BF 0F 0C       STX     $0F0C
11025: 86 80          LDA     #$80
11027: A7 03          STA     3,X
11029: 7C 0A AC       INC     $0AAC
1102C: 7C 0A AC       INC     $0AAC
L1102F:
1102F: 35 B0          PULS    X,Y,PC
L11031:
11031: 8E 04 60       LDX     #$0460
L11034:
11034: 6D 84          TST     ,X
11036: 2A 0A          BPL     $11042
11038: 30 88 63       LEAX    99,X
1103B: 8C 07 78       CMPX    #$0778
1103E: 26 F4          BNE     $11034
11040: 20 00          BRA     $11042
L11042:
11042: 39             RTS
L11043:
11043: A6 A4          LDA     ,Y
11045: A7 84          STA     ,X
11047: BD 5B 0B       JSR     $5B0B
1104A: A6 21          LDA     1,Y
1104C: A7 02          STA     2,X
1104E: A6 22          LDA     2,Y
11050: A7 88 17       STA     23,X
11053: 8B 02          ADDA    #$02
11055: A7 01          STA     1,X
11057: BD 5B EC       JSR     $5BEC
1105A: E7 88 1F       STB     31,X
1105D: A6 23          LDA     3,Y
1105F: A7 88 1B       STA     27,X
11062: EC 24          LDD     4,Y
11064: ED 04          STD     4,X
11066: EC 26          LDD     6,Y
11068: ED 06          STD     6,X
1106A: EC 28          LDD     8,Y
1106C: ED 08          STD     8,X
1106E: 6F 88 47       CLR     71,X
11071: 6F 88 46       CLR     70,X
11074: 6F 88 4A       CLR     74,X
11077: 6F 88 45       CLR     69,X
1107A: 39             RTS
1107B: 81 7F          CMPA    #$7F
1107D: 07 11          ASR     <$11
1107F: 0A 50          DEC     <$50
11081: 00 D6          NEG     <$D6
11083: 01             FCB     $01
11084: 10 81          FCB     $10,$81
11086: 7F 06 11       CLR     $0611
11089: 0A F0          DEC     <$F0
1108B: 00 D6          NEG     <$D6
1108D: 01             FCB     $01
1108E: 10 34          FCB     $10,$34
11090: 30 96          LEAX    [A,X]
11092: 38             FCB     $38
11093: 26 18          BNE     $110AD
11095: B6 0F 79       LDA     $0F79
11098: 2B 13          BMI     $110AD
1109A: 8A 80          ORA     #$80
1109C: B7 0F 79       STA     $0F79
1109F: 8D 90          BSR     $11031
110A1: 10 8E 50 AF    LDY     #$50AF
110A5: 8D 9C          BSR     $11043
110A7: BF 0F 0A       STX     $0F0A
110AA: 7C 0A AC       INC     $0AAC
L110AD:
110AD: 35 B0          PULS    X,Y,PC
110AF: 81 7F          CMPA    #$7F
110B1: 04 17          LSR     <$17
110B3: 04 28          LSR     <$28
110B5: 01             FCB     $01
110B6: 47             ASRA
110B7: 01             FCB     $01
110B8: 00 34          NEG     <$34
110BA: 30 96          LEAX    [A,X]
110BC: 38             FCB     $38
110BD: 81 01          CMPA    #$01
110BF: 26 59          BNE     $1111A
110C1: B6 0F 79       LDA     $0F79
110C4: 2B 54          BMI     $1111A
110C6: 8A 80          ORA     #$80
110C8: B7 0F 79       STA     $0F79
110CB: 17 FF 63       LBSR    $11031
110CE: 10 8E 51 1C    LDY     #$511C
110D2: 17 FF 6E       LBSR    $11043
110D5: 86 09          LDA     #$09
110D7: BD 5B 5B       JSR     $5B5B
110DA: BF 0F 0A       STX     $0F0A
110DD: 7C 0A AC       INC     $0AAC
110E0: 17 FF 4E       LBSR    $11031
110E3: 10 8E 51 26    LDY     #$5126
110E7: 17 FF 59       LBSR    $11043
110EA: 86 09          LDA     #$09
110EC: BD 5B 5B       JSR     $5B5B
110EF: BF 0F 0C       STX     $0F0C
L110F2:
110F2: 7C 0A AC       INC     $0AAC
110F5: 17 FF 39       LBSR    $11031
110F8: 10 8E 51 30    LDY     #$5130
110FC: 17 FF 44       LBSR    $11043
110FF: DC 3C          LDD     <$3C
11101: ED 04          STD     4,X
11103: 7C 0A AC       INC     $0AAC
11106: 17 FF 28       LBSR    $11031
11109: 10 8E 51 30    LDY     #$5130
1110D: 17 FF 33       LBSR    $11043
11110: DC 3C          LDD     <$3C
11112: C3 01 00       ADDD    #$0100
11115: ED 04          STD     4,X
11117: 7C 0A AC       INC     $0AAC
L1111A:
1111A: 35 B0          PULS    X,Y,PC
1111C: 81 7F          CMPA    #$7F
1111E: 09 17          ROL     <$17
11120: 15             FCB     $15
11121: 78 01 3D       ASL     $013D
11124: 01             FCB     $01
11125: 20 81          BRA     $110A8
11127: 7F 09 17       CLR     $0917
1112A: 15             FCB     $15
1112B: C8 01          EORB    #$01
1112D: 3D             MUL
1112E: 01             FCB     $01
1112F: 20 C1          BRA     $110F2
11131: 01             FCB     $01
11132: 06 00          ROR     <$00
11134: 00 00          NEG     <$00
11136: 01             FCB     $01
11137: 30 01          LEAX    1,X
11139: 20 34          BRA     $1116F
1113B: 30 96          LEAX    [A,X]
1113D: 38             FCB     $38
1113E: 81 06          CMPA    #$06
11140: 26 4B          BNE     $1118D
11142: B6 0F 7A       LDA     $0F7A
11145: 2B 46          BMI     $1118D
11147: DC 3C          LDD     <$3C
11149: 10 83 10 00    CMPD    #$1000
1114D: 25 3E          BCS     $1118D
1114F: B6 0A AC       LDA     $0AAC
11152: 81 01          CMPA    #$01
11154: 2E 37          BGT     $1118D
11156: 86 45          LDA     #$45
11158: BD 44 58       JSR     $4458
1115B: B6 0F 7A       LDA     $0F7A
1115E: 8A 80          ORA     #$80
11160: B7 0F 7A       STA     $0F7A
11163: 8E 07 78       LDX     #$0778
11166: 10 8E 51 8F    LDY     #$518F
1116A: 17 FE D6       LBSR    $11043
1116D: A6 88 17       LDA     23,X
11170: 8A 80          ORA     #$80
11172: A7 88 17       STA     23,X
11175: B6 0A AF       LDA     $0AAF
11178: 8A 01          ORA     #$01
1117A: B7 0A AF       STA     $0AAF
1117D: BF 0F 0A       STX     $0F0A
11180: 7C 0A AC       INC     $0AAC
11183: 86 80          LDA     #$80
11185: B7 0B AE       STA     $0BAE
11188: 86 09          LDA     #$09
1118A: BD 44 58       JSR     $4458
L1118D:
1118D: 35 B0          PULS    X,Y,PC
1118F: 81 01          CMPA    #$01
11191: 05             FCB     $05
11192: 00 10          NEG     <$10
11194: E0 00          SUBB    ,X
11196: DF 02          STU     <$02
11198: 80 34          SUBA    #$34
1119A: 30 B6          LEAX    [A,Y]
1119C: 0F 7D          CLR     <$7D
1119E: 10 2B 00 BD    LBMI    $1125F
111A2: 86 01          LDA     #$01
111A4: B7 0A AC       STA     $0AAC
111A7: 96 4F          LDA     <$4F
111A9: 81 0D          CMPA    #$0D
111AB: 26 1D          BNE     $111CA
111AD: 86 58          LDA     #$58
111AF: BD 44 58       JSR     $4458
111B2: 86 FF          LDA     #$FF
111B4: BD FE 23       JSR     $FE23
111B7: 86 F2          LDA     #$F2
111B9: BD 44 58       JSR     $4458
111BC: 86 05          LDA     #$05
111BE: BD FE 23       JSR     $FE23
111C1: 86 0E          LDA     #$0E
111C3: BD 44 58       JSR     $4458
111C6: 0C 4F          INC     <$4F
111C8: 96 4F          LDA     <$4F
L111CA:
111CA: 81 10          CMPA    #$10
111CC: 27 15          BEQ     $111E3
111CE: B6 0F 7D       LDA     $0F7D
111D1: 81 38          CMPA    #$38
111D3: 26 08          BNE     $111DD
111D5: 0C 4F          INC     <$4F
111D7: 7F 0F 7D       CLR     $0F7D
111DA: 16 00 82       LBRA    $1125F
L111DD:
111DD: 7C 0F 7D       INC     $0F7D
111E0: 16 00 7C       LBRA    $1125F
L111E3:
111E3: 7F 0A AC       CLR     $0AAC
111E6: B6 0F 7D       LDA     $0F7D
111E9: 8A 80          ORA     #$80
111EB: B7 0F 7D       STA     $0F7D
111EE: 86 3C          LDA     #$3C
111F0: BD 44 58       JSR     $4458
111F3: 7D 03 A2       TST     $03A2
111F6: 27 31          BEQ     $11229
111F8: 17 FE 36       LBSR    $11031
111FB: 10 8E 52 61    LDY     #$5261
111FF: 17 FE 41       LBSR    $11043
11202: FC 03 A6       LDD     $03A6
11205: 83 00 28       SUBD    #$0028
11208: ED 04          STD     4,X
1120A: FC 03 A8       LDD     $03A8
1120D: ED 06          STD     6,X
1120F: FC 03 AA       LDD     $03AA
11212: ED 08          STD     8,X
11214: 86 00          LDA     #$00
11216: A7 03          STA     3,X
11218: 86 8C          LDA     #$8C
1121A: A7 88 1F       STA     31,X
1121D: 86 2C          LDA     #$2C
1121F: A7 01          STA     1,X
11221: 86 08          LDA     #$08
11223: BD 5B 5B       JSR     $5B5B
11226: 7C 0A AC       INC     $0AAC
L11229:
11229: 7D 04 01       TST     $0401
1122C: 27 31          BEQ     $1125F
1122E: 17 FE 00       LBSR    $11031
11231: 10 8E 52 6B    LDY     #$526B
11235: 17 FE 0B       LBSR    $11043
11238: FC 04 05       LDD     $0405
1123B: C3 00 28       ADDD    #$0028
1123E: ED 04          STD     4,X
11240: FC 04 07       LDD     $0407
11243: ED 06          STD     6,X
11245: FC 04 09       LDD     $0409
11248: ED 08          STD     8,X
1124A: 86 80          LDA     #$80
1124C: A7 03          STA     3,X
1124E: 86 8C          LDA     #$8C
11250: A7 88 1F       STA     31,X
11253: 86 2D          LDA     #$2D
11255: A7 01          STA     1,X
11257: 86 08          LDA     #$08
11259: BD 5B 5B       JSR     $5B5B
1125C: 7C 0A AC       INC     $0AAC
L1125F:
1125F: 35 B0          PULS    X,Y,PC
11261: C1 81          CMPB    #$81
11263: 0A 1F          DEC     <$1F
11265: 00 00          NEG     <$00
11267: 00 00          NEG     <$00
11269: 00 00          NEG     <$00
1126B: C1 01          CMPB    #$01
1126D: 0A 1F          DEC     <$1F
1126F: 00 00          NEG     <$00
11271: 00 00          NEG     <$00
11273: 00 00          NEG     <$00
11275: 34 30          PSHS    X,Y
11277: 96 36          LDA     <$36
11279: D6 38          LDB     <$38
1127B: 10 83 02 03    CMPD    #$0203
1127F: 26 1A          BNE     $1129B
11281: B6 0F 66       LDA     $0F66
11284: 2B 17          BMI     $1129D
11286: 8A 80          ORA     #$80
11288: B7 0F 66       STA     $0F66
1128B: BD 50 31       JSR     $5031
1128E: 10 8E 52 D5    LDY     #$52D5
11292: BD 50 43       JSR     $5043
11295: BF 0F 84       STX     $0F84
11298: 7C 0A AC       INC     $0AAC
L1129B:
1129B: 35 B0          PULS    X,Y,PC
L1129D:
1129D: B6 0F 66       LDA     $0F66
112A0: 85 40          BITA    #$40
112A2: 26 F7          BNE     $1129B
112A4: B6 03 A2       LDA     $03A2
112A7: 2A 09          BPL     $112B2
112A9: FC 03 A6       LDD     $03A6
112AC: 10 83 0C 70    CMPD    #$0C70
112B0: 24 0E          BCC     $112C0
L112B2:
112B2: B6 04 01       LDA     $0401
112B5: FC 04 05       LDD     $0405
112B8: 10 83 0C 70    CMPD    #$0C70
112BC: 24 02          BCC     $112C0
112BE: 20 DB          BRA     $1129B
L112C0:
112C0: B6 0F 66       LDA     $0F66
112C3: 8A 40          ORA     #$40
112C5: B7 0F 66       STA     $0F66
112C8: BE 0F 84       LDX     $0F84
112CB: 86 C1          LDA     #$C1
112CD: A7 84          STA     ,X
112CF: 86 80          LDA     #$80
112D1: A7 03          STA     3,X
112D3: 20 C6          BRA     $1129B
112D5: 81 1C          CMPA    #$1C
112D7: 07 11          ASR     <$11
112D9: 0C 80          INC     <$80
112DB: 00 D8          NEG     <$D8
112DD: 01             FCB     $01
112DE: 60 34          NEG     -12,Y
112E0: 30 32          LEAX    -14,Y
112E2: 7C B6 0A       INC     $B60A
112E5: AF 84          STX     ,X
112E7: C0 10          SUBB    #$10
112E9: 26 00          BNE     $112EB
L112EB:
112EB: CB 96          ADDB    #$96
112ED: 51             FCB     $51
112EE: 84 01          ANDA    #$01
112F0: 10 27 00 C3    LBEQ    $113B7
112F4: B6 0A AF       LDA     $0AAF
112F7: 84 01          ANDA    #$01
112F9: 27 14          BEQ     $1130F
112FB: 96 29          LDA     <$29
112FD: 84 03          ANDA    #$03
112FF: 81 03          CMPA    #$03
11301: 10 26 00 B2    LBNE    $113B7
11305: 86 70          LDA     #$70
11307: A7 E4          STA     ,S
11309: 86 02          LDA     #$02
1130B: A7 61          STA     1,S
1130D: 20 22          BRA     $11331
L1130F:
1130F: 96 29          LDA     <$29
11311: 84 03          ANDA    #$03
11313: 81 03          CMPA    #$03
11315: 27 0E          BEQ     $11325
11317: 86 C0          LDA     #$C0
11319: A7 E4          STA     ,S
1131B: 86 02          LDA     #$02
1131D: A7 61          STA     1,S
1131F: 86 03          LDA     #$03
11321: A7 62          STA     2,S
11323: 20 0C          BRA     $11331
L11325:
11325: 86 80          LDA     #$80
11327: A7 E4          STA     ,S
11329: 86 02          LDA     #$02
1132B: A7 61          STA     1,S
1132D: 86 03          LDA     #$03
1132F: A7 62          STA     2,S
L11331:
11331: 7C 0F 8E       INC     $0F8E
11334: B6 0F 8E       LDA     $0F8E
11337: A1 E4          CMPA    ,S
11339: 25 7C          BCS     $113B7
1133B: 7F 0F 8E       CLR     $0F8E
1133E: B6 0A AC       LDA     $0AAC
11341: 27 74          BEQ     $113B7
11343: 96 36          LDA     <$36
11345: D6 38          LDB     <$38
11347: 10 83 02 03    CMPD    #$0203
1134B: 27 6A          BEQ     $113B7
1134D: 10 83 02 05    CMPD    #$0205
11351: 27 64          BEQ     $113B7
11353: 10 83 02 06    CMPD    #$0206
11357: 27 5E          BEQ     $113B7
11359: F1 0F 8F       CMPB    $0F8F
1135C: 27 08          BEQ     $11366
1135E: F7 0F 8F       STB     $0F8F
11361: 7F 0F 90       CLR     $0F90
11364: 20 51          BRA     $113B7
L11366:
11366: B6 0A AF       LDA     $0AAF
11369: 84 01          ANDA    #$01
1136B: 26 07          BNE     $11374
1136D: B6 0F 90       LDA     $0F90
11370: A1 62          CMPA    2,S
11372: 27 43          BEQ     $113B7
L11374:
11374: BD 53 D3       JSR     $53D3
11377: A1 61          CMPA    1,S
11379: 24 3C          BCC     $113B7
1137B: 7C 0F 90       INC     $0F90
1137E: BD 50 31       JSR     $5031
11381: 10 8E 53 BB    LDY     #$53BB
11385: BD 45 3C       JSR     $453C
11388: 84 01          ANDA    #$01
1138A: 48             ASLA
1138B: 10 AE A6       LDY     A,Y
1138E: BD 50 43       JSR     $5043
11391: DC 3C          LDD     <$3C
11393: C3 01 00       ADDD    #$0100
11396: ED 04          STD     4,X
11398: 7C 0A AC       INC     $0AAC
1139B: 96 36          LDA     <$36
1139D: 81 02          CMPA    #$02
1139F: 27 0C          BEQ     $113AD
113A1: CC 03 00       LDD     #$0300
113A4: ED 08          STD     8,X
113A6: CC 01 10       LDD     #$0110
113A9: ED 06          STD     6,X
113AB: 20 0A          BRA     $113B7
L113AD:
113AD: CC 01 00       LDD     #$0100
113B0: ED 08          STD     8,X
113B2: CC 00 C0       LDD     #$00C0
113B5: ED 06          STD     6,X
L113B7:
113B7: 32 64          LEAS    4,S
113B9: 35 B0          PULS    X,Y,PC
113BB: 53             COMB
113BC: BF 53 C9       STX     $53C9
113BF: C1 00          CMPB    #$00
113C1: 06 00          ROR     <$00
113C3: 00 00          NEG     <$00
113C5: 00 00          NEG     <$00
113C7: 00 00          NEG     <$00
113C9: C1 00          CMPB    #$00
113CB: 07 00          ASR     <$00
113CD: 00 00          NEG     <$00
113CF: 00 00          NEG     <$00
113D1: 00 00          NEG     <$00
113D3: 34 10          PSHS    X
113D5: 4F             CLRA
113D6: 8E 04 60       LDX     #$0460
L113D9:
113D9: E6 84          LDB     ,X
113DB: C4 40          ANDB    #$40
113DD: 27 01          BEQ     $113E0
113DF: 4C             INCA
L113E0:
113E0: 30 88 63       LEAX    99,X
113E3: 8C 07 DB       CMPX    #$07DB
113E6: 27 02          BEQ     $113EA
113E8: 20 EF          BRA     $113D9
L113EA:
113EA: 35 90          PULS    X,PC
113EC: 96 38          LDA     <$38
113EE: 27 12          BEQ     $11402
113F0: B6 0B A9       LDA     $0BA9
113F3: 85 04          BITA    #$04
113F5: 26 0B          BNE     $11402
113F7: B6 0B A9       LDA     $0BA9
113FA: 2B 03          BMI     $113FF
113FC: BD 54 03       JSR     $5403
L113FF:
113FF: BD 54 15       JSR     $5415
L11402:
11402: 39             RTS
11403: 7F 0B AB       CLR     $0BAB
11406: 7F 0B AE       CLR     $0BAE
11409: BD 54 42       JSR     $5442
1140C: 86 80          LDA     #$80
1140E: B7 0B A9       STA     $0BA9
11411: 7F 0B AA       CLR     $0BAA
11414: 39             RTS
11415: B6 0B AA       LDA     $0BAA
11418: 27 06          BEQ     $11420
1141A: 4A             DECA
1141B: B7 0B AA       STA     $0BAA
1141E: 20 13          BRA     $11433
L11420:
11420: 86 30          LDA     #$30
11422: B7 0B AA       STA     $0BAA
11425: BD 54 59       JSR     $5459
11428: 24 09          BCC     $11433
1142A: 8E 54 34       LDX     #$5434
1142D: B6 0B AB       LDA     $0BAB
11430: 48             ASLA
11431: AD 96          JSR     [A,X]
L11433:
11433: 39             RTS
11434: 54             LSRB
11435: 68 55          ASL     -11,U
11437: 8A 55          ORA     #$55
11439: 74 55 9B       LSR     $559B
1143C: 55             FCB     $55
1143D: D7 55          STB     <$55
1143F: ED 56          STD     -10,U
11441: 1E B6          EXG     DP,?
11443: 0E F2          JMP     <$F2
11445: 84 F8          ANDA    #$F8
11447: 8E 54 56       LDX     #$5456
1144A: F6 0B AE       LDB     $0BAE
1144D: AA 85          ORA     B,X
1144F: B7 0E F2       STA     $0EF2
11452: BD 56 5D       JSR     $565D
11455: 39             RTS
11456: 04 02          LSR     <$02
11458: 01             FCB     $01
11459: DC 3C          LDD     <$3C
1145B: 10 83 07 50    CMPD    #$0750
1145F: 25 04          BCS     $11465
11461: 1A 01          ORCC    #$01
11463: 20 02          BRA     $11467
L11465:
11465: 1C FE          ANDCC   #$FE
L11467:
11467: 39             RTS
11468: 32 7F          LEAS    -1,S
1146A: B6 0A AC       LDA     $0AAC
1146D: 81 02          CMPA    #$02
1146F: 22 58          BHI     $114C9
11471: BD 54 DC       JSR     $54DC
11474: A7 E4          STA     ,S
11476: 27 54          BEQ     $114CC
11478: 10 8E 4F 22    LDY     #$4F22
1147C: BD 45 3C       JSR     $453C
1147F: 84 07          ANDA    #$07
11481: C6 03          LDB     #$03
11483: 3D             MUL
11484: 31 AB          LEAY    D,Y
11486: 10 9F 00       STY     <$00
11489: 10 8E 55 6E    LDY     #$556E
1148D: 10 9F 02       STY     <$02
11490: CC 00 00       LDD     #$0000
11493: FD 0B B2       STD     $0BB2
11496: FD 0B B4       STD     $0BB4
11499: FD 0B B6       STD     $0BB6
1149C: 10 8E 0B B2    LDY     #$0BB2
114A0: 7F 0B B0       CLR     $0BB0
114A3: 8E 04 60       LDX     #$0460
L114A6:
114A6: 6D 84          TST     ,X
114A8: 2B 0F          BMI     $114B9
114AA: AF A1          STX     ,Y++
114AC: BD 54 FD       JSR     $54FD
114AF: 7C 0B B0       INC     $0BB0
114B2: B6 0B B0       LDA     $0BB0
114B5: A1 E4          CMPA    ,S
114B7: 27 0D          BEQ     $114C6
L114B9:
114B9: 30 88 63       LEAX    99,X
114BC: 8C 07 78       CMPX    #$0778
114BF: 26 E5          BNE     $114A6
114C1: B6 0B B0       LDA     $0BB0
114C4: 27 03          BEQ     $114C9
L114C6:
114C6: 7C 0B AB       INC     $0BAB
L114C9:
114C9: 32 61          LEAS    1,S
114CB: 39             RTS
L114CC:
114CC: B6 0B A9       LDA     $0BA9
114CF: 8A 04          ORA     #$04
114D1: B7 0B A9       STA     $0BA9
114D4: 7F 0B AB       CLR     $0BAB
114D7: 7F 0B B1       CLR     $0BB1
114DA: 20 ED          BRA     $114C9
114DC: 34 10          PSHS    X
114DE: 96 29          LDA     <$29
114E0: 88 03          EORA    #$03
114E2: 84 03          ANDA    #$03
114E4: 27 05          BEQ     $114EB
114E6: 8E 54 F7       LDX     #$54F7
114E9: 20 03          BRA     $114EE
L114EB:
114EB: 8E 54 FA       LDX     #$54FA
L114EE:
114EE: B6 0B A9       LDA     $0BA9
114F1: 84 03          ANDA    #$03
114F3: A6 86          LDA     A,X
114F5: 35 90          PULS    X,PC
114F7: 03 02          COM     <$02
114F9: 00 03          NEG     <$03
114FB: 02             FCB     $02
114FC: 02             FCB     $02
114FD: 34 36          PSHS    A,B,X,Y
114FF: B6 0B B0       LDA     $0BB0
11502: 48             ASLA
11503: 8E 0B B2       LDX     #$0BB2
11506: AE 86          LDX     A,X
11508: 86 81          LDA     #$81
1150A: A7 84          STA     ,X
1150C: 7C 0A AC       INC     $0AAC
1150F: 34 20          PSHS    Y
11511: 10 9E 00       LDY     <$00
11514: A6 A0          LDA     ,Y+
11516: 10 9F 00       STY     <$00
11519: 35 20          PULS    Y
1151B: A7 01          STA     1,X
1151D: BD 5C 58       JSR     $5C58
11520: 80 02          SUBA    #$02
11522: A7 88 17       STA     23,X
11525: 86 57          LDA     #$57
11527: A7 88 1B       STA     27,X
1152A: EC A1          LDD     ,Y++
1152C: 34 20          PSHS    Y
1152E: 10 9E 02       LDY     <$02
11531: EC A1          LDD     ,Y++
11533: 10 9F 02       STY     <$02
11536: 35 20          PULS    Y
11538: ED 04          STD     4,X
1153A: CC 01 42       LDD     #$0142
1153D: ED 06          STD     6,X
1153F: CC 01 C0       LDD     #$01C0
11542: ED 08          STD     8,X
11544: A6 01          LDA     1,X
11546: BD 5B EC       JSR     $5BEC
11549: E7 88 1F       STB     31,X
1154C: BD 5B 0B       JSR     $5B0B
1154F: 6F 88 45       CLR     69,X
11552: BC 0B B2       CMPX    $0BB2
11555: 26 15          BNE     $1156C
11557: B6 0B A9       LDA     $0BA9
1155A: 84 03          ANDA    #$03
1155C: 81 02          CMPA    #$02
1155E: 24 0C          BCC     $1156C
11560: A6 88 17       LDA     23,X
11563: 81 08          CMPA    #$08
11565: 26 05          BNE     $1156C
11567: 86 01          LDA     #$01
11569: BD 5B 5B       JSR     $5B5B
L1156C:
1156C: 35 B6          PULS    A,B,X,Y,PC
1156E: 07 E6          ASR     <$E6
11570: 07 EC          ASR     <$EC
11572: 07 E0          ASR     <$E0
11574: B6 0E F2       LDA     $0EF2
11577: 84 C7          ANDA    #$C7
11579: 8A 10          ORA     #$10
1157B: B7 0E F2       STA     $0EF2
1157E: B6 0B A9       LDA     $0BA9
11581: 84 EF          ANDA    #$EF
11583: B7 0B A9       STA     $0BA9
11586: 7C 0B AB       INC     $0BAB
11589: 39             RTS
1158A: 7C 0B AE       INC     $0BAE
1158D: B6 0B AE       LDA     $0BAE
11590: 81 02          CMPA    #$02
11592: 25 03          BCS     $11597
11594: 7C 0B AB       INC     $0BAB
L11597:
11597: BD 54 42       JSR     $5442
1159A: 39             RTS
1159B: B6 0B B0       LDA     $0BB0
1159E: 27 36          BEQ     $115D6
115A0: B6 0E F2       LDA     $0EF2
115A3: 2A 31          BPL     $115D6
115A5: B6 0B A9       LDA     $0BA9
115A8: 85 10          BITA    #$10
115AA: 26 0B          BNE     $115B7
115AC: 7F 0B B1       CLR     $0BB1
115AF: B6 0B A9       LDA     $0BA9
115B2: 8A 10          ORA     #$10
115B4: B7 0B A9       STA     $0BA9
L115B7:
115B7: B6 0B B1       LDA     $0BB1
115BA: 48             ASLA
115BB: 8E 0B B2       LDX     #$0BB2
115BE: AE 86          LDX     A,X
115C0: A6 84          LDA     ,X
115C2: 8A 40          ORA     #$40
115C4: A7 84          STA     ,X
115C6: 7C 0B B1       INC     $0BB1
115C9: B6 0B B1       LDA     $0BB1
115CC: B1 0B B0       CMPA    $0BB0
115CF: 27 02          BEQ     $115D3
115D1: 20 03          BRA     $115D6
L115D3:
115D3: 7C 0B AB       INC     $0BAB
L115D6:
115D6: 39             RTS
115D7: B6 0E F2       LDA     $0EF2
115DA: 84 C7          ANDA    #$C7
115DC: 8A 08          ORA     #$08
115DE: B7 0E F2       STA     $0EF2
115E1: 7C 0B AB       INC     $0BAB
115E4: B6 0B A9       LDA     $0BA9
115E7: 84 EF          ANDA    #$EF
115E9: B7 0B A9       STA     $0BA9
115EC: 39             RTS
115ED: B6 0E F2       LDA     $0EF2
115F0: 2B 28          BMI     $1161A
115F2: B6 0B A9       LDA     $0BA9
115F5: 85 10          BITA    #$10
115F7: 26 0E          BNE     $11607
115F9: CC 56 AF       LDD     #$56AF
115FC: FD 0B AC       STD     $0BAC
115FF: B6 0B A9       LDA     $0BA9
11602: 8A 10          ORA     #$10
11604: B7 0B A9       STA     $0BA9
L11607:
11607: 7A 0B AE       DEC     $0BAE
1160A: 2A 0E          BPL     $1161A
1160C: 7C 0B AB       INC     $0BAB
1160F: 7F 0B AE       CLR     $0BAE
11612: B6 0B A9       LDA     $0BA9
11615: 84 EF          ANDA    #$EF
11617: B7 0B A9       STA     $0BA9
L1161A:
1161A: BD 54 42       JSR     $5442
1161D: 39             RTS
1161E: 32 7F          LEAS    -1,S
11620: 7C 0B A9       INC     $0BA9
11623: B6 0B A9       LDA     $0BA9
11626: 84 03          ANDA    #$03
11628: 81 03          CMPA    #$03
1162A: 27 0E          BEQ     $1163A
1162C: BD 56 4B       JSR     $564B
1162F: A7 E4          STA     ,S
11631: B6 0B A9       LDA     $0BA9
11634: 84 03          ANDA    #$03
11636: A1 E4          CMPA    ,S
11638: 25 08          BCS     $11642
L1163A:
1163A: B6 0B A9       LDA     $0BA9
1163D: 8A 04          ORA     #$04
1163F: B7 0B A9       STA     $0BA9
L11642:
11642: 7F 0B AB       CLR     $0BAB
11645: 7F 0B B1       CLR     $0BB1
11648: 32 61          LEAS    1,S
1164A: 39             RTS
1164B: 34 10          PSHS    X
1164D: 96 29          LDA     <$29
1164F: 88 03          EORA    #$03
11651: 84 03          ANDA    #$03
11653: 27 04          BEQ     $11659
11655: 86 02          LDA     #$02
11657: 20 02          BRA     $1165B
L11659:
11659: 86 03          LDA     #$03
L1165B:
1165B: 35 90          PULS    X,PC
1165D: 32 7F          LEAS    -1,S
1165F: 86 02          LDA     #$02
11661: A7 E4          STA     ,S
L11663:
11663: 86 01          LDA     #$01
11665: 97 02          STA     <$02
11667: 8E 56 A9       LDX     #$56A9
1166A: A6 E4          LDA     ,S
1166C: 48             ASLA
1166D: 30 86          LEAX    A,X
1166F: A6 84          LDA     ,X
11671: 97 03          STA     <$03
11673: A6 01          LDA     1,X
11675: 97 04          STA     <$04
11677: 8E 56 91       LDX     #$5691
1167A: B6 0B AE       LDA     $0BAE
1167D: 48             ASLA
1167E: AE 86          LDX     A,X
11680: A6 E4          LDA     ,S
11682: 48             ASLA
11683: 30 86          LEAX    A,X
11685: 9F 00          STX     <$00
11687: BD 44 67       JSR     $4467
1168A: 6A E4          DEC     ,S
1168C: 2A D5          BPL     $11663
1168E: 32 61          LEAS    1,S
11690: 39             RTS
11691: 56             RORB
11692: 97 56          STA     <$56
11694: 9D 56          JSR     <$56
11696: A3 0F          SUBD    15,X
11698: F0 07 77       SUBB    $0777
1169B: 07 77          ASR     <$77
1169D: 07 77          ASR     <$77
1169F: 0F F0          CLR     <$F0
116A1: 07 77          ASR     <$77
116A3: 07 77          ASR     <$77
116A5: 07 77          ASR     <$77
116A7: 0F F0          CLR     <$F0
116A9: 07 0D          ASR     <$0D
116AB: 07 0E          ASR     <$0E
116AD: 07 0F          ASR     <$0F
116AF: 07 E0          ASR     <$E0
116B1: 01             FCB     $01
116B2: 35 01          PULS    CC
116B4: C0 08          SUBB    #$08
116B6: 00 34          NEG     <$34
116B8: 30 96          LEAX    [A,X]
116BA: 36 D6          PSHU    A,B,X,S,PC
116BC: 38             FCB     $38
116BD: 10 83 02 05    CMPD    #$0205
116C1: 26 33          BNE     $116F6
116C3: B6 0B A9       LDA     $0BA9
116C6: 2B 1E          BMI     $116E6
116C8: 86 80          LDA     #$80
116CA: B7 0B A9       STA     $0BA9
116CD: 86 02          LDA     #$02
116CF: B7 0A AC       STA     $0AAC
116D2: 8E 04 60       LDX     #$0460
116D5: 10 8E 57 32    LDY     #$5732
116D9: 8D 1D          BSR     $116F8
116DB: 10 8E 57 38    LDY     #$5738
116DF: 8E 04 C3       LDX     #$04C3
116E2: 8D 14          BSR     $116F8
116E4: 20 10          BRA     $116F6
L116E6:
116E6: DC 3C          LDD     <$3C
116E8: 10 83 0F 00    CMPD    #$0F00
116EC: 25 08          BCS     $116F6
116EE: B6 0B A9       LDA     $0BA9
116F1: 8A 04          ORA     #$04
116F3: B7 0B A9       STA     $0BA9
L116F6:
116F6: 35 B0          PULS    X,Y,PC
L116F8:
116F8: 86 81          LDA     #$81
116FA: A7 84          STA     ,X
116FC: BD 5B 0B       JSR     $5B0B
116FF: 6F 88 47       CLR     71,X
11702: 6F 88 46       CLR     70,X
11705: 6F 88 4A       CLR     74,X
11708: 6F 88 45       CLR     69,X
1170B: A6 A4          LDA     ,Y
1170D: A7 88 17       STA     23,X
11710: 8B 02          ADDA    #$02
11712: A7 01          STA     1,X
11714: BD 5B EC       JSR     $5BEC
11717: E7 88 1F       STB     31,X
1171A: A6 21          LDA     1,Y
1171C: A7 88 1B       STA     27,X
1171F: EC 22          LDD     2,Y
11721: ED 04          STD     4,X
11723: EC 24          LDD     4,Y
11725: ED 06          STD     6,X
11727: CC 02 00       LDD     #$0200
1172A: ED 08          STD     8,X
1172C: 86 09          LDA     #$09
1172E: BD 5B 5B       JSR     $5B5B
11731: 39             RTS
11732: 09 11          ROL     <$11
11734: 0F C0          CLR     <$C0
11736: 00 B8          NEG     <$B8
11738: 09 00          ROL     <$00
1173A: 0F E0          CLR     <$E0
1173C: 00 B0          NEG     <$B0
1173E: 34 40          PSHS    U
11740: 96 36          LDA     <$36
11742: D6 37          LDB     <$37
11744: 10 83 03 01    CMPD    #$0301
11748: 27 6A          BEQ     $117B4
1174A: B6 0F 18       LDA     $0F18
1174D: 27 20          BEQ     $1176F
1174F: 81 FF          CMPA    #$FF
11751: 27 30          BEQ     $11783
11753: 96 36          LDA     <$36
11755: D6 38          LDB     <$38
11757: 10 83 02 06    CMPD    #$0206
1175B: 27 12          BEQ     $1176F
1175D: 96 36          LDA     <$36
1175F: 4C             INCA
11760: 5F             CLRB
11761: 10 B3 0B C1    CMPD    $0BC1
11765: 27 1C          BEQ     $11783
11767: FD 0B C1       STD     $0BC1
1176A: 7F 0B 6B       CLR     $0B6B
1176D: 20 14          BRA     $11783
L1176F:
1176F: 96 36          LDA     <$36
11771: D6 38          LDB     <$38
11773: 10 B3 0B C1    CMPD    $0BC1
11777: 23 0A          BLS     $11783
11779: 96 36          LDA     <$36
1177B: D6 38          LDB     <$38
1177D: FD 0B C1       STD     $0BC1
11780: 7F 0B 6B       CLR     $0B6B
L11783:
11783: B6 0F 3D       LDA     $0F3D
11786: 26 05          BNE     $1178D
11788: B6 0A AF       LDA     $0AAF
1178B: 2B 27          BMI     $117B4
L1178D:
1178D: BD 58 B1       JSR     $58B1
11790: BD 57 BA       JSR     $57BA
11793: BD 75 C6       JSR     $75C6
11796: BD 5D 00       JSR     $5D00
11799: BD 5C 59       JSR     $5C59
1179C: 8E 04 60       LDX     #$0460
L1179F:
1179F: A6 84          LDA     ,X
117A1: 85 80          BITA    #$80
117A3: 27 07          BEQ     $117AC
117A5: 85 10          BITA    #$10
117A7: 27 03          BEQ     $117AC
117A9: BD 59 A2       JSR     $59A2
L117AC:
117AC: 30 88 63       LEAX    99,X
117AF: 8C 07 DB       CMPX    #$07DB
117B2: 26 EB          BNE     $1179F
L117B4:
117B4: 35 C0          PULS    U,PC
117B6: 04 08          LSR     <$08
117B8: 14             FCB     $14
117B9: 1A 34          ORCC    #$34
117BB: 40             NEGA
117BC: B6 0B 73       LDA     $0B73
117BF: 2B 08          BMI     $117C9
117C1: 10 8E 5F 23    LDY     #$5F23
117C5: 10 BF 0B 77    STY     $0B77
L117C9:
117C9: 10 BE 0B 77    LDY     $0B77
L117CD:
117CD: DC 3C          LDD     <$3C
117CF: 10 A3 A4       CMPD    ,Y
117D2: 24 04          BCC     $117D8
117D4: 31 3C          LEAY    -4,Y
117D6: 20 F5          BRA     $117CD
L117D8:
117D8: 10 A3 24       CMPD    4,Y
117DB: 25 04          BCS     $117E1
117DD: 31 24          LEAY    4,Y
117DF: 20 EC          BRA     $117CD
L117E1:
117E1: 10 BC 0B 77    CMPY    $0B77
117E5: 23 11          BLS     $117F8
117E7: 10 BF 0B 77    STY     $0B77
117EB: 10 AE 22       LDY     2,Y
117EE: B6 0B 73       LDA     $0B73
117F1: 84 80          ANDA    #$80
117F3: B7 0B 73       STA     $0B73
117F6: 20 15          BRA     $1180D
L117F8:
117F8: 10 AE 22       LDY     2,Y
117FB: B6 0B 73       LDA     $0B73
117FE: 2A 0D          BPL     $1180D
11800: B6 0B 73       LDA     $0B73
11803: 84 40          ANDA    #$40
11805: 10 27 00 9E    LBEQ    $118A7
11809: 10 BE 0B 74    LDY     $0B74
L1180D:
1180D: 8E 04 60       LDX     #$0460
L11810:
11810: A6 A4          LDA     ,Y
11812: 81 FF          CMPA    #$FF
11814: 10 27 00 87    LBEQ    $1189F
11818: 81 FC          CMPA    #$FC
1181A: 26 13          BNE     $1182F
1181C: B6 0B 73       LDA     $0B73
1181F: 8A 40          ORA     #$40
11821: B7 0B 73       STA     $0B73
11824: 31 21          LEAY    1,Y
11826: A6 A4          LDA     ,Y
11828: B7 0B 76       STA     $0B76
1182B: 31 21          LEAY    1,Y
1182D: 20 E1          BRA     $11810
L1182F:
1182F: 81 FB          CMPA    #$FB
11831: 26 05          BNE     $11838
11833: 10 AE 21       LDY     1,Y
11836: 20 D8          BRA     $11810
L11838:
11838: B6 0B 73       LDA     $0B73
1183B: 84 40          ANDA    #$40
1183D: 27 68          BEQ     $118A7
1183F: B6 0B 72       LDA     $0B72
11842: B1 0B 76       CMPA    $0B76
11845: 24 4A          BCC     $11891
11847: A6 84          LDA     ,X
11849: 84 80          ANDA    #$80
1184B: 26 3C          BNE     $11889
1184D: 10 AF 88 43    STY     67,X
11851: A6 84          LDA     ,X
11853: 8A 91          ORA     #$91
11855: A7 84          STA     ,X
11857: 7C 0A AC       INC     $0AAC
1185A: 6F 88 47       CLR     71,X
1185D: 6F 88 46       CLR     70,X
11860: 6F 88 4A       CLR     74,X
11863: 6F 88 45       CLR     69,X
11866: B6 0B 73       LDA     $0B73
11869: 84 40          ANDA    #$40
1186B: 27 06          BEQ     $11873
1186D: 6A 88 45       DEC     69,X
11870: 7C 0B 72       INC     $0B72
L11873:
11873: A6 24          LDA     4,Y
11875: 84 40          ANDA    #$40
11877: 1C FE          ANDCC   #$FE
11879: 48             ASLA
1187A: 48             ASLA
1187B: 49             ROLA
1187C: 5F             CLRB
1187D: D3 3C          ADDD    <$3C
1187F: C3 00 30       ADDD    #$0030
11882: A7 88 48       STA     72,X
11885: 31 2A          LEAY    10,Y
11887: 20 87          BRA     $11810
L11889:
11889: 30 88 63       LEAX    99,X
1188C: 8C 07 78       CMPX    #$0778
1188F: 25 A7          BCS     $11838
L11891:
11891: 10 BF 0B 74    STY     $0B74
11895: B6 0B 73       LDA     $0B73
11898: 8A 20          ORA     #$20
1189A: B7 0B 73       STA     $0B73
1189D: 20 08          BRA     $118A7
L1189F:
1189F: B6 0B 73       LDA     $0B73
118A2: 84 9F          ANDA    #$9F
118A4: B7 0B 73       STA     $0B73
L118A7:
118A7: B6 0B 73       LDA     $0B73
118AA: 8A 80          ORA     #$80
118AC: B7 0B 73       STA     $0B73
118AF: 35 C0          PULS    U,PC
118B1: 34 40          PSHS    U
118B3: B6 0B 6B       LDA     $0B6B
118B6: 10 2B 00 E6    LBMI    $119A0
118BA: B6 0B C1       LDA     $0BC1
118BD: 48             ASLA
118BE: 10 8E 5D 72    LDY     #$5D72
118C2: 10 AE A6       LDY     A,Y
118C5: B6 0B C2       LDA     $0BC2
118C8: 48             ASLA
118C9: 10 AE A6       LDY     A,Y
118CC: 8E 04 60       LDX     #$0460
118CF: CE 0F 67       LDU     #$0F67
L118D2:
118D2: A6 A4          LDA     ,Y
118D4: 81 FF          CMPA    #$FF
118D6: 26 03          BNE     $118DB
118D8: 16 00 BD       LBRA    $11998
L118DB:
118DB: 81 FD          CMPA    #$FD
118DD: 26 04          BNE     $118E3
118DF: 31 21          LEAY    1,Y
118E1: 20 EF          BRA     $118D2
L118E3:
118E3: 81 FC          CMPA    #$FC
118E5: 26 04          BNE     $118EB
118E7: 31 21          LEAY    1,Y
118E9: 20 E7          BRA     $118D2
L118EB:
118EB: 81 FB          CMPA    #$FB
118ED: 26 05          BNE     $118F4
118EF: 10 AE 21       LDY     1,Y
118F2: 20 DE          BRA     $118D2
L118F4:
118F4: B6 0B 6B       LDA     $0B6B
118F7: 84 40          ANDA    #$40
118F9: 27 08          BEQ     $11903
118FB: B6 0B 72       LDA     $0B72
118FE: B1 0B 71       CMPA    $0B71
11901: 24 7F          BCC     $11982
L11903:
11903: A6 84          LDA     ,X
11905: 84 80          ANDA    #$80
11907: 26 6F          BNE     $11978
11909: AF C4          STX     ,U
1190B: 33 42          LEAU    2,U
1190D: 10 AF 88 43    STY     67,X
11911: A6 84          LDA     ,X
11913: 8A 91          ORA     #$91
11915: A7 84          STA     ,X
11917: 86 07          LDA     #$07
11919: A7 02          STA     2,X
1191B: 7C 0A AC       INC     $0AAC
1191E: 86 00          LDA     #$00
11920: A7 88 47       STA     71,X
11923: A7 88 46       STA     70,X
11926: A7 88 4A       STA     74,X
11929: A7 88 45       STA     69,X
1192C: B6 0B 6B       LDA     $0B6B
1192F: 84 40          ANDA    #$40
11931: 27 06          BEQ     $11939
11933: 6A 88 45       DEC     69,X
11936: 7C 0B 72       INC     $0B72
L11939:
11939: A6 24          LDA     4,Y
1193B: 84 40          ANDA    #$40
1193D: 1C FE          ANDCC   #$FE
1193F: 48             ASLA
11940: 48             ASLA
11941: 49             ROLA
11942: BB 0B 6C       ADDA    $0B6C
11945: A7 88 48       STA     72,X
11948: 6F 88 49       CLR     73,X
1194B: B6 0B 6B       LDA     $0B6B
1194E: 84 10          ANDA    #$10
11950: 27 21          BEQ     $11973
11952: 6A 88 49       DEC     73,X
11955: B6 0B 70       LDA     $0B70
11958: A7 88 47       STA     71,X
1195B: 7C 0B 70       INC     $0B70
1195E: 7A 0B 6B       DEC     $0B6B
11961: B6 0B 6B       LDA     $0B6B
11964: 84 0F          ANDA    #$0F
11966: 26 8C          BNE     $118F4
11968: B6 0B 6B       LDA     $0B6B
1196B: 84 EF          ANDA    #$EF
1196D: B7 0B 6B       STA     $0B6B
11970: 7F 0B 70       CLR     $0B70
L11973:
11973: 31 2A          LEAY    10,Y
11975: 16 FF 5A       LBRA    $118D2
L11978:
11978: 30 88 63       LEAX    99,X
1197B: 8C 07 78       CMPX    #$0778
1197E: 10 25 FF 72    LBCS    $118F4
L11982:
11982: 10 BF 0B 6D    STY     $0B6D
11986: B6 0B 6B       LDA     $0B6B
11989: 8A 20          ORA     #$20
1198B: B7 0B 6B       STA     $0B6B
1198E: 20 08          BRA     $11998
11990: B6 0B 6B       LDA     $0B6B
11993: 84 9F          ANDA    #$9F
11995: B7 0B 6B       STA     $0B6B
L11998:
11998: B6 0B 6B       LDA     $0B6B
1199B: 8A 80          ORA     #$80
1199D: B7 0B 6B       STA     $0B6B
L119A0:
119A0: 35 C0          PULS    U,PC
119A2: 34 50          PSHS    X,U
119A4: 32 7C          LEAS    -4,S
119A6: 10 AE 88 43    LDY     67,X
119AA: A6 88 4A       LDA     74,X
119AD: 85 90          BITA    #$90
119AF: 10 2B 01 42    LBMI    $11AF5
119B3: 10 26 00 82    LBNE    $11A39
119B7: A6 88 45       LDA     69,X
119BA: 26 15          BNE     $119D1
119BC: BD 5B 0B       JSR     $5B0B
119BF: A6 29          LDA     9,Y
119C1: E6 A4          LDB     ,Y
119C3: ED 04          STD     4,X
119C5: 6F 0A          CLR     10,X
119C7: EC 21          LDD     1,Y
119C9: 1E 89          EXG     A,B
119CB: 84 0F          ANDA    #$0F
119CD: ED 06          STD     6,X
119CF: 6F 0B          CLR     11,X
L119D1:
119D1: EC 26          LDD     6,Y
119D3: 84 03          ANDA    #$03
119D5: ED 08          STD     8,X
119D7: 6F 0C          CLR     12,X
119D9: A6 22          LDA     2,Y
119DB: 84 F0          ANDA    #$F0
119DD: A7 88 46       STA     70,X
119E0: A6 24          LDA     4,Y
119E2: 84 1F          ANDA    #$1F
119E4: A7 88 17       STA     23,X
119E7: CE 5B 00       LDU     #$5B00
119EA: E6 C6          LDB     A,U
119EC: E7 01          STB     1,X
119EE: 86 80          LDA     #$80
119F0: A7 03          STA     3,X
119F2: A6 28          LDA     8,Y
119F4: 84 C0          ANDA    #$C0
119F6: AA 88 17       ORA     23,X
119F9: A7 88 17       STA     23,X
119FC: A6 26          LDA     6,Y
119FE: 1F 89          TFR     A,B
11A00: 59             ROLB
11A01: 59             ROLB
11A02: 59             ROLB
11A03: 59             ROLB
11A04: C4 07          ANDB    #$07
11A06: E7 88 58       STB     88,X
11A09: 6F 88 3E       CLR     62,X
11A0C: 44             LSRA
11A0D: 44             LSRA
11A0E: 84 07          ANDA    #$07
11A10: A7 88 4B       STA     75,X
11A13: A6 28          LDA     8,Y
11A15: 84 0F          ANDA    #$0F
11A17: BD 5B 5B       JSR     $5B5B
11A1A: A6 25          LDA     5,Y
11A1C: A7 88 1B       STA     27,X
11A1F: 2A 10          BPL     $11A31
11A21: 48             ASLA
11A22: CE 5F 23       LDU     #$5F23
11A25: EE C6          LDU     A,U
11A27: BD 45 3C       JSR     $453C
11A2A: A4 C0          ANDA    ,U+
11A2C: A6 C6          LDA     A,U
11A2E: A7 88 1B       STA     27,X
L11A31:
11A31: A6 88 4A       LDA     74,X
11A34: 8A 10          ORA     #$10
11A36: A7 88 4A       STA     74,X
L11A39:
11A39: A6 88 45       LDA     69,X
11A3C: 26 55          BNE     $11A93
11A3E: 6F 62          CLR     2,S
11A40: EC 04          LDD     4,X
11A42: 93 3C          SUBD    <$3C
11A44: 2A 0B          BPL     $11A51
11A46: ED E4          STD     ,S
11A48: 86 20          LDA     #$20
11A4A: A7 62          STA     2,S
11A4C: CC 00 00       LDD     #$0000
11A4F: A3 E4          SUBD    ,S
L11A51:
11A51: ED E4          STD     ,S
11A53: A6 24          LDA     4,Y
11A55: A8 62          EORA    2,S
11A57: 84 20          ANDA    #$20
11A59: 10 26 00 98    LBNE    $11AF5
11A5D: 4F             CLRA
11A5E: E6 23          LDB     3,Y
11A60: 58             ASLB
11A61: 49             ROLA
11A62: 58             ASLB
11A63: 49             ROLA
11A64: 58             ASLB
11A65: 49             ROLA
11A66: 10 A3 E4       CMPD    ,S
11A69: A6 24          LDA     4,Y
11A6B: 84 20          ANDA    #$20
11A6D: 26 06          BNE     $11A75
11A6F: 10 25 00 82    LBCS    $11AF5
11A73: 20 04          BRA     $11A79
L11A75:
11A75: 10 24 00 7C    LBCC    $11AF5
L11A79:
11A79: 20 18          BRA     $11A93
11A7B: DC 3F          LDD     <$3F
11A7D: C3 00 60       ADDD    #$0060
11A80: A3 06          SUBD    6,X
11A82: 2A 07          BPL     $11A8B
11A84: ED E4          STD     ,S
11A86: CC 00 00       LDD     #$0000
11A89: A3 E4          SUBD    ,S
L11A8B:
11A8B: 10 83 00 A0    CMPD    #$00A0
11A8F: 10 24 00 62    LBCC    $11AF5
L11A93:
11A93: A6 88 46       LDA     70,X
11A96: 27 05          BEQ     $11A9D
11A98: 6A 88 46       DEC     70,X
11A9B: 20 58          BRA     $11AF5
L11A9D:
11A9D: B6 0F 18       LDA     $0F18
11AA0: 26 53          BNE     $11AF5
11AA2: A6 88 47       LDA     71,X
11AA5: 27 0A          BEQ     $11AB1
11AA7: 6A 88 47       DEC     71,X
11AAA: 86 08          LDA     #$08
11AAC: A7 88 46       STA     70,X
11AAF: 20 44          BRA     $11AF5
L11AB1:
11AB1: A6 88 45       LDA     69,X
11AB4: 27 1C          BEQ     $11AD2
11AB6: DC 3C          LDD     <$3C
11AB8: 4C             INCA
11AB9: ED E4          STD     ,S
11ABB: E6 A4          LDB     ,Y
11ABD: A6 24          LDA     4,Y
11ABF: 84 20          ANDA    #$20
11AC1: 27 02          BEQ     $11AC5
11AC3: 6A E4          DEC     ,S
L11AC5:
11AC5: 1D             SEX
11AC6: E3 E4          ADDD    ,S
11AC8: ED 04          STD     4,X
11ACA: A6 22          LDA     2,Y
11ACC: 84 0F          ANDA    #$0F
11ACE: E6 21          LDB     1,Y
11AD0: ED 06          STD     6,X
L11AD2:
11AD2: A6 01          LDA     1,X
11AD4: BD 5B EC       JSR     $5BEC
11AD7: E7 88 1F       STB     31,X
11ADA: 96 36          LDA     <$36
11ADC: 81 01          CMPA    #$01
11ADE: 26 05          BNE     $11AE5
11AE0: A6 88 17       LDA     23,X
11AE3: 2B 06          BMI     $11AEB
L11AE5:
11AE5: A6 84          LDA     ,X
11AE7: 8A 40          ORA     #$40
11AE9: A7 84          STA     ,X
L11AEB:
11AEB: A6 88 4A       LDA     74,X
11AEE: 84 EF          ANDA    #$EF
11AF0: 8A 80          ORA     #$80
11AF2: A7 88 4A       STA     74,X
L11AF5:
11AF5: 32 64          LEAS    4,S
11AF7: 35 D0          PULS    X,U,PC
11AF9: 7A 0A AC       DEC     $0AAC
11AFC: 6F 84          CLR     ,X
11AFE: 20 F5          BRA     $11AF5
11B00: 02             FCB     $02
11B01: 03 04          COM     <$04
11B03: 05             FCB     $05
11B04: 06 07          ROR     <$07
11B06: 08 09          ASL     <$09
11B08: 0A 0B          DEC     <$0B
11B0A: 0B             FCB     $0B
11B0B: 6F 88 4B       CLR     75,X
11B0E: 6F 88 21       CLR     33,X
11B11: 6F 88 41       CLR     65,X
11B14: 6F 88 42       CLR     66,X
11B17: 6F 88 58       CLR     88,X
11B1A: 6F 88 60       CLR     96,X
11B1D: 6F 88 62       CLR     98,X
11B20: 6F 88 61       CLR     97,X
11B23: CC 00 FF       LDD     #$00FF
11B26: ED 88 29       STD     41,X
11B29: A7 88 2B       STA     43,X
11B2C: 4F             CLRA
11B2D: A7 88 24       STA     36,X
11B30: A7 88 25       STA     37,X
11B33: A7 88 2F       STA     47,X
11B36: A7 88 31       STA     49,X
11B39: A6 84          LDA     ,X
11B3B: 85 10          BITA    #$10
11B3D: 27 06          BEQ     $11B45
11B3F: A6 28          LDA     8,Y
11B41: 85 20          BITA    #$20
11B43: 26 04          BNE     $11B49
L11B45:
11B45: 86 07          LDA     #$07
11B47: 20 02          BRA     $11B4B
L11B49:
11B49: 86 67          LDA     #$67
L11B4B:
11B4B: A7 02          STA     2,X
11B4D: 4F             CLRA
11B4E: A7 88 13       STA     19,X
11B51: A7 88 14       STA     20,X
11B54: A7 88 15       STA     21,X
11B57: A7 88 16       STA     22,X
11B5A: 39             RTS
11B5B: 34 76          PSHS    A,B,X,Y,U
11B5D: 32 7F          LEAS    -1,S
11B5F: A7 E4          STA     ,S
11B61: 4D             TSTA
11B62: 27 70          BEQ     $11BD4
11B64: 10 8E 07 DB    LDY     #$07DB
L11B68:
11B68: A6 A4          LDA     ,Y
11B6A: 2A 0B          BPL     $11B77
11B6C: 31 A8 24       LEAY    36,Y
11B6F: 10 8C 0A 1B    CMPY    #$0A1B
11B73: 26 F3          BNE     $11B68
11B75: 20 5D          BRA     $11BD4
L11B77:
11B77: 10 AF 88 41    STY     65,X
11B7B: A6 E4          LDA     ,S
11B7D: A7 88 21       STA     33,X
11B80: 34 10          PSHS    X
11B82: 86 80          LDA     #$80
11B84: A7 A8 16       STA     22,Y
11B87: 86 80          LDA     #$80
11B89: A7 A4          STA     ,Y
11B8B: AF A8 1F       STX     31,Y
11B8E: CC FF FF       LDD     #$FFFF
11B91: ED 24          STD     4,Y
11B93: CC 00 00       LDD     #$0000
11B96: ED 26          STD     6,Y
11B98: 6F 22          CLR     2,Y
11B9A: A6 03          LDA     3,X
11B9C: 84 80          ANDA    #$80
11B9E: A7 23          STA     3,Y
11BA0: A6 88 21       LDA     33,X
11BA3: 48             ASLA
11BA4: 8E 5B D8       LDX     #$5BD8
11BA7: 30 86          LEAX    A,X
11BA9: A6 80          LDA     ,X+
11BAB: A7 A8 17       STA     23,Y
11BAE: A6 80          LDA     ,X+
11BB0: A7 21          STA     1,Y
11BB2: 6F A8 1B       CLR     27,Y
11BB5: 35 10          PULS    X
11BB7: A6 A8 17       LDA     23,Y
11BBA: 84 1F          ANDA    #$1F
11BBC: 81 08          CMPA    #$08
11BBE: 27 0C          BEQ     $11BCC
11BC0: 81 09          CMPA    #$09
11BC2: 27 08          BEQ     $11BCC
11BC4: 81 05          CMPA    #$05
11BC6: 27 04          BEQ     $11BCC
11BC8: 81 06          CMPA    #$06
11BCA: 26 08          BNE     $11BD4
L11BCC:
11BCC: A6 88 17       LDA     23,X
11BCF: 8A 20          ORA     #$20
11BD1: A7 88 17       STA     23,X
L11BD4:
11BD4: 32 61          LEAS    1,S
11BD6: 35 F6          PULS    A,B,X,Y,U,PC
11BD8: 00 00          NEG     <$00
11BDA: 06 0F          ROR     <$0F
11BDC: 07 10          ASR     <$10
11BDE: 00 0C          NEG     <$0C
11BE0: 05             FCB     $05
11BE1: 11 04          FCB     $11,$04
11BE3: 0D 03          TST     <$03
11BE5: 0E 0E          JMP     <$0E
11BE7: 12             NOP
11BE8: 1C 34          ANDCC   #$34
11BEA: 1B             FCB     $1B
11BEB: 35 34          PULS    B,X,Y
11BED: 32 F6          LEAS    [A,S]
11BEF: 0F 7B          CLR     <$7B
11BF1: 26 1B          BNE     $11C0E
11BF3: BD 5C 58       JSR     $5C58
11BF6: 80 02          SUBA    #$02
11BF8: 2B 14          BMI     $11C0E
11BFA: 8E 5C 12       LDX     #$5C12
11BFD: 48             ASLA
11BFE: AE 86          LDX     A,X
11C00: B6 0B C1       LDA     $0BC1
11C03: E6 86          LDB     A,X
11C05: 8E 5C 54       LDX     #$5C54
11C08: 96 55          LDA     <$55
11C0A: EB 86          ADDB    A,X
11C0C: 20 02          BRA     $11C10
L11C0E:
11C0E: C6 06          LDB     #$06
L11C10:
11C10: 35 B2          PULS    A,X,Y,PC
11C12: 5C             INCB
11C13: 28 5C          BVC     $11C71
11C15: 2C 5C          BGE     $11C73
11C17: 30 5C          LEAX    -4,U
11C19: 34 5C          PSHS    B,DP,X,U
11C1B: 38             FCB     $38
11C1C: 5C             INCB
11C1D: 3C 5C          CWAI    #$5C
11C1F: 40             NEGA
11C20: 5C             INCB
11C21: 44             LSRA
11C22: 5C             INCB
11C23: 48             ASLA
11C24: 5C             INCB
11C25: 4C             INCA
11C26: 5C             INCB
11C27: 50             NEGB
11C28: 44             LSRA
11C29: 44             LSRA
11C2A: 44             LSRA
11C2B: 44             LSRA
11C2C: 1E 1E          EXG     X,?
11C2E: 1E 1E          EXG     X,?
11C30: 08 10          ASL     <$10
11C32: 14             FCB     $14
11C33: 14             FCB     $14
11C34: 2A 2C          BPL     $11C62
11C36: 32 32          LEAS    -14,Y
11C38: 14             FCB     $14
11C39: 14             FCB     $14
11C3A: 16 16 2C       LBRA    $13269
11C3D: 2C 2C          BGE     $11C6B
11C3F: 1E 04          EXG     D,S
11C41: 0A 0E          DEC     <$0E
11C43: 0E 04          JMP     <$04
11C45: 08 0C          ASL     <$0C
11C47: 0C 01          INC     <$01
11C49: 06 0A          ROR     <$0A
11C4B: 0A 26          DEC     <$26
11C4D: 24 18          BCC     $11C67
11C4F: 18             FCB     $18
11C50: 00 00          NEG     <$00
11C52: 00 00          NEG     <$00
11C54: 00 04          NEG     <$04
11C56: 08 0E          ASL     <$0E
11C58: 39             RTS
11C59: B6 0A AF       LDA     $0AAF
11C5C: 85 01          BITA    #$01
11C5E: 10 26 00 91    LBNE    $11CF3
L11C62:
11C62: FC 0B C1       LDD     $0BC1
11C65: 10 83 00 02    CMPD    #$0002
11C69: 10 26 00 86    LBNE    $11CF3
11C6D: B6 0A AC       LDA     $0AAC
11C70: 81 02          CMPA    #$02
11C72: 22 7F          BHI     $11CF3
11C74: DC 3C          LDD     <$3C
11C76: 10 83 04 00    CMPD    #$0400
11C7A: 26 77          BNE     $11CF3
11C7C: B6 0F 60       LDA     $0F60
11C7F: 26 0F          BNE     $11C90
11C81: 86 F2          LDA     #$F2
11C83: 8D 6F          BSR     $11CF4
11C85: 86 20          LDA     #$20
11C87: 8D 6B          BSR     $11CF4
11C89: 86 40          LDA     #$40
11C8B: B7 0F 60       STA     $0F60
11C8E: 20 63          BRA     $11CF3
L11C90:
11C90: 4A             DECA
11C91: 27 05          BEQ     $11C98
11C93: B7 0F 60       STA     $0F60
11C96: 20 5B          BRA     $11CF3
L11C98:
11C98: 86 00          LDA     #$00
11C9A: 8D 58          BSR     $11CF4
11C9C: 86 F0          LDA     #$F0
11C9E: 8D 54          BSR     $11CF4
11CA0: 4F             CLRA
11CA1: 8D 51          BSR     $11CF4
11CA3: 86 F1          LDA     #$F1
11CA5: 8D 4D          BSR     $11CF4
11CA7: 86 60          LDA     #$60
11CA9: 8D 49          BSR     $11CF4
11CAB: 86 32          LDA     #$32
11CAD: 8D 45          BSR     $11CF4
11CAF: 8E 07 78       LDX     #$0778
11CB2: 86 C1          LDA     #$C1
11CB4: A7 84          STA     ,X
11CB6: BD 5B 0B       JSR     $5B0B
11CB9: 86 89          LDA     #$89
11CBB: A7 88 17       STA     23,X
11CBE: 8B 02          ADDA    #$02
11CC0: 84 7F          ANDA    #$7F
11CC2: A7 01          STA     1,X
11CC4: BD 5B EC       JSR     $5BEC
11CC7: E7 88 1F       STB     31,X
11CCA: 86 1F          LDA     #$1F
11CCC: A7 88 1B       STA     27,X
11CCF: CC 04 F0       LDD     #$04F0
11CD2: ED 04          STD     4,X
11CD4: CC 01 28       LDD     #$0128
11CD7: ED 06          STD     6,X
11CD9: CC 03 70       LDD     #$0370
11CDC: ED 08          STD     8,X
11CDE: 86 09          LDA     #$09
11CE0: BD 5B 5B       JSR     $5B5B
11CE3: B6 0A AF       LDA     $0AAF
11CE6: 8A 01          ORA     #$01
11CE8: B7 0A AF       STA     $0AAF
11CEB: 7C 0A AC       INC     $0AAC
11CEE: 86 07          LDA     #$07
11CF0: BD 44 58       JSR     $4458
L11CF3:
11CF3: 39             RTS
L11CF4:
11CF4: 34 06          PSHS    A,B
11CF6: C6 20          LDB     #$20
L11CF8:
11CF8: 5A             DECB
11CF9: 26 FD          BNE     $11CF8
11CFB: BD 44 58       JSR     $4458
11CFE: 35 86          PULS    A,B,PC
11D00: B6 0A AF       LDA     $0AAF
11D03: 85 01          BITA    #$01
11D05: 26 48          BNE     $11D4F
11D07: 8E 5D 50       LDX     #$5D50
11D0A: B6 0B C1       LDA     $0BC1
11D0D: A6 86          LDA     A,X
11D0F: B1 0B C2       CMPA    $0BC2
11D12: 26 3B          BNE     $11D4F
11D14: 8E 07 78       LDX     #$0778
11D17: 10 8E 5D 54    LDY     #$5D54
11D1B: 96 36          LDA     <$36
11D1D: 48             ASLA
11D1E: 10 AE A6       LDY     A,Y
11D21: A6 A4          LDA     ,Y
11D23: 81 FF          CMPA    #$FF
11D25: 27 28          BEQ     $11D4F
11D27: 10 AF 88 43    STY     67,X
11D2B: A6 84          LDA     ,X
11D2D: 8A 91          ORA     #$91
11D2F: A7 84          STA     ,X
11D31: 7C 0A AC       INC     $0AAC
11D34: A6 29          LDA     9,Y
11D36: A7 88 48       STA     72,X
11D39: 86 00          LDA     #$00
11D3B: A7 88 47       STA     71,X
11D3E: A7 88 46       STA     70,X
11D41: A7 88 4A       STA     74,X
11D44: A7 88 45       STA     69,X
11D47: B6 0A AF       LDA     $0AAF
11D4A: 8A 01          ORA     #$01
11D4C: B7 0A AF       STA     $0AAF
L11D4F:
11D4F: 39             RTS
11D50: 02             FCB     $02
11D51: 01             FCB     $01
11D52: 05             FCB     $05
11D53: 02             FCB     $02
11D54: 5D             TSTB
11D55: 5C             INCB
11D56: 5D             TSTB
11D57: 5D             TSTB
11D58: 5D             TSTB
11D59: 67 5D          ASR     -3,U
11D5B: 68 FF 4C F5    ASL     [$4CF5]
11D5F: 00 24          NEG     <$24
11D61: 43             COMA
11D62: 00 01          NEG     <$01
11D64: 07 C0          ASR     <$C0
11D66: 08 FF          ASL     <$FF
11D68: 80 38          SUBA    #$38
11D6A: 01             FCB     $01
11D6B: 24 40          BCC     $11DAD
11D6D: 19             DAA
11D6E: 01             FCB     $01
11D6F: A0 C0          SUBA    ,U+
11D71: 17 5D 7A       LBSR    $17AEE
11D74: 5D             TSTB
11D75: 80 5D          SUBA    #$5D
11D77: 84 5D          ANDA    #$5D
11D79: 92 5D          SBCA    <$5D
11D7B: 98 5D          EORA    <$5D
11D7D: AD 5D          JSR     -3,U
11D7F: CC 5D F5       LDD     #$5DF5
11D82: 5E             FCB     $5E
11D83: 32 5E          LEAS    -2,U
11D85: 51             FCB     $51
11D86: 5E             FCB     $5E
11D87: 66 5E          ROR     -2,U
11D89: 85 5E          BITA    #$5E
11D8B: 99 5E          ADCA    <$5E
11D8D: 9A 5E          ORA     <$5E
11D8F: B9 5E BA       ADCA    $5EBA
11D92: 5E             FCB     $5E
11D93: D9 5F          ADCB    <$5F
11D95: 02             FCB     $02
11D96: 5F             CLRB
11D97: 03 08          COM     <$08
11D99: 38             FCB     $38
11D9A: 01             FCB     $01
11D9B: 24 46          BCC     $11DE3
11D9D: 00 43          NEG     <$43
11D9F: 00 00          NEG     <$00
11DA1: 01             FCB     $01
11DA2: 08 18          ASL     <$18
11DA4: 21 24          BRN     $11DCA
11DA6: 46             RORA
11DA7: 00 43          NEG     <$43
11DA9: 00 00          NEG     <$00
11DAB: 01             FCB     $01
11DAC: FF 98 38       STU     $9838
11DAF: 01             FCB     $01
11DB0: 24 47          BCC     $11DF9
11DB2: 00 03          NEG     <$03
11DB4: 00 40          NEG     <$40
11DB6: 01             FCB     $01
11DB7: 30 20          LEAX    ,Y
11DB9: 01             FCB     $01
11DBA: 24 47          BCC     $11E03
11DBC: 10 27 70 20    LBEQ    $18DE0
11DC0: 02             FCB     $02
11DC1: D0 18          SUBB    <$18
11DC3: 01             FCB     $01
11DC4: 24 47          BCC     $11E0D
11DC6: 00 23          NEG     <$23
11DC8: 00 40          NEG     <$40
L11DCA:
11DCA: 02             FCB     $02
11DCB: FF 70 18       STU     $7018
11DCE: 01             FCB     $01
11DCF: 24 08          BCC     $11DD9
11DD1: 00 03          NEG     <$03
11DD3: 00 07          NEG     <$07
11DD5: 03 C0          COM     <$C0
11DD7: 10 01          FCB     $10,$01
L11DD9:
11DD9: 24 08          BCC     $11DE3
11DDB: 00 03          NEG     <$03
11DDD: 00 01          NEG     <$01
11DDF: 03 40          COM     <$40
11DE1: 18             FCB     $18
11DE2: 01             FCB     $01
L11DE3:
11DE3: 24 06          BCC     $11DEB
11DE5: 00 23          NEG     <$23
11DE7: 00 01          NEG     <$01
11DE9: 04 70          LSR     <$70
L11DEB:
11DEB: 10 01          FCB     $10,$01
11DED: 24 06          BCC     $11DF5
11DEF: 00 43          NEG     <$43
11DF1: 00 02          NEG     <$02
11DF3: 04 FF          LSR     <$FF
L11DF5:
11DF5: 90 40          SUBA    <$40
11DF7: 01             FCB     $01
11DF8: 24 48          BCC     $11E42
11DFA: 00 01          NEG     <$01
11DFC: 00 00          NEG     <$00
11DFE: 05             FCB     $05
11DFF: B0 28 01       SUBA    $2801
11E02: 24 48          BCC     $11E4C
11E04: 00 01          NEG     <$01
11E06: 00 04          NEG     <$04
11E08: 05             FCB     $05
11E09: D0 48          SUBB    <$48
11E0B: 01             FCB     $01
11E0C: 24 06          BCC     $11E14
11E0E: 00 01          NEG     <$01
11E10: 30 00          LEAX    ,X
11E12: 05             FCB     $05
11E13: E0 38          SUBB    -8,Y
11E15: 01             FCB     $01
11E16: 24 07          BCC     $11E1F
11E18: 00 01          NEG     <$01
11E1A: 30 00          LEAX    ,X
11E1C: 05             FCB     $05
11E1D: 80 28          SUBA    #$28
L11E1F:
11E1F: 01             FCB     $01
11E20: 24 06          BCC     $11E28
11E22: 00 01          NEG     <$01
11E24: 60 00          NEG     ,X
11E26: 06 A8          ROR     <$A8
L11E28:
11E28: 40             NEGA
11E29: 01             FCB     $01
11E2A: 24 06          BCC     $11E32
11E2C: 00 01          NEG     <$01
11E2E: 70 00 06       NEG     $0006
11E31: FF 60 20       STU     $6020
11E34: 01             FCB     $01
11E35: 24 08          BCC     $11E3F
11E37: 00 01          NEG     <$01
11E39: C0 00          SUBB    #$00
11E3B: 07 A0          ASR     <$A0
11E3D: 28 31          BVC     $11E70
L11E3F:
11E3F: 24 06          BCC     $11E47
11E41: 00 01          NEG     <$01
11E43: C0 01          SUBB    #$01
11E45: 07 D0          ASR     <$D0
L11E47:
11E47: 18             FCB     $18
11E48: 01             FCB     $01
11E49: 24 07          BCC     $11E52
11E4B: 00 01          NEG     <$01
11E4D: C0 00          SUBB    #$00
11E4F: 07 FF          ASR     <$FF
11E51: 01             FCB     $01
L11E52:
11E52: C4 00          ANDB    #$00
11E54: 24 42          BCC     $11E98
11E56: 00 01          NEG     <$01
11E58: 00 00          NEG     <$00
11E5A: 09 10          ROL     <$10
11E5C: A3 00          SUBD    ,X
11E5E: 24 46          BCC     $11EA6
11E60: 00 41          NEG     <$41
11E62: 00 00          NEG     <$00
11E64: 09 FF          ROL     <$FF
11E66: 50             NEGB
11E67: C0 00          SUBB    #$00
11E69: 24 46          BCC     $11EB1
11E6B: 00 41          NEG     <$41
11E6D: 00 01          NEG     <$01
11E6F: 09 80          ROL     <$80
11E71: A0 00          SUBA    ,X
11E73: 24 48          BCC     $11EBD
11E75: 00 01          NEG     <$01
11E77: 00 01          NEG     <$01
11E79: 09 C0          ROL     <$C0
11E7B: D0 00          SUBB    <$00
11E7D: 24 47          BCC     $11EC6
11E7F: 00 01          NEG     <$01
11E81: 00 02          NEG     <$02
11E83: 09 FF          ROL     <$FF
11E85: 40             NEGA
11E86: C0 00          SUBB    #$00
11E88: 24 46          BCC     $11ED0
11E8A: 00 01          NEG     <$01
11E8C: 00 00          NEG     <$00
11E8E: 0B             FCB     $0B
11E8F: 80 B0          SUBA    #$B0
11E91: 00 24          NEG     <$24
11E93: 46             RORA
11E94: 00 41          NEG     <$41
11E96: 00 01          NEG     <$01
L11E98:
11E98: 0A FF          DEC     <$FF
11E9A: 60 D0          NEG     ,U+
11E9C: 00 24          NEG     <$24
11E9E: 46             RORA
11E9F: 00 21          NEG     <$21
11EA1: 00 02          NEG     <$02
11EA3: 0D 98          TST     <$98
11EA5: A0 00          SUBA    ,X
11EA7: 24 46          BCC     $11EEF
11EA9: 00 61          NEG     <$61
11EAB: 00 01          NEG     <$01
11EAD: 0D D0          TST     <$D0
11EAF: C0 00          SUBB    #$00
L11EB1:
11EB1: 24 47          BCC     $11EFA
11EB3: 00 01          NEG     <$01
11EB5: 00 00          NEG     <$00
11EB7: 0E FF          JMP     <$FF
11EB9: FF F0 D8       STU     $F0D8
11EBC: 00 24          NEG     <$24
11EBE: 44             LSRA
11EBF: 00 02          NEG     <$02
11EC1: 80 00          SUBA    #$00
11EC3: 10 60          FCB     $10,$60
11EC5: A8 00          EORA    ,X
11EC7: 24 44          BCC     $11F0D
11EC9: 00 02          NEG     <$02
11ECB: 80 00          SUBA    #$00
11ECD: 11 60          FCB     $11,$60
11ECF: B8 00 24       EORA    $0024
11ED2: 44             LSRA
11ED3: 00 02          NEG     <$02
11ED5: 80 00          SUBA    #$00
11ED7: 11 FF          FCB     $11,$FF
11ED9: 08 78          ASL     <$78
11EDB: 01             FCB     $01
11EDC: 24 42          BCC     $11F20
11EDE: 00 02          NEG     <$02
11EE0: 00 00          NEG     <$00
11EE2: 13             SYNC
11EE3: B0 70 01       SUBA    $7001
11EE6: 24 46          BCC     $11F2E
11EE8: 00 22          NEG     <$22
11EEA: 00 00          NEG     <$00
11EEC: 13             SYNC
11EED: C0 60          SUBB    #$60
L11EEF:
11EEF: 01             FCB     $01
11EF0: 24 45          BCC     $11F37
11EF2: 00 42          NEG     <$42
11EF4: 00 00          NEG     <$00
11EF6: 13             SYNC
11EF7: C0 70          SUBB    #$70
11EF9: 01             FCB     $01
L11EFA:
11EFA: 24 45          BCC     $11F41
11EFC: 00 02          NEG     <$02
11EFE: 00 00          NEG     <$00
11F00: 13             SYNC
11F01: FF FF 60       STU     $FF60
11F04: 30 01          LEAX    1,X
11F06: 24 43          BCC     $11F4B
11F08: 00 01          NEG     <$01
11F0A: 20 00          BRA     $11F0C
L11F0C:
11F0C: 16 B0 68       LBRA    $CF77
11F0F: 01             FCB     $01
11F10: 24 42          BCC     $11F54
11F12: 00 01          NEG     <$01
11F14: 20 00          BRA     $11F16
L11F16:
11F16: 16 F0 78       LBRA    $10F91
11F19: 01             FCB     $01
11F1A: 24 43          BCC     $11F5F
11F1C: 00 01          NEG     <$01
11F1E: 20 00          BRA     $11F20
L11F20:
11F20: 16 FF FF       LBRA    $11F22
11F23: 00 00          NEG     <$00
11F25: 5F             CLRB
11F26: 37 00          PULU
11F28: 20 5F          BRA     $11F89
11F2A: 38             FCB     $38
11F2B: 0C 00          INC     <$00
11F2D: 5F             CLRB
L11F2E:
11F2E: 45             FCB     $45
11F2F: 0D C0          TST     <$C0
11F31: 5F             CLRB
11F32: 52             FCB     $52
11F33: FF FF 5F       STU     $FF5F
11F36: 37 FF          PULU    CC,A,B,DP,X,Y,S,PC
11F38: FC 01 F8       LDD     $01F8
11F3B: 18             FCB     $18
11F3C: 01             FCB     $01
11F3D: 24 28          BCC     $11F67
11F3F: 00 03          NEG     <$03
L11F41:
11F41: 00 07          NEG     <$07
11F43: 00 FF          NEG     <$FF
11F45: FC 01 F8       LDD     $01F8
11F48: D0 00          SUBB    <$00
11F4A: 24 01          BCC     $11F4D
11F4C: 00 01          NEG     <$01
11F4E: 00 00          NEG     <$00
11F50: 00 FF          NEG     <$FF
11F52: FC 02 F8       LDD     $02F8
11F55: C0 00          SUBB    #$00
11F57: 24 21          BCC     $11F7A
11F59: 00 01          NEG     <$01
11F5B: 00 04          NEG     <$04
11F5D: 00 F8          NEG     <$F8
L11F5F:
11F5F: A0 00          SUBA    ,X
11F61: 24 01          BCC     $11F64
11F63: 00 01          NEG     <$01
11F65: 00 04          NEG     <$04
L11F67:
11F67: 00 FF          NEG     <$FF
11F69: A6 88 15       LDA     21,X
11F6C: 84 01          ANDA    #$01
11F6E: 27 5F          BEQ     $11FCF
11F70: A6 88 23       LDA     35,X
11F73: 2B 2E          BMI     $11FA3
11F75: A6 01          LDA     1,X
11F77: 81 22          CMPA    #$22
11F79: 25 02          BCS     $11F7D
11F7B: 80 17          SUBA    #$17
L11F7D:
11F7D: 48             ASLA
11F7E: 10 8E 66 D2    LDY     #$66D2
11F82: 10 AE A6       LDY     A,Y
11F85: A6 02          LDA     2,X
11F87: 84 7F          ANDA    #$7F
L11F89:
11F89: 81 7F          CMPA    #$7F
11F8B: 26 08          BNE     $11F95
11F8D: 10 AE 88 2D    LDY     45,X
11F91: A6 22          LDA     2,Y
11F93: 84 7F          ANDA    #$7F
L11F95:
11F95: 97 00          STA     <$00
11F97: 4F             CLRA
L11F98:
11F98: E6 A6          LDB     A,Y
11F9A: 2B 07          BMI     $11FA3
11F9C: D1 00          CMPB    <$00
11F9E: 27 2E          BEQ     $11FCE
11FA0: 4C             INCA
11FA1: 20 F5          BRA     $11F98
L11FA3:
11FA3: A6 88 1B       LDA     27,X
11FA6: 97 00          STA     <$00
11FA8: 84 7F          ANDA    #$7F
11FAA: 81 0A          CMPA    #$0A
11FAC: 27 3F          BEQ     $11FED
11FAE: A6 88 23       LDA     35,X
11FB1: 84 7F          ANDA    #$7F
11FB3: A7 88 1B       STA     27,X
11FB6: 8D 3F          BSR     $11FF7
11FB8: A6 88 15       LDA     21,X
11FBB: 84 FE          ANDA    #$FE
11FBD: A7 88 15       STA     21,X
11FC0: A6 88 1F       LDA     31,X
11FC3: 27 09          BEQ     $11FCE
11FC5: A0 88 20       SUBA    32,X
11FC8: 24 01          BCC     $11FCB
11FCA: 4F             CLRA
L11FCB:
11FCB: A7 88 1F       STA     31,X
L11FCE:
11FCE: 39             RTS
L11FCF:
11FCF: A6 88 24       LDA     36,X
11FD2: 27 08          BEQ     $11FDC
11FD4: 6A 88 24       DEC     36,X
11FD7: 26 03          BNE     $11FDC
11FD9: 6F 88 25       CLR     37,X
L11FDC:
11FDC: A6 88 1B       LDA     27,X
11FDF: 84 7F          ANDA    #$7F
11FE1: 81 02          CMPA    #$02
11FE3: 27 11          BEQ     $11FF6
11FE5: 81 03          CMPA    #$03
11FE7: 27 0D          BEQ     $11FF6
11FE9: 81 0A          CMPA    #$0A
11FEB: 27 09          BEQ     $11FF6
L11FED:
11FED: CC FF FF       LDD     #$FFFF
11FF0: ED 88 29       STD     41,X
11FF3: A7 88 2B       STA     43,X
L11FF6:
11FF6: 39             RTS
L11FF7:
11FF7: A6 88 1B       LDA     27,X
11FFA: 81 0A          CMPA    #$0A
11FFC: 27 18          BEQ     $12016
11FFE: 10 AE 88 2D    LDY     45,X
12002: 96 00          LDA     <$00
12004: 84 7F          ANDA    #$7F
12006: 81 09          CMPA    #$09
12008: 27 0D          BEQ     $12017
1200A: 81 0A          CMPA    #$0A
1200C: 27 09          BEQ     $12017
1200E: 81 06          CMPA    #$06
12010: 27 05          BEQ     $12017
12012: 81 08          CMPA    #$08
12014: 27 01          BEQ     $12017
L12016:
12016: 39             RTS
L12017:
12017: A6 A8 1B       LDA     27,Y
1201A: 84 7F          ANDA    #$7F
1201C: 81 0C          CMPA    #$0C
1201E: 26 F6          BNE     $12016
12020: 86 00          LDA     #$00
12022: A7 88 1B       STA     27,X
12025: 39             RTS
12026: 34 40          PSHS    U
12028: 4F             CLRA
12029: B7 0B 28       STA     $0B28
1202C: 8E 03 A2       LDX     #$03A2
1202F: BF 0B 2E       STX     $0B2E
L12032:
12032: 8D 1B          BSR     $1204F
12034: FC 0B 2E       LDD     $0B2E
12037: C3 00 5F       ADDD    #$005F
1203A: FD 0B 2E       STD     $0B2E
1203D: 7C 0B 28       INC     $0B28
12040: B6 0B 28       LDA     $0B28
12043: 81 02          CMPA    #$02
12045: 26 EB          BNE     $12032
12047: BD 61 16       JSR     $6116
1204A: BD 76 F1       JSR     $76F1
1204D: 35 C0          PULS    U,PC
L1204F:
1204F: BE 0B 2E       LDX     $0B2E
12052: A6 84          LDA     ,X
12054: 84 C0          ANDA    #$C0
12056: 81 C0          CMPA    #$C0
12058: 10 26 00 B9    LBNE    $12115
1205C: A6 88 1B       LDA     27,X
1205F: 10 2A 00 B2    LBPL    $12115
12063: A6 02          LDA     2,X
12065: 84 7F          ANDA    #$7F
12067: 81 7F          CMPA    #$7F
12069: 26 03          BNE     $1206E
1206B: AE 88 2D       LDX     45,X
L1206E:
1206E: BD 62 21       JSR     $6221
12071: 10 BF 0B 2A    STY     $0B2A
12075: 86 02          LDA     #$02
12077: B7 0B 29       STA     $0B29
1207A: 8E 04 60       LDX     #$0460
1207D: BF 0B 30       STX     $0B30
L12080:
12080: BE 0B 30       LDX     $0B30
12083: A6 88 1B       LDA     27,X
12086: 27 16          BEQ     $1209E
12088: 81 07          CMPA    #$07
1208A: 27 12          BEQ     $1209E
1208C: 85 80          BITA    #$80
1208E: 27 70          BEQ     $12100
12090: 84 3F          ANDA    #$3F
12092: 81 1F          CMPA    #$1F
12094: 27 6A          BEQ     $12100
12096: 81 05          CMPA    #$05
12098: 27 66          BEQ     $12100
1209A: 81 1E          CMPA    #$1E
1209C: 27 62          BEQ     $12100
L1209E:
1209E: A6 84          LDA     ,X
120A0: 2A 5E          BPL     $12100
120A2: 85 40          BITA    #$40
120A4: 27 5A          BEQ     $12100
120A6: 10 BE 0B 2E    LDY     $0B2E
120AA: A6 A8 31       LDA     49,Y
120AD: AA 88 31       ORA     49,X
120B0: 85 18          BITA    #$18
120B2: 27 0E          BEQ     $120C2
120B4: F6 0B 28       LDB     $0B28
120B7: 58             ASLB
120B8: CB 3B          ADDB    #$3B
120BA: A6 85          LDA     B,X
120BC: 81 08          CMPA    #$08
120BE: 24 40          BCC     $12100
120C0: 20 0C          BRA     $120CE
L120C2:
120C2: F6 0B 28       LDB     $0B28
120C5: 58             ASLB
120C6: CB 3B          ADDB    #$3B
120C8: A6 85          LDA     B,X
120CA: 81 08          CMPA    #$08
120CC: 24 32          BCC     $12100
L120CE:
120CE: F6 0B 28       LDB     $0B28
120D1: 58             ASLB
120D2: CB 3A          ADDB    #$3A
120D4: A6 85          LDA     B,X
120D6: 81 30          CMPA    #$30
120D8: 24 26          BCC     $12100
120DA: BD 62 21       JSR     $6221
120DD: 10 BF 0B 2C    STY     $0B2C
120E1: B6 0B 28       LDA     $0B28
120E4: 81 02          CMPA    #$02
120E6: 24 0D          BCC     $120F5
120E8: C6 02          LDB     #$02
120EA: 86 01          LDA     #$01
120EC: BD 61 E4       JSR     $61E4
120EF: BD 62 AF       JSR     $62AF
120F2: BD 65 C6       JSR     $65C6
L120F5:
120F5: 5F             CLRB
120F6: 4F             CLRA
120F7: BD 61 E4       JSR     $61E4
120FA: BD 62 AF       JSR     $62AF
120FD: BD 65 C6       JSR     $65C6
L12100:
12100: FC 0B 30       LDD     $0B30
12103: C3 00 63       ADDD    #$0063
12106: FD 0B 30       STD     $0B30
12109: 7C 0B 29       INC     $0B29
1210C: B6 0B 29       LDA     $0B29
1210F: 81 0B          CMPA    #$0B
12111: 10 26 FF 6B    LBNE    $12080
L12115:
12115: 39             RTS
12116: B6 03 A2       LDA     $03A2
12119: 84 C0          ANDA    #$C0
1211B: 81 C0          CMPA    #$C0
1211D: 10 26 00 C2    LBNE    $121E3
12121: B6 04 01       LDA     $0401
12124: 84 C0          ANDA    #$C0
12126: 81 C0          CMPA    #$C0
12128: 10 26 00 B7    LBNE    $121E3
1212C: 4F             CLRA
1212D: B7 0B 28       STA     $0B28
12130: 8E 03 A2       LDX     #$03A2
12133: BF 0B 2E       STX     $0B2E
12136: A6 88 1B       LDA     27,X
12139: 10 2A 00 A6    LBPL    $121E3
1213D: 84 7F          ANDA    #$7F
1213F: 81 06          CMPA    #$06
12141: 26 0C          BNE     $1214F
12143: 10 AE 88 2D    LDY     45,X
12147: 10 8C 04 01    CMPY    #$0401
1214B: 10 27 00 94    LBEQ    $121E3
L1214F:
1214F: A6 02          LDA     2,X
12151: 84 7F          ANDA    #$7F
12153: 81 7F          CMPA    #$7F
12155: 26 0A          BNE     $12161
12157: AE 88 2D       LDX     45,X
1215A: 8C 04 01       CMPX    #$0401
1215D: 10 26 00 82    LBNE    $121E3
L12161:
12161: BD 62 21       JSR     $6221
12164: 10 BF 0B 2A    STY     $0B2A
12168: 86 01          LDA     #$01
1216A: B7 0B 29       STA     $0B29
1216D: 8E 04 01       LDX     #$0401
12170: BF 0B 30       STX     $0B30
12173: A6 88 1B       LDA     27,X
12176: 2A 6B          BPL     $121E3
12178: 84 7F          ANDA    #$7F
1217A: 81 06          CMPA    #$06
1217C: 26 0A          BNE     $12188
1217E: 10 AE 88 2D    LDY     45,X
12182: 10 8C 03 A2    CMPY    #$03A2
12186: 27 5B          BEQ     $121E3
L12188:
12188: A6 02          LDA     2,X
1218A: 84 7F          ANDA    #$7F
1218C: 81 7F          CMPA    #$7F
1218E: 26 03          BNE     $12193
12190: AE 88 2D       LDX     45,X
L12193:
12193: BD 62 21       JSR     $6221
12196: 10 BF 0B 2C    STY     $0B2C
1219A: BE 0B 2E       LDX     $0B2E
1219D: 10 BE 0B 30    LDY     $0B30
121A1: EC 06          LDD     6,X
121A3: A3 26          SUBD    6,Y
121A5: 2A 03          BPL     $121AA
121A7: BD 66 B5       JSR     $66B5
L121AA:
121AA: A6 88 31       LDA     49,X
121AD: AA A8 31       ORA     49,Y
121B0: 85 18          BITA    #$18
121B2: 27 06          BEQ     $121BA
121B4: C1 08          CMPB    #$08
121B6: 24 2B          BCC     $121E3
121B8: 20 04          BRA     $121BE
L121BA:
121BA: C1 08          CMPB    #$08
121BC: 24 25          BCC     $121E3
L121BE:
121BE: EC 04          LDD     4,X
121C0: A3 24          SUBD    4,Y
121C2: 2A 03          BPL     $121C7
121C4: BD 66 B5       JSR     $66B5
L121C7:
121C7: C1 30          CMPB    #$30
121C9: 24 18          BCC     $121E3
121CB: C6 02          LDB     #$02
121CD: 86 01          LDA     #$01
121CF: BD 61 E4       JSR     $61E4
121D2: BD 62 AF       JSR     $62AF
121D5: BD 65 C6       JSR     $65C6
121D8: 5F             CLRB
121D9: 4F             CLRA
121DA: BD 61 E4       JSR     $61E4
121DD: BD 62 AF       JSR     $62AF
121E0: BD 65 C6       JSR     $65C6
L121E3:
121E3: 39             RTS
121E4: 8E 0B 2A       LDX     #$0B2A
121E7: AE 85          LDX     B,X
121E9: BF 0B 35       STX     $0B35
121EC: 8E 0B 2E       LDX     #$0B2E
121EF: AE 85          LDX     B,X
121F1: BF 0B 33       STX     $0B33
121F4: 34 02          PSHS    A
121F6: 8E 0B 28       LDX     #$0B28
121F9: A6 86          LDA     A,X
121FB: B7 0B 32       STA     $0B32
121FE: 35 02          PULS    A
12200: C8 02          EORB    #$02
12202: 88 01          EORA    #$01
12204: 8E 0B 2A       LDX     #$0B2A
12207: AE 85          LDX     B,X
12209: BF 0B 42       STX     $0B42
1220C: 8E 0B 2E       LDX     #$0B2E
1220F: AE 85          LDX     B,X
12211: BF 0B 40       STX     $0B40
12214: 34 02          PSHS    A
12216: 8E 0B 28       LDX     #$0B28
12219: A6 86          LDA     A,X
1221B: B7 0B 3F       STA     $0B3F
1221E: 35 02          PULS    A
12220: 39             RTS
12221: 32 7E          LEAS    -2,S
12223: A6 88 16       LDA     22,X
12226: 84 06          ANDA    #$06
12228: 81 02          CMPA    #$02
1222A: 27 0E          BEQ     $1223A
1222C: 81 04          CMPA    #$04
1222E: 27 18          BEQ     $12248
12230: A6 01          LDA     1,X
12232: A7 E4          STA     ,S
12234: A6 02          LDA     2,X
12236: A7 61          STA     1,S
12238: 20 1A          BRA     $12254
L1223A:
1223A: 10 AE 88 2D    LDY     45,X
1223E: A6 21          LDA     1,Y
12240: A7 E4          STA     ,S
12242: A6 22          LDA     2,Y
12244: A7 61          STA     1,S
12246: 20 0C          BRA     $12254
L12248:
12248: A6 02          LDA     2,X
1224A: A7 61          STA     1,S
1224C: 10 AE 88 2D    LDY     45,X
12250: A6 21          LDA     1,Y
12252: A7 E4          STA     ,S
L12254:
12254: A6 61          LDA     1,S
12256: 84 7F          ANDA    #$7F
12258: 48             ASLA
12259: 1F 89          TFR     A,B
1225B: 4F             CLRA
1225C: 10 8E 67 28    LDY     #$6728
12260: 10 AE AB       LDY     D,Y
12263: 10 9F 00       STY     <$00
12266: 10 8E 62 7A    LDY     #$627A
1226A: A6 E4          LDA     ,S
1226C: 84 3F          ANDA    #$3F
1226E: A6 A6          LDA     A,Y
12270: 48             ASLA
12271: 10 9E 00       LDY     <$00
12274: 10 AE A6       LDY     A,Y
12277: 32 62          LEAS    2,S
12279: 39             RTS
1227A: 00 00          NEG     <$00
1227C: 01             FCB     $01
1227D: 02             FCB     $02
1227E: 03 06          COM     <$06
12280: 03 08          COM     <$08
12282: 04 04          LSR     <$04
12284: 04 07          LSR     <$07
12286: 00 00          NEG     <$00
12288: 00 00          NEG     <$00
1228A: 00 00          NEG     <$00
1228C: 00 00          NEG     <$00
1228E: 00 00          NEG     <$00
12290: 00 00          NEG     <$00
12292: 00 00          NEG     <$00
12294: 00 00          NEG     <$00
12296: 00 00          NEG     <$00
12298: 00 00          NEG     <$00
1229A: 00 00          NEG     <$00
1229C: 04 04          LSR     <$04
1229E: 00 00          NEG     <$00
122A0: 00 00          NEG     <$00
122A2: 00 00          NEG     <$00
122A4: 00 00          NEG     <$00
122A6: 05             FCB     $05
122A7: 05             FCB     $05
122A8: 00 00          NEG     <$00
122AA: 00 00          NEG     <$00
122AC: 00 00          NEG     <$00
122AE: 00 B6          NEG     <$B6
122B0: 0B             FCB     $0B
122B1: 32 B1          LEAS    [,Y++]
122B3: 0B             FCB     $0B
122B4: 3F             SWI
122B5: 10 27 02 C2    LBEQ    $1257B
122B9: BE 0B 33       LDX     $0B33
122BC: 10 BE 0B 40    LDY     $0B40
122C0: A6 88 1B       LDA     27,X
122C3: A4 A8 1B       ANDA    27,Y
122C6: 2B 15          BMI     $122DD
122C8: A6 88 1B       LDA     27,X
122CB: 27 10          BEQ     $122DD
122CD: 81 07          CMPA    #$07
122CF: 27 0C          BEQ     $122DD
122D1: A6 A8 1B       LDA     27,Y
122D4: 27 07          BEQ     $122DD
122D6: 81 07          CMPA    #$07
122D8: 27 03          BEQ     $122DD
122DA: 7E 65 7B       JMP     $657B
L122DD:
122DD: B6 0B 3F       LDA     $0B3F
122E0: 81 01          CMPA    #$01
122E2: 22 07          BHI     $122EB
122E4: A6 88 14       LDA     20,X
122E7: 10 2B 02 90    LBMI    $1257B
L122EB:
122EB: BE 0B 35       LDX     $0B35
122EE: 10 BE 0B 42    LDY     $0B42
122F2: A6 84          LDA     ,X
122F4: A1 A4          CMPA    ,Y
122F6: 10 2B 02 81    LBMI    $1257B
122FA: 26 06          BNE     $12302
122FC: 81 00          CMPA    #$00
122FE: 10 27 02 79    LBEQ    $1257B
L12302:
12302: BE 0B 33       LDX     $0B33
12305: 10 BE 0B 40    LDY     $0B40
12309: EC A8 2A       LDD     42,Y
1230C: 10 B3 0B 33    CMPD    $0B33
12310: 26 2C          BNE     $1233E
12312: AE A8 2A       LDX     42,Y
12315: A6 88 1B       LDA     27,X
12318: 84 7F          ANDA    #$7F
1231A: 81 00          CMPA    #$00
1231C: 27 20          BEQ     $1233E
1231E: 81 07          CMPA    #$07
12320: 26 0B          BNE     $1232D
12322: A6 88 1E       LDA     30,X
12325: 81 07          CMPA    #$07
12327: 27 15          BEQ     $1233E
12329: 81 08          CMPA    #$08
1232B: 27 11          BEQ     $1233E
L1232D:
1232D: BE 0B 33       LDX     $0B33
12330: 10 BE 0B 40    LDY     $0B40
12334: A6 A8 29       LDA     41,Y
12337: A1 88 1D       CMPA    29,X
1233A: 10 27 02 3D    LBEQ    $1257B
L1233E:
1233E: BE 0B 35       LDX     $0B35
12341: EC 04          LDD     4,X
12343: FD 0B 3B       STD     $0B3B
12346: BE 0B 42       LDX     $0B42
12349: EC 02          LDD     2,X
1234B: FD 0B 4A       STD     $0B4A
1234E: 10 83 73 C6    CMPD    #$73C6
12352: 10 27 02 25    LBEQ    $1257B
12356: BE 0B 3B       LDX     $0B3B
12359: A6 84          LDA     ,X
1235B: E6 02          LDB     2,X
1235D: BE 0B 33       LDX     $0B33
12360: BD 66 87       JSR     $6687
12363: FD 0B 37       STD     $0B37
12366: BE 0B 4A       LDX     $0B4A
12369: A6 84          LDA     ,X
1236B: E6 02          LDB     2,X
1236D: BE 0B 40       LDX     $0B40
12370: BD 66 87       JSR     $6687
12373: FD 0B 44       STD     $0B44
12376: FC 0B 37       LDD     $0B37
12379: 10 B3 0B 44    CMPD    $0B44
1237D: 25 0B          BCS     $1238A
1237F: BE 0B 4A       LDX     $0B4A
12382: FC 0B 37       LDD     $0B37
12385: B3 0B 44       SUBD    $0B44
12388: 20 09          BRA     $12393
L1238A:
1238A: BE 0B 3B       LDX     $0B3B
1238D: FC 0B 44       LDD     $0B44
12390: B3 0B 37       SUBD    $0B37
L12393:
12393: E1 02          CMPB    2,X
12395: 10 22 01 E2    LBHI    $1257B
12399: BE 0B 33       LDX     $0B33
1239C: 10 BE 0B 3B    LDY     $0B3B
123A0: 4F             CLRA
123A1: E6 21          LDB     1,Y
123A3: 1D             SEX
123A4: E3 08          ADDD    8,X
123A6: FD 0B 39       STD     $0B39
123A9: BE 0B 40       LDX     $0B40
123AC: 10 BE 0B 4A    LDY     $0B4A
123B0: 4F             CLRA
123B1: E6 21          LDB     1,Y
123B3: 1D             SEX
123B4: E3 08          ADDD    8,X
123B6: FD 0B 46       STD     $0B46
123B9: FC 0B 39       LDD     $0B39
123BC: 10 B3 0B 46    CMPD    $0B46
123C0: 25 0B          BCS     $123CD
123C2: BE 0B 4A       LDX     $0B4A
123C5: FC 0B 39       LDD     $0B39
123C8: B3 0B 46       SUBD    $0B46
123CB: 20 09          BRA     $123D6
L123CD:
123CD: BE 0B 3B       LDX     $0B3B
123D0: FC 0B 46       LDD     $0B46
123D3: B3 0B 39       SUBD    $0B39
L123D6:
123D6: E1 03          CMPB    3,X
123D8: 10 22 01 9F    LBHI    $1257B
123DC: 10 BE 0B 35    LDY     $0B35
123E0: 10 AE 26       LDY     6,Y
123E3: 10 BF 0B 4C    STY     $0B4C
123E7: BE 0B 40       LDX     $0B40
L123EA:
123EA: A6 A4          LDA     ,Y
123EC: 81 FD          CMPA    #$FD
123EE: 10 27 01 89    LBEQ    $1257B
123F2: 81 FC          CMPA    #$FC
123F4: 27 1C          BEQ     $12412
123F6: 81 FE          CMPA    #$FE
123F8: 27 2E          BEQ     $12428
123FA: 81 FF          CMPA    #$FF
123FC: 27 3C          BEQ     $1243A
123FE: A6 A4          LDA     ,Y
12400: BD 66 BB       JSR     $66BB
12403: 34 02          PSHS    A
12405: A6 01          LDA     1,X
12407: BD 66 BB       JSR     $66BB
1240A: A1 E0          CMPA    ,S+
1240C: 27 1A          BEQ     $12428
1240E: 31 22          LEAY    2,Y
12410: 20 24          BRA     $12436
L12412:
12412: 31 21          LEAY    1,Y
12414: A6 A4          LDA     ,Y
12416: BD 66 BB       JSR     $66BB
12419: 34 02          PSHS    A
1241B: A6 01          LDA     1,X
1241D: BD 66 BB       JSR     $66BB
12420: A1 E0          CMPA    ,S+
12422: 26 04          BNE     $12428
12424: 31 21          LEAY    1,Y
12426: 20 0E          BRA     $12436
L12428:
12428: 31 21          LEAY    1,Y
1242A: A6 02          LDA     2,X
1242C: 84 7F          ANDA    #$7F
1242E: A1 A4          CMPA    ,Y
12430: 27 08          BEQ     $1243A
12432: 31 21          LEAY    1,Y
12434: 20 00          BRA     $12436
L12436:
12436: 31 24          LEAY    4,Y
12438: 20 B0          BRA     $123EA
L1243A:
1243A: 31 21          LEAY    1,Y
1243C: BE 0B 33       LDX     $0B33
1243F: A6 88 15       LDA     21,X
12442: 88 04          EORA    #$04
12444: 84 04          ANDA    #$04
12446: 48             ASLA
12447: 97 04          STA     <$04
12449: A6 03          LDA     3,X
1244B: BE 0B 40       LDX     $0B40
1244E: A8 03          EORA    3,X
12450: 84 80          ANDA    #$80
12452: 26 02          BNE     $12456
12454: 31 22          LEAY    2,Y
L12456:
12456: A6 A0          LDA     ,Y+
12458: 81 FF          CMPA    #$FF
1245A: 10 27 01 1D    LBEQ    $1257B
1245E: 81 FC          CMPA    #$FC
12460: 27 10          BEQ     $12472
12462: 81 10          CMPA    #$10
12464: 10 24 01 13    LBCC    $1257B
12468: A7 88 23       STA     35,X
1246B: A6 A4          LDA     ,Y
1246D: A7 88 22       STA     34,X
12470: 20 3E          BRA     $124B0
L12472:
12472: A6 A4          LDA     ,Y
12474: A7 88 22       STA     34,X
12477: 86 01          LDA     #$01
12479: A7 88 23       STA     35,X
1247C: A6 88 16       LDA     22,X
1247F: 84 F9          ANDA    #$F9
12481: A7 88 16       STA     22,X
12484: 86 10          LDA     #$10
12486: A7 88 25       STA     37,X
12489: 34 20          PSHS    Y
1248B: 10 AE 88 2D    LDY     45,X
1248F: A6 88 22       LDA     34,X
12492: 84 01          ANDA    #$01
12494: 88 01          EORA    #$01
12496: A7 A8 22       STA     34,Y
12499: 86 01          LDA     #$01
1249B: A7 A8 1B       STA     27,Y
1249E: A6 A8 16       LDA     22,Y
124A1: 84 F9          ANDA    #$F9
124A3: A7 A8 16       STA     22,Y
124A6: 86 10          LDA     #$10
124A8: A7 A8 25       STA     37,Y
124AB: 35 20          PULS    Y
124AD: 7E 65 42       JMP     $6542
L124B0:
124B0: A6 88 23       LDA     35,X
124B3: 81 0C          CMPA    #$0C
124B5: 27 0C          BEQ     $124C3
124B7: 81 09          CMPA    #$09
124B9: 27 46          BEQ     $12501
124BB: 81 FF          CMPA    #$FF
124BD: 10 27 00 BA    LBEQ    $1257B
124C1: 20 7F          BRA     $12542
L124C3:
124C3: 10 BE 0B 33    LDY     $0B33
124C7: E6 88 21       LDB     33,X
124CA: EA A8 21       ORB     33,Y
124CD: 27 06          BEQ     $124D5
124CF: 6F 88 23       CLR     35,X
124D2: 7E 65 7B       JMP     $657B
L124D5:
124D5: E6 01          LDB     1,X
124D7: C1 0A          CMPB    #$0A
124D9: 10 27 00 9E    LBEQ    $1257B
124DD: A7 88 1B       STA     27,X
124E0: 8A 80          ORA     #$80
124E2: A7 88 23       STA     35,X
124E5: 86 00          LDA     #$00
124E7: A7 88 25       STA     37,X
124EA: FC 0B 33       LDD     $0B33
124ED: ED 88 2D       STD     45,X
124F0: 10 BE 0B 33    LDY     $0B33
124F4: 86 06          LDA     #$06
124F6: A7 A8 1B       STA     27,Y
124F9: FC 0B 40       LDD     $0B40
124FC: ED A8 2D       STD     45,Y
124FF: 20 41          BRA     $12542
L12501:
12501: 10 BE 0B 33    LDY     $0B33
12505: EC 24          LDD     4,Y
12507: A3 04          SUBD    4,X
12509: 24 04          BCC     $1250F
1250B: 86 80          LDA     #$80
1250D: 20 01          BRA     $12510
L1250F:
1250F: 4F             CLRA
L12510:
12510: A8 23          EORA    3,Y
12512: 84 80          ANDA    #$80
12514: 10 27 00 63    LBEQ    $1257B
12518: A6 01          LDA     1,X
1251A: 81 0A          CMPA    #$0A
1251C: 27 5D          BEQ     $1257B
1251E: 86 0A          LDA     #$0A
12520: A7 88 1B       STA     27,X
12523: 8A 80          ORA     #$80
12525: A7 88 23       STA     35,X
12528: 86 00          LDA     #$00
1252A: A7 88 25       STA     37,X
1252D: FC 0B 33       LDD     $0B33
12530: ED 88 2D       STD     45,X
12533: 10 BE 0B 33    LDY     $0B33
12537: 86 09          LDA     #$09
12539: A7 A8 1B       STA     27,Y
1253C: FC 0B 40       LDD     $0B40
1253F: ED A8 2D       STD     45,Y
L12542:
12542: 10 BE 0B 35    LDY     $0B35
12546: A6 21          LDA     1,Y
12548: A7 88 20       STA     32,X
1254B: A6 88 15       LDA     21,X
1254E: 84 F7          ANDA    #$F7
12550: 9A 04          ORA     <$04
12552: 8A 01          ORA     #$01
12554: A7 88 15       STA     21,X
12557: 10 BE 0B 33    LDY     $0B33
1255B: A6 A8 1D       LDA     29,Y
1255E: A7 88 29       STA     41,X
12561: 10 AF 88 2A    STY     42,X
12565: B6 0B 32       LDA     $0B32
12568: 81 01          CMPA    #$01
1256A: 23 08          BLS     $12574
1256C: 86 80          LDA     #$80
1256E: AA A8 14       ORA     20,Y
12571: A7 A8 14       STA     20,Y
L12574:
12574: BD 65 7E       JSR     $657E
12577: 1A 01          ORCC    #$01
12579: 20 02          BRA     $1257D
L1257B:
1257B: 1C FE          ANDCC   #$FE
L1257D:
1257D: 39             RTS
1257E: A6 88 22       LDA     34,X
12581: 81 0A          CMPA    #$0A
12583: 26 13          BNE     $12598
12585: A6 01          LDA     1,X
12587: 81 08          CMPA    #$08
12589: 27 0D          BEQ     $12598
1258B: 81 09          CMPA    #$09
1258D: 27 09          BEQ     $12598
1258F: 81 0A          CMPA    #$0A
12591: 27 05          BEQ     $12598
12593: 86 00          LDA     #$00
12595: A7 88 22       STA     34,X
L12598:
12598: 39             RTS
12599: 34 10          PSHS    X
1259B: A6 88 1B       LDA     27,X
1259E: 84 7F          ANDA    #$7F
125A0: 81 01          CMPA    #$01
125A2: 26 20          BNE     $125C4
125A4: A6 88 22       LDA     34,X
125A7: 84 0F          ANDA    #$0F
125A9: 81 06          CMPA    #$06
125AB: 26 17          BNE     $125C4
125AD: A6 88 11       LDA     17,X
125B0: 2A 00          BPL     $125B2
L125B2:
125B2: A6 0F          LDA     15,X
125B4: 27 0E          BEQ     $125C4
125B6: B6 0A AD       LDA     $0AAD
125B9: 8B 02          ADDA    #$02
125BB: B7 0B 28       STA     $0B28
125BE: BF 0B 2E       STX     $0B2E
125C1: BD 60 6E       JSR     $606E
L125C4:
125C4: 35 90          PULS    X,PC
125C6: 24 5C          BCC     $12624
125C8: BE 0B 33       LDX     $0B33
125CB: A6 88 1B       LDA     27,X
125CE: 84 7F          ANDA    #$7F
125D0: 81 07          CMPA    #$07
125D2: 26 51          BNE     $12625
125D4: BD 66 2B       JSR     $662B
125D7: BD 66 41       JSR     $6641
125DA: 10 BE 0B 40    LDY     $0B40
125DE: A6 A8 1B       LDA     27,Y
125E1: 84 7F          ANDA    #$7F
125E3: 81 0A          CMPA    #$0A
125E5: 26 05          BNE     $125EC
125E7: A6 A8 22       LDA     34,Y
125EA: 20 14          BRA     $12600
L125EC:
125EC: A6 88 1E       LDA     30,X
125EF: 84 0F          ANDA    #$0F
125F1: 81 02          CMPA    #$02
125F3: 25 0B          BCS     $12600
125F5: F6 0B 32       LDB     $0B32
125F8: C1 02          CMPB    #$02
125FA: 24 04          BCC     $12600
125FC: 20 26          BRA     $12624
125FE: 86 01          LDA     #$01
L12600:
12600: 97 0F          STA     <$0F
12602: BE 0B 40       LDX     $0B40
12605: A6 01          LDA     1,X
12607: 81 02          CMPA    #$02
12609: 25 07          BCS     $12612
1260B: A6 88 17       LDA     23,X
1260E: 84 0F          ANDA    #$0F
12610: 8B 02          ADDA    #$02
L12612:
12612: 48             ASLA
12613: 9A 0F          ORA     <$0F
12615: 86 02          LDA     #$02
12617: 27 0B          BEQ     $12624
12619: AB 88 25       ADDA    37,X
1261C: A7 88 25       STA     37,X
1261F: 86 40          LDA     #$40
12621: A7 88 24       STA     36,X
L12624:
12624: 39             RTS
L12625:
12625: 86 11          LDA     #$11
12627: BD 44 58       JSR     $4458
1262A: 39             RTS
1262B: 10 8E 66 6F    LDY     #$666F
1262F: BE 0B 33       LDX     $0B33
12632: A6 88 1E       LDA     30,X
12635: 84 1F          ANDA    #$1F
12637: A6 A6          LDA     A,Y
12639: 81 00          CMPA    #$00
1263B: 27 03          BEQ     $12640
1263D: BD 44 58       JSR     $4458
L12640:
12640: 39             RTS
12641: B6 0B 32       LDA     $0B32
12644: 81 01          CMPA    #$01
12646: 22 0E          BHI     $12656
12648: A6 88 1E       LDA     30,X
1264B: 84 1F          ANDA    #$1F
1264D: 10 8E 66 57    LDY     #$6657
12651: A6 A6          LDA     A,Y
12653: BD 42 D7       JSR     $42D7
L12656:
12656: 39             RTS
12657: 05             FCB     $05
12658: 0A 0A          DEC     <$0A
1265A: 00 00          NEG     <$00
1265C: 2D 0B          BLT     $12669
1265E: 0C 0C          INC     <$0C
12660: 00 00          NEG     <$00
12662: 0B             FCB     $0B
12663: 00 00          NEG     <$00
12665: 0B             FCB     $0B
12666: 0B             FCB     $0B
12667: 00 00          NEG     <$00
L12669:
12669: 00 0C          NEG     <$0C
1266B: 00 00          NEG     <$00
1266D: 00 00          NEG     <$00
1266F: 11 11          FCB     $11,$11
12671: 11 11          FCB     $11,$11
12673: 11 11          FCB     $11,$11
12675: 11 11          FCB     $11,$11
12677: 11 00          FCB     $11,$00
12679: 00 11          NEG     <$11
1267B: 00 00          NEG     <$00
1267D: 00 00          NEG     <$00
1267F: 00 00          NEG     <$00
12681: 11 11          FCB     $11,$11
12683: 00 11          NEG     <$11
12685: 00 00          NEG     <$00
12687: 32 7A          LEAS    -6,S
12689: D7 00          STB     <$00
1268B: 1F 89          TFR     A,B
1268D: 1D             SEX
1268E: ED E4          STD     ,S
12690: D6 00          LDB     <$00
12692: 6F 62          CLR     2,S
12694: E7 63          STB     3,S
12696: EC 04          LDD     4,X
12698: ED 64          STD     4,S
1269A: A6 03          LDA     3,X
1269C: 2A 10          BPL     $126AE
1269E: EC 62          LDD     2,S
126A0: BD 66 B5       JSR     $66B5
126A3: E3 64          ADDD    4,S
126A5: ED 64          STD     4,S
126A7: EC E4          LDD     ,S
126A9: BD 66 B5       JSR     $66B5
126AC: ED E4          STD     ,S
L126AE:
126AE: EC 64          LDD     4,S
126B0: E3 E4          ADDD    ,S
126B2: 32 66          LEAS    6,S
126B4: 39             RTS
126B5: 43             COMA
126B6: 53             COMB
126B7: C3 00 01       ADDD    #$0001
126BA: 39             RTS
126BB: 84 3F          ANDA    #$3F
126BD: 81 01          CMPA    #$01
126BF: 26 01          BNE     $126C2
126C1: 4F             CLRA
L126C2:
126C2: 39             RTS
126C3: 34 30          PSHS    X,Y
126C5: 84 7F          ANDA    #$7F
126C7: 48             ASLA
126C8: 58             ASLB
126C9: 8E 67 28       LDX     #$6728
126CC: AE 86          LDX     A,X
126CE: EC 85          LDD     B,X
126D0: 35 B0          PULS    X,Y,PC
126D2: 66 EC 66       ROR     $1273B,PCR
126D5: EC 66          LDD     6,S
126D7: F8 67 04       EORB    $6704
126DA: 67 10          ASR     -16,X
126DC: 67 10          ASR     -16,X
126DE: 67 10          ASR     -16,X
126E0: 67 10          ASR     -16,X
126E2: 67 1C          ASR     -4,X
126E4: 67 1C          ASR     -4,X
126E6: 67 1C          ASR     -4,X
126E8: 67 1C          ASR     -4,X
126EA: 67 1C          ASR     -4,X
126EC: 15             FCB     $15
126ED: 12             NOP
126EE: 1C 20          ANDCC   #$20
126F0: 44             LSRA
126F1: 1E 66          EXG     ?,?
126F3: 2D 36          BLT     $1272B
126F5: 39             RTS
126F6: 57             ASRB
126F7: FF 15 12       STU     $1512
126FA: 1C 20          ANDCC   #$20
126FC: 44             LSRA
126FD: 1E 66          EXG     ?,?
126FF: 2D 36          BLT     $12737
12701: 39             RTS
12702: 57             ASRB
12703: FF 15 12       STU     $1512
12706: 1C 20          ANDCC   #$20
12708: 44             LSRA
12709: 1E 66          EXG     ?,?
1270B: 2D 36          BLT     $12743
1270D: 39             RTS
1270E: 57             ASRB
1270F: FF 15 12       STU     $1512
12712: 1C 20          ANDCC   #$20
12714: 44             LSRA
12715: 1E 66          EXG     ?,?
12717: 2D 36          BLT     $1274F
12719: 39             RTS
1271A: 57             ASRB
1271B: FF 15 12       STU     $1512
1271E: 1C 20          ANDCC   #$20
12720: 44             LSRA
12721: 1E 66          EXG     ?,?
12723: 2D 36          BLT     $1275B
12725: 39             RTS
12726: 58             ASLB
12727: FF 68 48       STU     $6848
1272A: 68 48          ASL     8,U
1272C: 68 48          ASL     8,U
1272E: 68 48          ASL     8,U
12730: 68 48          ASL     8,U
12732: 68 48          ASL     8,U
12734: 68 48          ASL     8,U
12736: 68 48          ASL     8,U
12738: 68 28          ASL     8,Y
1273A: 68 28          ASL     8,Y
1273C: 68 28          ASL     8,Y
1273E: 68 28          ASL     8,Y
12740: 68 28          ASL     8,Y
12742: 68 28          ASL     8,Y
12744: 68 28          ASL     8,Y
12746: 68 B7          ASL     [???]
12748: 68 28          ASL     8,Y
1274A: 69 21          ROL     1,Y
1274C: 69 43          ROL     3,U
1274E: 69 65          ROL     5,S
12750: 69 F5          ROL     [B,S]
12752: 6A 0F          DEC     15,X
12754: 6A 29          DEC     9,Y
12756: 6A 51          DEC     -15,U
12758: 6A 8B          DEC     D,X
1275A: 6A B5          DEC     [B,Y]
1275C: 6B             FCB     $6B
1275D: 27 6B          BEQ     $127CA
1275F: 51             FCB     $51
12760: 6B             FCB     $6B
12761: 83 6B AD       SUBD    #$6BAD
12764: 6B             FCB     $6B
12765: ED 6C          STD     12,S
12767: 17 6C 43       LBSR    $193AD
1276A: 6C 7D          INC     -3,S
1276C: 6C AD 6C CF    INC     $1943F,PCR
12770: 6C F7          INC     [???]
12772: 6D 09          TST     9,X
12774: 6D 2B          TST     11,Y
12776: 6D 5A          TST     -6,U
12778: 6D 7C          TST     -4,S
1277A: 6D A4          TST     ,Y
1277C: 68 3A          ASL     -6,Y
1277E: 68 3A          ASL     -6,Y
12780: 6D D0          TST     ,U+
12782: 6D FA          TST     [???]
12784: 6E 32          JMP     -14,Y
12786: 6E 68          JMP     8,S
12788: 6E 98 6E       JMP     [110,X]
1278B: B2 6E CC       SBCA    $6ECC
1278E: 6E E6          JMP     A,S
12790: 6F 00          CLR     ,X
12792: 68 28          ASL     8,Y
12794: 6F 22          CLR     2,Y
12796: 6F 44          CLR     4,U
12798: 6F 6C          CLR     12,S
1279A: 6F 86          CLR     A,X
1279C: 6F A0          CLR     ,Y+
1279E: 6F CE          CLR     ???
127A0: 68 28          ASL     8,Y
127A2: 68 28          ASL     8,Y
127A4: 68 28          ASL     8,Y
127A6: 68 28          ASL     8,Y
127A8: 68 28          ASL     8,Y
127AA: 6F E8 68       CLR     104,S
127AD: 28 70          BVC     $1281F
127AF: 02             FCB     $02
127B0: 70 24 70       NEG     $2470
127B3: 46             RORA
127B4: 70 84 70       NEG     $8470
127B7: AC 70          CMPX    -16,S
127B9: CE 70 F0       LDU     #$70F0
127BC: 71             FCB     $71
127BD: 12             NOP
127BE: 71             FCB     $71
127BF: 34 71          PSHS    CC,X,Y,U
127C1: 4E             FCB     $4E
127C2: 71             FCB     $71
127C3: 68 71          ASL     -15,S
127C5: 82 71          SBCA    #$71
127C7: 9C 71          CMPX    <$71
127C9: B6 71 D0       LDA     $71D0
127CC: 71             FCB     $71
127CD: EA 72          ORB     -14,S
127CF: 04 72          LSR     <$72
127D1: 04 72          LSR     <$72
127D3: 04 72          LSR     <$72
127D5: 04 72          LSR     <$72
127D7: 04 72          LSR     <$72
127D9: 54             LSRB
127DA: 72             FCB     $72
127DB: 54             LSRB
127DC: 72             FCB     $72
127DD: 6E 72          JMP     -14,S
127DF: 80 72          SUBA    #$72
127E1: 92 72          SBCA    <$72
127E3: 04 72          LSR     <$72
127E5: 04 72          LSR     <$72
127E7: 54             LSRB
127E8: 72             FCB     $72
127E9: 54             LSRB
127EA: 72             FCB     $72
127EB: 54             LSRB
127EC: 72             FCB     $72
127ED: 54             LSRB
127EE: 72             FCB     $72
127EF: BE 68 28       LDX     $6828
127F2: 68 28          ASL     8,Y
127F4: 68 28          ASL     8,Y
127F6: 68 28          ASL     8,Y
127F8: 68 28          ASL     8,Y
127FA: 72             FCB     $72
127FB: DE 68          LDU     <$68
127FD: 28 72          BVC     $12871
127FF: F8 68 28       EORB    $6828
12802: 68 28          ASL     8,Y
12804: 73 18 73       COM     $1873
12807: 18             FCB     $18
12808: 73 32 73       COM     $3273
1280B: 18             FCB     $18
1280C: 73 18 68       COM     $1868
1280F: 48             ASLA
12810: 73 66 73       COM     $6673
12813: 18             FCB     $18
12814: 73 18 73       COM     $1873
12817: 18             FCB     $18
12818: 73 92 73       COM     $9273
1281B: 18             FCB     $18
1281C: 68 28          ASL     8,Y
1281E: 68 28          ASL     8,Y
12820: 68 28          ASL     8,Y
12822: 68 28          ASL     8,Y
12824: 68 28          ASL     8,Y
12826: 68 28          ASL     8,Y
12828: 68 3A          ASL     -6,Y
1282A: 68 3A          ASL     -6,Y
1282C: 68 3A          ASL     -6,Y
1282E: 68 3A          ASL     -6,Y
12830: 68 3A          ASL     -6,Y
12832: 68 3A          ASL     -6,Y
12834: 68 3A          ASL     -6,Y
12836: 68 3A          ASL     -6,Y
12838: 68 3A          ASL     -6,Y
1283A: 00 00          NEG     <$00
1283C: 73 C6 75       COM     $C675
1283F: 06 68          ROR     <$68
12841: 42             FCB     $42
12842: FF FF FF       STU     $FFFF
12845: FF FF FD       STU     $FFFD
12848: 68 72          ASL     -14,S
1284A: 68 7A          ASL     -6,S
1284C: 68 82          ASL     ,-X
1284E: 68 8A          ASL     ???
12850: 68 82          ASL     ,-X
12852: 68 3A          ASL     -6,Y
12854: 68 62          ASL     2,S
12856: 68 6A          ASL     10,S
12858: 68 5A          ASL     -6,U
1285A: 00 00          NEG     <$00
1285C: 74 DE 75       LSR     $DE75
1285F: 06 68          ROR     <$68
12861: 42             FCB     $42
12862: 00 00          NEG     <$00
12864: 74 82 75       LSR     $8275
12867: 06 68          ROR     <$68
12869: 42             FCB     $42
1286A: 00 00          NEG     <$00
1286C: 74 96 75       LSR     $9675
1286F: 06 68          ROR     <$68
L12871:
12871: 42             FCB     $42
12872: 01             FCB     $01
12873: 00 74          NEG     <$74
12875: 0A 75          DEC     <$75
12877: 0A 68          DEC     <$68
12879: 92 00          SBCA    <$00
1287B: 00 74          NEG     <$74
1287D: 66 75          ROR     -11,S
1287F: 06 68          ROR     <$68
12881: 42             FCB     $42
12882: 00 00          NEG     <$00
12884: 74 62 75       LSR     $6275
12887: 06 68          ROR     <$68
12889: 42             FCB     $42
1288A: 00 00          NEG     <$00
1288C: 74 46 75       LSR     $4675
1288F: 06 68          ROR     <$68
12891: 42             FCB     $42
12892: 02             FCB     $02
12893: 0F 0C          CLR     <$0C
12895: 00 FF          NEG     <$FF
12897: FF 03 0F       STU     $030F
1289A: 0C 00          INC     <$00
1289C: FF FF 08       STU     $FF08
1289F: 0F 0C          CLR     <$0C
128A1: 00 FF          NEG     <$FF
128A3: FF 09 0F       STU     $090F
128A6: 0C 00          INC     <$00
128A8: FF FF 22       STU     $FF22
128AB: 0F 0C          CLR     <$0C
128AD: 00 FF          NEG     <$FF
128AF: FF 23 0F       STU     $230F
128B2: 0C 00          INC     <$00
128B4: FF FF FD       STU     $FFFD
128B7: 68 E1          ASL     ,S++
128B9: 68 E9 68 E9    ASL     26857,S
128BD: 68 F1          ASL     [,S++]
128BF: 68 E9 68 3A    ASL     26682,S
128C3: 68 D9 68 D1    ASL     [26833,U]
128C7: 68 C9 00 00    ASL     0,U
128CB: 75             FCB     $75
128CC: 02             FCB     $02
128CD: 75             FCB     $75
128CE: 06 68          ROR     <$68
128D0: 42             FCB     $42
128D1: 00 00          NEG     <$00
128D3: 74 FE 75       LSR     $FE75
128D6: 06 68          ROR     <$68
128D8: 42             FCB     $42
128D9: 00 00          NEG     <$00
128DB: 74 FA 75       LSR     $FA75
128DE: 06 68          ROR     <$68
128E0: 42             FCB     $42
128E1: 00 00          NEG     <$00
128E3: 74 6A 75       LSR     $6A75
128E6: 06 68          ROR     <$68
128E8: 42             FCB     $42
128E9: 00 00          NEG     <$00
128EB: 74 06 75       LSR     $0675
128EE: 06 68          ROR     <$68
128F0: 42             FCB     $42
128F1: 00 00          NEG     <$00
128F3: 74 4E 75       LSR     $4E75
128F6: 06 68          ROR     <$68
128F8: 42             FCB     $42
128F9: FF 0C FF       STU     $0CFF
128FC: FF FF FD       STU     $FFFD
128FF: 68 3A          ASL     -6,Y
12901: 68 3A          ASL     -6,Y
12903: 68 3A          ASL     -6,Y
12905: 69 11          ROL     -15,X
12907: 69 19          ROL     -7,X
12909: 68 3A          ASL     -6,Y
1290B: 68 3A          ASL     -6,Y
1290D: 68 3A          ASL     -6,Y
1290F: 68 3A          ASL     -6,Y
12911: 00 00          NEG     <$00
12913: 73 FE 75       COM     $FE75
12916: 06 68          ROR     <$68
12918: F9 00 00       ADCB    $0000
1291B: 73 CA 75       COM     $CA75
1291E: 06 68          ROR     <$68
12920: F9 69 33       ADCB    $6933
12923: 68 3A          ASL     -6,Y
12925: 69 33          ROL     -13,Y
12927: 69 3B          ROL     -5,Y
12929: 69 33          ROL     -13,Y
1292B: 68 3A          ASL     -6,Y
1292D: 69 55          ROL     -11,U
1292F: 68 3A          ASL     -6,Y
12931: 68 3A          ASL     -6,Y
12933: 00 00          NEG     <$00
12935: 73 FA 75       COM     $FA75
12938: 06 68          ROR     <$68
1293A: F9 00 00       ADCB    $0000
1293D: 74 3A 75       LSR     $3A75
12940: 06 68          ROR     <$68
12942: F9 69 33       ADCB    $6933
12945: 68 3A          ASL     -6,Y
12947: 69 33          ROL     -13,Y
12949: 69 3B          ROL     -5,Y
1294B: 69 33          ROL     -13,Y
1294D: 68 3A          ASL     -6,Y
1294F: 69 55          ROL     -11,U
12951: 68 3A          ASL     -6,Y
12953: 69 5D          ROL     -3,U
12955: 03 08          COM     <$08
12957: 74 8A 75       LSR     $8A75
1295A: 06 6F          ROR     <$6F
1295C: C2 02          SBCB    #$02
1295E: 01             FCB     $01
1295F: 74 AA 75       LSR     $AA75
12962: 06 68          ROR     <$68
12964: 42             FCB     $42
12965: 69 7F          ROL     -1,S
12967: 68 3A          ASL     -6,Y
12969: 69 7F          ROL     -1,S
1296B: 69 87          ROL     ???
1296D: 69 7F          ROL     -1,S
1296F: 68 3A          ASL     -6,Y
12971: 69 77          ROL     -9,S
12973: 68 3A          ASL     -6,Y
12975: 68 3A          ASL     -6,Y
12977: 03 04          COM     <$04
12979: 74 8A 75       LSR     $8A75
1297C: 7E 6F C2       JMP     $6FC2
1297F: 01             FCB     $01
12980: 02             FCB     $02
12981: 73 FA 75       COM     $FA75
12984: 0E 69          JMP     <$69
12986: 8F             FCB     $8F
12987: 01             FCB     $01
12988: 02             FCB     $02
12989: 74 3A 75       LSR     $3A75
1298C: 4A             DECA
1298D: 69 8F FE 22    ROL     [$FE22]
12991: 01             FCB     $01
12992: 00 01          NEG     <$01
12994: 00 FE          NEG     <$FE
12996: 23 01          BLS     $12999
12998: 00 01          NEG     <$01
1299A: 00 FE          NEG     <$FE
1299C: 24 01          BCC     $1299F
1299E: 00 01          NEG     <$01
129A0: 00 FE          NEG     <$FE
129A2: 25 01          BCS     $129A5
129A4: 00 01          NEG     <$01
129A6: 00 FE          NEG     <$FE
129A8: 26 01          BNE     $129AB
129AA: 00 01          NEG     <$01
129AC: 00 00          NEG     <$00
129AE: 5B             FCB     $5B
129AF: 01             FCB     $01
129B0: 00 01          NEG     <$01
129B2: 00 03          NEG     <$03
129B4: 5B             FCB     $5B
129B5: 01             FCB     $01
129B6: 00 01          NEG     <$01
129B8: 00 08          NEG     <$08
129BA: 5B             FCB     $5B
129BB: 01             FCB     $01
129BC: 00 01          NEG     <$01
129BE: 00 09          NEG     <$09
129C0: 5B             FCB     $5B
129C1: 01             FCB     $01
129C2: 00 01          NEG     <$01
129C4: 00 22          NEG     <$22
129C6: 5B             FCB     $5B
129C7: 01             FCB     $01
129C8: 00 01          NEG     <$01
129CA: 00 23          NEG     <$23
129CC: 5B             FCB     $5B
129CD: 01             FCB     $01
129CE: 00 01          NEG     <$01
129D0: 00 03          NEG     <$03
129D2: 59             ROLB
129D3: 01             FCB     $01
129D4: 00 01          NEG     <$01
129D6: 00 08          NEG     <$08
129D8: 59             ROLB
129D9: 01             FCB     $01
129DA: 00 01          NEG     <$01
129DC: 00 09          NEG     <$09
129DE: 59             ROLB
129DF: 01             FCB     $01
129E0: 00 01          NEG     <$01
129E2: 00 22          NEG     <$22
129E4: 59             ROLB
129E5: 01             FCB     $01
129E6: 00 01          NEG     <$01
129E8: 00 23          NEG     <$23
129EA: 59             ROLB
129EB: 01             FCB     $01
129EC: 00 01          NEG     <$01
129EE: 00 FF          NEG     <$FF
129F0: 02             FCB     $02
129F1: 00 03          NEG     <$03
129F3: 01             FCB     $01
129F4: FD 69 33       STD     $6933
129F7: 68 3A          ASL     -6,Y
129F9: 69 33          ROL     -13,Y
129FB: 69 3B          ROL     -5,Y
129FD: 69 33          ROL     -13,Y
129FF: 68 3A          ASL     -6,Y
12A01: 68 3A          ASL     -6,Y
12A03: 6A 07          DEC     7,X
12A05: 68 3A          ASL     -6,Y
12A07: 00 00          NEG     <$00
12A09: 74 DA 75       LSR     $DA75
12A0C: 06 68          ROR     <$68
12A0E: 42             FCB     $42
12A0F: 69 33          ROL     -13,Y
12A11: 68 3A          ASL     -6,Y
12A13: 69 33          ROL     -13,Y
12A15: 69 3B          ROL     -5,Y
12A17: 69 33          ROL     -13,Y
12A19: 68 3A          ASL     -6,Y
12A1B: 6A 21          DEC     1,Y
12A1D: 68 3A          ASL     -6,Y
12A1F: 68 3A          ASL     -6,Y
12A21: 05             FCB     $05
12A22: 10 74          FCB     $10,$74
12A24: 8A 75          ORA     #$75
12A26: 82 6F          SBCA    #$6F
12A28: C2 69          SBCB    #$69
12A2A: 7F 68 3A       CLR     $683A
12A2D: 69 7F          ROL     -1,S
12A2F: 69 87          ROL     ???
12A31: 69 7F          ROL     -1,S
12A33: 68 3A          ASL     -6,Y
12A35: 6A 3B          DEC     -5,Y
12A37: 6A 43          DEC     3,U
12A39: 68 3A          ASL     -6,Y
12A3B: 02             FCB     $02
12A3C: 01             FCB     $01
12A3D: 74 8A 75       LSR     $8A75
12A40: 82 69          SBCA    #$69
12A42: 8F             FCB     $8F
12A43: 02             FCB     $02
12A44: 06 74          ROR     <$74
12A46: A2 75          SBCA    -11,S
12A48: AE 6A          LDX     10,S
12A4A: 4B             FCB     $4B
12A4B: FF 01 01       STU     $0101
12A4E: 01             FCB     $01
12A4F: 00 FD          NEG     <$FD
12A51: 6A 7B          DEC     -5,S
12A53: 6A 83          DEC     ,--X
12A55: 6A 7B          DEC     -5,S
12A57: 68 3A          ASL     -6,Y
12A59: 6A 7B          DEC     -5,S
12A5B: 68 3A          ASL     -6,Y
12A5D: 6A 63          DEC     3,S
12A5F: 6A 73          DEC     -13,S
12A61: 6A 6B          DEC     11,S
12A63: 00 00          NEG     <$00
12A65: 74 D2 75       LSR     $D275
12A68: 8A 6F          ORA     #$6F
12A6A: C2 02          SBCB    #$02
12A6C: 18             FCB     $18
12A6D: 74 A2 75       LSR     $A275
12A70: 8A 6F          ORA     #$6F
12A72: C2 01          SBCB    #$01
12A74: 01             FCB     $01
12A75: 74 92 75       LSR     $9275
12A78: 06 68          ROR     <$68
12A7A: 42             FCB     $42
12A7B: 00 00          NEG     <$00
12A7D: 73 CE 75       COM     $CE75
12A80: 06 68          ROR     <$68
12A82: 42             FCB     $42
12A83: 00 00          NEG     <$00
12A85: 74 66 75       LSR     $6675
12A88: 06 68          ROR     <$68
12A8A: 42             FCB     $42
12A8B: 6A A5          DEC     B,Y
12A8D: 6A AD 6A A5    DEC     $19536,PCR
12A91: 68 3A          ASL     -6,Y
12A93: 6A A5          DEC     B,Y
12A95: 68 3A          ASL     -6,Y
12A97: 6A 9D 6A 73    DEC     [$1950E,PCR]
12A9B: 68 3A          ASL     -6,Y
12A9D: 00 00          NEG     <$00
12A9F: 74 D6 75       LSR     $D675
12AA2: 06 68          ROR     <$68
12AA4: 42             FCB     $42
12AA5: 00 00          NEG     <$00
12AA7: 73 FE 75       COM     $FE75
12AAA: 06 68          ROR     <$68
12AAC: 42             FCB     $42
12AAD: 00 00          NEG     <$00
12AAF: 74 72 75       LSR     $7275
12AB2: 06 68          ROR     <$68
12AB4: 42             FCB     $42
12AB5: 6A CF 68 3A    DEC     [$683A]
12AB9: 6A D7          DEC     [???]
12ABB: 68 3A          ASL     -6,Y
12ABD: 6A D7          DEC     [???]
12ABF: 68 3A          ASL     -6,Y
12AC1: 68 3A          ASL     -6,Y
12AC3: 6A C7          DEC     ???
12AC5: 68 3A          ASL     -6,Y
12AC7: 08 06          ASL     <$06
12AC9: 74 92 75       LSR     $9275
12ACC: B2 72 D8       SBCA    $72D8
12ACF: 01             FCB     $01
12AD0: 03 73          COM     <$73
12AD2: FE 75 12       LDU     $7512
12AD5: 6A E5          DEC     B,S
12AD7: 01             FCB     $01
12AD8: 02             FCB     $02
12AD9: 74 22 75       LSR     $2275
12ADC: 12             NOP
12ADD: 6A DF FF 01    DEC     [$FF01]
12AE1: 00 01          NEG     <$01
12AE3: 01             FCB     $01
12AE4: FD 03 59       STD     $0359
12AE7: FC 00 FC       LDD     $00FC
12AEA: 01             FCB     $01
12AEB: 08 59          ASL     <$59
12AED: FC 00 FC       LDD     $00FC
12AF0: 01             FCB     $01
12AF1: 09 59          ROL     <$59
12AF3: FC 00 FC       LDD     $00FC
12AF6: 01             FCB     $01
12AF7: 22 59          BHI     $12B52
12AF9: FC 00 FC       LDD     $00FC
12AFC: 01             FCB     $01
12AFD: 23 59          BLS     $12B58
12AFF: FC 00 FC       LDD     $00FC
12B02: 01             FCB     $01
12B03: 03 5B          COM     <$5B
12B05: FC 00 FC       LDD     $00FC
12B08: 01             FCB     $01
12B09: 08 5B          ASL     <$5B
12B0B: FC 00 FC       LDD     $00FC
12B0E: 01             FCB     $01
12B0F: 09 5B          ROL     <$5B
12B11: FC 00 FC       LDD     $00FC
12B14: 01             FCB     $01
12B15: 22 5B          BHI     $12B72
12B17: FC 00 FC       LDD     $00FC
12B1A: 01             FCB     $01
12B1B: 23 5B          BLS     $12B78
12B1D: FC 00 FC       LDD     $00FC
12B20: 01             FCB     $01
12B21: FF 01 00       STU     $0100
12B24: 01             FCB     $01
12B25: 01             FCB     $01
12B26: FD 6B 49       STD     $6B49
12B29: 68 3A          ASL     -6,Y
12B2B: 6B             FCB     $6B
12B2C: 49             ROLA
12B2D: 68 3A          ASL     -6,Y
12B2F: 6B             FCB     $6B
12B30: 41             FCB     $41
12B31: 68 3A          ASL     -6,Y
12B33: 68 3A          ASL     -6,Y
12B35: 6B             FCB     $6B
12B36: 39             RTS
12B37: 68 3A          ASL     -6,Y
12B39: 01             FCB     $01
12B3A: 01             FCB     $01
12B3B: 74 CE 75       LSR     $CE75
12B3E: 06 6C          ROR     <$6C
12B40: A7 01          STA     1,X
12B42: 01             FCB     $01
12B43: 74 9A 75       LSR     $9A75
12B46: 06 69          ROR     <$69
12B48: 8F             FCB     $8F
12B49: 01             FCB     $01
12B4A: 00 74          NEG     <$74
12B4C: 02             FCB     $02
12B4D: 75             FCB     $75
12B4E: 06 68          ROR     <$68
12B50: 42             FCB     $42
12B51: 6B             FCB     $6B
L12B52:
12B52: 7B             FCB     $7B
12B53: 68 3A          ASL     -6,Y
12B55: 6B             FCB     $6B
12B56: 7B             FCB     $7B
12B57: 68 3A          ASL     -6,Y
12B59: 6B             FCB     $6B
12B5A: 6B             FCB     $6B
12B5B: 68 3A          ASL     -6,Y
12B5D: 68 3A          ASL     -6,Y
12B5F: 6B             FCB     $6B
12B60: 63 6B          COM     11,S
12B62: 73 01 01       COM     $0101
12B65: 74 CE 75       LSR     $CE75
12B68: 66 69          ROR     9,S
12B6A: 8F             FCB     $8F
12B6B: 01             FCB     $01
12B6C: 05             FCB     $05
12B6D: 74 9A 75       LSR     $9A75
12B70: BA 6C 31       ORA     $6C31
12B73: 01             FCB     $01
12B74: 08 73          ASL     <$73
12B76: C6 75          LDB     #$75
L12B78:
12B78: 8E 6F C2       LDX     #$6FC2
12B7B: 01             FCB     $01
12B7C: 03 73          COM     <$73
12B7E: D2 75          SBCB    <$75
12B80: 16 6A DF       LBRA    $19662
12B83: 6B             FCB     $6B
12B84: A5 68          BITA    8,S
12B86: 3A             ABX
12B87: 6B             FCB     $6B
12B88: A5 68          BITA    8,S
12B8A: 3A             ABX
12B8B: 68 82          ASL     ,-X
12B8D: 68 3A          ASL     -6,Y
12B8F: 68 3A          ASL     -6,Y
12B91: 6B             FCB     $6B
12B92: 95 6B          BITA    <$6B
12B94: 9D 01          JSR     <$01
12B96: 08 74          ASL     <$74
12B98: C2 75          SBCB    #$75
12B9A: B6 72 D8       LDA     $72D8
12B9D: 01             FCB     $01
12B9E: 08 73          ASL     <$73
12BA0: C6 75          LDB     #$75
12BA2: 92 6F          SBCA    <$6F
12BA4: C2 00          SBCB    #$00
12BA6: 00 74          NEG     <$74
12BA8: 06 75          ROR     <$75
12BAA: 06 68          ROR     <$68
12BAC: 42             FCB     $42
12BAD: 6B             FCB     $6B
12BAE: D7 6B          STB     <$6B
12BB0: DF 6B          STU     <$6B
12BB2: D7 68          STB     <$68
12BB4: 3A             ABX
12BB5: 6B             FCB     $6B
12BB6: BF 68 3A       STX     $683A
12BB9: 68 3A          ASL     -6,Y
12BBB: 6B             FCB     $6B
12BBC: D7 6B          STB     <$6B
12BBE: CF             FCB     $CF
12BBF: 01             FCB     $01
12BC0: 04 74          LSR     <$74
12BC2: 0A 75          DEC     <$75
12BC4: 56             RORB
12BC5: 6B             FCB     $6B
12BC6: E7 00          STB     ,X
12BC8: 00 74          NEG     <$74
12BCA: C6 75          LDB     #$75
12BCC: 06 68          ROR     <$68
12BCE: 42             FCB     $42
12BCF: 01             FCB     $01
12BD0: 08 73          ASL     <$73
12BD2: C6 75          LDB     #$75
12BD4: 96 6F          LDA     <$6F
12BD6: C2 01          SBCB    #$01
12BD8: 03 74          COM     <$74
12BDA: 0A 75          DEC     <$75
12BDC: 1A 6B          ORCC    #$6B
12BDE: E7 00          STB     ,X
12BE0: 00 74          NEG     <$74
12BE2: 66 75          ROR     -11,S
12BE4: 06 68          ROR     <$68
12BE6: 42             FCB     $42
12BE7: FF 01 01       STU     $0101
12BEA: 01             FCB     $01
12BEB: 01             FCB     $01
12BEC: FD 6C 0F       STD     $6C0F
12BEF: 6B             FCB     $6B
12BF0: DF 6C          STU     <$6C
12BF2: 0F 68          CLR     <$68
12BF4: 3A             ABX
12BF5: 68 3A          ASL     -6,Y
12BF7: 68 3A          ASL     -6,Y
12BF9: 68 3A          ASL     -6,Y
12BFB: 6B             FCB     $6B
12BFC: FF 6C 07       STU     $6C07
12BFF: 00 00          NEG     <$00
12C01: 74 CA 75       LSR     $CA75
12C04: 06 75          ROR     <$75
12C06: 06 01          ROR     <$01
12C08: 08 73          ASL     <$73
12C0A: C6 75          LDB     #$75
12C0C: 9A 6F          ORA     <$6F
12C0E: C2 00          SBCB    #$00
12C10: 00 74          NEG     <$74
12C12: 12             NOP
12C13: 75             FCB     $75
12C14: 06 68          ROR     <$68
12C16: 42             FCB     $42
12C17: 6C 29          INC     9,Y
12C19: 6B             FCB     $6B
12C1A: DF 6C          STU     <$6C
12C1C: 29 68          BVS     $12C86
12C1E: 3A             ABX
12C1F: 68 3A          ASL     -6,Y
12C21: 68 3A          ASL     -6,Y
12C23: 68 3A          ASL     -6,Y
12C25: 68 3A          ASL     -6,Y
12C27: 68 3A          ASL     -6,Y
12C29: 01             FCB     $01
12C2A: 03 74          COM     <$74
12C2C: 12             NOP
12C2D: 75             FCB     $75
12C2E: 22 6C          BHI     $12C9C
12C30: 31 FE          LEAY    [???]
12C32: 59             ROLB
12C33: 01             FCB     $01
12C34: 01             FCB     $01
12C35: FF 00 FE       STU     $00FE
12C38: 5B             FCB     $5B
12C39: 01             FCB     $01
12C3A: 01             FCB     $01
12C3B: FF 00 FF       STU     $00FF
12C3E: 03 00          COM     <$00
12C40: 03 01          COM     <$01
12C42: FD 6C 6D       STD     $6C6D
12C45: 6C 75          INC     -11,S
12C47: 6C 6D          INC     13,S
12C49: 68 3A          ASL     -6,Y
12C4B: 68 3A          ASL     -6,Y
12C4D: 68 3A          ASL     -6,Y
12C4F: 6C 5D          INC     -3,U
12C51: 6C 65          INC     5,S
12C53: 6C 55          INC     -11,U
12C55: 00 00          NEG     <$00
12C57: 74 F6 75       LSR     $F675
12C5A: 06 6C          ROR     <$6C
12C5C: A7 00          STA     ,X
12C5E: 00 74          NEG     <$74
12C60: AE 75          LDX     -11,S
12C62: 06 6C          ROR     <$6C
12C64: A7 00          STA     ,X
12C66: 00 74          NEG     <$74
12C68: 96 75          LDA     <$75
12C6A: 06 68          ROR     <$68
12C6C: 42             FCB     $42
12C6D: 00 00          NEG     <$00
12C6F: 73 F2 75       COM     $F275
12C72: 06 68          ROR     <$68
12C74: 42             FCB     $42
12C75: 00 00          NEG     <$00
12C77: 74 76 75       LSR     $7675
12C7A: 06 68          ROR     <$68
12C7C: 42             FCB     $42
12C7D: 6C 9F 6B DF    INC     [$6BDF]
12C81: 6C 9F 68 3A    INC     [$683A]
12C85: 68 3A          ASL     -6,Y
12C87: 68 3A          ASL     -6,Y
12C89: 6C 8F 6C 65    INC     [$6C65]
12C8D: 6C BF 01 12    INC     [$0112]
12C91: 74 AE 75       LSR     $AE75
12C94: BE 6C A7       LDX     $6CA7
12C97: 01             FCB     $01
12C98: 03 74          COM     <$74
12C9A: 9E 75          LDX     <$75
L12C9C:
12C9C: 9E 6C          LDX     <$6C
12C9E: A7 01          STA     1,X
12CA0: 01             FCB     $01
12CA1: 74 06 75       LSR     $0675
12CA4: 26 6C          BNE     $12D12
12CA6: A7 FF 02 00    STA     [$0200]
12CAA: 03 01          COM     <$01
12CAC: FD 6C C7       STD     $6CC7
12CAF: 6B             FCB     $6B
12CB0: DF 6C          STU     <$6C
12CB2: C7             FCB     $C7
12CB3: 68 3A          ASL     -6,Y
12CB5: 68 82          ASL     ,-X
12CB7: 68 3A          ASL     -6,Y
12CB9: 68 3A          ASL     -6,Y
12CBB: 6C 65          INC     5,S
12CBD: 6C BF 02 0B    INC     [$020B]
12CC1: 74 9E 75       LSR     $9E75
12CC4: 9E 6C          LDX     <$6C
12CC6: A7 00          STA     ,X
12CC8: 00 74          NEG     <$74
12CCA: 0A 75          DEC     <$75
12CCC: 06 68          ROR     <$68
12CCE: 42             FCB     $42
12CCF: 6C C7          INC     ???
12CD1: 6C E9 6C C7    INC     27847,S
12CD5: 68 3A          ASL     -6,Y
12CD7: 68 82          ASL     ,-X
12CD9: 68 3A          ASL     -6,Y
12CDB: 68 3A          ASL     -6,Y
12CDD: 6C 65          INC     5,S
12CDF: 6C BF 02 04    INC     [$0204]
12CE3: 74 9E 75       LSR     $9E75
12CE6: A6 6C          LDA     12,S
12CE8: A7 01          STA     1,X
12CEA: 01             FCB     $01
12CEB: 74 66 75       LSR     $6675
12CEE: 5A             DECB
12CEF: 6C F1          INC     [,S++]
12CF1: FF 01 00       STU     $0100
12CF4: 01             FCB     $01
12CF5: 01             FCB     $01
12CF6: FD 6C C7       STD     $6CC7
12CF9: 6B             FCB     $6B
12CFA: DF 6C          STU     <$6C
12CFC: C7             FCB     $C7
12CFD: 68 3A          ASL     -6,Y
12CFF: 68 82          ASL     ,-X
12D01: 68 3A          ASL     -6,Y
12D03: 68 3A          ASL     -6,Y
12D05: 6C 65          INC     5,S
12D07: 68 3A          ASL     -6,Y
12D09: 6D 1B          TST     -5,X
12D0B: 6B             FCB     $6B
12D0C: DF 6D          STU     <$6D
12D0E: 1B             FCB     $1B
12D0F: 68 3A          ASL     -6,Y
12D11: 6D 1B          TST     -5,X
12D13: 68 3A          ASL     -6,Y
12D15: 68 3A          ASL     -6,Y
12D17: 6C 65          INC     5,S
12D19: 6C BF 00 00    INC     [$0000]
12D1D: 73 D6 75       COM     $D675
12D20: 06 68          ROR     <$68
12D22: 42             FCB     $42
12D23: 01             FCB     $01
12D24: 02             FCB     $02
12D25: 74 9E 75       LSR     $9E75
12D28: AA 6C          ORA     12,S
12D2A: A7 6D          STA     13,S
12D2C: 3D             MUL
12D2D: 6D 45          TST     5,U
12D2F: 6D 3D          TST     -3,Y
12D31: 68 3A          ASL     -6,Y
12D33: 6D 3D          TST     -3,Y
12D35: 68 3A          ASL     -6,Y
12D37: 68 3A          ASL     -6,Y
12D39: 68 3A          ASL     -6,Y
12D3B: 68 3A          ASL     -6,Y
12D3D: 00 00          NEG     <$00
12D3F: 73 DA 75       COM     $DA75
12D42: 06 68          ROR     <$68
12D44: 42             FCB     $42
12D45: 01             FCB     $01
12D46: 00 74          NEG     <$74
12D48: 66 75          ROR     -11,S
12D4A: 5E             FCB     $5E
12D4B: 6D 4D          TST     13,U
12D4D: 00 1F          NEG     <$1F
12D4F: 01             FCB     $01
12D50: 09 FF          ROL     <$FF
12D52: FF 00 3A       STU     $003A
12D55: 01             FCB     $01
12D56: 09 FF          ROL     <$FF
12D58: FF FD 6D       STU     $FD6D
12D5B: 6C 6D          INC     13,S
12D5D: 74 6D 6C       LSR     $6D6C
12D60: 68 3A          ASL     -6,Y
12D62: 6D 6C          TST     12,S
12D64: 68 3A          ASL     -6,Y
12D66: 68 3A          ASL     -6,Y
12D68: 68 3A          ASL     -6,Y
12D6A: 68 3A          ASL     -6,Y
12D6C: 00 00          NEG     <$00
12D6E: 74 06 75       LSR     $0675
12D71: 06 68          ROR     <$68
12D73: 42             FCB     $42
12D74: 00 00          NEG     <$00
12D76: 74 7A 75       LSR     $7A75
12D79: 06 68          ROR     <$68
12D7B: 42             FCB     $42
12D7C: 6D 8E          TST     ???
12D7E: 6D 96          TST     [A,X]
12D80: 6D 8E          TST     ???
12D82: 68 3A          ASL     -6,Y
12D84: 6D 8E          TST     ???
12D86: 68 3A          ASL     -6,Y
12D88: 68 3A          ASL     -6,Y
12D8A: 68 3A          ASL     -6,Y
12D8C: 68 3A          ASL     -6,Y
12D8E: 00 00          NEG     <$00
12D90: 74 06 75       LSR     $0675
12D93: 06 68          ROR     <$68
12D95: 42             FCB     $42
12D96: 01             FCB     $01
12D97: 01             FCB     $01
12D98: 74 7E 75       LSR     $7E75
12D9B: 62             FCB     $62
12D9C: 6D 9E          TST     [???]
12D9E: FF 01 00       STU     $0100
12DA1: 01             FCB     $01
12DA2: 01             FCB     $01
12DA3: FD 6D B6       STD     $6DB6
12DA6: 68 3A          ASL     -6,Y
12DA8: 6D B6          TST     [A,Y]
12DAA: 68 3A          ASL     -6,Y
12DAC: 6D B6          TST     [A,Y]
12DAE: 68 3A          ASL     -6,Y
12DB0: 68 3A          ASL     -6,Y
12DB2: 68 3A          ASL     -6,Y
12DB4: 68 3A          ASL     -6,Y
12DB6: 00 00          NEG     <$00
12DB8: 74 06 75       LSR     $0675
12DBB: 06 68          ROR     <$68
12DBD: 42             FCB     $42
12DBE: 68 3A          ASL     -6,Y
12DC0: 68 3A          ASL     -6,Y
12DC2: 68 3A          ASL     -6,Y
12DC4: 68 3A          ASL     -6,Y
12DC6: 6E 0C          JMP     12,X
12DC8: 68 3A          ASL     -6,Y
12DCA: 68 3A          ASL     -6,Y
12DCC: 68 3A          ASL     -6,Y
12DCE: 68 3A          ASL     -6,Y
12DD0: 6D E2          TST     ,-S
12DD2: 68 3A          ASL     -6,Y
12DD4: 6D E2          TST     ,-S
12DD6: 6D EA          TST     ???
12DD8: 6D F2          TST     ,-S
12DDA: 68 3A          ASL     -6,Y
12DDC: 6E 14          JMP     -12,X
12DDE: 68 3A          ASL     -6,Y
12DE0: 68 3A          ASL     -6,Y
12DE2: 00 00          NEG     <$00
12DE4: 74 06 75       LSR     $0675
12DE7: 06 68          ROR     <$68
12DE9: 42             FCB     $42
12DEA: 00 00          NEG     <$00
12DEC: 74 56 75       LSR     $5675
12DEF: 06 68          ROR     <$68
12DF1: 42             FCB     $42
12DF2: 03 02          COM     <$02
12DF4: 74 5E 75       LSR     $5E75
12DF7: 7A 6F C2       DEC     $6FC2
12DFA: 6E 24          JMP     4,Y
12DFC: 68 3A          ASL     -6,Y
12DFE: 6E 24          JMP     4,Y
12E00: 6D EA          TST     ???
12E02: 6E 0C          JMP     12,X
12E04: 6E 1C          JMP     -4,X
12E06: 6E 14          JMP     -12,X
12E08: 68 3A          ASL     -6,Y
12E0A: 68 3A          ASL     -6,Y
12E0C: 00 42          NEG     <$42
12E0E: 74 5E 75       LSR     $5E75
12E11: 06 6C          ROR     <$6C
12E13: A7 00          STA     ,X
12E15: 00 74          NEG     <$74
12E17: 86 75          LDA     #$75
12E19: 06 6F          ROR     <$6F
12E1B: C2 01          SBCB    #$01
12E1D: 06 74          ROR     <$74
12E1F: 06 75          ROR     <$75
12E21: 06 69          ROR     <$69
12E23: 8F             FCB     $8F
12E24: 01             FCB     $01
12E25: 04 73          LSR     <$73
12E27: E2 75          SBCB    -11,S
12E29: 2E 6E          BGT     $12E99
12E2B: 2C FF          BGE     $12E2C
12E2D: 01             FCB     $01
12E2E: 00 01          NEG     <$01
12E30: 01             FCB     $01
12E31: FD 6E 44       STD     $6E44
12E34: 68 3A          ASL     -6,Y
12E36: 6E 44          JMP     4,U
12E38: 6E 4C          JMP     12,U
12E3A: 6E 54          JMP     -12,U
12E3C: 68 3A          ASL     -6,Y
12E3E: 6E 7A          JMP     -6,S
12E40: 68 3A          ASL     -6,Y
12E42: 68 3A          ASL     -6,Y
12E44: 00 00          NEG     <$00
12E46: 74 0A 75       LSR     $0A75
12E49: 06 68          ROR     <$68
12E4B: 42             FCB     $42
12E4C: 01             FCB     $01
12E4D: 01             FCB     $01
12E4E: 74 56 75       LSR     $5675
12E51: 46             RORA
12E52: 6E 5C          JMP     -4,U
12E54: 01             FCB     $01
12E55: 01             FCB     $01
12E56: 74 5E 75       LSR     $5E75
12E59: 52             FCB     $52
12E5A: 6E 62          JMP     2,S
12E5C: FF 01 00       STU     $0100
12E5F: 01             FCB     $01
12E60: 01             FCB     $01
12E61: FD FF 03       STD     $FF03
12E64: 00 01          NEG     <$01
12E66: 01             FCB     $01
12E67: FD 6E 82       STD     $6E82
12E6A: 68 3A          ASL     -6,Y
12E6C: 6E 82          JMP     ,-X
12E6E: 68 3A          ASL     -6,Y
12E70: 6E 8A          JMP     ???
12E72: 68 3A          ASL     -6,Y
12E74: 6E 7A          JMP     -6,S
12E76: 68 3A          ASL     -6,Y
12E78: 68 3A          ASL     -6,Y
12E7A: 01             FCB     $01
12E7B: 06 74          ROR     <$74
12E7D: 86 75          LDA     #$75
12E7F: 86 6F          LDA     #$6F
12E81: C2 01          SBCB    #$01
12E83: 03 74          COM     <$74
12E85: 06 75          ROR     <$75
12E87: 42             FCB     $42
12E88: 6E 92          JMP     ,-X
12E8A: 00 00          NEG     <$00
12E8C: 74 06 75       LSR     $0675
12E8F: 06 68          ROR     <$68
12E91: 42             FCB     $42
12E92: FF 03 00       STU     $0300
12E95: 01             FCB     $01
12E96: 01             FCB     $01
12E97: FD 6E AA       STD     $6EAA
12E9A: 68 3A          ASL     -6,Y
12E9C: 6E AA          JMP     ???
12E9E: 68 3A          ASL     -6,Y
12EA0: 6E AA          JMP     ???
12EA2: 68 3A          ASL     -6,Y
12EA4: 68 3A          ASL     -6,Y
12EA6: 68 3A          ASL     -6,Y
12EA8: 68 3A          ASL     -6,Y
12EAA: 00 00          NEG     <$00
12EAC: 73 D2 75       COM     $D275
12EAF: 06 68          ROR     <$68
12EB1: 42             FCB     $42
12EB2: 6E C4          JMP     ,U
12EB4: 68 3A          ASL     -6,Y
12EB6: 6E C4          JMP     ,U
12EB8: 68 3A          ASL     -6,Y
12EBA: 6E C4          JMP     ,U
12EBC: 68 3A          ASL     -6,Y
12EBE: 68 3A          ASL     -6,Y
12EC0: 68 3A          ASL     -6,Y
12EC2: 68 3A          ASL     -6,Y
12EC4: 00 00          NEG     <$00
12EC6: 74 02 75       LSR     $0275
12EC9: 06 68          ROR     <$68
12ECB: 42             FCB     $42
12ECC: 6E DE          JMP     [???]
12ECE: 68 3A          ASL     -6,Y
12ED0: 6E DE          JMP     [???]
12ED2: 68 3A          ASL     -6,Y
12ED4: 6E DE          JMP     [???]
12ED6: 68 3A          ASL     -6,Y
12ED8: 68 3A          ASL     -6,Y
12EDA: 68 3A          ASL     -6,Y
12EDC: 68 3A          ASL     -6,Y
12EDE: 00 00          NEG     <$00
12EE0: 73 D6 75       COM     $D675
12EE3: 06 68          ROR     <$68
12EE5: 42             FCB     $42
12EE6: 6E F8 68       JMP     [104,S]
12EE9: 3A             ABX
12EEA: 6E F8 68       JMP     [104,S]
12EED: 3A             ABX
12EEE: 6E F8 68       JMP     [104,S]
12EF1: 3A             ABX
12EF2: 68 3A          ASL     -6,Y
12EF4: 68 3A          ASL     -6,Y
12EF6: 68 3A          ASL     -6,Y
12EF8: 00 00          NEG     <$00
12EFA: 74 0A 75       LSR     $0A75
12EFD: 06 68          ROR     <$68
12EFF: 42             FCB     $42
12F00: 68 3A          ASL     -6,Y
12F02: 68 3A          ASL     -6,Y
12F04: 6F 12          CLR     -14,X
12F06: 68 3A          ASL     -6,Y
12F08: 68 3A          ASL     -6,Y
12F0A: 68 3A          ASL     -6,Y
12F0C: 68 3A          ASL     -6,Y
12F0E: 68 3A          ASL     -6,Y
12F10: 68 3A          ASL     -6,Y
12F12: 00 00          NEG     <$00
12F14: 74 32 75       LSR     $3275
12F17: 06 68          ROR     <$68
12F19: 42             FCB     $42
12F1A: 00 00          NEG     <$00
12F1C: 74 0E 74       LSR     $0E74
12F1F: 0E 68          JMP     <$68
12F21: 42             FCB     $42
12F22: 6F 34          CLR     -12,Y
12F24: 68 3A          ASL     -6,Y
12F26: 6F 34          CLR     -12,Y
12F28: 6F 3C          CLR     -4,Y
12F2A: 6F 1A          CLR     -6,X
12F2C: 68 3A          ASL     -6,Y
12F2E: 68 3A          ASL     -6,Y
12F30: 68 3A          ASL     -6,Y
12F32: 68 3A          ASL     -6,Y
12F34: 00 00          NEG     <$00
12F36: 73 E6 75       COM     $E675
12F39: 06 68          ROR     <$68
12F3B: 42             FCB     $42
12F3C: 00 00          NEG     <$00
12F3E: 74 46 75       LSR     $4675
12F41: 06 68          ROR     <$68
12F43: 42             FCB     $42
12F44: 6F 56          CLR     -10,U
12F46: 68 3A          ASL     -6,Y
12F48: 6F 56          CLR     -10,U
12F4A: 6F 5E          CLR     -2,U
12F4C: 6F 1A          CLR     -6,X
12F4E: 68 3A          ASL     -6,Y
12F50: 68 3A          ASL     -6,Y
12F52: 68 3A          ASL     -6,Y
12F54: 68 3A          ASL     -6,Y
12F56: 01             FCB     $01
12F57: 03 73          COM     <$73
12F59: E6 75          LDB     -11,S
12F5B: 32 6F          LEAS    15,S
12F5D: 66 00          ROR     ,X
12F5F: 00 74          NEG     <$74
12F61: 46             RORA
12F62: 75             FCB     $75
12F63: 06 68          ROR     <$68
12F65: 42             FCB     $42
12F66: FF 01 00       STU     $0100
12F69: 01             FCB     $01
12F6A: 01             FCB     $01
12F6B: FD 6F 7E       STD     $6F7E
12F6E: 68 3A          ASL     -6,Y
12F70: 6F 7E          CLR     -2,S
12F72: 68 3A          ASL     -6,Y
12F74: 6D F2          TST     ,-S
12F76: 68 3A          ASL     -6,Y
12F78: 68 3A          ASL     -6,Y
12F7A: 68 3A          ASL     -6,Y
12F7C: 68 3A          ASL     -6,Y
12F7E: 00 00          NEG     <$00
12F80: 74 02 75       LSR     $0275
12F83: 06 68          ROR     <$68
12F85: 42             FCB     $42
12F86: 6F 98 68       CLR     [104,X]
12F89: 3A             ABX
12F8A: 6F 98 68       CLR     [104,X]
12F8D: 3A             ABX
12F8E: 6F 1A          CLR     -6,X
12F90: 68 3A          ASL     -6,Y
12F92: 68 3A          ASL     -6,Y
12F94: 68 3A          ASL     -6,Y
12F96: 68 3A          ASL     -6,Y
12F98: 00 00          NEG     <$00
12F9A: 74 26 75       LSR     $2675
12F9D: 06 68          ROR     <$68
12F9F: 42             FCB     $42
12FA0: 6F B2          CLR     ,-Y
12FA2: 68 3A          ASL     -6,Y
12FA4: 6F BA          CLR     [???]
12FA6: 68 3A          ASL     -6,Y
12FA8: 6F 1A          CLR     -6,X
12FAA: 68 3A          ASL     -6,Y
12FAC: 68 3A          ASL     -6,Y
12FAE: 68 3A          ASL     -6,Y
12FB0: 68 3A          ASL     -6,Y
12FB2: 01             FCB     $01
12FB3: 04 74          LSR     <$74
12FB5: 2A 75          BPL     $1302C
12FB7: 36 6F          PSHU    CC,A,B,DP,Y,S
12FB9: C8 01          EORB    #$01
12FBB: 04 74          LSR     <$74
12FBD: 2A 75          BPL     $13034
12FBF: 36 6F          PSHU    CC,A,B,DP,Y,S
12FC1: C2 FF          SBCB    #$FF
12FC3: 01             FCB     $01
12FC4: 00 01          NEG     <$01
12FC6: 01             FCB     $01
12FC7: FD FF 01       STD     $FF01
12FCA: 00 01          NEG     <$01
12FCC: 01             FCB     $01
12FCD: FD 6F E0       STD     $6FE0
12FD0: 68 3A          ASL     -6,Y
12FD2: 6F E0          CLR     ,S+
12FD4: 68 3A          ASL     -6,Y
12FD6: 68 3A          ASL     -6,Y
12FD8: 68 3A          ASL     -6,Y
12FDA: 68 3A          ASL     -6,Y
12FDC: 68 3A          ASL     -6,Y
12FDE: 68 3A          ASL     -6,Y
12FE0: 00 00          NEG     <$00
12FE2: 74 06 75       LSR     $0675
12FE5: 06 68          ROR     <$68
12FE7: 42             FCB     $42
12FE8: 6F FA          CLR     [???]
12FEA: 68 3A          ASL     -6,Y
12FEC: 6F FA          CLR     [???]
12FEE: 68 3A          ASL     -6,Y
12FF0: 6F FA          CLR     [???]
12FF2: 68 3A          ASL     -6,Y
12FF4: 68 3A          ASL     -6,Y
12FF6: 68 3A          ASL     -6,Y
12FF8: 68 3A          ASL     -6,Y
12FFA: 00 00          NEG     <$00
12FFC: 74 1E 75       LSR     $1E75
12FFF: 06 68          ROR     <$68
13001: 42             FCB     $42
13002: 70 14 68       NEG     $1468
13005: 3A             ABX
13006: 70 14 70       NEG     $1470
13009: 1C 70          ANDCC   #$70
1300B: 14             FCB     $14
1300C: 68 3A          ASL     -6,Y
1300E: 68 3A          ASL     -6,Y
13010: 68 3A          ASL     -6,Y
13012: 68 3A          ASL     -6,Y
13014: 00 00          NEG     <$00
13016: 73 D2 75       COM     $D275
13019: 06 68          ROR     <$68
1301B: 42             FCB     $42
1301C: 00 00          NEG     <$00
1301E: 74 3E 75       LSR     $3E75
13021: 06 68          ROR     <$68
13023: 42             FCB     $42
13024: 70 36 68       NEG     $3668
13027: 3A             ABX
13028: 70 36 70       NEG     $3670
1302B: 3E             FCB     $3E
L1302C:
1302C: 70 36 68       NEG     $3668
1302F: 3A             ABX
13030: 68 3A          ASL     -6,Y
13032: 68 3A          ASL     -6,Y
L13034:
13034: 68 3A          ASL     -6,Y
13036: 00 00          NEG     <$00
13038: 73 D2 75       COM     $D275
1303B: 06 68          ROR     <$68
1303D: 42             FCB     $42
1303E: 00 00          NEG     <$00
13040: 74 2E 75       LSR     $2E75
13043: 06 68          ROR     <$68
13045: 42             FCB     $42
13046: 70 58 68       NEG     $5868
13049: 3A             ABX
1304A: 70 58 68       NEG     $5868
1304D: 3A             ABX
1304E: 70 58 68       NEG     $5868
13051: 3A             ABX
13052: 68 3A          ASL     -6,Y
13054: 68 3A          ASL     -6,Y
13056: 68 3A          ASL     -6,Y
13058: 01             FCB     $01
13059: 05             FCB     $05
1305A: 73 F6 75       COM     $F675
1305D: 3A             ABX
1305E: 70 60 03       NEG     $6003
13061: 08 59          ASL     <$59
13063: 01             FCB     $01
13064: 01             FCB     $01
13065: FC 00 09       LDD     $0009
13068: 59             ROLB
13069: 01             FCB     $01
1306A: 01             FCB     $01
1306B: FC 00 22       LDD     $0022
1306E: 23 03          BLS     $13073
13070: 08 5B          ASL     <$5B
13072: 01             FCB     $01
L13073:
13073: 01             FCB     $01
13074: FC 00 09       LDD     $0009
13077: 5B             FCB     $5B
13078: 01             FCB     $01
13079: 01             FCB     $01
1307A: FC 00 22       LDD     $0022
1307D: 23 FF          BLS     $1307E
1307F: 01             FCB     $01
13080: 00 01          NEG     <$01
13082: 01             FCB     $01
13083: FD 70 96       STD     $7096
13086: 68 3A          ASL     -6,Y
13088: 70 96 70       NEG     $9670
1308B: 9E 70          LDX     <$70
1308D: 96 68          LDA     <$68
1308F: 3A             ABX
13090: 68 3A          ASL     -6,Y
13092: 68 3A          ASL     -6,Y
13094: 68 3A          ASL     -6,Y
13096: 00 00          NEG     <$00
13098: 73 D2 75       COM     $D275
1309B: 06 68          ROR     <$68
1309D: 42             FCB     $42
1309E: 01             FCB     $01
1309F: 05             FCB     $05
130A0: 74 36 75       LSR     $3675
130A3: 4E             FCB     $4E
130A4: 70 A6 FF       NEG     $A6FF
130A7: 01             FCB     $01
130A8: 00 01          NEG     <$01
130AA: 01             FCB     $01
130AB: FD 70 BE       STD     $70BE
130AE: 68 3A          ASL     -6,Y
130B0: 70 BE 70       NEG     $BE70
130B3: C6 70          LDB     #$70
130B5: BE 68 3A       LDX     $683A
130B8: 68 3A          ASL     -6,Y
130BA: 68 3A          ASL     -6,Y
130BC: 68 3A          ASL     -6,Y
130BE: 00 00          NEG     <$00
130C0: 74 16 75       LSR     $1675
130C3: 06 68          ROR     <$68
130C5: 42             FCB     $42
130C6: 00 00          NEG     <$00
130C8: 74 4A 75       LSR     $4A75
130CB: 06 68          ROR     <$68
130CD: 42             FCB     $42
130CE: 70 E0 68       NEG     $E068
130D1: 3A             ABX
130D2: 70 E0 70       NEG     $E070
130D5: E8 70          EORB    -16,S
130D7: E0 68          SUBB    8,S
130D9: 3A             ABX
130DA: 68 3A          ASL     -6,Y
130DC: 68 3A          ASL     -6,Y
130DE: 68 3A          ASL     -6,Y
130E0: 00 00          NEG     <$00
130E2: 74 1A 75       LSR     $1A75
130E5: 06 68          ROR     <$68
130E7: 42             FCB     $42
130E8: 00 00          NEG     <$00
130EA: 74 4E 75       LSR     $4E75
130ED: 06 68          ROR     <$68
130EF: 42             FCB     $42
130F0: 71             FCB     $71
130F1: 02             FCB     $02
130F2: 68 3A          ASL     -6,Y
130F4: 71             FCB     $71
130F5: 02             FCB     $02
130F6: 71             FCB     $71
130F7: 0A 71          DEC     <$71
130F9: 02             FCB     $02
130FA: 68 3A          ASL     -6,Y
130FC: 68 3A          ASL     -6,Y
130FE: 68 3A          ASL     -6,Y
13100: 68 3A          ASL     -6,Y
13102: 00 00          NEG     <$00
13104: 73 F6 75       COM     $F675
13107: 06 68          ROR     <$68
13109: 42             FCB     $42
1310A: 00 00          NEG     <$00
1310C: 74 5A 75       LSR     $5A75
1310F: 06 68          ROR     <$68
13111: 42             FCB     $42
13112: 71             FCB     $71
13113: 24 68          BCC     $1317D
13115: 3A             ABX
13116: 71             FCB     $71
13117: 24 71          BCC     $1318A
13119: 2C 71          BGE     $1318C
1311B: 24 68          BCC     $13185
1311D: 3A             ABX
1311E: 68 3A          ASL     -6,Y
13120: 68 3A          ASL     -6,Y
13122: 68 3A          ASL     -6,Y
13124: 00 00          NEG     <$00
13126: 74 06 75       LSR     $0675
13129: 06 68          ROR     <$68
1312B: 42             FCB     $42
1312C: 00 00          NEG     <$00
1312E: 74 52 75       LSR     $5275
13131: 06 68          ROR     <$68
13133: 42             FCB     $42
13134: 71             FCB     $71
13135: 46             RORA
13136: 68 3A          ASL     -6,Y
13138: 71             FCB     $71
13139: 46             RORA
1313A: 71             FCB     $71
1313B: 2C 71          BGE     $131AE
1313D: 46             RORA
1313E: 68 3A          ASL     -6,Y
13140: 68 3A          ASL     -6,Y
13142: 68 3A          ASL     -6,Y
13144: 68 3A          ASL     -6,Y
13146: 00 00          NEG     <$00
13148: 74 06 75       LSR     $0675
1314B: 06 68          ROR     <$68
1314D: 42             FCB     $42
1314E: 71             FCB     $71
1314F: 60 68          NEG     8,S
13151: 3A             ABX
13152: 71             FCB     $71
13153: 60 71          NEG     -15,S
13155: 2C 71          BGE     $131C8
13157: 60 68          NEG     8,S
13159: 3A             ABX
1315A: 68 3A          ASL     -6,Y
1315C: 68 3A          ASL     -6,Y
1315E: 68 3A          ASL     -6,Y
13160: 00 00          NEG     <$00
13162: 74 06 75       LSR     $0675
13165: 06 68          ROR     <$68
13167: 42             FCB     $42
13168: 71             FCB     $71
13169: 7A 68 3A       DEC     $683A
1316C: 71             FCB     $71
1316D: 7A 71 2C       DEC     $712C
13170: 71             FCB     $71
13171: 7A 68 3A       DEC     $683A
13174: 68 3A          ASL     -6,Y
13176: 68 3A          ASL     -6,Y
13178: 68 3A          ASL     -6,Y
1317A: 00 00          NEG     <$00
1317C: 74 06 75       LSR     $0675
1317F: 06 68          ROR     <$68
13181: 42             FCB     $42
13182: 71             FCB     $71
13183: 94 68          ANDA    <$68
L13185:
13185: 3A             ABX
13186: 71             FCB     $71
13187: 94 71          ANDA    <$71
13189: 2C 71          BGE     $131FC
1318B: 94 68          ANDA    <$68
1318D: 3A             ABX
1318E: 68 3A          ASL     -6,Y
13190: 68 3A          ASL     -6,Y
13192: 68 3A          ASL     -6,Y
13194: 00 00          NEG     <$00
13196: 74 06 75       LSR     $0675
13199: 06 68          ROR     <$68
1319B: 42             FCB     $42
1319C: 71             FCB     $71
1319D: AE 68          LDX     8,S
1319F: 3A             ABX
131A0: 71             FCB     $71
131A1: AE 71          LDX     -15,S
131A3: 2C 71          BGE     $13216
131A5: AE 68          LDX     8,S
131A7: 3A             ABX
131A8: 68 3A          ASL     -6,Y
131AA: 68 3A          ASL     -6,Y
131AC: 68 3A          ASL     -6,Y
L131AE:
131AE: 00 00          NEG     <$00
131B0: 74 06 75       LSR     $0675
131B3: 06 68          ROR     <$68
131B5: 42             FCB     $42
131B6: 71             FCB     $71
131B7: C8 68          EORB    #$68
131B9: 3A             ABX
131BA: 71             FCB     $71
131BB: C8 71          EORB    #$71
131BD: 2C 71          BGE     $13230
131BF: C8 68          EORB    #$68
131C1: 3A             ABX
131C2: 68 3A          ASL     -6,Y
131C4: 68 3A          ASL     -6,Y
131C6: 68 3A          ASL     -6,Y
L131C8:
131C8: 00 00          NEG     <$00
131CA: 74 06 75       LSR     $0675
131CD: 06 68          ROR     <$68
131CF: 42             FCB     $42
131D0: 71             FCB     $71
131D1: E2 68          SBCB    8,S
131D3: 3A             ABX
131D4: 71             FCB     $71
131D5: E2 71          SBCB    -15,S
131D7: 2C 71          BGE     $1324A
131D9: E2 68          SBCB    8,S
131DB: 3A             ABX
131DC: 68 3A          ASL     -6,Y
131DE: 68 3A          ASL     -6,Y
131E0: 68 3A          ASL     -6,Y
131E2: 00 00          NEG     <$00
131E4: 74 06 75       LSR     $0675
131E7: 06 68          ROR     <$68
131E9: 42             FCB     $42
131EA: 71             FCB     $71
131EB: FC 68 3A       LDD     $683A
131EE: 71             FCB     $71
131EF: FC 71 2C       LDD     $712C
131F2: 71             FCB     $71
131F3: FC 68 3A       LDD     $683A
131F6: 68 3A          ASL     -6,Y
131F8: 68 3A          ASL     -6,Y
131FA: 68 3A          ASL     -6,Y
L131FC:
131FC: 00 00          NEG     <$00
131FE: 73 EA 75       COM     $EA75
13201: 06 68          ROR     <$68
13203: 42             FCB     $42
13204: 72             FCB     $72
13205: 66 68          ROR     8,S
13207: 3A             ABX
13208: 72             FCB     $72
13209: 66 68          ROR     8,S
1320B: 3A             ABX
1320C: 72             FCB     $72
1320D: 66 68          ROR     8,S
1320F: 3A             ABX
13210: 68 3A          ASL     -6,Y
13212: 68 3A          ASL     -6,Y
13214: 68 3A          ASL     -6,Y
L13216:
13216: 00 00          NEG     <$00
13218: 73 C6 75       COM     $C675
1321B: 06 68          ROR     <$68
1321D: 42             FCB     $42
1321E: 68 3A          ASL     -6,Y
13220: 68 3A          ASL     -6,Y
13222: 68 3A          ASL     -6,Y
13224: 68 3A          ASL     -6,Y
13226: 68 3A          ASL     -6,Y
13228: 68 3A          ASL     -6,Y
1322A: 68 3A          ASL     -6,Y
1322C: 68 3A          ASL     -6,Y
1322E: 68 3A          ASL     -6,Y
L13230:
13230: 68 3A          ASL     -6,Y
13232: 68 3A          ASL     -6,Y
13234: 68 3A          ASL     -6,Y
13236: 68 3A          ASL     -6,Y
13238: 68 3A          ASL     -6,Y
1323A: 68 3A          ASL     -6,Y
1323C: 68 3A          ASL     -6,Y
1323E: 68 3A          ASL     -6,Y
13240: 68 3A          ASL     -6,Y
13242: 68 3A          ASL     -6,Y
13244: 68 3A          ASL     -6,Y
13246: 68 3A          ASL     -6,Y
13248: 68 3A          ASL     -6,Y
L1324A:
1324A: 68 3A          ASL     -6,Y
1324C: 68 3A          ASL     -6,Y
1324E: 68 3A          ASL     -6,Y
13250: 68 3A          ASL     -6,Y
13252: 68 3A          ASL     -6,Y
13254: 72             FCB     $72
13255: 66 68          ROR     8,S
13257: 3A             ABX
13258: 72             FCB     $72
13259: 66 68          ROR     8,S
1325B: 3A             ABX
1325C: 72             FCB     $72
1325D: 66 68          ROR     8,S
1325F: 3A             ABX
13260: 68 3A          ASL     -6,Y
13262: 68 3A          ASL     -6,Y
13264: 68 3A          ASL     -6,Y
13266: 00 00          NEG     <$00
13268: 73 EE 75       COM     $EE75
1326B: 06 68          ROR     <$68
1326D: 42             FCB     $42
1326E: 72             FCB     $72
1326F: 66 68          ROR     8,S
13271: 3A             ABX
13272: 72             FCB     $72
13273: 66 68          ROR     8,S
13275: 3A             ABX
13276: 72             FCB     $72
13277: 66 68          ROR     8,S
13279: 3A             ABX
1327A: 68 3A          ASL     -6,Y
1327C: 68 3A          ASL     -6,Y
1327E: 68 3A          ASL     -6,Y
13280: 72             FCB     $72
13281: 66 68          ROR     8,S
13283: 3A             ABX
13284: 72             FCB     $72
13285: 66 68          ROR     8,S
13287: 3A             ABX
13288: 72             FCB     $72
13289: 66 68          ROR     8,S
1328B: 3A             ABX
1328C: 68 3A          ASL     -6,Y
1328E: 68 3A          ASL     -6,Y
13290: 68 3A          ASL     -6,Y
13292: 72             FCB     $72
13293: 66 68          ROR     8,S
13295: 3A             ABX
13296: 72             FCB     $72
13297: 66 68          ROR     8,S
13299: 3A             ABX
1329A: 72             FCB     $72
1329B: 66 68          ROR     8,S
1329D: 3A             ABX
1329E: 68 3A          ASL     -6,Y
132A0: 68 3A          ASL     -6,Y
132A2: 68 3A          ASL     -6,Y
132A4: 68 3A          ASL     -6,Y
132A6: 68 3A          ASL     -6,Y
132A8: 72             FCB     $72
132A9: B6 68 3A       LDA     $683A
132AC: 72             FCB     $72
132AD: B6 68 3A       LDA     $683A
132B0: 68 3A          ASL     -6,Y
132B2: 68 3A          ASL     -6,Y
132B4: 68 3A          ASL     -6,Y
132B6: 01             FCB     $01
132B7: 04 73          LSR     <$73
132B9: EE 75          LDU     -11,S
132BB: 06 68          ROR     <$68
132BD: 42             FCB     $42
132BE: 68 3A          ASL     -6,Y
132C0: 68 3A          ASL     -6,Y
132C2: 72             FCB     $72
132C3: D0 68          SUBB    <$68
132C5: 3A             ABX
132C6: 72             FCB     $72
132C7: D0 68          SUBB    <$68
132C9: 3A             ABX
132CA: 68 3A          ASL     -6,Y
132CC: 68 3A          ASL     -6,Y
132CE: 68 3A          ASL     -6,Y
132D0: 01             FCB     $01
132D1: 04 73          LSR     <$73
132D3: EE 75          LDU     -11,S
132D5: 3E             FCB     $3E
132D6: 72             FCB     $72
132D7: D8 FF          EORB    <$FF
132D9: 03 00          COM     <$00
132DB: 03 01          COM     <$01
132DD: FD 72 F0       STD     $72F0
132E0: 68 3A          ASL     -6,Y
132E2: 68 3A          ASL     -6,Y
132E4: 68 3A          ASL     -6,Y
132E6: 68 3A          ASL     -6,Y
132E8: 68 3A          ASL     -6,Y
132EA: 68 3A          ASL     -6,Y
132EC: 68 3A          ASL     -6,Y
132EE: 68 3A          ASL     -6,Y
132F0: 04 06          LSR     <$06
132F2: 74 2A 75       LSR     $2A75
132F5: 72             FCB     $72
132F6: 73 12 73       COM     $1273
132F9: 0A 68          DEC     <$68
132FB: 3A             ABX
132FC: 68 3A          ASL     -6,Y
132FE: 68 3A          ASL     -6,Y
13300: 68 3A          ASL     -6,Y
13302: 68 3A          ASL     -6,Y
13304: 68 3A          ASL     -6,Y
13306: 68 3A          ASL     -6,Y
13308: 68 3A          ASL     -6,Y
1330A: 04 06          LSR     <$06
1330C: 74 2A 75       LSR     $2A75
1330F: 76 73 12       ROR     $7312
13312: FF 01 0A       STU     $010A
13315: 01             FCB     $01
13316: 0A FD          DEC     <$FD
13318: 73 2A 68       COM     $2A68
1331B: 3A             ABX
1331C: 68 3A          ASL     -6,Y
1331E: 68 3A          ASL     -6,Y
13320: 68 3A          ASL     -6,Y
13322: 68 3A          ASL     -6,Y
13324: 68 3A          ASL     -6,Y
13326: 68 3A          ASL     -6,Y
13328: 68 3A          ASL     -6,Y
1332A: 00 00          NEG     <$00
1332C: 74 B2 75       LSR     $B275
1332F: 06 6F          ROR     <$6F
13331: C2 73          SBCB    #$73
13333: 44             LSRA
13334: 68 3A          ASL     -6,Y
13336: 68 3A          ASL     -6,Y
13338: 68 3A          ASL     -6,Y
1333A: 6D F2          TST     ,-S
1333C: 68 3A          ASL     -6,Y
1333E: 68 3A          ASL     -6,Y
13340: 68 3A          ASL     -6,Y
13342: 68 3A          ASL     -6,Y
13344: 04 02          LSR     <$02
13346: 74 B6 75       LSR     $B675
13349: 66 70          ROR     -16,S
1334B: A6 68          LDA     8,S
1334D: 3A             ABX
1334E: 68 3A          ASL     -6,Y
13350: 68 3A          ASL     -6,Y
13352: 68 3A          ASL     -6,Y
13354: 73 5E 68       COM     $5E68
13357: 3A             ABX
13358: 68 3A          ASL     -6,Y
1335A: 68 3A          ASL     -6,Y
1335C: 68 3A          ASL     -6,Y
1335E: 01             FCB     $01
1335F: 16 74 5E       LBRA    $1A7C0
13362: 75             FCB     $75
13363: 52             FCB     $52
13364: 6A 4B          DEC     11,U
13366: 73 78 68       COM     $7868
13369: 3A             ABX
1336A: 68 3A          ASL     -6,Y
1336C: 68 3A          ASL     -6,Y
1336E: 68 3A          ASL     -6,Y
13370: 68 3A          ASL     -6,Y
13372: 68 3A          ASL     -6,Y
13374: 68 3A          ASL     -6,Y
13376: 68 3A          ASL     -6,Y
13378: 04 02          LSR     <$02
1337A: 74 BE 75       LSR     $BE75
1337D: 6A 73          DEC     -13,S
1337F: 80 FE          SUBA    #$FE
13381: 59             ROLB
13382: 01             FCB     $01
13383: 01             FCB     $01
13384: 01             FCB     $01
13385: 00 FE          NEG     <$FE
13387: 5B             FCB     $5B
13388: 01             FCB     $01
13389: 01             FCB     $01
1338A: 01             FCB     $01
1338B: 00 FF          NEG     <$FF
1338D: 03 00          COM     <$00
1338F: 03 01          COM     <$01
13391: FD 73 A4       STD     $73A4
13394: 68 3A          ASL     -6,Y
13396: 68 3A          ASL     -6,Y
13398: 68 3A          ASL     -6,Y
1339A: 68 3A          ASL     -6,Y
1339C: 68 3A          ASL     -6,Y
1339E: 68 3A          ASL     -6,Y
133A0: 68 3A          ASL     -6,Y
133A2: 68 3A          ASL     -6,Y
133A4: 04 02          LSR     <$02
133A6: 73 EA 75       COM     $EA75
133A9: 66 6A          ROR     10,S
133AB: 4B             FCB     $4B
133AC: 73 BE 68       COM     $BE68
133AF: 3A             ABX
133B0: 68 3A          ASL     -6,Y
133B2: 68 3A          ASL     -6,Y
133B4: 68 3A          ASL     -6,Y
133B6: 68 3A          ASL     -6,Y
133B8: 68 3A          ASL     -6,Y
133BA: 68 3A          ASL     -6,Y
133BC: 68 3A          ASL     -6,Y
133BE: 00 00          NEG     <$00
133C0: 74 BA 75       LSR     $BA75
133C3: 66 68          ROR     8,S
133C5: 42             FCB     $42
133C6: 00 00          NEG     <$00
133C8: 00 00          NEG     <$00
133CA: 08 00          ASL     <$00
133CC: 20 0C          BRA     $133DA
133CE: F0 14 20       SUBB    $1420
133D1: 20 00          BRA     $133D3
L133D3:
133D3: 00 0C          NEG     <$0C
133D5: 38             FCB     $38
133D6: 00 00          NEG     <$00
133D8: 08 38          ASL     <$38
L133DA:
133DA: 00 10          NEG     <$10
133DC: 0C 28          INC     <$28
133DE: 00 10          NEG     <$10
133E0: 10 28 00 00    LBVC    $133E4
L133E4:
133E4: 08 38          ASL     <$38
133E6: 00 20          NEG     <$20
133E8: 10 10          FCB     $10,$10
133EA: 00 10          NEG     <$10
133EC: 10 20          FCB     $10,$20
133EE: F0 00 30       SUBB    $0030
133F1: 40             NEGA
133F2: FC 00 0C       LDD     $000C
133F5: 38             FCB     $38
133F6: FC 00 08       LDD     $0008
133F9: 38             FCB     $38
133FA: F8 00 28       EORB    $0028
133FD: 38             FCB     $38
133FE: F0 14 30       SUBB    $1430
13401: 20 F8          BRA     $133FB
13403: 00 08          NEG     <$08
13405: 38             FCB     $38
13406: F6 00 14       LDB     $0014
L13409:
13409: 38             FCB     $38
1340A: FA 06 0A       ORB     $060A
1340D: 2A FA          BPL     $13409
1340F: 08 0A          ASL     <$0A
13411: 2A F8          BPL     $1340B
L13413:
13413: 18             FCB     $18
13414: 0C 20          INC     <$20
13416: F8 00 10       EORB    $0010
13419: 20 F8          BRA     $13413
1341B: 00 10          NEG     <$10
1341D: 30 F8 08       LEAX    [8,S]
13420: 10 18          FCB     $10,$18
13422: F0 10 10       SUBB    $1010
13425: 18             FCB     $18
13426: F0 00 10       SUBB    $0010
13429: 38             FCB     $38
1342A: F0 18 10       SUBB    $1810
1342D: 20 04          BRA     $13433
1342F: 10 10          FCB     $10,$10
13431: 50             NEGB
13432: 00 00          NEG     <$00
13434: 10 50          FCB     $10,$50
13436: 00 10          NEG     <$10
13438: 10 50          FCB     $10,$50
1343A: F0 08 20       SUBB    $0820
1343D: 50             NEGB
1343E: FC 10 10       LDD     $1010
13441: 50             NEGB
13442: FC 10 10       LDD     $1010
13445: 50             NEGB
13446: F8 00 10       EORB    $0010
13449: 50             NEGB
1344A: F8 00 18       EORB    $0018
1344D: 50             NEGB
1344E: F8 00 10       EORB    $0010
13451: 38             FCB     $38
13452: F8 18 10       EORB    $1810
13455: 50             NEGB
13456: F4 00 0C       ANDB    $000C
13459: 50             NEGB
1345A: F8 18 10       EORB    $1810
1345D: 50             NEGB
1345E: F8 00 10       EORB    $0010
13461: 40             NEGA
13462: FA 00 0A       ORB     $000A
13465: 32 F8 00       LEAS    [0,S]
13468: 10 38          FCB     $10,$38
1346A: F4 00 10       ANDB    $0010
1346D: 30 00          LEAX    ,X
1346F: 00 10          NEG     <$10
13471: 28 F8          BVC     $1346B
13473: 04 10          LSR     <$10
13475: 20 00          BRA     $13477
L13477:
13477: 00 10          NEG     <$10
13479: 38             FCB     $38
1347A: F4 10 10       ANDB    $1010
1347D: 28 00          BVC     $1347F
L1347F:
1347F: 18             FCB     $18
13480: 10 20          FCB     $10,$20
13482: FC 08 0C       LDD     $080C
13485: 60 E8 08       NEG     8,S
13488: 14             FCB     $14
13489: 60 FC 08       NEG     [$13494,PCR]
1348C: 18             FCB     $18
1348D: 50             NEGB
1348E: D8 08          EORB    <$08
13490: 28 38          BVC     $134CA
13492: F8 08 10       EORB    $0810
13495: 50             NEGB
13496: F4 08 18       ANDB    $0818
13499: 50             NEGB
1349A: F8 08 10       EORB    $0810
1349D: 28 F0          BVC     $1348F
1349F: 08 20          ASL     <$20
134A1: 38             FCB     $38
134A2: F8 08 18       EORB    $0818
134A5: 60 00          NEG     ,X
134A7: 08 20          ASL     <$20
134A9: 38             FCB     $38
134AA: 00 0C          NEG     <$0C
134AC: 1C 40          ANDCC   #$40
134AE: FC 00 20       LDD     $0020
134B1: 60 F8 00       NEG     [0,S]
134B4: 10 40          FCB     $10,$40
134B6: F0 00 18       SUBB    $0018
134B9: 40             NEGA
134BA: F8 FC 10       EORB    $FC10
134BD: 34 FE          PSHS    A,B,DP,X,Y,U,PC
134BF: 00 18          NEG     <$18
134C1: 40             NEGA
134C2: FE 00 20       LDU     $0020
134C5: 50             NEGB
134C6: F4 00 14       ANDB    $0014
134C9: 50             NEGB
L134CA:
134CA: F8 00 20       EORB    $0020
134CD: 50             NEGB
134CE: 00 00          NEG     <$00
134D0: 18             FCB     $18
134D1: 50             NEGB
134D2: FC 00 14       LDD     $0014
134D5: 60 FC 00       NEG     [$134D8,PCR]
L134D8:
134D8: 18             FCB     $18
134D9: 70 F4 00       NEG     $F400
134DC: 14             FCB     $14
134DD: 60 F8 00       NEG     [0,S]
134E0: 10 50          FCB     $10,$50
134E2: FC F4 18       LDD     $F418
134E5: 40             NEGA
134E6: F4 F4 14       ANDB    $F414
134E9: 40             NEGA
134EA: F0 00 20       SUBB    $0020
134ED: 30 F8 F4       LEAX    [-12,S]
134F0: 18             FCB     $18
134F1: 30 F0          LEAX    ,S+
134F3: 00 20          NEG     <$20
134F5: 48             ASLA
134F6: E8 00          EORB    ,X
134F8: 18             FCB     $18
134F9: 48             ASLA
134FA: F0 00 20       SUBB    $0020
134FD: 48             ASLA
134FE: F4 00 18       ANDB    $0018
13501: 50             NEGB
13502: FC 00 1C       LDD     $001C
13505: 40             NEGA
13506: 00 00          NEG     <$00
13508: 00 00          NEG     <$00
1350A: FC 00 14       LDD     $0014
1350D: 38             FCB     $38
1350E: 10 30          FCB     $10,$30
13510: 10 08          FCB     $10,$08
13512: 08 10          ASL     <$10
13514: 0C 0C          INC     <$0C
13516: 08 30          ASL     <$30
13518: 0E 0E          JMP     <$0E
1351A: DC 20          LDD     <$20
1351C: 10 10          FCB     $10,$10
1351E: D8 20          EORB    <$20
13520: 10 10          FCB     $10,$10
13522: DC 18          LDD     <$18
13524: 14             FCB     $14
13525: 0C 04          INC     <$04
13527: 00 08          NEG     <$08
13529: 08 00          ASL     <$00
1352B: 00 08          NEG     <$08
1352D: 10 08          FCB     $10,$08
1352F: 20 1C          BRA     $1354D
13531: 14             FCB     $14
13532: E0 F8 40       SUBB    [64,S]
13535: 10 10          FCB     $10,$10
13537: 2C 0C          BGE     $13545
13539: 0C 10          INC     <$10
1353B: 20 20          BRA     $1355D
1353D: 08 10          ASL     <$10
1353F: 18             FCB     $18
13540: 14             FCB     $14
13541: 10 08          FCB     $10,$08
13543: 20 04          BRA     $13549
L13545:
13545: 08 0C          ASL     <$0C
13547: 30 0C          LEAX    12,X
L13549:
13549: 0C 18          INC     <$18
1354B: 10 0C          FCB     $10,$0C
L1354D:
1354D: 10 1C          FCB     $10,$1C
1354F: 20 0C          BRA     $1355D
13551: 0C 14          INC     <$14
13553: 1C 10          ANDCC   #$10
13555: 10 E0          FCB     $10,$E0
13557: 20 0D          BRA     $13566
13559: 10 0C          FCB     $10,$0C
1355B: 28 18          BVC     $13575
L1355D:
1355D: 18             FCB     $18
1355E: 08 20          ASL     <$20
13560: 30 20          LEAX    ,Y
13562: E0 20          SUBB    ,Y
13564: 20 10          BRA     $13576
L13566:
13566: 08 10          ASL     <$10
13568: 1C 20          ANDCC   #$20
1356A: D8 1C          EORB    <$1C
1356C: 08 08          ASL     <$08
1356E: 10 08          FCB     $10,$08
13570: 10 08          FCB     $10,$08
13572: F8 E4 10       EORB    $E410
L13575:
13575: 10 08          FCB     $10,$08
13577: E4 10          ANDB    -16,X
13579: 10 0A          FCB     $10,$0A
1357B: 28 08          BVC     $13585
1357D: 18             FCB     $18
1357E: 18             FCB     $18
1357F: 30 10          LEAX    -16,X
13581: 10 00          FCB     $10,$00
13583: 00 24          NEG     <$24
L13585:
13585: 50             NEGB
13586: 24 28          BCC     $135B0
13588: 10 10          FCB     $10,$10
1358A: 14             FCB     $14
1358B: 0C 14          INC     <$14
1358D: 14             FCB     $14
1358E: D0 04          SUBB    <$04
13590: 10 18          FCB     $10,$18
13592: EC 08          LDD     8,X
13594: 10 18          FCB     $10,$18
13596: 18             FCB     $18
13597: 00 10          NEG     <$10
13599: 18             FCB     $18
1359A: F0 F0 10       SUBB    $F010
1359D: 30 18          LEAX    -8,X
L1359F:
1359F: 10 0C          FCB     $10,$0C
135A1: 28 FC          BVC     $1359F
135A3: 00 18          NEG     <$18
135A5: 40             NEGA
135A6: 00 00          NEG     <$00
135A8: 20 40          BRA     $135EA
135AA: 08 28          ASL     <$28
135AC: 08 10          ASL     <$10
135AE: E8 08          EORB    8,X
L135B0:
135B0: 10 20          FCB     $10,$20
135B2: 10 18          FCB     $10,$18
135B4: 14             FCB     $14
135B5: 0C 24          INC     <$24
135B7: 28 10          BVC     $135C9
135B9: 08 10          ASL     <$10
135BB: 2C 10          BGE     $135CD
135BD: 10 0C          FCB     $10,$0C
135BF: 20 14          BRA     $135D5
135C1: 10 00          FCB     $10,$00
135C3: 1C 1C          ANDCC   #$1C
135C5: 10 B6          FCB     $10,$B6
135C7: 0B             FCB     $0B
135C8: 6B             FCB     $6B
L135C9:
135C9: 85 40          BITA    #$40
135CB: 10 26 00 86    LBNE    $13655
135CF: 10 8E 76 9F    LDY     #$769F
135D3: B6 0B C1       LDA     $0BC1
135D6: 48             ASLA
135D7: 10 AE A6       LDY     A,Y
135DA: F6 0B C2       LDB     $0BC2
135DD: 58             ASLB
135DE: 10 AE A5       LDY     B,Y
135E1: 8E 07 DB       LDX     #$07DB
L135E4:
135E4: A6 A4          LDA     ,Y
135E6: 81 FF          CMPA    #$FF
135E8: 27 63          BEQ     $1364D
L135EA:
135EA: A6 84          LDA     ,X
135EC: 85 80          BITA    #$80
135EE: 26 55          BNE     $13645
135F0: A6 A4          LDA     ,Y
135F2: 97 00          STA     <$00
135F4: BD 76 66       JSR     $7666
135F7: 24 46          BCC     $1363F
135F9: BD 5B 4D       JSR     $5B4D
135FC: 86 80          LDA     #$80
135FE: A7 84          STA     ,X
13600: CC FF FF       LDD     #$FFFF
13603: ED 04          STD     4,X
13605: CC 00 00       LDD     #$0000
13608: ED 06          STD     6,X
1360A: 96 00          LDA     <$00
1360C: A7 88 17       STA     23,X
1360F: 34 20          PSHS    Y
13611: 10 8E 76 56    LDY     #$7656
13615: 84 1F          ANDA    #$1F
13617: A6 A6          LDA     A,Y
13619: A7 01          STA     1,X
1361B: 35 20          PULS    Y
1361D: 6F 02          CLR     2,X
1361F: EC 21          LDD     1,Y
13621: ED 04          STD     4,X
13623: 6F 0A          CLR     10,X
13625: EC 23          LDD     3,Y
13627: ED 06          STD     6,X
13629: 6F 0B          CLR     11,X
1362B: EC 25          LDD     5,Y
1362D: ED 08          STD     8,X
1362F: 6F 0C          CLR     12,X
13631: 86 05          LDA     #$05
13633: A7 88 1B       STA     27,X
13636: 6F 88 16       CLR     22,X
13639: 6F 88 1F       CLR     31,X
1363C: 6F 88 20       CLR     32,X
L1363F:
1363F: 31 A9 00 07    LEAY    7,Y
13643: 20 9F          BRA     $135E4
L13645:
13645: 30 88 24       LEAX    36,X
13648: 8C 0A 1B       CMPX    #$0A1B
1364B: 26 9D          BNE     $135EA
L1364D:
1364D: B6 0B 6B       LDA     $0B6B
13650: 8A 40          ORA     #$40
13652: B7 0B 6B       STA     $0B6B
L13655:
13655: 39             RTS
13656: 0C 00          INC     <$00
13658: 00 0E          NEG     <$0E
1365A: 0D 11          TST     <$11
1365C: 0F 10          CLR     <$10
1365E: 00 00          NEG     <$00
13660: 00 00          NEG     <$00
13662: 00 00          NEG     <$00
13664: 12             NOP
13665: 00 81          NEG     <$81
13667: 00 27          NEG     <$27
13669: 0A 81          DEC     <$81
1366B: 04 27          LSR     <$27
1366D: 12             NOP
1366E: 81 03          CMPA    #$03
13670: 27 1A          BEQ     $1368C
13672: 20 28          BRA     $1369C
13674: B6 0F 24       LDA     $0F24
13677: 81 02          CMPA    #$02
13679: 24 21          BCC     $1369C
1367B: 7C 0F 24       INC     $0F24
1367E: 20 18          BRA     $13698
13680: B6 0F 25       LDA     $0F25
13683: 81 02          CMPA    #$02
13685: 24 15          BCC     $1369C
13687: 7C 0F 25       INC     $0F25
1368A: 20 0C          BRA     $13698
L1368C:
1368C: B6 0F 26       LDA     $0F26
1368F: 81 02          CMPA    #$02
13691: 24 09          BCC     $1369C
13693: 7C 0F 26       INC     $0F26
13696: 20 00          BRA     $13698
L13698:
13698: 1A 01          ORCC    #$01
1369A: 20 02          BRA     $1369E
L1369C:
1369C: 1C FE          ANDCC   #$FE
L1369E:
1369E: 39             RTS
1369F: 76 A5 76       ROR     $A576
136A2: AB 76          ADDA    -10,S
136A4: AF 76          STX     -10,S
136A6: C5 76          BITB    #$76
136A8: C6 76          LDB     #$76
136AA: CE 76 CF       LDU     #$76CF
136AD: 76 D7 76       ROR     $D776
136B0: D8 76          EORB    <$76
136B2: D9 76          ADCB    <$76
136B4: DA 76          ORB     <$76
136B6: E2 76          SBCB    -10,S
136B8: E3 76          ADDD    -10,S
136BA: EB 76          ADDB    -10,S
136BC: EC 76          LDD     -10,S
136BE: ED 76          STD     -10,S
136C0: EE 76          LDU     -10,S
136C2: EF 76          STU     -10,S
136C4: F0 FF 04       SUBB    $FF04
136C7: 01             FCB     $01
136C8: 90 01          SUBA    <$01
136CA: 20 03          BRA     $136CF
136CC: 00 FF          NEG     <$FF
136CE: FF 03 05       STU     $0305
136D1: A2 01          SBCA    1,X
136D3: 35 01          PULS    CC
136D5: 00 FF          NEG     <$FF
136D7: FF FF FF       STU     $FFFF
136DA: 00 0A          NEG     <$0A
136DC: 60 00          NEG     ,X
136DE: C0 01          SUBB    #$01
136E0: 00 FF          NEG     <$FF
136E2: FF 00 0E       STU     $000E
136E5: A8 00          EORA    ,X
136E7: A0 01          SUBA    1,X
136E9: 00 FF          NEG     <$FF
136EB: FF FF FF       STU     $FFFF
136EE: FF FF FF       STU     $FFFF
136F1: 34 76          PSHS    A,B,X,Y,U
136F3: 10 8E 07 DB    LDY     #$07DB
L136F7:
136F7: A6 A4          LDA     ,Y
136F9: 10 2A 00 93    LBPL    $13790
136FD: 34 10          PSHS    X
136FF: 8E 78 35       LDX     #$7835
13702: A6 A8 17       LDA     23,Y
13705: 84 1F          ANDA    #$1F
13707: A6 86          LDA     A,X
13709: 35 10          PULS    X
1370B: 10 26 00 81    LBNE    $13790
1370F: A6 22          LDA     2,Y
13711: 84 7F          ANDA    #$7F
13713: 81 7F          CMPA    #$7F
13715: 27 79          BEQ     $13790
13717: A6 A8 1B       LDA     27,Y
1371A: 84 7F          ANDA    #$7F
1371C: 81 03          CMPA    #$03
1371E: 27 70          BEQ     $13790
13720: DC 3C          LDD     <$3C
13722: 10 A3 24       CMPD    4,Y
13725: 24 69          BCC     $13790
13727: C3 01 30       ADDD    #$0130
1372A: 10 A3 24       CMPD    4,Y
1372D: 25 61          BCS     $13790
1372F: 86 01          LDA     #$01
13731: 97 00          STA     <$00
13733: 8E 03 A2       LDX     #$03A2
13736: A6 84          LDA     ,X
13738: 84 C0          ANDA    #$C0
1373A: 81 C0          CMPA    #$C0
1373C: 26 14          BNE     $13752
1373E: A6 88 1B       LDA     27,X
13741: 84 7F          ANDA    #$7F
13743: 81 01          CMPA    #$01
13745: 27 0B          BEQ     $13752
13747: 81 04          CMPA    #$04
13749: 27 07          BEQ     $13752
1374B: 81 05          CMPA    #$05
1374D: 27 03          BEQ     $13752
1374F: BD 77 9D       JSR     $779D
L13752:
13752: 86 01          LDA     #$01
13754: 97 00          STA     <$00
13756: 8E 04 01       LDX     #$0401
13759: A6 84          LDA     ,X
1375B: 84 C0          ANDA    #$C0
1375D: 81 C0          CMPA    #$C0
1375F: 26 14          BNE     $13775
13761: A6 88 1B       LDA     27,X
13764: 84 7F          ANDA    #$7F
13766: 81 01          CMPA    #$01
13768: 27 0B          BEQ     $13775
1376A: 81 04          CMPA    #$04
1376C: 27 07          BEQ     $13775
1376E: 81 05          CMPA    #$05
13770: 27 03          BEQ     $13775
13772: BD 77 9D       JSR     $779D
L13775:
13775: 86 02          LDA     #$02
13777: 97 00          STA     <$00
13779: 8E 04 60       LDX     #$0460
L1377C:
1377C: A6 88 1B       LDA     27,X
1377F: 84 7F          ANDA    #$7F
13781: 81 01          CMPA    #$01
13783: 27 03          BEQ     $13788
13785: BD 77 9D       JSR     $779D
L13788:
13788: 30 88 63       LEAX    99,X
1378B: 8C 07 DB       CMPX    #$07DB
1378E: 26 EC          BNE     $1377C
L13790:
13790: 31 A8 24       LEAY    36,Y
13793: 10 8C 0A 1B    CMPY    #$0A1B
13797: 10 26 FF 5C    LBNE    $136F7
1379B: 35 F6          PULS    A,B,X,Y,U,PC
1379D: A6 84          LDA     ,X
1379F: 10 2A 00 91    LBPL    $13834
137A3: 84 C0          ANDA    #$C0
137A5: 81 C0          CMPA    #$C0
137A7: 10 26 00 89    LBNE    $13834
137AB: A6 A8 17       LDA     23,Y
137AE: 84 1F          ANDA    #$1F
137B0: 34 20          PSHS    Y
137B2: 10 8E 78 35    LDY     #$7835
137B6: A6 A6          LDA     A,Y
137B8: 35 20          PULS    Y
137BA: 26 78          BNE     $13834
137BC: DC 3C          LDD     <$3C
137BE: 10 A3 04       CMPD    4,X
137C1: 24 71          BCC     $13834
137C3: C3 01 50       ADDD    #$0150
137C6: 10 A3 04       CMPD    4,X
137C9: 25 69          BCS     $13834
137CB: 96 00          LDA     <$00
137CD: 27 08          BEQ     $137D7
137CF: 10 AC 88 1F    CMPY    31,X
137D3: 27 5F          BEQ     $13834
137D5: 20 09          BRA     $137E0
L137D7:
137D7: A6 88 1B       LDA     27,X
137DA: 84 7F          ANDA    #$7F
137DC: 81 03          CMPA    #$03
137DE: 27 54          BEQ     $13834
L137E0:
137E0: BD 7C 60       JSR     $7C60
137E3: 24 4F          BCC     $13834
137E5: BD 7C E7       JSR     $7CE7
137E8: 25 05          BCS     $137EF
137EA: BD 7B F6       JSR     $7BF6
137ED: 20 45          BRA     $13834
L137EF:
137EF: BD 78 6C       JSR     $786C
137F2: A6 88 34       LDA     52,X
137F5: 2A 3D          BPL     $13834
137F7: A6 88 34       LDA     52,X
137FA: 84 FD          ANDA    #$FD
137FC: A7 88 34       STA     52,X
137FF: A6 A8 34       LDA     52,Y
13802: 84 FE          ANDA    #$FE
13804: A7 A8 34       STA     52,Y
13807: E6 A8 1B       LDB     27,Y
1380A: C4 7F          ANDB    #$7F
1380C: C1 02          CMPB    #$02
1380E: 27 0C          BEQ     $1381C
13810: C1 0D          CMPB    #$0D
13812: 27 08          BEQ     $1381C
13814: C1 0E          CMPB    #$0E
13816: 27 04          BEQ     $1381C
13818: C1 0F          CMPB    #$0F
1381A: 26 08          BNE     $13824
L1381C:
1381C: A6 A8 34       LDA     52,Y
1381F: 8A 01          ORA     #$01
13821: A7 A8 34       STA     52,Y
L13824:
13824: 34 20          PSHS    Y
13826: 10 8E 78 52    LDY     #$7852
1382A: A6 88 34       LDA     52,X
1382D: AA A5          ORA     B,Y
1382F: A7 88 34       STA     52,X
13832: 35 20          PULS    Y
L13834:
13834: 39             RTS
13835: 00 FF          NEG     <$FF
13837: FF 00 00       STU     $0000
1383A: 00 00          NEG     <$00
1383C: 00 FF          NEG     <$FF
1383E: 00 FF          NEG     <$FF
13840: 00 FF          NEG     <$FF
13842: FF 00 00       STU     $0000
13845: FF 00 FF       STU     $00FF
13848: FF FF FF       STU     $FFFF
1384B: 00 FF          NEG     <$FF
1384D: FF FF FF       STU     $FFFF
13850: 00 00          NEG     <$00
13852: 00 02          NEG     <$02
13854: 02             FCB     $02
13855: 00 00          NEG     <$00
13857: 00 02          NEG     <$02
13859: 02             FCB     $02
1385A: 00 00          NEG     <$00
1385C: 00 00          NEG     <$00
1385E: 00 00          NEG     <$00
13860: 00 00          NEG     <$00
13862: 00 00          NEG     <$00
13864: 00 00          NEG     <$00
13866: 02             FCB     $02
13867: 00 00          NEG     <$00
13869: 00 00          NEG     <$00
1386B: 00 34          NEG     <$34
1386D: 30 10          LEAX    -16,X
1386F: 9F 0E          STX     <$0E
13871: A6 A8 1B       LDA     27,Y
13874: 84 7F          ANDA    #$7F
13876: 81 05          CMPA    #$05
13878: 26 05          BNE     $1387F
1387A: BD 7B E6       JSR     $7BE6
1387D: 20 0C          BRA     $1388B
L1387F:
1387F: A6 A8 17       LDA     23,Y
13882: 84 1F          ANDA    #$1F
13884: 48             ASLA
13885: 10 8E 78 8D    LDY     #$788D
13889: AD B6          JSR     [A,Y]
L1388B:
1388B: 35 B0          PULS    X,Y,PC
1388D: 79 7B 7B       ROL     $7B7B
13890: E5 7B          BITB    -5,S
13892: E5 79          BITB    -7,S
13894: 9D 79          JSR     <$79
13896: FA 7A 3A       ORB     $7A3A
13899: 7A 93 7A       DEC     $937A
1389C: E6 7B          LDB     -5,S
1389E: E5 7A          BITB    -6,S
138A0: FE 7B E5       LDU     $7BE5
138A3: 7B             FCB     $7B
138A4: 14             FCB     $14
138A5: 7B             FCB     $7B
138A6: E5 7B          BITB    -5,S
138A8: E5 7B          BITB    -5,S
138AA: 2A 7B          BPL     $13927
138AC: B2 7B E5       SBCA    $7BE5
138AF: 79 27 7B       ROL     $277B
138B2: E5 7B          BITB    -5,S
138B4: E5 7B          BITB    -5,S
138B6: E5 7B          BITB    -5,S
138B8: E5 79          BITB    -7,S
138BA: 57             ASRB
138BB: 7B             FCB     $7B
138BC: E5 7B          BITB    -5,S
138BE: E5 7B          BITB    -5,S
138C0: E5 7B          BITB    -5,S
138C2: E5 78          BITB    -8,S
138C4: EF 78          STU     -8,S
138C6: C7             FCB     $C7
138C7: 10 9E 0E       LDY     <$0E
138CA: AC A8 21       CMPX    33,Y
138CD: 27 1F          BEQ     $138EE
138CF: 8C 03 A2       CMPX    #$03A2
138D2: 27 07          BEQ     $138DB
138D4: 8C 04 01       CMPX    #$0401
138D7: 27 02          BEQ     $138DB
138D9: 20 13          BRA     $138EE
L138DB:
138DB: AF A8 1D       STX     29,Y
138DE: 86 05          LDA     #$05
138E0: A7 88 20       STA     32,X
138E3: 86 03          LDA     #$03
138E5: A7 88 23       STA     35,X
138E8: BD 7B DC       JSR     $7BDC
138EB: BD 7B E6       JSR     $7BE6
L138EE:
138EE: 39             RTS
138EF: 10 9E 0E       LDY     <$0E
138F2: AC A8 21       CMPX    33,Y
138F5: 27 2F          BEQ     $13926
138F7: 8C 03 A2       CMPX    #$03A2
138FA: 27 07          BEQ     $13903
138FC: 8C 04 01       CMPX    #$0401
138FF: 27 02          BEQ     $13903
13901: 20 23          BRA     $13926
L13903:
13903: 86 04          LDA     #$04
13905: A7 A8 1B       STA     27,Y
13908: 86 11          LDA     #$11
1390A: A7 21          STA     1,Y
1390C: 86 05          LDA     #$05
1390E: A7 A8 17       STA     23,Y
13911: 86 10          LDA     #$10
13913: A7 88 20       STA     32,X
13916: 86 00          LDA     #$00
13918: A7 88 22       STA     34,X
1391B: 86 01          LDA     #$01
1391D: A7 88 23       STA     35,X
13920: BD 7B DC       JSR     $7BDC
13923: BD 7B E6       JSR     $7BE6
L13926:
13926: 39             RTS
L13927:
13927: 10 9E 0E       LDY     <$0E
1392A: EC 04          LDD     4,X
1392C: 10 83 0D 00    CMPD    #$0D00
13930: 2E F4          BGT     $13926
13932: 86 0C          LDA     #$0C
13934: A7 88 20       STA     32,X
13937: 86 07          LDA     #$07
13939: A7 88 22       STA     34,X
1393C: 86 01          LDA     #$01
1393E: A7 88 23       STA     35,X
13941: BD 7B DC       JSR     $7BDC
13944: BD 7B E6       JSR     $7BE6
13947: 39             RTS
13948: 10 9E 0E       LDY     <$0E
1394B: 86 12          LDA     #$12
1394D: A7 88 20       STA     32,X
13950: BD 7B DC       JSR     $7BDC
13953: BD 7B E6       JSR     $7BE6
13956: 39             RTS
13957: 10 9E 0E       LDY     <$0E
1395A: 86 07          LDA     #$07
1395C: A7 88 22       STA     34,X
1395F: 86 01          LDA     #$01
13961: A7 88 23       STA     35,X
13964: 86 14          LDA     #$14
13966: A7 88 20       STA     32,X
13969: BD 7B E6       JSR     $7BE6
1396C: 86 04          LDA     #$04
1396E: A7 A8 1B       STA     27,Y
13971: 86 11          LDA     #$11
13973: A7 21          STA     1,Y
13975: 86 05          LDA     #$05
13977: A7 A8 17       STA     23,Y
1397A: 39             RTS
1397B: 10 9E 0E       LDY     <$0E
1397E: AC A8 21       CMPX    33,Y
13981: 27 19          BEQ     $1399C
13983: BD 7B E6       JSR     $7BE6
13986: A6 A8 1B       LDA     27,Y
13989: 84 7F          ANDA    #$7F
1398B: 81 07          CMPA    #$07
1398D: 27 0D          BEQ     $1399C
1398F: 81 06          CMPA    #$06
13991: 27 09          BEQ     $1399C
13993: 81 01          CMPA    #$01
13995: 27 05          BEQ     $1399C
13997: 86 06          LDA     #$06
13999: A7 88 20       STA     32,X
L1399C:
1399C: 39             RTS
1399D: 10 9E 0E       LDY     <$0E
139A0: A6 A8 1B       LDA     27,Y
139A3: 84 7F          ANDA    #$7F
139A5: 81 00          CMPA    #$00
139A7: 27 50          BEQ     $139F9
139A9: 81 05          CMPA    #$05
139AB: 27 49          BEQ     $139F6
139AD: 81 07          CMPA    #$07
139AF: 27 48          BEQ     $139F9
139B1: 81 09          CMPA    #$09
139B3: 27 44          BEQ     $139F9
139B5: 81 06          CMPA    #$06
139B7: 27 40          BEQ     $139F9
139B9: 81 01          CMPA    #$01
139BB: 27 3C          BEQ     $139F9
139BD: AC A8 21       CMPX    33,Y
139C0: 27 37          BEQ     $139F9
139C2: 86 01          LDA     #$01
139C4: A7 88 23       STA     35,X
139C7: 86 03          LDA     #$03
139C9: A7 88 20       STA     32,X
139CC: 86 00          LDA     #$00
139CE: A7 88 22       STA     34,X
139D1: BD 7B DC       JSR     $7BDC
139D4: A6 A8 1B       LDA     27,Y
139D7: 84 7F          ANDA    #$7F
139D9: 81 14          CMPA    #$14
139DB: 26 19          BNE     $139F6
139DD: 86 04          LDA     #$04
139DF: A7 A8 1B       STA     27,Y
139E2: 86 05          LDA     #$05
139E4: A7 88 20       STA     32,X
139E7: 86 07          LDA     #$07
139E9: A7 88 22       STA     34,X
139EC: EC 08          LDD     8,X
139EE: C3 00 08       ADDD    #$0008
139F1: ED 08          STD     8,X
139F3: BD 7B DC       JSR     $7BDC
L139F6:
139F6: BD 7B E6       JSR     $7BE6
L139F9:
139F9: 39             RTS
139FA: 10 9E 0E       LDY     <$0E
139FD: A6 A8 1B       LDA     27,Y
13A00: 84 7F          ANDA    #$7F
13A02: 81 07          CMPA    #$07
13A04: 27 33          BEQ     $13A39
13A06: 81 00          CMPA    #$00
13A08: 27 2F          BEQ     $13A39
13A0A: 81 01          CMPA    #$01
13A0C: 27 2B          BEQ     $13A39
13A0E: 81 06          CMPA    #$06
13A10: 27 27          BEQ     $13A39
13A12: 81 05          CMPA    #$05
13A14: 27 23          BEQ     $13A39
13A16: 81 09          CMPA    #$09
13A18: 27 1F          BEQ     $13A39
13A1A: AC A8 21       CMPX    33,Y
13A1D: 27 1A          BEQ     $13A39
13A1F: 86 01          LDA     #$01
13A21: A7 88 23       STA     35,X
13A24: 86 00          LDA     #$00
13A26: A7 88 22       STA     34,X
13A29: 86 10          LDA     #$10
13A2B: A7 88 25       STA     37,X
13A2E: 86 02          LDA     #$02
13A30: A7 88 20       STA     32,X
13A33: BD 7B DC       JSR     $7BDC
13A36: BD 7B E6       JSR     $7BE6
L13A39:
13A39: 39             RTS
13A3A: 10 9E 0E       LDY     <$0E
13A3D: A6 A8 1B       LDA     27,Y
13A40: 84 7F          ANDA    #$7F
13A42: 81 02          CMPA    #$02
13A44: 27 2C          BEQ     $13A72
13A46: 81 00          CMPA    #$00
13A48: 27 27          BEQ     $13A71
13A4A: 81 01          CMPA    #$01
13A4C: 27 23          BEQ     $13A71
13A4E: 81 04          CMPA    #$04
13A50: 26 1F          BNE     $13A71
13A52: 86 14          LDA     #$14
13A54: A7 88 20       STA     32,X
L13A57:
13A57: 86 04          LDA     #$04
13A59: A7 A8 1B       STA     27,Y
13A5C: 86 01          LDA     #$01
13A5E: A7 88 23       STA     35,X
13A61: 86 00          LDA     #$00
13A63: A7 88 22       STA     34,X
13A66: 86 10          LDA     #$10
13A68: A7 88 25       STA     37,X
13A6B: BD 7B DC       JSR     $7BDC
13A6E: BD 7B E6       JSR     $7BE6
L13A71:
13A71: 39             RTS
L13A72:
13A72: AC A8 21       CMPX    33,Y
13A75: 27 FA          BEQ     $13A71
13A77: 8C 03 A2       CMPX    #$03A2
13A7A: 27 10          BEQ     $13A8C
13A7C: 8C 04 01       CMPX    #$0401
13A7F: 27 0B          BEQ     $13A8C
13A81: EC A8 21       LDD     33,Y
13A84: 10 83 04 01    CMPD    #$0401
13A88: 2F 02          BLE     $13A8C
13A8A: 20 E5          BRA     $13A71
L13A8C:
13A8C: 86 05          LDA     #$05
13A8E: A7 88 20       STA     32,X
13A91: 20 C4          BRA     $13A57
13A93: 10 9E 0E       LDY     <$0E
13A96: A6 A4          LDA     ,Y
13A98: 84 0F          ANDA    #$0F
13A9A: 81 02          CMPA    #$02
13A9C: 27 47          BEQ     $13AE5
13A9E: A6 A8 1B       LDA     27,Y
13AA1: 84 7F          ANDA    #$7F
13AA3: 81 01          CMPA    #$01
13AA5: 27 3E          BEQ     $13AE5
13AA7: 81 00          CMPA    #$00
13AA9: 27 3A          BEQ     $13AE5
13AAB: 81 07          CMPA    #$07
13AAD: 27 36          BEQ     $13AE5
L13AAF:
13AAF: 8C 03 A2       CMPX    #$03A2
13AB2: 27 10          BEQ     $13AC4
13AB4: 8C 04 01       CMPX    #$0401
13AB7: 27 0B          BEQ     $13AC4
13AB9: EC A8 21       LDD     33,Y
13ABC: 10 83 04 01    CMPD    #$0401
13AC0: 2F 02          BLE     $13AC4
13AC2: 20 21          BRA     $13AE5
L13AC4:
13AC4: 86 01          LDA     #$01
13AC6: A7 88 23       STA     35,X
13AC9: 86 00          LDA     #$00
13ACB: A7 88 22       STA     34,X
13ACE: 86 10          LDA     #$10
13AD0: A7 88 25       STA     37,X
13AD3: 86 0C          LDA     #$0C
13AD5: A7 88 20       STA     32,X
13AD8: BD 7B E6       JSR     $7BE6
13ADB: A6 A8 17       LDA     23,Y
13ADE: 81 07          CMPA    #$07
13AE0: 26 03          BNE     $13AE5
13AE2: BD 7B DC       JSR     $7BDC
L13AE5:
13AE5: 39             RTS
13AE6: 10 9E 0E       LDY     <$0E
13AE9: A6 A8 1B       LDA     27,Y
13AEC: 84 7F          ANDA    #$7F
13AEE: 81 02          CMPA    #$02
13AF0: 27 04          BEQ     $13AF6
13AF2: 81 05          CMPA    #$05
13AF4: 26 07          BNE     $13AFD
L13AF6:
13AF6: AC A8 21       CMPX    33,Y
13AF9: 27 EA          BEQ     $13AE5
13AFB: 20 B2          BRA     $13AAF
L13AFD:
13AFD: 39             RTS
13AFE: 86 26          LDA     #$26
13B00: A7 88 20       STA     32,X
13B03: 86 07          LDA     #$07
13B05: A7 88 22       STA     34,X
13B08: 86 01          LDA     #$01
13B0A: A7 88 23       STA     35,X
13B0D: BD 7B DC       JSR     $7BDC
13B10: BD 7B E6       JSR     $7BE6
13B13: 39             RTS
13B14: 86 08          LDA     #$08
13B16: A7 88 20       STA     32,X
13B19: 86 07          LDA     #$07
13B1B: A7 88 22       STA     34,X
13B1E: 86 01          LDA     #$01
13B20: A7 88 23       STA     35,X
13B23: BD 7B DC       JSR     $7BDC
13B26: BD 7B E6       JSR     $7BE6
13B29: 39             RTS
13B2A: 10 9E 0E       LDY     <$0E
13B2D: A6 22          LDA     2,Y
13B2F: 84 7F          ANDA    #$7F
13B31: 81 13          CMPA    #$13
13B33: 27 08          BEQ     $13B3D
13B35: A6 A8 1D       LDA     29,Y
13B38: 84 3F          ANDA    #$3F
13B3A: A7 A8 1D       STA     29,Y
L13B3D:
13B3D: A6 A8 1B       LDA     27,Y
13B40: 84 7F          ANDA    #$7F
13B42: 81 05          CMPA    #$05
13B44: 27 5C          BEQ     $13BA2
13B46: 81 00          CMPA    #$00
13B48: 26 5B          BNE     $13BA5
13B4A: A6 22          LDA     2,Y
13B4C: 84 7F          ANDA    #$7F
13B4E: 81 13          CMPA    #$13
13B50: 26 53          BNE     $13BA5
13B52: A6 01          LDA     1,X
13B54: 84 3F          ANDA    #$3F
13B56: 81 08          CMPA    #$08
13B58: 24 0A          BCC     $13B64
13B5A: C6 03          LDB     #$03
13B5C: E7 88 23       STB     35,X
13B5F: 6C 88 25       INC     37,X
13B62: 20 05          BRA     $13B69
L13B64:
13B64: 86 01          LDA     #$01
13B66: A7 88 23       STA     35,X
L13B69:
13B69: 86 04          LDA     #$04
13B6B: A7 88 20       STA     32,X
13B6E: 86 00          LDA     #$00
13B70: A7 88 22       STA     34,X
13B73: 6C 88 25       INC     37,X
13B76: 34 30          PSHS    X,Y
13B78: AE A8 1F       LDX     31,Y
13B7B: A6 01          LDA     1,X
13B7D: 81 01          CMPA    #$01
13B7F: 22 12          BHI     $13B93
13B81: A6 A8 1D       LDA     29,Y
13B84: 2B 0D          BMI     $13B93
13B86: 86 0B          LDA     #$0B
13B88: BD 42 D7       JSR     $42D7
13B8B: A6 A8 1D       LDA     29,Y
13B8E: 8A 80          ORA     #$80
13B90: A7 A8 1D       STA     29,Y
L13B93:
13B93: 35 30          PULS    X,Y
13B95: BD 7B DC       JSR     $7BDC
13B98: A6 A8 1D       LDA     29,Y
13B9B: 8A 40          ORA     #$40
13B9D: A7 A8 1D       STA     29,Y
13BA0: 26 03          BNE     $13BA5
L13BA2:
13BA2: BD 7B E6       JSR     $7BE6
L13BA5:
13BA5: A6 A8 1D       LDA     29,Y
13BA8: 85 40          BITA    #$40
13BAA: 26 05          BNE     $13BB1
13BAC: 84 3F          ANDA    #$3F
13BAE: A7 A8 1D       STA     29,Y
L13BB1:
13BB1: 39             RTS
13BB2: 10 9E 0E       LDY     <$0E
13BB5: 8C 03 A2       CMPX    #$03A2
13BB8: 27 07          BEQ     $13BC1
13BBA: 8C 04 01       CMPX    #$0401
13BBD: 27 02          BEQ     $13BC1
13BBF: 20 1A          BRA     $13BDB
L13BC1:
13BC1: 86 01          LDA     #$01
13BC3: A7 88 23       STA     35,X
13BC6: 86 14          LDA     #$14
13BC8: A7 88 20       STA     32,X
13BCB: 86 00          LDA     #$00
13BCD: A7 88 22       STA     34,X
13BD0: 86 02          LDA     #$02
13BD2: A7 A8 1E       STA     30,Y
13BD5: BD 7B DC       JSR     $7BDC
13BD8: BD 7B E6       JSR     $7BE6
L13BDB:
13BDB: 39             RTS
13BDC: A6 88 15       LDA     21,X
13BDF: 8A 01          ORA     #$01
13BE1: A7 88 15       STA     21,X
13BE4: 39             RTS
13BE5: 39             RTS
13BE6: 10 9E 0E       LDY     <$0E
13BE9: A6 88 34       LDA     52,X
13BEC: 8A 80          ORA     #$80
13BEE: A7 88 34       STA     52,X
13BF1: 10 AF 88 35    STY     53,X
13BF5: 39             RTS
13BF6: 8C 03 A2       CMPX    #$03A2
13BF9: 27 05          BEQ     $13C00
13BFB: 8C 04 01       CMPX    #$0401
13BFE: 26 5D          BNE     $13C5D
L13C00:
13C00: A6 A8 17       LDA     23,Y
13C03: 84 1F          ANDA    #$1F
13C05: 81 06          CMPA    #$06
13C07: 26 54          BNE     $13C5D
13C09: A6 A8 1B       LDA     27,Y
13C0C: 84 7F          ANDA    #$7F
13C0E: 81 02          CMPA    #$02
13C10: 26 4B          BNE     $13C5D
13C12: E6 02          LDB     2,X
13C14: C4 7F          ANDB    #$7F
13C16: C1 19          CMPB    #$19
13C18: 27 0A          BEQ     $13C24
13C1A: C1 69          CMPB    #$69
13C1C: 27 06          BEQ     $13C24
13C1E: C1 6B          CMPB    #$6B
13C20: 27 02          BEQ     $13C24
13C22: 20 39          BRA     $13C5D
L13C24:
13C24: 34 20          PSHS    Y
13C26: 58             ASLB
13C27: 4F             CLRA
13C28: 10 8E 67 28    LDY     #$6728
13C2C: 10 AE AB       LDY     D,Y
13C2F: 10 AE A4       LDY     ,Y
13C32: 10 AE 24       LDY     4,Y
13C35: EC A1          LDD     ,Y++
13C37: 97 07          STA     <$07
13C39: D7 09          STB     <$09
13C3B: CC 00 06       LDD     #$0006
13C3E: 97 08          STA     <$08
13C40: D7 0B          STB     <$0B
13C42: EC A1          LDD     ,Y++
13C44: 97 0A          STA     <$0A
13C46: D7 0C          STB     <$0C
13C48: 35 20          PULS    Y
13C4A: BD 7C E7       JSR     $7CE7
13C4D: 24 0E          BCC     $13C5D
13C4F: 86 01          LDA     #$01
13C51: A7 A8 1B       STA     27,Y
13C54: 86 18          LDA     #$18
13C56: BD 44 58       JSR     $4458
13C59: 1A 01          ORCC    #$01
13C5B: 20 02          BRA     $13C5F
L13C5D:
13C5D: 1C FE          ANDCC   #$FE
L13C5F:
13C5F: 39             RTS
13C60: 34 70          PSHS    X,Y,U
13C62: CE 7D 8D       LDU     #$7D8D
13C65: A6 A8 17       LDA     23,Y
13C68: 84 1F          ANDA    #$1F
13C6A: 48             ASLA
13C6B: EE C6          LDU     A,U
13C6D: 4F             CLRA
13C6E: E6 22          LDB     2,Y
13C70: C4 7F          ANDB    #$7F
13C72: C1 7F          CMPB    #$7F
13C74: 27 6D          BEQ     $13CE3
13C76: 58             ASLB
13C77: 49             ROLA
13C78: EE CB          LDU     D,U
13C7A: A6 C0          LDA     ,U+
13C7C: 97 01          STA     <$01
13C7E: A6 C0          LDA     ,U+
13C80: 97 02          STA     <$02
13C82: A6 C0          LDA     ,U+
13C84: 97 03          STA     <$03
13C86: A6 C0          LDA     ,U+
13C88: 97 04          STA     <$04
13C8A: A6 C0          LDA     ,U+
13C8C: 97 05          STA     <$05
13C8E: A6 C0          LDA     ,U+
13C90: 97 06          STA     <$06
13C92: E6 88 1B       LDB     27,X
13C95: C4 7F          ANDB    #$7F
13C97: C1 05          CMPB    #$05
13C99: 27 48          BEQ     $13CE3
13C9B: E6 02          LDB     2,X
13C9D: C4 7F          ANDB    #$7F
13C9F: C1 7F          CMPB    #$7F
13CA1: 27 40          BEQ     $13CE3
13CA3: 58             ASLB
13CA4: 4F             CLRA
13CA5: CE 67 28       LDU     #$6728
13CA8: EE CB          LDU     D,U
13CAA: 11 83 68 28    CMPU    #$6828
13CAE: 27 33          BEQ     $13CE3
13CB0: 34 20          PSHS    Y
13CB2: 10 8E 62 7A    LDY     #$627A
13CB6: A6 01          LDA     1,X
13CB8: A6 A6          LDA     A,Y
13CBA: 48             ASLA
13CBB: 35 20          PULS    Y
13CBD: EE C6          LDU     A,U
13CBF: 11 83 68 3A    CMPU    #$683A
13CC3: 27 1E          BEQ     $13CE3
13CC5: EE 42          LDU     2,U
13CC7: A6 C0          LDA     ,U+
13CC9: 97 07          STA     <$07
13CCB: 86 00          LDA     #$00
13CCD: 97 08          STA     <$08
13CCF: A6 C0          LDA     ,U+
13CD1: 97 09          STA     <$09
13CD3: A6 C0          LDA     ,U+
13CD5: 97 0A          STA     <$0A
13CD7: 86 04          LDA     #$04
13CD9: 97 0B          STA     <$0B
13CDB: A6 C0          LDA     ,U+
13CDD: 97 0C          STA     <$0C
13CDF: 1A 01          ORCC    #$01
13CE1: 20 02          BRA     $13CE5
L13CE3:
13CE3: 1C FE          ANDCC   #$FE
L13CE5:
13CE5: 35 F0          PULS    X,Y,U,PC
13CE7: 96 01          LDA     <$01
13CE9: D6 04          LDB     <$04
13CEB: 34 10          PSHS    X
13CED: 1F 21          TFR     Y,X
13CEF: BD 66 87       JSR     $6687
13CF2: 35 10          PULS    X
13CF4: FD 0B 37       STD     $0B37
13CF7: 96 07          LDA     <$07
13CF9: D6 0A          LDB     <$0A
13CFB: BD 66 87       JSR     $6687
13CFE: FD 0B 44       STD     $0B44
13D01: FC 0B 37       LDD     $0B37
13D04: 10 B3 0B 44    CMPD    $0B44
13D08: 25 10          BCS     $13D1A
13D0A: FC 0B 37       LDD     $0B37
13D0D: B3 0B 44       SUBD    $0B44
13D10: 81 00          CMPA    #$00
13D12: 26 76          BNE     $13D8A
13D14: D1 0A          CMPB    <$0A
13D16: 22 72          BHI     $13D8A
13D18: 20 0E          BRA     $13D28
L13D1A:
13D1A: FC 0B 44       LDD     $0B44
13D1D: B3 0B 37       SUBD    $0B37
13D20: 81 00          CMPA    #$00
13D22: 26 66          BNE     $13D8A
13D24: D1 04          CMPB    <$04
13D26: 22 62          BHI     $13D8A
L13D28:
13D28: D6 02          LDB     <$02
13D2A: 1D             SEX
13D2B: E3 26          ADDD    6,Y
13D2D: FD 0B 39       STD     $0B39
13D30: D6 08          LDB     <$08
13D32: 1D             SEX
13D33: E3 06          ADDD    6,X
13D35: FD 0B 46       STD     $0B46
13D38: FC 0B 39       LDD     $0B39
13D3B: 10 B3 0B 46    CMPD    $0B46
13D3F: 25 0C          BCS     $13D4D
13D41: FC 0B 39       LDD     $0B39
13D44: B3 0B 46       SUBD    $0B46
13D47: D1 0B          CMPB    <$0B
13D49: 22 3F          BHI     $13D8A
13D4B: 20 0A          BRA     $13D57
L13D4D:
13D4D: FC 0B 46       LDD     $0B46
13D50: B3 0B 39       SUBD    $0B39
13D53: D1 05          CMPB    <$05
13D55: 22 33          BHI     $13D8A
L13D57:
13D57: D6 03          LDB     <$03
13D59: 1D             SEX
13D5A: E3 28          ADDD    8,Y
13D5C: FD 0B 39       STD     $0B39
13D5F: D6 09          LDB     <$09
13D61: 1D             SEX
13D62: E3 08          ADDD    8,X
13D64: FD 0B 46       STD     $0B46
13D67: FC 0B 39       LDD     $0B39
13D6A: 10 B3 0B 46    CMPD    $0B46
13D6E: 25 0C          BCS     $13D7C
13D70: FC 0B 39       LDD     $0B39
13D73: B3 0B 46       SUBD    $0B46
13D76: D1 0C          CMPB    <$0C
13D78: 22 10          BHI     $13D8A
13D7A: 20 0A          BRA     $13D86
L13D7C:
13D7C: FC 0B 46       LDD     $0B46
13D7F: B3 0B 39       SUBD    $0B39
13D82: D1 06          CMPB    <$06
13D84: 22 04          BHI     $13D8A
L13D86:
13D86: 1A 01          ORCC    #$01
13D88: 20 02          BRA     $13D8C
L13D8A:
13D8A: 1C FE          ANDCC   #$FE
L13D8C:
13D8C: 39             RTS
13D8D: 7D C7 7D       TST     $C77D
13D90: FF 7D FF       STU     $7DFF
13D93: 7D FF 7E       TST     $FF7E
13D96: 0F 7E          CLR     <$7E
13D98: 27 7E          BEQ     $13E18
13D9A: 71             FCB     $71
13D9B: 7E A9 7E       JMP     $A97E
13D9E: EB 7E          ADDB    -2,S
13DA0: EB 7F          ADDB    -1,S
13DA2: 0B             FCB     $0B
13DA3: 7F 0B 7F       CLR     $0B7F
13DA6: 37 7F          PULU    CC,A,B,DP,X,Y,S
13DA8: 37 7F          PULU    CC,A,B,DP,X,Y,S
13DAA: 37 7F          PULU    CC,A,B,DP,X,Y,S
13DAC: 71             FCB     $71
13DAD: 7D C7 7F       TST     $C77F
13DB0: 83 7D C7       SUBD    #$7DC7
13DB3: 7D C7 7D       TST     $C77D
13DB6: C7             FCB     $C7
13DB7: 7D C7 7F       TST     $C77F
13DBA: AF 7D          STX     -3,S
13DBC: C7             FCB     $C7
13DBD: 7D C7 7D       TST     $C77D
13DC0: C7             FCB     $C7
13DC1: 7D C7 7F       TST     $C77F
13DC4: CD             FCB     $CD
13DC5: 7F D7 7D       CLR     $D77D
13DC8: E7 7D          STB     -3,S
13DCA: E7 7D          STB     -3,S
13DCC: E7 7D          STB     -3,S
13DCE: E7 7D          STB     -3,S
13DD0: ED 7D          STD     -3,S
13DD2: ED 7D          STD     -3,S
13DD4: ED 7D          STD     -3,S
13DD6: ED 7D          STD     -3,S
13DD8: ED 7D          STD     -3,S
13DDA: ED 7D          STD     -3,S
13DDC: ED 7D          STD     -3,S
13DDE: ED 7D          STD     -3,S
13DE0: ED 7D          STD     -3,S
13DE2: ED 7D          STD     -3,S
13DE4: F3 7D F9       ADDD    $7DF9
13DE7: 00 00          NEG     <$00
13DE9: 00 00          NEG     <$00
13DEB: 00 00          NEG     <$00
13DED: FE FC FE       LDU     $FCFE
13DF0: 18             FCB     $18
13DF1: 08 18          ASL     <$18
13DF3: E0 FC 00       SUBB    [$13DF6,PCR]
L13DF6:
13DF6: 20 08          BRA     $13E00
13DF8: 14             FCB     $14
13DF9: F0 FC 08       SUBB    $FC08
13DFC: 18             FCB     $18
13DFD: 08 20          ASL     <$20
13DFF: 7E 09 7E       JMP     $097E
13E02: 09 7E          ROL     <$7E
13E04: 09 7D          ROL     <$7D
13E06: E7 7E          STB     -2,S
13E08: 09 F4          ROL     <$F4
13E0A: FC F0 18       LDD     $F018
13E0D: 08 20          ASL     <$20
13E0F: 7E 1B 7E       JMP     $1B7E
L13E12:
13E12: 21 7E          BRN     $13E92
13E14: 21 7E          BRN     $13E94
13E16: 21 7E          BRN     $13E96
L13E18:
13E18: 21 7E          BRN     $13E98
13E1A: 21 F0          BRN     $13E0C
13E1C: 00 F0          NEG     <$F0
13E1E: 20 0C          BRA     $13E2C
13E20: 26 F0          BNE     $13E12
13E22: FC F0 20       LDD     $F020
13E25: 08 10          ASL     <$10
13E27: 7D E7 7D       TST     $E77D
13E2A: E7 7D          STB     -3,S
L13E2C:
13E2C: E7 7D          STB     -3,S
13E2E: E7 7D          STB     -3,S
13E30: E7 7D          STB     -3,S
13E32: E7 7D          STB     -3,S
13E34: E7 7D          STB     -3,S
13E36: E7 7D          STB     -3,S
13E38: E7 7D          STB     -3,S
13E3A: E7 7D          STB     -3,S
13E3C: E7 7D          STB     -3,S
13E3E: E7 7D          STB     -3,S
13E40: E7 7D          STB     -3,S
13E42: E7 7D          STB     -3,S
13E44: E7 7D          STB     -3,S
13E46: E7 7D          STB     -3,S
13E48: E7 7E          STB     -2,S
13E4A: 65             FCB     $65
13E4B: 7E 65 7E       JMP     $657E
13E4E: 65             FCB     $65
13E4F: 7E 65 7E       JMP     $657E
13E52: 65             FCB     $65
13E53: 7E 65 7D       JMP     $657D
13E56: E7 7D          STB     -3,S
13E58: E7 7D          STB     -3,S
13E5A: E7 7E          STB     -2,S
13E5C: 6B             FCB     $6B
13E5D: 7E 6B 7E       JMP     $6B7E
13E60: 6B             FCB     $6B
13E61: 7E 6B 7E       JMP     $6B7E
13E64: 6B             FCB     $6B
13E65: F8 F8 F8       EORB    $F8F8
13E68: 10 10          FCB     $10,$10
13E6A: 10 F1          FCB     $10,$F1
13E6C: F1 F1 1E       CMPB    $F11E
13E6F: 1E 1E          EXG     X,?
13E71: 7D E7 7D       TST     $E77D
13E74: E7 7D          STB     -3,S
13E76: E7 7D          STB     -3,S
13E78: E7 7D          STB     -3,S
13E7A: E7 7D          STB     -3,S
13E7C: E7 7D          STB     -3,S
13E7E: E7 7D          STB     -3,S
13E80: E7 7D          STB     -3,S
13E82: E7 7D          STB     -3,S
13E84: E7 7D          STB     -3,S
13E86: E7 7D          STB     -3,S
13E88: E7 7D          STB     -3,S
L13E8A:
13E8A: E7 7D          STB     -3,S
13E8C: E7 7D          STB     -3,S
13E8E: E7 7D          STB     -3,S
13E90: E7 7D          STB     -3,S
L13E92:
13E92: E7 7E          STB     -2,S
L13E94:
13E94: A3 7E          SUBD    -2,S
L13E96:
13E96: A3 7E          SUBD    -2,S
L13E98:
13E98: A3 7E          SUBD    -2,S
13E9A: A3 7E          SUBD    -2,S
13E9C: A3 7D          SUBD    -3,S
13E9E: E7 7D          STB     -3,S
13EA0: E7 7D          STB     -3,S
13EA2: E7 FA          STB     [???]
13EA4: FA FE 0C       ORB     $FE0C
13EA7: 10 10          FCB     $10,$10
13EA9: 7D E7 7D       TST     $E77D
13EAC: E7 7D          STB     -3,S
13EAE: E7 7D          STB     -3,S
L13EB0:
13EB0: E7 7D          STB     -3,S
13EB2: E7 7D          STB     -3,S
13EB4: E7 7D          STB     -3,S
13EB6: E7 7D          STB     -3,S
13EB8: E7 7D          STB     -3,S
13EBA: E7 7D          STB     -3,S
13EBC: E7 7E          STB     -2,S
13EBE: E5 7D          BITB    -3,S
13EC0: E7 7D          STB     -3,S
13EC2: E7 7D          STB     -3,S
13EC4: E7 7D          STB     -3,S
13EC6: E7 7D          STB     -3,S
13EC8: E7 7D          STB     -3,S
13ECA: E7 7D          STB     -3,S
13ECC: E7 7D          STB     -3,S
13ECE: E7 7D          STB     -3,S
13ED0: E7 7D          STB     -3,S
13ED2: E7 7E          STB     -2,S
13ED4: DF 7E          STU     <$7E
13ED6: DF 7E          STU     <$7E
13ED8: DF 7E          STU     <$7E
13EDA: DF 7E          STU     <$7E
13EDC: DF 7E          STU     <$7E
13EDE: DF F4          STU     <$F4
13EE0: FC F4 18       LDD     $F418
13EE3: 08 18          ASL     <$18
13EE5: F4 FC 00       ANDB    $FC00
13EE8: 18             FCB     $18
13EE9: 08 08          ASL     <$08
13EEB: 7D E7 7E       TST     $E77E
13EEE: F9 7E FF       ADCB    $7EFF
13EF1: 7F 05 C7       CLR     $05C7
13EF4: E8 EE          EORB    ???
13EF6: 20 30          BRA     $13F28
13EF8: 20 90          BRA     $13E8A
13EFA: E8 CF 18 30    EORB    [$1830]
13EFE: 20 B0          BRA     $13EB0
13F00: E8 DF 20 30    EORB    [$2030]
13F04: 20 90          BRA     $13E96
13F06: E8 CF 20 30    EORB    [$2030]
13F0A: 20 7D          BRA     $13F89
13F0C: E7 7F          STB     -1,S
13F0E: 19             DAA
13F0F: 7F 1F 7F       CLR     $1F7F
13F12: 25 7F          BCS     $13F93
13F14: 2B 7F          BMI     $13F95
13F16: 31 7F          LEAY    -1,S
13F18: 31 00          LEAY    ,X
13F1A: F0 F0 20       SUBB    $F020
13F1D: 10 18          FCB     $10,$18
13F1F: 00 F0          NEG     <$F0
13F21: F0 28 10       SUBB    $2810
13F24: 18             FCB     $18
13F25: 00 E8          NEG     <$E8
13F27: E0 30          SUBB    -16,Y
13F29: 18             FCB     $18
13F2A: 20 00          BRA     $13F2C
L13F2C:
13F2C: E0 E0          SUBB    ,S+
13F2E: 38             FCB     $38
13F2F: 30 20          LEAX    ,Y
13F31: 00 E0          NEG     <$E0
13F33: E0 40          SUBB    ,U
13F35: 30 20          LEAX    ,Y
13F37: 7D E7 7D       TST     $E77D
13F3A: E7 7D          STB     -3,S
13F3C: E7 7D          STB     -3,S
13F3E: E7 7D          STB     -3,S
13F40: E7 7D          STB     -3,S
13F42: E7 7D          STB     -3,S
13F44: E7 7D          STB     -3,S
13F46: E7 7D          STB     -3,S
13F48: E7 7D          STB     -3,S
13F4A: E7 7D          STB     -3,S
13F4C: E7 7D          STB     -3,S
13F4E: E7 7D          STB     -3,S
13F50: E7 7D          STB     -3,S
13F52: E7 7D          STB     -3,S
13F54: E7 7D          STB     -3,S
13F56: E7 7D          STB     -3,S
13F58: E7 7D          STB     -3,S
13F5A: E7 7D          STB     -3,S
13F5C: E7 7F          STB     -1,S
13F5E: 6B             FCB     $6B
13F5F: 7D E7 7D       TST     $E77D
13F62: E7 7F          STB     -1,S
13F64: 65             FCB     $65
13F65: F4 FC 00       ANDB    $FC00
13F68: 18             FCB     $18
13F69: 08 08          ASL     <$08
13F6B: F6 FD 00       LDB     $FD00
13F6E: 0F 05          CLR     <$05
13F70: 16 7D E7       LBRA    $1BD5A
13F73: 7D E7 7D       TST     $E77D
13F76: E7 7F          STB     -1,S
13F78: 7D 7D E7       TST     $7DE7
13F7B: 7D E7 FC       TST     $E7FC
13F7E: F4 FC 08       ANDB    $FC08
13F81: 14             FCB     $14
13F82: 08 7D          ASL     <$7D
13F84: E7 7F          STB     -1,S
13F86: 97 7F          STA     <$7F
13F88: 9D 7F          JSR     <$7F
13F8A: A3 7F          SUBD    -1,S
13F8C: A9 7F          ADCA    -1,S
13F8E: A9 7D          ADCA    -3,S
13F90: E7 7D          STB     -3,S
13F92: E7 7D          STB     -3,S
13F94: E7 7D          STB     -3,S
13F96: E7 A0          STB     ,Y+
13F98: E0 10          SUBB    -16,X
13F9A: 60 40          NEG     ,U
13F9C: 0C 90          INC     <$90
13F9E: E0 18          SUBB    -8,X
13FA0: 70 40 14       NEG     $4014
13FA3: 90 E0          SUBA    <$E0
13FA5: 1C 70          ANDCC   #$70
13FA7: 40             NEGA
13FA8: 1C 88          ANDCC   #$88
13FAA: E0 10          SUBB    -16,X
13FAC: 78 40 38       ASL     $4038
13FAF: 7D E7 7D       TST     $E77D
13FB2: E7 7D          STB     -3,S
13FB4: E7 7D          STB     -3,S
13FB6: E7 7D          STB     -3,S
13FB8: E7 7D          STB     -3,S
13FBA: E7 7D          STB     -3,S
L13FBC:
13FBC: E7 7F          STB     -1,S
13FBE: C1 7F          CMPB    #$7F
13FC0: C7             FCB     $C7
13FC1: FC F8 F0       LDD     $F8F0
13FC4: 08 10          ASL     <$10
13FC6: 20 F4          BRA     $13FBC
13FC8: F0 F8 08       SUBB    $F808
13FCB: 20 0C          BRA     $13FD9
13FCD: 7F D1 7F       CLR     $D17F
13FD0: D1 FC          CMPB    <$FC
13FD2: FC FC 08       LDD     $FC08
13FD5: 08 08          ASL     <$08
13FD7: 7D E7 7D       TST     $E77D
13FDA: E7 7F          STB     -1,S
13FDC: E9 7F          ADCB    -1,S
13FDE: E9 7D          ADCB    -3,S
13FE0: E7 7D          STB     -3,S
13FE2: E7 7D          STB     -3,S
13FE4: E7 7D          STB     -3,S
13FE6: E7 7D          STB     -3,S
13FE8: E7 FC F8       STB     [$13FE3,PCR]
13FEB: FC 08 10       LDD     $0810
13FEE: 08 EF          ASL     <$EF
13FF0: FF FF FF       STU     $FFFF
13FF3: FF FF FF       STU     $FFFF
13FF6: FF FF FF       STU     $FFFF
13FF9: FF FF FF       STU     $FFFF
13FFC: FF FF FF       STU     $FFFF
13FFF: FF 7E 41       STU     $7E41
14002: 00 7E          NEG     <$7E
14004: 41             FCB     $41
14005: 1E 7E          EXG     ?,?
14007: 63 AB          COM     D,Y
14009: 7E 64 0C       JMP     $640C
1400C: 7E 4F F8       JMP     $4FF8
1400F: 7E 40 0F       JMP     $400F
14012: 7E 65 0B       JMP     $650B
14015: 7E 5E BF       JMP     $5EBF
14018: 7E 4D 06       JMP     $4D06
1401B: 7E 58 BF       JMP     $58BF
1401E: 7E 43 25       JMP     $4325
14021: 7E 51 ED       JMP     $51ED
14024: 7E 52 71       JMP     $5271
14027: 7E 53 04       JMP     $5304
1402A: 7E 54 A5       JMP     $54A5
1402D: 7E 57 76       JMP     $5776
14030: 7E 65 83       JMP     $6583
14033: 7E 5C C4       JMP     $5CC4
14036: 7E 50 B7       JMP     $50B7
14039: 7E 62 CD       JMP     $62CD
1403C: 7E 58 61       JMP     $5861
1403F: 7E 58 4E       JMP     $584E
14042: 7E 44 B4       JMP     $44B4
14045: 7E 56 93       JMP     $5693
14048: 7E 57 12       JMP     $5712
1404B: 7E 55 60       JMP     $5560
1404E: 7E 5A 2C       JMP     $5A2C
14051: 7E 59 B3       JMP     $59B3
14054: 7E 58 94       JMP     $5894
14057: 7E 65 47       JMP     $6547
1405A: 7E 66 37       JMP     $6637
1405D: 7E 68 1D       JMP     $681D
14060: 7E 68 8B       JMP     $688B
14063: 7E 57 CA       JMP     $57CA
14066: 7E 57 CA       JMP     $57CA
14069: 7E 57 CA       JMP     $57CA
1406C: 7E 42 74       JMP     $4274
1406F: 7E 68 DC       JMP     $68DC
14072: 7E 68 F6       JMP     $68F6
14075: 7E 4D CF       JMP     $4DCF
14078: 7E 63 3A       JMP     $633A
1407B: 7E 68 F7       JMP     $68F7
1407E: 7E 6A 9A       JMP     $6A9A
14081: 7E 6B 1F       JMP     $6B1F
14084: 7E 6B 53       JMP     $6B53
14087: 7E 69 6A       JMP     $696A
1408A: 7E 6B EE       JMP     $6BEE
1408D: 7E 69 A5       JMP     $69A5
14090: 7E 6A 31       JMP     $6A31
14093: 7E 6C 12       JMP     $6C12
14096: 7E 6C 12       JMP     $6C12
14099: 7E 40 99       JMP     $4099
1409C: 7E 40 9C       JMP     $409C
1409F: 7E 40 9F       JMP     $409F
140A2: 7E 42 E3       JMP     $42E3
140A5: 7E 6C 15       JMP     $6C15
140A8: 7E 6C 23       JMP     $6C23
140AB: 7E 7D EA       JMP     $7DEA
140AE: 7E 51 10       JMP     $5110
140B1: 7E 4F 22       JMP     $4F22
140B4: FF FF FF       STU     $FFFF
140B7: FF FF FF       STU     $FFFF
140BA: FF FF FF       STU     $FFFF
140BD: FF FF FF       STU     $FFFF
140C0: FF FF FF       STU     $FFFF
140C3: FF FF FF       STU     $FFFF
140C6: FF FF FF       STU     $FFFF
140C9: FF FF FF       STU     $FFFF
140CC: FF FF FF       STU     $FFFF
140CF: FF FF FF       STU     $FFFF
140D2: FF FF FF       STU     $FFFF
140D5: FF FF FF       STU     $FFFF
140D8: FF FF FF       STU     $FFFF
140DB: FF FF FF       STU     $FFFF
140DE: FF FF FF       STU     $FFFF
140E1: FF FF FF       STU     $FFFF
140E4: FF FF FF       STU     $FFFF
140E7: FF FF FF       STU     $FFFF
140EA: FF FF FF       STU     $FFFF
140ED: FF FF FF       STU     $FFFF
140F0: FF FF FF       STU     $FFFF
140F3: FF FF FF       STU     $FFFF
140F6: FF FF FF       STU     $FFFF
140F9: FF FF FF       STU     $FFFF
140FC: FF FF FF       STU     $FFFF
140FF: FF 34 26       STU     $3426
14102: 10 8E 03 81    LDY     #$0381
14106: B6 03 A1       LDA     $03A1
14109: 81 20          CMPA    #$20
1410B: 24 0F          BCC     $1411C
1410D: E6 02          LDB     2,X
1410F: C4 7F          ANDB    #$7F
14111: C1 7F          CMPB    #$7F
14113: 27 07          BEQ     $1411C
14115: AF A6          STX     A,Y
14117: 8B 02          ADDA    #$02
14119: B7 03 A1       STA     $03A1
L1411C:
1411C: 35 A6          PULS    A,B,Y,PC
1411E: 34 40          PSHS    U
14120: 96 3A          LDA     <$3A
14122: 8A 10          ORA     #$10
14124: 97 3A          STA     <$3A
14126: B7 38 08       STA     $3808
L14129:
14129: B6 38 02       LDA     $3802
1412C: 84 10          ANDA    #$10
1412E: 26 F9          BNE     $14129
14130: 7F 20 00       CLR     $2000
14133: DC 3C          LDD     <$3C
14135: FD 21 F9       STD     $21F9
14138: DC 3F          LDD     <$3F
1413A: FD 21 FB       STD     $21FB
1413D: 96 2B          LDA     <$2B
1413F: B7 21 FE       STA     $21FE
14142: 7F 21 FD       CLR     $21FD
14145: 7D 03 A1       TST     $03A1
14148: 10 27 00 AB    LBEQ    $141F7
1414C: 10 8E 03 81    LDY     #$0381
14150: CE 20 01       LDU     #$2001
14153: 5F             CLRB
L14154:
14154: AE A5          LDX     B,Y
14156: A6 01          LDA     1,X
14158: A7 C4          STA     ,U
1415A: A6 02          LDA     2,X
1415C: A7 41          STA     1,U
1415E: A6 04          LDA     4,X
14160: A7 42          STA     2,U
14162: A6 05          LDA     5,X
14164: A7 43          STA     3,U
14166: A6 06          LDA     6,X
14168: A7 44          STA     4,U
1416A: A6 07          LDA     7,X
1416C: A7 45          STA     5,U
1416E: A6 08          LDA     8,X
14170: A7 46          STA     6,U
14172: A6 09          LDA     9,X
14174: A7 47          STA     7,U
14176: A6 88 16       LDA     22,X
14179: 84 06          ANDA    #$06
1417B: 27 12          BEQ     $1418F
1417D: AE 88 2D       LDX     45,X
14180: A6 01          LDA     1,X
14182: A7 C4          STA     ,U
14184: A6 88 16       LDA     22,X
14187: 84 02          ANDA    #$02
14189: 27 04          BEQ     $1418F
1418B: A6 02          LDA     2,X
1418D: A7 41          STA     1,U
L1418F:
1418F: AE A5          LDX     B,Y
14191: A6 88 1B       LDA     27,X
14194: 84 3F          ANDA    #$3F
14196: 81 06          CMPA    #$06
14198: 27 1A          BEQ     $141B4
1419A: 81 0A          CMPA    #$0A
1419C: 27 16          BEQ     $141B4
1419E: 81 08          CMPA    #$08
141A0: 27 12          BEQ     $141B4
141A2: 81 07          CMPA    #$07
141A4: 26 2C          BNE     $141D2
141A6: A6 01          LDA     1,X
141A8: 81 04          CMPA    #$04
141AA: 27 08          BEQ     $141B4
141AC: 81 06          CMPA    #$06
141AE: 27 04          BEQ     $141B4
141B0: 81 0B          CMPA    #$0B
141B2: 26 1E          BNE     $141D2
L141B4:
141B4: A6 01          LDA     1,X
141B6: 81 02          CMPA    #$02
141B8: 24 09          BCC     $141C3
141BA: A6 88 16       LDA     22,X
141BD: 84 06          ANDA    #$06
141BF: 27 11          BEQ     $141D2
141C1: 20 03          BRA     $141C6
L141C3:
141C3: AE 88 2D       LDX     45,X
L141C6:
141C6: A6 01          LDA     1,X
141C8: 81 00          CMPA    #$00
141CA: 27 06          BEQ     $141D2
141CC: A6 C4          LDA     ,U
141CE: 8A 80          ORA     #$80
141D0: A7 C4          STA     ,U
L141D2:
141D2: A6 01          LDA     1,X
141D4: 81 02          CMPA    #$02
141D6: 24 0F          BCC     $141E7
141D8: AE 88 2D       LDX     45,X
141DB: A6 01          LDA     1,X
141DD: 81 02          CMPA    #$02
141DF: 24 06          BCC     $141E7
141E1: A6 C4          LDA     ,U
141E3: 84 7F          ANDA    #$7F
141E5: A7 C4          STA     ,U
L141E7:
141E7: 33 48          LEAU    8,U
141E9: CB 02          ADDB    #$02
141EB: F1 03 A1       CMPB    $03A1
141EE: 10 25 FF 62    LBCS    $14154
141F2: 1E 03          EXG     D,U
141F4: F7 20 00       STB     $2000
L141F7:
141F7: BD 42 12       JSR     $4212
141FA: 96 3A          LDA     <$3A
141FC: 84 EF          ANDA    #$EF
141FE: 97 3A          STA     <$3A
14200: B7 38 08       STA     $3808
L14203:
14203: B6 38 02       LDA     $3802
14206: 84 10          ANDA    #$10
14208: 27 F9          BEQ     $14203
1420A: B7 38 0F       STA     $380F
1420D: 7F 03 A1       CLR     $03A1
14210: 35 C0          PULS    U,PC
14212: 34 16          PSHS    A,B,X
14214: 7D 20 00       TST     $2000
14217: 27 59          BEQ     $14272
L14219:
14219: 0F 0F          CLR     <$0F
1421B: 86 01          LDA     #$01
1421D: 97 0E          STA     <$0E
L1421F:
1421F: 96 0E          LDA     <$0E
14221: 8B 08          ADDA    #$08
14223: B1 20 00       CMPA    $2000
14226: 24 46          BCC     $1426E
14228: 8E 20 00       LDX     #$2000
1422B: D6 0E          LDB     <$0E
1422D: 3A             ABX
1422E: EC 04          LDD     4,X
14230: A3 0C          SUBD    12,X
14232: 24 32          BCC     $14266
14234: EC 84          LDD     ,X
14236: DD 00          STD     <$00
14238: EC 08          LDD     8,X
1423A: ED 84          STD     ,X
1423C: DC 00          LDD     <$00
1423E: ED 08          STD     8,X
14240: EC 02          LDD     2,X
14242: DD 00          STD     <$00
14244: EC 0A          LDD     10,X
14246: ED 02          STD     2,X
14248: DC 00          LDD     <$00
1424A: ED 0A          STD     10,X
1424C: EC 04          LDD     4,X
1424E: DD 00          STD     <$00
14250: EC 0C          LDD     12,X
14252: ED 04          STD     4,X
14254: DC 00          LDD     <$00
14256: ED 0C          STD     12,X
14258: EC 06          LDD     6,X
1425A: DD 00          STD     <$00
1425C: EC 0E          LDD     14,X
1425E: ED 06          STD     6,X
14260: DC 00          LDD     <$00
14262: ED 0E          STD     14,X
14264: 0C 0F          INC     <$0F
L14266:
14266: 96 0E          LDA     <$0E
14268: 8B 08          ADDA    #$08
1426A: 97 0E          STA     <$0E
1426C: 20 B1          BRA     $1421F
L1426E:
1426E: 0D 0F          TST     <$0F
14270: 26 A7          BNE     $14219
L14272:
14272: 35 96          PULS    A,B,X,PC
14274: 34 76          PSHS    A,B,X,Y,U
14276: 10 8E 42 DF    LDY     #$42DF
1427A: A6 88 1B       LDA     27,X
1427D: 2B 31          BMI     $142B0
1427F: A6 88 15       LDA     21,X
14282: 85 40          BITA    #$40
14284: 10 26 00 55    LBNE    $142DD
14288: BD FE 64       JSR     $FE64
1428B: A6 A4          LDA     ,Y
1428D: AA 03          ORA     3,X
1428F: A7 02          STA     2,X
14291: 86 08          LDA     #$08
14293: A7 88 19       STA     25,X
14296: A6 88 21       LDA     33,X
14299: 27 08          BEQ     $142A3
1429B: BD 63 3A       JSR     $633A
1429E: 86 01          LDA     #$01
142A0: A7 A8 1B       STA     27,Y
L142A3:
142A3: A6 88 16       LDA     22,X
142A6: 84 F9          ANDA    #$F9
142A8: A7 88 16       STA     22,X
142AB: 86 3D          LDA     #$3D
142AD: BD 6B DF       JSR     $6BDF
L142B0:
142B0: 6A 88 19       DEC     25,X
142B3: 26 15          BNE     $142CA
142B5: 6C 88 18       INC     24,X
142B8: A6 88 18       LDA     24,X
142BB: 81 04          CMPA    #$04
142BD: 24 0D          BCC     $142CC
142BF: E6 A6          LDB     A,Y
142C1: EA 03          ORB     3,X
142C3: E7 02          STB     2,X
142C5: C6 08          LDB     #$08
142C7: E7 88 19       STB     25,X
L142CA:
142CA: 20 11          BRA     $142DD
L142CC:
142CC: 6F 84          CLR     ,X
142CE: A6 88 4C       LDA     76,X
142D1: 8A 80          ORA     #$80
142D3: 6D 88 48       TST     72,X
142D6: 26 02          BNE     $142DA
142D8: 8A 20          ORA     #$20
L142DA:
142DA: A7 88 4C       STA     76,X
L142DD:
142DD: 35 F6          PULS    A,B,X,Y,U,PC
142DF: 63 64          COM     4,S
142E1: 65             FCB     $65
142E2: 65             FCB     $65
142E3: 34 76          PSHS    A,B,X,Y,U
142E5: 10 8E 43 21    LDY     #$4321
142E9: A6 88 1B       LDA     27,X
142EC: 2B 0E          BMI     $142FC
142EE: BD FE 64       JSR     $FE64
142F1: A6 A0          LDA     ,Y+
142F3: AA 03          ORA     3,X
142F5: A7 02          STA     2,X
142F7: A6 A4          LDA     ,Y
142F9: A7 88 19       STA     25,X
L142FC:
142FC: 6A 88 19       DEC     25,X
142FF: 26 1E          BNE     $1431F
14301: 6C 88 18       INC     24,X
14304: A6 88 18       LDA     24,X
14307: 81 02          CMPA    #$02
14309: 24 0F          BCC     $1431A
1430B: 48             ASLA
1430C: E6 A6          LDB     A,Y
1430E: EA 03          ORB     3,X
14310: E7 02          STB     2,X
14312: 4C             INCA
14313: E6 A6          LDB     A,Y
14315: E7 88 19       STB     25,X
14318: 20 05          BRA     $1431F
L1431A:
1431A: 86 00          LDA     #$00
1431C: A7 88 1B       STA     27,X
L1431F:
1431F: 35 F6          PULS    A,B,X,Y,U,PC
14321: 39             RTS
14322: 03 38          COM     <$38
14324: 03 A6          COM     <$A6
14326: 88 4B          EORA    #$4B
14328: 27 01          BEQ     $1432B
L1432A:
1432A: 39             RTS
L1432B:
1432B: BD 5C 05       JSR     $5C05
1432E: 25 FA          BCS     $1432A
14330: BD FB 94       JSR     $FB94
14333: 25 F5          BCS     $1432A
14335: A6 84          LDA     ,X
14337: 85 40          BITA    #$40
14339: 27 EF          BEQ     $1432A
1433B: A6 88 1B       LDA     27,X
1433E: 2B 6E          BMI     $143AE
14340: BD FE 64       JSR     $FE64
14343: 86 07          LDA     #$07
14345: AA 03          ORA     3,X
14347: A7 02          STA     2,X
14349: A6 88 15       LDA     21,X
1434C: 84 BF          ANDA    #$BF
1434E: A7 88 15       STA     21,X
14351: A6 84          LDA     ,X
14353: 84 F0          ANDA    #$F0
14355: 8A 01          ORA     #$01
14357: A7 84          STA     ,X
14359: 96 55          LDA     <$55
1435B: 48             ASLA
1435C: 8B 0E          ADDA    #$0E
1435E: A7 0E          STA     14,X
14360: BD F9 3C       JSR     $F93C
14363: BD FC 1E       JSR     $FC1E
14366: A6 88 13       LDA     19,X
14369: 84 DF          ANDA    #$DF
1436B: A7 88 13       STA     19,X
1436E: A6 88 38       LDA     56,X
14371: 84 0F          ANDA    #$0F
14373: 81 0E          CMPA    #$0E
14375: 27 06          BEQ     $1437D
14377: 81 06          CMPA    #$06
14379: 27 33          BEQ     $143AE
1437B: 26 07          BNE     $14384
L1437D:
1437D: A6 88 52       LDA     82,X
14380: 81 04          CMPA    #$04
14382: 25 2A          BCS     $143AE
L14384:
14384: BD 44 26       JSR     $4426
14387: 25 25          BCS     $143AE
14389: A6 88 39       LDA     57,X
1438C: 84 7F          ANDA    #$7F
1438E: 81 06          CMPA    #$06
14390: 25 02          BCS     $14394
14392: 86 05          LDA     #$05
L14394:
14394: 10 8E 44 20    LDY     #$4420
14398: E6 A6          LDB     A,Y
1439A: E7 88 38       STB     56,X
1439D: A6 88 17       LDA     23,X
143A0: 2A 0C          BPL     $143AE
143A2: B5 0A AE       BITA    $0AAE
143A5: 2B 07          BMI     $143AE
143A7: 86 09          LDA     #$09
143A9: A7 88 38       STA     56,X
143AC: 20 45          BRA     $143F3
L143AE:
143AE: B6 0F 0F       LDA     $0F0F
143B1: 84 01          ANDA    #$01
143B3: 27 1F          BEQ     $143D4
143B5: A6 88 21       LDA     33,X
143B8: 27 08          BEQ     $143C2
143BA: 81 01          CMPA    #$01
143BC: 27 04          BEQ     $143C2
143BE: 81 04          CMPA    #$04
143C0: 26 0A          BNE     $143CC
L143C2:
143C2: 6F 88 4E       CLR     78,X
143C5: 86 11          LDA     #$11
143C7: A7 88 1B       STA     27,X
143CA: 20 33          BRA     $143FF
L143CC:
143CC: B6 0F 0F       LDA     $0F0F
143CF: 84 FE          ANDA    #$FE
143D1: B7 0F 0F       STA     $0F0F
L143D4:
143D4: B6 0A AF       LDA     $0AAF
143D7: 84 C0          ANDA    #$C0
143D9: 27 18          BEQ     $143F3
143DB: 96 36          LDA     <$36
143DD: 81 03          CMPA    #$03
143DF: 26 0D          BNE     $143EE
143E1: 96 38          LDA     <$38
143E3: 81 02          CMPA    #$02
143E5: 26 07          BNE     $143EE
143E7: 86 1E          LDA     #$1E
143E9: A7 88 1B       STA     27,X
143EC: 20 11          BRA     $143FF
L143EE:
143EE: 86 0C          LDA     #$0C
143F0: A7 88 38       STA     56,X
L143F3:
143F3: A6 88 38       LDA     56,X
143F6: 84 0F          ANDA    #$0F
143F8: 48             ASLA
143F9: 10 8E 44 00    LDY     #$4400
143FD: AD B6          JSR     [A,Y]
L143FF:
143FF: 39             RTS
14400: 44             LSRA
14401: 44             LSRA
14402: 45             FCB     $45
14403: 4A             DECA
14404: 45             FCB     $45
14405: DE 46          LDU     <$46
14407: 69 46          ROL     6,U
14409: E7 47          STB     7,U
1440B: 11 47          FCB     $11,$47
1440D: 1A 49          ORCC    #$49
1440F: D8 4A          EORB    <$4A
14411: 18             FCB     $18
14412: 4A             DECA
14413: 33 4A          LEAU    10,U
14415: 33 4A          LEAU    10,U
14417: 37 4A          PULU    A,DP,S
14419: 65             FCB     $65
1441A: 4B             FCB     $4B
1441B: 8B 4B          ADDA    #$4B
1441D: 8B 4B          ADDA    #$4B
1441F: F4 00 06       ANDB    $0006
14422: 07 07          ASR     <$07
14424: 07 08          ASR     <$08
14426: A6 88 39       LDA     57,X
14429: 84 7F          ANDA    #$7F
1442B: 81 01          CMPA    #$01
1442D: 26 12          BNE     $14441
1442F: BD 62 F3       JSR     $62F3
14432: 26 0D          BNE     $14441
14434: BD 62 CD       JSR     $62CD
14437: 26 08          BNE     $14441
14439: 86 06          LDA     #$06
1443B: A7 88 38       STA     56,X
1443E: 1A 01          ORCC    #$01
14440: 39             RTS
L14441:
14441: 1C FE          ANDCC   #$FE
14443: 39             RTS
14444: BD 5F C7       JSR     $5FC7
14447: 25 14          BCS     $1445D
14449: BD 4C 71       JSR     $4C71
1444C: 25 0F          BCS     $1445D
1444E: BD 61 7D       JSR     $617D
14451: 25 0A          BCS     $1445D
14453: BD FB 9E       JSR     $FB9E
14456: A6 88 38       LDA     56,X
14459: 84 0F          ANDA    #$0F
1445B: 27 01          BEQ     $1445E
L1445D:
1445D: 39             RTS
L1445E:
1445E: A6 88 38       LDA     56,X
14461: 10 2B 00 8C    LBMI    $144F1
14465: B6 0F 33       LDA     $0F33
14468: 81 14          CMPA    #$14
1446A: 10 25 00 65    LBCS    $144D3
1446E: B6 0F 34       LDA     $0F34
14471: 26 10          BNE     $14483
14473: B6 0F 33       LDA     $0F33
14476: 81 16          CMPA    #$16
14478: 10 25 00 3F    LBCS    $144BB
L1447C:
1447C: B6 0F 35       LDA     $0F35
1447F: 84 01          ANDA    #$01
14481: 20 29          BRA     $144AC
L14483:
14483: 81 02          CMPA    #$02
14485: 24 02          BCC     $14489
14487: 20 F3          BRA     $1447C
L14489:
14489: B6 0F 33       LDA     $0F33
1448C: 81 34          CMPA    #$34
1448E: 24 15          BCC     $144A5
14490: 81 24          CMPA    #$24
14492: 24 07          BCC     $1449B
14494: B6 0F 35       LDA     $0F35
14497: 88 01          EORA    #$01
14499: 20 0D          BRA     $144A8
L1449B:
1449B: B6 0F 35       LDA     $0F35
1449E: 84 02          ANDA    #$02
144A0: 44             LSRA
144A1: 8B 06          ADDA    #$06
144A3: 20 07          BRA     $144AC
L144A5:
144A5: B6 0F 35       LDA     $0F35
L144A8:
144A8: 84 03          ANDA    #$03
144AA: 8B 02          ADDA    #$02
L144AC:
144AC: 10 8E 44 F8    LDY     #$44F8
144B0: A6 A6          LDA     A,Y
144B2: A7 0D          STA     13,X
144B4: 96 55          LDA     <$55
144B6: 48             ASLA
144B7: 8B 0E          ADDA    #$0E
144B9: A7 0E          STA     14,X
L144BB:
144BB: BD 5A 4E       JSR     $5A4E
144BE: 25 12          BCS     $144D2
144C0: BD 59 B3       JSR     $59B3
144C3: BD F9 3C       JSR     $F93C
144C6: BD FC 1E       JSR     $FC1E
144C9: BD 45 00       JSR     $4500
144CC: BD 5B A3       JSR     $5BA3
144CF: BD FB A8       JSR     $FBA8
L144D2:
144D2: 39             RTS
L144D3:
144D3: BD 58 4E       JSR     $584E
144D6: BD 58 61       JSR     $5861
144D9: 96 55          LDA     <$55
144DB: 48             ASLA
144DC: 8B 12          ADDA    #$12
144DE: A7 0E          STA     14,X
144E0: BD 5A 4E       JSR     $5A4E
144E3: 25 12          BCS     $144F7
144E5: BD 59 B3       JSR     $59B3
144E8: BD F9 3C       JSR     $F93C
144EB: BD FC 1E       JSR     $FC1E
144EE: BD 45 00       JSR     $4500
L144F1:
144F1: BD 5B A3       JSR     $5BA3
144F4: BD FB A8       JSR     $FBA8
L144F7:
144F7: 39             RTS
144F8: 40             NEGA
144F9: C0 20          SUBB    #$20
144FB: E0 60          SUBB    ,S
144FD: A0 00          SUBA    ,X
144FF: 80 B6          SUBA    #$B6
14501: 0C 27          INC     <$27
14503: 84 0F          ANDA    #$0F
14505: 27 3E          BEQ     $14545
14507: C6 0E          LDB     #$0E
14509: E7 88 38       STB     56,X
1450C: 5F             CLRB
1450D: 44             LSRA
1450E: 25 09          BCS     $14519
14510: 5C             INCB
14511: 44             LSRA
14512: 25 05          BCS     $14519
14514: 5C             INCB
14515: 44             LSRA
14516: 25 01          BCS     $14519
14518: 5C             INCB
L14519:
14519: 10 8E 45 46    LDY     #$4546
1451D: A6 A5          LDA     B,Y
1451F: A7 0D          STA     13,X
14521: E7 88 54       STB     84,X
14524: 10 BE 0F 36    LDY     $0F36
14528: A6 A8 31       LDA     49,Y
1452B: 84 18          ANDA    #$18
1452D: 27 16          BEQ     $14545
1452F: B6 0F 35       LDA     $0F35
14532: C6 3E          LDB     #$3E
14534: 84 01          ANDA    #$01
14536: 27 02          BEQ     $1453A
14538: C6 C2          LDB     #$C2
L1453A:
1453A: E7 0D          STB     13,X
1453C: 49             ROLA
1453D: 49             ROLA
1453E: 84 01          ANDA    #$01
14540: 88 01          EORA    #$01
14542: A7 88 54       STA     84,X
L14545:
14545: 39             RTS
14546: C2 80          SBCB    #$80
14548: 3E             FCB     $3E
14549: 00 10          NEG     <$10
1454B: BE 0F 36       LDX     $0F36
1454E: A6 A8 1B       LDA     27,Y
14551: 84 7F          ANDA    #$7F
14553: 81 06          CMPA    #$06
14555: 27 10          BEQ     $14567
14557: 81 08          CMPA    #$08
14559: 27 0C          BEQ     $14567
1455B: 81 09          CMPA    #$09
1455D: 27 08          BEQ     $14567
1455F: 81 0C          CMPA    #$0C
14561: 27 04          BEQ     $14567
14563: 6F 88 38       CLR     56,X
14566: 39             RTS
L14567:
14567: A6 88 38       LDA     56,X
1456A: 2B 0B          BMI     $14577
1456C: BD 58 68       JSR     $5868
1456F: A6 88 38       LDA     56,X
14572: 8A 80          ORA     #$80
14574: A7 88 38       STA     56,X
L14577:
14577: BD 62 CD       JSR     $62CD
1457A: 27 07          BEQ     $14583
1457C: B6 0F 33       LDA     $0F33
1457F: 81 08          CMPA    #$08
14581: 24 1B          BCC     $1459E
L14583:
14583: B6 0F 34       LDA     $0F34
14586: 81 10          CMPA    #$10
14588: 25 0E          BCS     $14598
1458A: BD 58 4E       JSR     $584E
1458D: BD 62 CD       JSR     $62CD
14590: 27 06          BEQ     $14598
14592: A6 0D          LDA     13,X
14594: 88 80          EORA    #$80
14596: A7 0D          STA     13,X
L14598:
14598: BD 44 B4       JSR     $44B4
1459B: 7E 45 D1       JMP     $45D1
L1459E:
1459E: B6 0F 34       LDA     $0F34
145A1: 81 02          CMPA    #$02
145A3: 24 0F          BCC     $145B4
145A5: A6 88 38       LDA     56,X
145A8: 84 0F          ANDA    #$0F
145AA: 81 06          CMPA    #$06
145AC: 27 03          BEQ     $145B1
145AE: 6F 88 38       CLR     56,X
L145B1:
145B1: 6F 0E          CLR     14,X
145B3: 39             RTS
L145B4:
145B4: C6 40          LDB     #$40
145B6: F0 0F 34       SUBB    $0F34
145B9: B6 0F 35       LDA     $0F35
145BC: 85 02          BITA    #$02
145BE: 27 07          BEQ     $145C7
145C0: 50             NEGB
145C1: C4 7F          ANDB    #$7F
145C3: 26 02          BNE     $145C7
145C5: C6 80          LDB     #$80
L145C7:
145C7: 85 01          BITA    #$01
145C9: 26 01          BNE     $145CC
145CB: 50             NEGB
L145CC:
145CC: E7 0D          STB     13,X
145CE: BD 44 B4       JSR     $44B4
145D1: A6 88 16       LDA     22,X
145D4: 84 20          ANDA    #$20
145D6: 27 05          BEQ     $145DD
145D8: 86 02          LDA     #$02
145DA: A7 88 38       STA     56,X
L145DD:
145DD: 39             RTS
145DE: A6 88 38       LDA     56,X
145E1: 2B 0B          BMI     $145EE
145E3: BD 58 68       JSR     $5868
145E6: A6 88 38       LDA     56,X
145E9: 8A 80          ORA     #$80
145EB: A7 88 38       STA     56,X
L145EE:
145EE: BD 62 CD       JSR     $62CD
145F1: 26 07          BNE     $145FA
145F3: B6 0F 33       LDA     $0F33
145F6: 81 08          CMPA    #$08
145F8: 24 21          BCC     $1461B
L145FA:
145FA: B6 0F 34       LDA     $0F34
145FD: 81 10          CMPA    #$10
145FF: 25 0E          BCS     $1460F
14601: BD 58 4E       JSR     $584E
14604: BD 62 CD       JSR     $62CD
14607: 26 06          BNE     $1460F
14609: A6 0D          LDA     13,X
1460B: 88 80          EORA    #$80
1460D: A7 0D          STA     13,X
L1460F:
1460F: BD 44 B4       JSR     $44B4
14612: B6 0C 27       LDA     $0C27
14615: 84 0F          ANDA    #$0F
14617: 27 4F          BEQ     $14668
14619: 20 4A          BRA     $14665
L1461B:
1461B: B6 0F 34       LDA     $0F34
1461E: 81 02          CMPA    #$02
14620: 24 18          BCC     $1463A
14622: 10 BE 0F 36    LDY     $0F36
14626: A6 A8 1B       LDA     27,Y
14629: C6 04          LDB     #$04
1462B: 84 0F          ANDA    #$0F
1462D: 81 06          CMPA    #$06
1462F: 27 05          BEQ     $14636
14631: 81 08          CMPA    #$08
14633: 27 01          BEQ     $14636
14635: 5F             CLRB
L14636:
14636: E7 88 38       STB     56,X
14639: 39             RTS
L1463A:
1463A: F6 0F 33       LDB     $0F33
1463D: C1 40          CMPB    #$40
1463F: 25 02          BCS     $14643
14641: C6 40          LDB     #$40
L14643:
14643: D7 00          STB     <$00
14645: 86 40          LDA     #$40
14647: 90 00          SUBA    <$00
14649: 97 00          STA     <$00
1464B: B6 0F 35       LDA     $0F35
1464E: D6 00          LDB     <$00
14650: 85 02          BITA    #$02
14652: 27 05          BEQ     $14659
14654: C8 FF          EORB    #$FF
14656: 5C             INCB
14657: C4 7F          ANDB    #$7F
L14659:
14659: 85 01          BITA    #$01
1465B: 26 03          BNE     $14660
1465D: C8 FF          EORB    #$FF
1465F: 5C             INCB
L14660:
14660: E7 0D          STB     13,X
14662: BD 44 B4       JSR     $44B4
L14665:
14665: 6F 88 38       CLR     56,X
L14668:
14668: 39             RTS
14669: A6 88 38       LDA     56,X
1466C: 85 10          BITA    #$10
1466E: 26 13          BNE     $14683
14670: 8A 10          ORA     #$10
14672: A7 88 38       STA     56,X
14675: EC 88 41       LDD     65,X
14678: DD 00          STD     <$00
1467A: BD FB 44       JSR     $FB44
1467D: A7 0D          STA     13,X
1467F: 84 80          ANDA    #$80
14681: A7 03          STA     3,X
L14683:
14683: 96 55          LDA     <$55
14685: 48             ASLA
14686: 8B 18          ADDA    #$18
14688: A7 0E          STA     14,X
1468A: BD 44 BB       JSR     $44BB
1468D: EC 88 41       LDD     65,X
14690: DD 00          STD     <$00
14692: BD FB 4E       JSR     $FB4E
14695: 0D 01          TST     <$01
14697: 26 46          BNE     $146DF
14699: 0D 03          TST     <$03
1469B: 26 42          BNE     $146DF
1469D: 96 02          LDA     <$02
1469F: D6 04          LDB     <$04
146A1: 81 14          CMPA    #$14
146A3: 24 1D          BCC     $146C2
146A5: C1 04          CMPB    #$04
146A7: 24 23          BCC     $146CC
146A9: 10 AE 88 41    LDY     65,X
146AD: A6 A8 17       LDA     23,Y
146B0: 84 0F          ANDA    #$0F
146B2: 27 08          BEQ     $146BC
146B4: 81 04          CMPA    #$04
146B6: 27 04          BEQ     $146BC
146B8: 86 0D          LDA     #$0D
146BA: 20 02          BRA     $146BE
L146BC:
146BC: 86 16          LDA     #$16
L146BE:
146BE: A7 88 1B       STA     27,X
146C1: 39             RTS
L146C2:
146C2: C1 04          CMPB    #$04
146C4: 24 19          BCC     $146DF
146C6: 96 00          LDA     <$00
146C8: 84 01          ANDA    #$01
146CA: 20 07          BRA     $146D3
L146CC:
146CC: 96 00          LDA     <$00
146CE: 44             LSRA
146CF: 84 01          ANDA    #$01
146D1: 8B 02          ADDA    #$02
L146D3:
146D3: 10 8E 46 E3    LDY     #$46E3
146D7: E6 A6          LDB     A,Y
146D9: E7 0D          STB     13,X
146DB: C4 80          ANDB    #$80
146DD: E7 03          STB     3,X
L146DF:
146DF: BD 64 EE       JSR     $64EE
146E2: 39             RTS
146E3: 40             NEGA
146E4: C0 00          SUBB    #$00
146E6: 80 10          SUBA    #$10
146E8: BE 0F 36       LDX     $0F36
146EB: A6 A8 1B       LDA     27,Y
146EE: 84 3F          ANDA    #$3F
146F0: 81 00          CMPA    #$00
146F2: 27 14          BEQ     $14708
146F4: 81 0A          CMPA    #$0A
146F6: 27 10          BEQ     $14708
146F8: 96 29          LDA     <$29
146FA: 84 03          ANDA    #$03
146FC: 81 03          CMPA    #$03
146FE: 26 10          BNE     $14710
14700: A6 88 14       LDA     20,X
14703: 88 40          EORA    #$40
14705: A7 88 14       STA     20,X
L14708:
14708: 86 00          LDA     #$00
1470A: A7 88 38       STA     56,X
1470D: BD 44 BB       JSR     $44BB
L14710:
14710: 39             RTS
14711: BD FB 94       JSR     $FB94
14714: 25 03          BCS     $14719
14716: BD 61 7D       JSR     $617D
L14719:
14719: 39             RTS
1471A: 10 BE 0F 36    LDY     $0F36
1471E: A6 A8 1B       LDA     27,Y
14721: 84 3F          ANDA    #$3F
14723: 81 0A          CMPA    #$0A
14725: 26 06          BNE     $1472D
14727: BD 60 10       JSR     $6010
1472A: 24 01          BCC     $1472D
1472C: 39             RTS
L1472D:
1472D: A6 88 38       LDA     56,X
14730: 2B 15          BMI     $14747
14732: 6F 88 4F       CLR     79,X
14735: 6F 88 50       CLR     80,X
14738: 6F 88 56       CLR     86,X
1473B: A6 88 38       LDA     56,X
1473E: 8A 80          ORA     #$80
14740: A7 88 38       STA     56,X
14743: 86 10          LDA     #$10
14745: A7 0E          STA     14,X
L14747:
14747: A6 88 50       LDA     80,X
1474A: 10 8E 47 53    LDY     #$4753
1474E: 84 0F          ANDA    #$0F
14750: 48             ASLA
14751: 6E B6          JMP     [A,Y]
14753: 47             ASRA
14754: 5B             FCB     $5B
14755: 47             ASRA
14756: D2 48          SBCB    <$48
14758: 49             ROLA
14759: 48             ASLA
1475A: 8D A6          BSR     $14702
1475C: 88 50          EORA    #$50
1475E: 2B 0E          BMI     $1476E
14760: 8A 80          ORA     #$80
14762: A7 88 50       STA     80,X
14765: BD 58 83       JSR     $5883
14768: A6 0D          LDA     13,X
1476A: 88 80          EORA    #$80
1476C: A7 0D          STA     13,X
L1476E:
1476E: 86 10          LDA     #$10
14770: A7 0E          STA     14,X
14772: 6C 88 4F       INC     79,X
14775: A6 88 4F       LDA     79,X
14778: 81 08          CMPA    #$08
1477A: 25 0D          BCS     $14789
1477C: 86 01          LDA     #$01
1477E: A7 88 50       STA     80,X
14781: A6 88 56       LDA     86,X
14784: 8A 80          ORA     #$80
14786: A7 88 56       STA     86,X
L14789:
14789: BD 59 B3       JSR     $59B3
1478C: BD F9 3C       JSR     $F93C
1478F: BD FC 1E       JSR     $FC1E
14792: BD 47 B9       JSR     $47B9
14795: 24 13          BCC     $147AA
14797: BD 5A 40       JSR     $5A40
1479A: A6 88 50       LDA     80,X
1479D: 2B 0C          BMI     $147AB
1479F: 8A 80          ORA     #$80
147A1: A7 88 50       STA     80,X
147A4: A6 0D          LDA     13,X
147A6: 88 80          EORA    #$80
147A8: A7 0D          STA     13,X
L147AA:
147AA: 39             RTS
L147AB:
147AB: 86 01          LDA     #$01
147AD: A7 88 50       STA     80,X
147B0: A6 88 56       LDA     86,X
147B3: 8A 80          ORA     #$80
147B5: A7 88 56       STA     86,X
147B8: 39             RTS
147B9: B6 0C 26       LDA     $0C26
147BC: 26 11          BNE     $147CF
147BE: B6 0C 27       LDA     $0C27
147C1: 84 0F          ANDA    #$0F
147C3: 26 0A          BNE     $147CF
147C5: B6 0C 29       LDA     $0C29
147C8: 84 F0          ANDA    #$F0
147CA: 27 03          BEQ     $147CF
147CC: 1C FE          ANDCC   #$FE
147CE: 39             RTS
L147CF:
147CF: 1A 01          ORCC    #$01
147D1: 39             RTS
147D2: A6 88 50       LDA     80,X
147D5: 2A 19          BPL     $147F0
147D7: A6 88 4F       LDA     79,X
147DA: 81 01          CMPA    #$01
147DC: 26 2C          BNE     $1480A
147DE: A6 88 56       LDA     86,X
147E1: 2A 27          BPL     $1480A
147E3: BD 48 DE       JSR     $48DE
147E6: A6 88 1B       LDA     27,X
147E9: 84 3F          ANDA    #$3F
147EB: 81 00          CMPA    #$00
147ED: 27 1B          BEQ     $1480A
147EF: 39             RTS
L147F0:
147F0: 6F 88 4F       CLR     79,X
147F3: 8A 80          ORA     #$80
147F5: A7 88 50       STA     80,X
147F8: BD 58 4E       JSR     $584E
147FB: A6 88 38       LDA     56,X
147FE: 84 30          ANDA    #$30
14800: 27 08          BEQ     $1480A
14802: 48             ASLA
14803: 48             ASLA
14804: 84 80          ANDA    #$80
14806: 8A 40          ORA     #$40
14808: A7 0D          STA     13,X
L1480A:
1480A: 6C 88 4F       INC     79,X
1480D: 86 10          LDA     #$10
1480F: A7 0E          STA     14,X
14811: BD 59 B3       JSR     $59B3
14814: BD F9 3C       JSR     $F93C
14817: BD FC 1E       JSR     $FC1E
1481A: BD 47 B9       JSR     $47B9
1481D: 24 06          BCC     $14825
1481F: 6F 88 38       CLR     56,X
14822: BD 5A 40       JSR     $5A40
L14825:
14825: BD 62 CD       JSR     $62CD
14828: 27 08          BEQ     $14832
1482A: BD 62 F3       JSR     $62F3
1482D: 27 03          BEQ     $14832
1482F: 6F 88 38       CLR     56,X
L14832:
14832: B6 0F 33       LDA     $0F33
14835: 81 05          CMPA    #$05
14837: 24 05          BCC     $1483E
14839: 86 02          LDA     #$02
1483B: A7 88 50       STA     80,X
L1483E:
1483E: A6 04          LDA     4,X
14840: 81 FF          CMPA    #$FF
14842: 26 04          BNE     $14848
14844: 86 40          LDA     #$40
14846: A7 0D          STA     13,X
L14848:
14848: 39             RTS
14849: 32 7F          LEAS    -1,S
1484B: 86 10          LDA     #$10
1484D: A7 0E          STA     14,X
1484F: BD 59 B3       JSR     $59B3
14852: BD F9 3C       JSR     $F93C
14855: BD FC 1E       JSR     $FC1E
14858: BD 47 B9       JSR     $47B9
1485B: 24 03          BCC     $14860
1485D: 6F 88 38       CLR     56,X
L14860:
14860: B6 0F 33       LDA     $0F33
14863: 81 08          CMPA    #$08
14865: 25 19          BCS     $14880
14867: BD 62 CD       JSR     $62CD
1486A: 26 08          BNE     $14874
1486C: BD 62 F3       JSR     $62F3
1486F: 26 03          BNE     $14874
14871: 6F 88 38       CLR     56,X
L14874:
14874: B6 0F 33       LDA     $0F33
14877: 81 20          CMPA    #$20
14879: 25 05          BCS     $14880
1487B: 86 03          LDA     #$03
1487D: A7 88 50       STA     80,X
L14880:
14880: A6 04          LDA     4,X
14882: 81 FF          CMPA    #$FF
14884: 26 04          BNE     $1488A
14886: 86 40          LDA     #$40
14888: A7 0D          STA     13,X
L1488A:
1488A: 32 61          LEAS    1,S
1488C: 39             RTS
1488D: 32 7F          LEAS    -1,S
1488F: BD 60 10       JSR     $6010
14892: 25 3E          BCS     $148D2
14894: A6 88 50       LDA     80,X
14897: 2B 08          BMI     $148A1
14899: 8A 80          ORA     #$80
1489B: A7 88 50       STA     80,X
1489E: BD 58 83       JSR     $5883
L148A1:
148A1: 86 10          LDA     #$10
148A3: A7 0E          STA     14,X
148A5: BD 59 B3       JSR     $59B3
148A8: BD F9 3C       JSR     $F93C
148AB: BD FC 1E       JSR     $FC1E
148AE: BD 47 B9       JSR     $47B9
148B1: 24 06          BCC     $148B9
148B3: 6F 88 38       CLR     56,X
148B6: BD 5A 40       JSR     $5A40
L148B9:
148B9: B6 0F 34       LDA     $0F34
148BC: 81 04          CMPA    #$04
148BE: 24 15          BCC     $148D5
148C0: BD 62 CD       JSR     $62CD
148C3: 26 03          BNE     $148C8
148C5: 6F 88 38       CLR     56,X
L148C8:
148C8: B6 0F 34       LDA     $0F34
148CB: 81 20          CMPA    #$20
148CD: 25 03          BCS     $148D2
148CF: 6F 88 38       CLR     56,X
L148D2:
148D2: 32 61          LEAS    1,S
148D4: 39             RTS
L148D5:
148D5: 81 40          CMPA    #$40
148D7: 25 F9          BCS     $148D2
148D9: 6F 88 38       CLR     56,X
148DC: 20 F4          BRA     $148D2
148DE: A6 88 21       LDA     33,X
148E1: 27 08          BEQ     $148EB
148E3: 81 01          CMPA    #$01
148E5: 27 04          BEQ     $148EB
148E7: 81 04          CMPA    #$04
148E9: 26 73          BNE     $1495E
L148EB:
148EB: A6 03          LDA     3,X
148ED: 2A 08          BPL     $148F7
148EF: A6 0D          LDA     13,X
148F1: 81 C0          CMPA    #$C0
148F3: 26 69          BNE     $1495E
148F5: 20 06          BRA     $148FD
L148F7:
148F7: A6 0D          LDA     13,X
148F9: 81 40          CMPA    #$40
148FB: 26 61          BNE     $1495E
L148FD:
148FD: A6 01          LDA     1,X
148FF: 81 07          CMPA    #$07
14901: 27 0A          BEQ     $1490D
14903: 81 08          CMPA    #$08
14905: 27 21          BEQ     $14928
14907: 81 09          CMPA    #$09
14909: 27 3C          BEQ     $14947
1490B: 20 51          BRA     $1495E
L1490D:
1490D: 10 8E 49 C0    LDY     #$49C0
14911: 86 08          LDA     #$08
14913: E6 88 58       LDB     88,X
14916: 3D             MUL
14917: 31 AB          LEAY    D,Y
14919: BD FB 76       JSR     $FB76
1491C: 84 07          ANDA    #$07
1491E: A6 A6          LDA     A,Y
14920: 27 3C          BEQ     $1495E
14922: 81 01          CMPA    #$01
14924: 27 39          BEQ     $1495F
14926: 20 52          BRA     $1497A
L14928:
14928: 10 8E 49 80    LDY     #$4980
1492C: 86 08          LDA     #$08
1492E: E6 88 58       LDB     88,X
14931: 3D             MUL
14932: 31 AB          LEAY    D,Y
14934: BD FB 76       JSR     $FB76
14937: 84 07          ANDA    #$07
14939: A6 A6          LDA     A,Y
1493B: 27 21          BEQ     $1495E
1493D: 81 01          CMPA    #$01
1493F: 27 1E          BEQ     $1495F
14941: 81 02          CMPA    #$02
14943: 27 23          BEQ     $14968
14945: 20 2A          BRA     $14971
L14947:
14947: 10 8E 49 A8    LDY     #$49A8
1494B: 86 08          LDA     #$08
1494D: E6 88 58       LDB     88,X
14950: 3D             MUL
14951: 31 AB          LEAY    D,Y
14953: BD FB 76       JSR     $FB76
14956: 84 07          ANDA    #$07
14958: A6 A6          LDA     A,Y
1495A: 27 02          BEQ     $1495E
1495C: 20 13          BRA     $14971
L1495E:
1495E: 39             RTS
L1495F:
1495F: 86 1C          LDA     #$1C
14961: A7 88 1B       STA     27,X
14964: 6F 88 55       CLR     85,X
14967: 39             RTS
L14968:
14968: 86 1D          LDA     #$1D
1496A: A7 88 1B       STA     27,X
1496D: 6F 88 57       CLR     87,X
14970: 39             RTS
L14971:
14971: 6F 88 4E       CLR     78,X
14974: 86 11          LDA     #$11
14976: A7 88 1B       STA     27,X
14979: 39             RTS
L1497A:
1497A: 86 22          LDA     #$22
1497C: A7 88 1B       STA     27,X
1497F: 39             RTS
14980: 00 00          NEG     <$00
14982: 00 00          NEG     <$00
14984: 00 00          NEG     <$00
14986: 00 00          NEG     <$00
14988: 00 01          NEG     <$01
1498A: 00 01          NEG     <$01
1498C: 01             FCB     $01
1498D: 01             FCB     $01
1498E: 00 01          NEG     <$01
14990: 01             FCB     $01
14991: 02             FCB     $02
14992: 01             FCB     $01
14993: 02             FCB     $02
14994: 01             FCB     $01
14995: 02             FCB     $02
14996: 01             FCB     $01
14997: 02             FCB     $02
14998: 01             FCB     $01
14999: 03 01          COM     <$01
1499B: 03 01          COM     <$01
1499D: 03 01          COM     <$01
1499F: 03 02          COM     <$02
149A1: 03 02          COM     <$02
149A3: 03 02          COM     <$02
149A5: 03 02          COM     <$02
149A7: 03 00          COM     <$00
149A9: 00 00          NEG     <$00
149AB: 00 00          NEG     <$00
149AD: 00 00          NEG     <$00
149AF: 00 03          NEG     <$03
149B1: 03 03          COM     <$03
149B3: 03 03          COM     <$03
149B5: 03 03          COM     <$03
149B7: 03 00          COM     <$00
149B9: 03 00          COM     <$00
149BB: 03 00          COM     <$00
149BD: 03 00          COM     <$00
149BF: 03 00          COM     <$00
149C1: 00 00          NEG     <$00
149C3: 00 00          NEG     <$00
149C5: 00 00          NEG     <$00
149C7: 00 00          NEG     <$00
149C9: 04 00          LSR     <$00
149CB: 00 00          NEG     <$00
149CD: 04 00          LSR     <$00
149CF: 04 04          LSR     <$04
149D1: 04 04          LSR     <$04
149D3: 04 04          LSR     <$04
149D5: 04 04          LSR     <$04
149D7: 04 BD          LSR     <$BD
149D9: 60 61          NEG     1,S
149DB: 24 01          BCC     $149DE
149DD: 39             RTS
L149DE:
149DE: BD 58 4E       JSR     $584E
149E1: A6 88 39       LDA     57,X
149E4: 84 7F          ANDA    #$7F
149E6: F6 0F 33       LDB     $0F33
149E9: 10 8E 4A 00    LDY     #$4A00
149ED: 48             ASLA
149EE: 48             ASLA
149EF: 4C             INCA
149F0: E1 A6          CMPB    A,Y
149F2: 24 08          BCC     $149FC
149F4: 4C             INCA
149F5: E1 A6          CMPB    A,Y
149F7: 24 06          BCC     $149FF
149F9: BD 58 61       JSR     $5861
L149FC:
149FC: 7E 44 B4       JMP     $44B4
L149FF:
149FF: 39             RTS
14A00: 60 38          NEG     -8,Y
14A02: 28 2C          BVC     $14A30
14A04: 68 40          ASL     ,U
14A06: 30 30          LEAX    -16,Y
14A08: 60 38          NEG     -8,Y
14A0A: 28 2C          BVC     $14A38
14A0C: 68 40          ASL     ,U
14A0E: 30 30          LEAX    -16,Y
14A10: 70 48 38       NEG     $4838
14A13: 34 78          PSHS    DP,X,Y,U
14A15: 50             NEGB
14A16: 40             NEGA
14A17: 3C B6          CWAI    #$B6
14A19: 0F 33          CLR     <$33
14A1B: 81 90          CMPA    #$90
14A1D: 24 13          BCC     $14A32
14A1F: BD 58 4E       JSR     $584E
14A22: BD 58 61       JSR     $5861
14A25: 96 55          LDA     <$55
14A27: 48             ASLA
14A28: 8B 1A          ADDA    #$1A
14A2A: A7 0E          STA     14,X
14A2C: BD 44 BB       JSR     $44BB
14A2F: BD 45 00       JSR     $4500
L14A32:
14A32: 39             RTS
14A33: 6F 88 38       CLR     56,X
14A36: 39             RTS
14A37: 32 7F          LEAS    -1,S
14A39: 10 BE 0F 36    LDY     $0F36
14A3D: A6 A8 1B       LDA     27,Y
14A40: 84 3F          ANDA    #$3F
14A42: 81 05          CMPA    #$05
14A44: 26 17          BNE     $14A5D
14A46: BD 58 4E       JSR     $584E
14A49: BD 58 61       JSR     $5861
14A4C: BD 44 B4       JSR     $44B4
14A4F: B6 0A AD       LDA     $0AAD
14A52: 8B 28          ADDA    #$28
14A54: 97 00          STA     <$00
14A56: B6 0F 33       LDA     $0F33
14A59: 91 00          CMPA    <$00
14A5B: 25 05          BCS     $14A62
L14A5D:
14A5D: 86 04          LDA     #$04
14A5F: A7 88 38       STA     56,X
L14A62:
14A62: 32 61          LEAS    1,S
14A64: 39             RTS
14A65: 96 36          LDA     <$36
14A67: 81 03          CMPA    #$03
14A69: 27 4E          BEQ     $14AB9
14A6B: 86 80          LDA     #$80
14A6D: A7 0D          STA     13,X
14A6F: A6 88 16       LDA     22,X
14A72: 8A 08          ORA     #$08
14A74: A7 88 16       STA     22,X
14A77: 96 55          LDA     <$55
14A79: 48             ASLA
14A7A: 8B 0E          ADDA    #$0E
14A7C: A7 0E          STA     14,X
14A7E: 96 36          LDA     <$36
14A80: 10 8E 4B 40    LDY     #$4B40
14A84: 48             ASLA
14A85: EC A6          LDD     A,Y
14A87: 10 A3 06       CMPD    6,X
14A8A: 25 04          BCS     $14A90
14A8C: 86 C0          LDA     #$C0
14A8E: A7 0D          STA     13,X
L14A90:
14A90: BD 5A 4E       JSR     $5A4E
14A93: 25 09          BCS     $14A9E
14A95: BD 59 B3       JSR     $59B3
14A98: BD F9 3C       JSR     $F93C
14A9B: BD FC 1E       JSR     $FC1E
L14A9E:
14A9E: DC 3C          LDD     <$3C
14AA0: C3 FF F0       ADDD    #$FFF0
14AA3: 10 A3 04       CMPD    4,X
14AA6: 25 10          BCS     $14AB8
14AA8: BD 4B 46       JSR     $4B46
14AAB: 6F 84          CLR     ,X
14AAD: 7A 0A AC       DEC     $0AAC
14AB0: A6 88 45       LDA     69,X
14AB3: 27 03          BEQ     $14AB8
14AB5: 7A 0B 72       DEC     $0B72
L14AB8:
14AB8: 39             RTS
L14AB9:
14AB9: 32 7D          LEAS    -3,S
14ABB: B6 0B A9       LDA     $0BA9
14ABE: 85 40          BITA    #$40
14AC0: 26 09          BNE     $14ACB
14AC2: 85 01          BITA    #$01
14AC4: 26 05          BNE     $14ACB
14AC6: 8A 80          ORA     #$80
14AC8: B7 0B A9       STA     $0BA9
L14ACB:
14ACB: 86 10          LDA     #$10
14ACD: A7 0E          STA     14,X
14ACF: 86 40          LDA     #$40
14AD1: A7 E4          STA     ,S
14AD3: EC 04          LDD     4,X
14AD5: 10 83 1A D0    CMPD    #$1AD0
14AD9: 25 04          BCS     $14ADF
14ADB: 86 C0          LDA     #$C0
14ADD: A7 E4          STA     ,S
L14ADF:
14ADF: A6 E4          LDA     ,S
14AE1: A7 0D          STA     13,X
14AE3: EC 04          LDD     4,X
14AE5: 83 1A D0       SUBD    #$1AD0
14AE8: 2A 07          BPL     $14AF1
14AEA: ED E4          STD     ,S
14AEC: CC 00 00       LDD     #$0000
14AEF: A3 E4          SUBD    ,S
L14AF1:
14AF1: 10 83 00 08    CMPD    #$0008
14AF5: 24 2C          BCC     $14B23
14AF7: 5F             CLRB
14AF8: B6 0B A9       LDA     $0BA9
14AFB: 85 40          BITA    #$40
14AFD: 26 06          BNE     $14B05
14AFF: 85 01          BITA    #$01
14B01: 27 02          BEQ     $14B05
14B03: C6 10          LDB     #$10
L14B05:
14B05: E7 0E          STB     14,X
14B07: 86 00          LDA     #$00
14B09: A7 0D          STA     13,X
14B0B: EC 06          LDD     6,X
14B0D: 10 83 00 A8    CMPD    #$00A8
14B11: 25 10          BCS     $14B23
14B13: BD 4B 46       JSR     $4B46
14B16: 6F 84          CLR     ,X
14B18: 7A 0A AC       DEC     $0AAC
14B1B: A6 88 45       LDA     69,X
14B1E: 27 03          BEQ     $14B23
14B20: 7A 0B 72       DEC     $0B72
L14B23:
14B23: 7D 0A AC       TST     $0AAC
14B26: 26 0C          BNE     $14B34
14B28: B6 0B A9       LDA     $0BA9
14B2B: 85 01          BITA    #$01
14B2D: 27 05          BEQ     $14B34
14B2F: 8A 80          ORA     #$80
14B31: B7 0B A9       STA     $0BA9
L14B34:
14B34: BD FB 58       JSR     $FB58
14B37: BD F9 3C       JSR     $F93C
14B3A: BD FC 1E       JSR     $FC1E
14B3D: 32 63          LEAS    3,S
14B3F: 39             RTS
14B40: 01             FCB     $01
14B41: 20 01          BRA     $14B44
14B43: 03 00          COM     <$00
14B45: F0 34 66       SUBB    $3466
14B48: A6 88 21       LDA     33,X
14B4B: 27 2B          BEQ     $14B78
14B4D: 81 07          CMPA    #$07
14B4F: 24 16          BCC     $14B67
14B51: EE 88 41       LDU     65,X
14B54: 10 8E 4B 7A    LDY     #$4B7A
14B58: A6 A6          LDA     A,Y
14B5A: 81 FF          CMPA    #$FF
14B5C: 27 09          BEQ     $14B67
14B5E: 10 8E 4B 81    LDY     #$4B81
14B62: 10 AE A6       LDY     A,Y
14B65: 6A A4          DEC     ,Y
L14B67:
14B67: CC 00 00       LDD     #$0000
14B6A: A7 C4          STA     ,U
14B6C: ED C8 1F       STD     31,U
14B6F: A7 C8 16       STA     22,U
14B72: ED 88 41       STD     65,X
14B75: A7 88 21       STA     33,X
L14B78:
14B78: 35 E6          PULS    A,B,Y,U,PC
14B7A: FF 00 FF       STU     $00FF
14B7D: 04 06          LSR     <$06
14B7F: 02             FCB     $02
14B80: 08 0F          ASL     <$0F
14B82: 22 0F          BHI     $14B93
14B84: 23 0F          BLS     $14B95
14B86: 24 0F          BCC     $14B97
14B88: 25 0F          BCS     $14B99
14B8A: 26 A6          BNE     $14B32
14B8C: 88 38          EORA    #$38
14B8E: 2B 33          BMI     $14BC3
14B90: 8A 80          ORA     #$80
14B92: A7 88 38       STA     56,X
L14B95:
14B95: 6C 88 52       INC     82,X
14B98: A6 88 52       LDA     82,X
14B9B: 81 04          CMPA    #$04
14B9D: 25 14          BCS     $14BB3
14B9F: 6F 88 52       CLR     82,X
14BA2: BD FB 76       JSR     $FB76
14BA5: 84 8F          ANDA    #$8F
14BA7: 1F 89          TFR     A,B
14BA9: C4 0F          ANDB    #$0F
14BAB: 4D             TSTA
14BAC: 2A 01          BPL     $14BAF
14BAE: 50             NEGB
L14BAF:
14BAF: EB 0D          ADDB    13,X
14BB1: E7 0D          STB     13,X
L14BB3:
14BB3: 10 8E 4B F0    LDY     #$4BF0
14BB7: E6 A6          LDB     A,Y
14BB9: A7 88 54       STA     84,X
14BBC: D6 55          LDB     <$55
14BBE: 58             ASLB
14BBF: CB 0E          ADDB    #$0E
14BC1: E7 0E          STB     14,X
L14BC3:
14BC3: 6A 88 54       DEC     84,X
14BC6: 27 0E          BEQ     $14BD6
14BC8: B6 0F 33       LDA     $0F33
14BCB: 81 14          CMPA    #$14
14BCD: 25 07          BCS     $14BD6
14BCF: B6 0F 34       LDA     $0F34
14BD2: 81 14          CMPA    #$14
14BD4: 25 05          BCS     $14BDB
L14BD6:
14BD6: 86 00          LDA     #$00
14BD8: A7 88 38       STA     56,X
L14BDB:
14BDB: BD 5A 4E       JSR     $5A4E
14BDE: 25 0F          BCS     $14BEF
14BE0: BD 59 B3       JSR     $59B3
14BE3: BD F9 3C       JSR     $F93C
14BE6: BD FC 1E       JSR     $FC1E
14BE9: BD 5B A3       JSR     $5BA3
14BEC: BD FB A8       JSR     $FBA8
L14BEF:
14BEF: 39             RTS
14BF0: 18             FCB     $18
14BF1: 10 08          FCB     $10,$08
14BF3: 02             FCB     $02
14BF4: 32 7E          LEAS    -2,S
14BF6: 86 40          LDA     #$40
14BF8: 97 00          STA     <$00
14BFA: EC 04          LDD     4,X
14BFC: 10 83 10 00    CMPD    #$1000
14C00: 25 0A          BCS     $14C0C
14C02: 10 83 10 20    CMPD    #$1020
14C06: 25 17          BCS     $14C1F
14C08: 86 C0          LDA     #$C0
14C0A: 97 00          STA     <$00
L14C0C:
14C0C: 96 00          LDA     <$00
14C0E: A7 0D          STA     13,X
14C10: 86 10          LDA     #$10
14C12: A7 0E          STA     14,X
14C14: BD 59 B3       JSR     $59B3
14C17: BD F9 3C       JSR     $F93C
14C1A: BD FC 1E       JSR     $FC1E
14C1D: 20 42          BRA     $14C61
L14C1F:
14C1F: 86 80          LDA     #$80
14C21: A7 0D          STA     13,X
14C23: 86 10          LDA     #$10
14C25: A7 0E          STA     14,X
14C27: BD 59 B3       JSR     $59B3
14C2A: BD F9 3C       JSR     $F93C
14C2D: BD FC 1E       JSR     $FC1E
14C30: B6 0C 26       LDA     $0C26
14C33: 81 03          CMPA    #$03
14C35: 27 07          BEQ     $14C3E
14C37: B6 0C 29       LDA     $0C29
14C3A: 84 F0          ANDA    #$F0
14C3C: 27 23          BEQ     $14C61
L14C3E:
14C3E: 86 03          LDA     #$03
14C40: A7 88 37       STA     55,X
14C43: 86 12          LDA     #$12
14C45: A7 88 1B       STA     27,X
14C48: A6 88 31       LDA     49,X
14C4B: 8A 10          ORA     #$10
14C4D: A7 88 31       STA     49,X
14C50: 10 8E 03 A2    LDY     #$03A2
14C54: A6 84          LDA     ,X
14C56: 84 C0          ANDA    #$C0
14C58: 26 03          BNE     $14C5D
14C5A: 31 A8 5F       LEAY    95,Y
L14C5D:
14C5D: 10 AF 88 2D    STY     45,X
L14C61:
14C61: B6 03 D3       LDA     $03D3
14C64: BA 04 32       ORA     $0432
14C67: 84 08          ANDA    #$08
14C69: 27 03          BEQ     $14C6E
14C6B: 6F 88 38       CLR     56,X
L14C6E:
14C6E: 32 62          LEAS    2,S
14C70: 39             RTS
14C71: A6 01          LDA     1,X
14C73: 97 04          STA     <$04
14C75: 81 08          CMPA    #$08
14C77: 27 06          BEQ     $14C7F
14C79: 81 07          CMPA    #$07
14C7B: 10 26 00 84    LBNE    $14D03
L14C7F:
14C7F: A6 03          LDA     3,X
14C81: 2A 08          BPL     $14C8B
14C83: A6 0D          LDA     13,X
14C85: 81 C0          CMPA    #$C0
14C87: 26 7A          BNE     $14D03
14C89: 20 06          BRA     $14C91
L14C8B:
14C8B: A6 0D          LDA     13,X
14C8D: 81 40          CMPA    #$40
14C8F: 26 72          BNE     $14D03
L14C91:
14C91: A6 88 21       LDA     33,X
14C94: 27 08          BEQ     $14C9E
14C96: 81 01          CMPA    #$01
14C98: 27 04          BEQ     $14C9E
14C9A: 81 04          CMPA    #$04
14C9C: 26 65          BNE     $14D03
L14C9E:
14C9E: 96 04          LDA     <$04
14CA0: 81 08          CMPA    #$08
14CA2: 27 1E          BEQ     $14CC2
14CA4: B6 0F 34       LDA     $0F34
14CA7: 81 08          CMPA    #$08
14CA9: 24 58          BCC     $14D03
14CAB: B6 0F 33       LDA     $0F33
14CAE: 81 38          CMPA    #$38
14CB0: 25 51          BCS     $14D03
14CB2: 81 58          CMPA    #$58
14CB4: 24 4D          BCC     $14D03
14CB6: 86 07          LDA     #$07
14CB8: A7 88 1B       STA     27,X
14CBB: 86 02          LDA     #$02
14CBD: A7 88 1E       STA     30,X
14CC0: 20 3E          BRA     $14D00
L14CC2:
14CC2: A6 88 39       LDA     57,X
14CC5: 84 7F          ANDA    #$7F
14CC7: 26 3A          BNE     $14D03
14CC9: B6 0F 34       LDA     $0F34
14CCC: 81 08          CMPA    #$08
14CCE: 24 33          BCC     $14D03
14CD0: B6 0F 33       LDA     $0F33
14CD3: 81 48          CMPA    #$48
14CD5: 25 2C          BCS     $14D03
14CD7: A6 88 58       LDA     88,X
14CDA: 27 27          BEQ     $14D03
14CDC: 81 01          CMPA    #$01
14CDE: 27 0E          BEQ     $14CEE
14CE0: 81 03          CMPA    #$03
14CE2: 27 0A          BEQ     $14CEE
14CE4: 81 04          CMPA    #$04
14CE6: 27 13          BEQ     $14CFB
14CE8: 96 51          LDA     <$51
14CEA: 84 01          ANDA    #$01
14CEC: 27 0D          BEQ     $14CFB
L14CEE:
14CEE: 86 1C          LDA     #$1C
14CF0: A7 88 1B       STA     27,X
14CF3: 4F             CLRA
14CF4: 8A 80          ORA     #$80
14CF6: A7 88 55       STA     85,X
14CF9: 20 05          BRA     $14D00
L14CFB:
14CFB: 86 1D          LDA     #$1D
14CFD: A7 88 1B       STA     27,X
L14D00:
14D00: 1A 01          ORCC    #$01
14D02: 39             RTS
L14D03:
14D03: 1C FE          ANDCC   #$FE
14D05: 39             RTS
14D06: BD 4F 0C       JSR     $4F0C
14D09: 10 25 00 8E    LBCS    $14D9B
14D0D: A6 0D          LDA     13,X
14D0F: 81 C0          CMPA    #$C0
14D11: 27 06          BEQ     $14D19
14D13: 81 40          CMPA    #$40
14D15: 10 26 00 82    LBNE    $14D9B
L14D19:
14D19: A6 88 55       LDA     85,X
14D1C: 2A 19          BPL     $14D37
14D1E: B6 0F 33       LDA     $0F33
14D21: 81 30          CMPA    #$30
14D23: 24 12          BCC     $14D37
14D25: B6 0F 34       LDA     $0F34
14D28: 81 08          CMPA    #$08
14D2A: 24 0B          BCC     $14D37
14D2C: 86 07          LDA     #$07
14D2E: A7 88 1B       STA     27,X
14D31: 86 01          LDA     #$01
14D33: A7 88 1E       STA     30,X
14D36: 39             RTS
L14D37:
14D37: 10 8E 4D C3    LDY     #$4DC3
14D3B: A6 88 1B       LDA     27,X
14D3E: 2B 0E          BMI     $14D4E
14D40: BD FE 64       JSR     $FE64
14D43: A6 A0          LDA     ,Y+
14D45: AA 03          ORA     3,X
14D47: A7 02          STA     2,X
14D49: A6 A4          LDA     ,Y
14D4B: A7 88 19       STA     25,X
L14D4E:
14D4E: 6A 88 19       DEC     25,X
14D51: 26 1E          BNE     $14D71
14D53: 6C 88 18       INC     24,X
14D56: A6 88 18       LDA     24,X
14D59: 81 06          CMPA    #$06
14D5B: 24 0F          BCC     $14D6C
14D5D: 48             ASLA
14D5E: E6 A6          LDB     A,Y
14D60: EA 03          ORB     3,X
14D62: E7 02          STB     2,X
14D64: 4C             INCA
14D65: E6 A6          LDB     A,Y
14D67: E7 88 19       STB     25,X
14D6A: 20 05          BRA     $14D71
L14D6C:
14D6C: 86 1C          LDA     #$1C
14D6E: A7 88 1B       STA     27,X
L14D71:
14D71: BD 59 B3       JSR     $59B3
14D74: B6 0C 27       LDA     $0C27
14D77: 26 1F          BNE     $14D98
14D79: B6 0C 29       LDA     $0C29
14D7C: 27 1A          BEQ     $14D98
14D7E: A6 88 55       LDA     85,X
14D81: 2A 09          BPL     $14D8C
14D83: B6 0F 33       LDA     $0F33
14D86: 81 28          CMPA    #$28
14D88: 25 11          BCS     $14D9B
14D8A: 20 17          BRA     $14DA3
L14D8C:
14D8C: 6C 88 55       INC     85,X
14D8F: A6 88 55       LDA     85,X
14D92: 81 10          CMPA    #$10
14D94: 24 05          BCC     $14D9B
14D96: 20 0B          BRA     $14DA3
L14D98:
14D98: BD 5A 40       JSR     $5A40
L14D9B:
14D9B: 6F 88 38       CLR     56,X
14D9E: 86 00          LDA     #$00
14DA0: A7 88 1B       STA     27,X
L14DA3:
14DA3: A6 01          LDA     1,X
14DA5: 81 0B          CMPA    #$0B
14DA7: 27 05          BEQ     $14DAE
14DA9: 86 20          LDA     #$20
14DAB: A7 0E          STA     14,X
14DAD: 39             RTS
L14DAE:
14DAE: A6 88 18       LDA     24,X
14DB1: 81 01          CMPA    #$01
14DB3: 27 09          BEQ     $14DBE
14DB5: 81 04          CMPA    #$04
14DB7: 27 05          BEQ     $14DBE
14DB9: 86 14          LDA     #$14
14DBB: A7 0E          STA     14,X
14DBD: 39             RTS
L14DBE:
14DBE: 86 08          LDA     #$08
14DC0: A7 0E          STA     14,X
14DC2: 39             RTS
14DC3: 72             FCB     $72
14DC4: 03 73          COM     <$73
14DC6: 03 74          COM     <$74
14DC8: 03 75          COM     <$75
14DCA: 03 76          COM     <$76
14DCC: 03 77          COM     <$77
14DCE: 03 BD          COM     <$BD
14DD0: 4F             CLRA
14DD1: 0C 10          INC     <$10
14DD3: 25 00          BCS     $14DD5
L14DD5:
14DD5: CF             FCB     $CF
14DD6: 0F 00          CLR     <$00
14DD8: A6 88 38       LDA     56,X
14DDB: 84 0F          ANDA    #$0F
14DDD: 81 06          CMPA    #$06
14DDF: 27 40          BEQ     $14E21
14DE1: 81 0E          CMPA    #$0E
14DE3: 27 3C          BEQ     $14E21
14DE5: A6 88 18       LDA     24,X
14DE8: 81 04          CMPA    #$04
14DEA: 26 35          BNE     $14E21
14DEC: B6 0F 33       LDA     $0F33
14DEF: 81 30          CMPA    #$30
14DF1: 24 13          BCC     $14E06
14DF3: B6 0F 34       LDA     $0F34
14DF6: 81 10          CMPA    #$10
14DF8: 24 0C          BCC     $14E06
14DFA: 86 07          LDA     #$07
14DFC: A7 88 1B       STA     27,X
14DFF: 86 01          LDA     #$01
14E01: A7 88 1E       STA     30,X
14E04: 0C 00          INC     <$00
L14E06:
14E06: A6 03          LDA     3,X
14E08: 2A 09          BPL     $14E13
14E0A: EC 04          LDD     4,X
14E0C: 83 00 00       SUBD    #$0000
14E0F: ED 04          STD     4,X
14E11: 20 07          BRA     $14E1A
L14E13:
14E13: EC 04          LDD     4,X
14E15: C3 00 00       ADDD    #$0000
14E18: ED 04          STD     4,X
L14E1A:
14E1A: 96 00          LDA     <$00
14E1C: 10 27 00 85    LBEQ    $14EA5
14E20: 39             RTS
L14E21:
14E21: 10 8E 4E C9    LDY     #$4EC9
14E25: A6 88 1B       LDA     27,X
14E28: 2B 1B          BMI     $14E45
14E2A: BD FE 64       JSR     $FE64
14E2D: A6 A0          LDA     ,Y+
14E2F: AA 03          ORA     3,X
14E31: A7 02          STA     2,X
14E33: A6 A4          LDA     ,Y
14E35: A7 88 19       STA     25,X
14E38: BD 59 B3       JSR     $59B3
14E3B: B6 0C 27       LDA     $0C27
14E3E: 26 62          BNE     $14EA2
14E40: B6 0C 29       LDA     $0C29
14E43: 27 5D          BEQ     $14EA2
L14E45:
14E45: 6A 88 19       DEC     25,X
14E48: 26 34          BNE     $14E7E
14E4A: 6C 88 18       INC     24,X
14E4D: A6 88 18       LDA     24,X
14E50: 81 04          CMPA    #$04
14E52: 26 0F          BNE     $14E63
14E54: BD 59 B3       JSR     $59B3
14E57: B6 0C 27       LDA     $0C27
14E5A: 26 46          BNE     $14EA2
14E5C: B6 0C 29       LDA     $0C29
14E5F: 27 41          BEQ     $14EA2
14E61: 20 04          BRA     $14E67
L14E63:
14E63: 81 06          CMPA    #$06
14E65: 24 12          BCC     $14E79
L14E67:
14E67: A6 88 18       LDA     24,X
14E6A: 48             ASLA
14E6B: E6 A6          LDB     A,Y
14E6D: EA 03          ORB     3,X
14E6F: E7 02          STB     2,X
14E71: 4C             INCA
14E72: E6 A6          LDB     A,Y
14E74: E7 88 19       STB     25,X
14E77: 20 05          BRA     $14E7E
L14E79:
14E79: 86 1D          LDA     #$1D
14E7B: A7 88 1B       STA     27,X
L14E7E:
14E7E: A6 88 18       LDA     24,X
14E81: 81 05          CMPA    #$05
14E83: 26 3F          BNE     $14EC4
14E85: B6 0F 33       LDA     $0F33
14E88: 81 20          CMPA    #$20
14E8A: 24 19          BCC     $14EA5
14E8C: 20 36          BRA     $14EC4
14E8E: A6 03          LDA     3,X
14E90: 2B 09          BMI     $14E9B
14E92: EC 04          LDD     4,X
14E94: 83 00 00       SUBD    #$0000
14E97: ED 04          STD     4,X
14E99: 20 0A          BRA     $14EA5
L14E9B:
14E9B: EC 04          LDD     4,X
14E9D: C3 00 00       ADDD    #$0000
14EA0: ED 04          STD     4,X
L14EA2:
14EA2: BD 5A 40       JSR     $5A40
L14EA5:
14EA5: 6F 88 38       CLR     56,X
14EA8: 86 00          LDA     #$00
14EAA: A7 88 1B       STA     27,X
14EAD: 10 BE 0F 36    LDY     $0F36
14EB1: A6 27          LDA     7,Y
14EB3: A1 07          CMPA    7,X
14EB5: 24 08          BCC     $14EBF
14EB7: 86 07          LDA     #$07
14EB9: AA 03          ORA     3,X
14EBB: A7 02          STA     2,X
14EBD: 20 05          BRA     $14EC4
L14EBF:
14EBF: 4F             CLRA
14EC0: 8A 80          ORA     #$80
14EC2: A7 02          STA     2,X
L14EC4:
14EC4: 86 00          LDA     #$00
14EC6: A7 0E          STA     14,X
14EC8: 39             RTS
14EC9: 6A 03          DEC     3,X
14ECB: 6B             FCB     $6B
14ECC: 03 6C          COM     <$6C
14ECE: 03 6D          COM     <$6D
14ED0: 03 6E          COM     <$6E
14ED2: 03 6F          COM     <$6F
14ED4: 03 A6          COM     <$A6
14ED6: 03 2B          COM     <$2B
14ED8: 17 A6 88       LBSR    $F563
14EDB: 18             FCB     $18
14EDC: 26 09          BNE     $14EE7
14EDE: EC 04          LDD     4,X
14EE0: C3 00 18       ADDD    #$0018
14EE3: ED 04          STD     4,X
14EE5: 20 1F          BRA     $14F06
L14EE7:
14EE7: EC 04          LDD     4,X
14EE9: C3 00 30       ADDD    #$0030
14EEC: ED 04          STD     4,X
14EEE: 20 1B          BRA     $14F0B
14EF0: A6 88 18       LDA     24,X
14EF3: 26 09          BNE     $14EFE
14EF5: EC 04          LDD     4,X
14EF7: 83 00 18       SUBD    #$0018
14EFA: ED 04          STD     4,X
14EFC: 20 08          BRA     $14F06
L14EFE:
14EFE: EC 04          LDD     4,X
14F00: 83 00 30       SUBD    #$0030
14F03: ED 04          STD     4,X
14F05: 39             RTS
L14F06:
14F06: 86 2E          LDA     #$2E
14F08: BD 6B DF       JSR     $6BDF
L14F0B:
14F0B: 39             RTS
14F0C: EC 04          LDD     4,X
14F0E: 10 83 00 20    CMPD    #$0020
14F12: 24 0B          BCC     $14F1F
14F14: 6F 88 38       CLR     56,X
14F17: 86 00          LDA     #$00
14F19: A7 88 1B       STA     27,X
14F1C: 1A 01          ORCC    #$01
14F1E: 39             RTS
L14F1F:
14F1F: 1C FE          ANDCC   #$FE
14F21: 39             RTS
14F22: BD 4C 71       JSR     $4C71
14F25: 10 25 00 91    LBCS    $14FBA
14F29: BD FB 94       JSR     $FB94
14F2C: 10 25 00 8A    LBCS    $14FBA
14F30: BD FB 9E       JSR     $FB9E
14F33: 10 8E 4F BD    LDY     #$4FBD
14F37: A6 88 1B       LDA     27,X
14F3A: 2B 0E          BMI     $14F4A
14F3C: BD FE 64       JSR     $FE64
14F3F: A6 A0          LDA     ,Y+
14F41: AA 03          ORA     3,X
14F43: A7 02          STA     2,X
14F45: A6 A4          LDA     ,Y
14F47: A7 88 19       STA     25,X
L14F4A:
14F4A: 6A 88 19       DEC     25,X
14F4D: 26 32          BNE     $14F81
14F4F: 6C 88 18       INC     24,X
14F52: A6 88 18       LDA     24,X
14F55: 81 01          CMPA    #$01
14F57: 27 09          BEQ     $14F62
14F59: 81 03          CMPA    #$03
14F5B: 25 08          BCS     $14F65
14F5D: BD 4F C3       JSR     $4FC3
14F60: 20 15          BRA     $14F77
L14F62:
14F62: BD 4F C3       JSR     $4FC3
L14F65:
14F65: A6 88 18       LDA     24,X
14F68: 48             ASLA
14F69: E6 A6          LDB     A,Y
14F6B: EA 03          ORB     3,X
14F6D: E7 02          STB     2,X
14F6F: 4C             INCA
14F70: E6 A6          LDB     A,Y
14F72: E7 88 19       STB     25,X
14F75: 20 0A          BRA     $14F81
L14F77:
14F77: 86 21          LDA     #$21
14F79: A7 88 1B       STA     27,X
14F7C: 4F             CLRA
14F7D: AA 03          ORA     3,X
14F7F: A7 02          STA     2,X
L14F81:
14F81: BD 59 B3       JSR     $59B3
14F84: B6 0F 34       LDA     $0F34
14F87: 81 04          CMPA    #$04
14F89: 24 27          BCC     $14FB2
14F8B: B6 0C 27       LDA     $0C27
14F8E: 26 22          BNE     $14FB2
14F90: B6 0F 33       LDA     $0F33
14F93: 81 10          CMPA    #$10
14F95: 25 1B          BCS     $14FB2
14F97: 10 BE 0F 36    LDY     $0F36
14F9B: EC 24          LDD     4,Y
14F9D: 10 A3 04       CMPD    4,X
14FA0: 24 08          BCC     $14FAA
14FA2: A6 0D          LDA     13,X
14FA4: 81 C0          CMPA    #$C0
14FA6: 26 0A          BNE     $14FB2
14FA8: 20 10          BRA     $14FBA
L14FAA:
14FAA: A6 0D          LDA     13,X
14FAC: 81 40          CMPA    #$40
14FAE: 26 02          BNE     $14FB2
14FB0: 20 08          BRA     $14FBA
L14FB2:
14FB2: 6F 88 38       CLR     56,X
14FB5: 86 00          LDA     #$00
14FB7: A7 88 1B       STA     27,X
L14FBA:
14FBA: 6F 0E          CLR     14,X
14FBC: 39             RTS
14FBD: 00 05          NEG     <$05
14FBF: 01             FCB     $01
14FC0: 04 02          LSR     <$02
14FC2: 06 A6          ROR     <$A6
14FC4: 03 2B          COM     <$2B
14FC6: 19             DAA
14FC7: A6 88 18       LDA     24,X
14FCA: 81 01          CMPA    #$01
14FCC: 26 09          BNE     $14FD7
14FCE: EC 04          LDD     4,X
14FD0: C3 00 0F       ADDD    #$000F
14FD3: ED 04          STD     4,X
14FD5: 20 20          BRA     $14FF7
L14FD7:
14FD7: EC 04          LDD     4,X
14FD9: C3 00 0E       ADDD    #$000E
14FDC: ED 04          STD     4,X
14FDE: 20 17          BRA     $14FF7
14FE0: A6 88 18       LDA     24,X
14FE3: 81 01          CMPA    #$01
14FE5: 26 09          BNE     $14FF0
14FE7: EC 04          LDD     4,X
14FE9: 83 00 0F       SUBD    #$000F
14FEC: ED 04          STD     4,X
14FEE: 20 07          BRA     $14FF7
L14FF0:
14FF0: EC 04          LDD     4,X
14FF2: 83 00 0E       SUBD    #$000E
14FF5: ED 04          STD     4,X
L14FF7:
14FF7: 39             RTS
14FF8: 10 8E 50 9F    LDY     #$509F
14FFC: A6 88 38       LDA     56,X
14FFF: 84 0F          ANDA    #$0F
15001: 81 06          CMPA    #$06
15003: 26 04          BNE     $15009
15005: 10 8E 50 AB    LDY     #$50AB
L15009:
15009: A6 88 1B       LDA     27,X
1500C: 2B 35          BMI     $15043
1500E: BD FE 64       JSR     $FE64
15011: CC 02 A0       LDD     #$02A0
15014: ED 0F          STD     15,X
15016: CC 06 00       LDD     #$0600
15019: ED 88 11       STD     17,X
1501C: CC 00 80       LDD     #$0080
1501F: ED 0D          STD     13,X
15021: A6 84          LDA     ,X
15023: 84 F0          ANDA    #$F0
15025: 8A 02          ORA     #$02
15027: A7 84          STA     ,X
15029: A6 A0          LDA     ,Y+
1502B: AA 03          ORA     3,X
1502D: A7 02          STA     2,X
1502F: A6 A4          LDA     ,Y
15031: A7 88 19       STA     25,X
15034: A6 88 15       LDA     21,X
15037: 8A 40          ORA     #$40
15039: A7 88 15       STA     21,X
1503C: 6D 03          TST     3,X
1503E: 2A 03          BPL     $15043
15040: BD FB 6C       JSR     $FB6C
L15043:
15043: 6A 88 19       DEC     25,X
15046: 26 2D          BNE     $15075
15048: A6 88 18       LDA     24,X
1504B: 81 06          CMPA    #$06
1504D: 24 16          BCC     $15065
1504F: 4C             INCA
15050: A7 88 18       STA     24,X
15053: 81 04          CMPA    #$04
15055: 26 0E          BNE     $15065
15057: A6 88 38       LDA     56,X
1505A: 84 0F          ANDA    #$0F
1505C: 81 06          CMPA    #$06
1505E: 27 05          BEQ     $15065
15060: 86 3A          LDA     #$3A
15062: BD 6B DF       JSR     $6BDF
L15065:
15065: A6 88 18       LDA     24,X
15068: 48             ASLA
15069: E6 A6          LDB     A,Y
1506B: EA 03          ORB     3,X
1506D: E7 02          STB     2,X
1506F: 4C             INCA
15070: E6 A6          LDB     A,Y
15072: E7 88 19       STB     25,X
L15075:
15075: BD 59 B3       JSR     $59B3
15078: BD 5A 2C       JSR     $5A2C
1507B: B6 0C 29       LDA     $0C29
1507E: 84 F0          ANDA    #$F0
15080: 26 07          BNE     $15089
15082: B6 0C 28       LDA     $0C28
15085: 84 F0          ANDA    #$F0
15087: 27 15          BEQ     $1509E
L15089:
15089: 86 04          LDA     #$04
1508B: A7 88 1B       STA     27,X
1508E: A6 84          LDA     ,X
15090: 84 F0          ANDA    #$F0
15092: 8A 01          ORA     #$01
15094: A7 84          STA     ,X
15096: A6 88 15       LDA     21,X
15099: 84 BF          ANDA    #$BF
1509B: A7 88 15       STA     21,X
L1509E:
1509E: 39             RTS
1509F: 11 03          FCB     $11,$03
150A1: 12             NOP
150A2: 03 13          COM     <$13
150A4: 03 16          COM     <$16
150A6: 03 17          COM     <$17
150A8: 08 15          ASL     <$15
150AA: 06 11          ROR     <$11
150AC: 03 12          COM     <$12
150AE: 03 13          COM     <$13
150B0: 03 14          COM     <$14
150B2: 03 15          COM     <$15
150B4: 03 15          COM     <$15
150B6: 08 A6          ASL     <$A6
150B8: 88 1B          EORA    #$1B
150BA: 2B 10          BMI     $150CC
150BC: BD FE 64       JSR     $FE64
150BF: 6F 0E          CLR     14,X
150C1: 86 05          LDA     #$05
150C3: AA 03          ORA     3,X
150C5: A7 02          STA     2,X
150C7: 86 05          LDA     #$05
150C9: A7 88 57       STA     87,X
L150CC:
150CC: 6C 88 19       INC     25,X
150CF: A6 88 19       LDA     25,X
150D2: E6 88 18       LDB     24,X
150D5: C1 0C          CMPB    #$0C
150D7: 27 0A          BEQ     $150E3
150D9: C1 18          CMPB    #$18
150DB: 27 06          BEQ     $150E3
150DD: C1 28          CMPB    #$28
150DF: 27 02          BEQ     $150E3
150E1: 20 03          BRA     $150E6
L150E3:
150E3: 6A 88 57       DEC     87,X
L150E6:
150E6: A1 88 57       CMPA    87,X
150E9: 25 24          BCS     $1510F
150EB: 6F 88 19       CLR     25,X
150EE: C6 7F          LDB     #$7F
150F0: 6C 88 18       INC     24,X
150F3: A6 88 18       LDA     24,X
150F6: 85 01          BITA    #$01
150F8: 26 04          BNE     $150FE
150FA: C6 05          LDB     #$05
150FC: EA 03          ORB     3,X
L150FE:
150FE: E7 02          STB     2,X
15100: 81 4C          CMPA    #$4C
15102: 25 0B          BCS     $1510F
15104: 6F 84          CLR     ,X
15106: 6F 88 13       CLR     19,X
15109: 6F 88 15       CLR     21,X
1510C: 7A 0A AC       DEC     $0AAC
L1510F:
1510F: 39             RTS
15110: A6 01          LDA     1,X
15112: 81 0B          CMPA    #$0B
15114: 26 5A          BNE     $15170
15116: A6 88 1B       LDA     27,X
15119: 2B 15          BMI     $15130
1511B: BD FE 64       JSR     $FE64
1511E: 6F 88 57       CLR     87,X
15121: A6 03          LDA     3,X
15123: 88 80          EORA    #$80
15125: A7 03          STA     3,X
15127: 86 04          LDA     #$04
15129: AA 03          ORA     3,X
1512B: A7 02          STA     2,X
1512D: 6F 88 37       CLR     55,X
L15130:
15130: A6 88 57       LDA     87,X
15133: 26 15          BNE     $1514A
15135: A6 05          LDA     5,X
15137: 81 B0          CMPA    #$B0
15139: 25 0F          BCS     $1514A
1513B: BD 59 B3       JSR     $59B3
1513E: BD FC 1E       JSR     $FC1E
15141: 86 0C          LDA     #$0C
15143: A7 0E          STA     14,X
15145: 86 C0          LDA     #$C0
15147: A7 0D          STA     13,X
15149: 39             RTS
L1514A:
1514A: 86 01          LDA     #$01
1514C: A7 88 57       STA     87,X
1514F: 86 B0          LDA     #$B0
15151: A7 0D          STA     13,X
15153: 86 10          LDA     #$10
15155: A7 0E          STA     14,X
15157: 6F 88 37       CLR     55,X
1515A: BD 59 B3       JSR     $59B3
1515D: BD FC 1E       JSR     $FC1E
15160: BD 5B A3       JSR     $5BA3
15163: A6 88 1B       LDA     27,X
15166: 84 3F          ANDA    #$3F
15168: 81 1F          CMPA    #$1F
1516A: 27 03          BEQ     $1516F
1516C: 6F 88 4E       CLR     78,X
L1516F:
1516F: 39             RTS
L15170:
15170: 10 8E 51 D9    LDY     #$51D9
15174: A6 88 1B       LDA     27,X
15177: 2B 14          BMI     $1518D
15179: BD FE 64       JSR     $FE64
1517C: A6 03          LDA     3,X
1517E: 88 80          EORA    #$80
15180: A7 03          STA     3,X
15182: A6 A0          LDA     ,Y+
15184: AA 03          ORA     3,X
15186: A7 02          STA     2,X
15188: A6 A4          LDA     ,Y
1518A: A7 88 19       STA     25,X
L1518D:
1518D: 6A 88 19       DEC     25,X
15190: 26 46          BNE     $151D8
15192: 6C 88 18       INC     24,X
15195: A6 88 18       LDA     24,X
15198: 81 0A          CMPA    #$0A
1519A: 24 0F          BCC     $151AB
1519C: 48             ASLA
1519D: E6 A6          LDB     A,Y
1519F: EA 03          ORB     3,X
151A1: E7 02          STB     2,X
151A3: 4C             INCA
151A4: E6 A6          LDB     A,Y
151A6: E7 88 19       STB     25,X
151A9: 20 2D          BRA     $151D8
L151AB:
151AB: 86 00          LDA     #$00
151AD: A7 88 1B       STA     27,X
151B0: A6 01          LDA     1,X
151B2: 8B 06          ADDA    #$06
151B4: A7 01          STA     1,X
151B6: 6F 88 57       CLR     87,X
151B9: 6F 88 55       CLR     85,X
151BC: 7F 0F 82       CLR     $0F82
151BF: 86 5A          LDA     #$5A
151C1: BD 6B DF       JSR     $6BDF
151C4: 86 02          LDA     #$02
151C6: BD FE 23       JSR     $FE23
151C9: 86 F0          LDA     #$F0
151CB: BD 6B DF       JSR     $6BDF
151CE: 86 02          LDA     #$02
151D0: BD FE 23       JSR     $FE23
151D3: 86 FF          LDA     #$FF
151D5: BD 6B DF       JSR     $6BDF
L151D8:
151D8: 39             RTS
151D9: 00 10          NEG     <$10
151DB: 01             FCB     $01
151DC: 10 02          FCB     $10,$02
151DE: 0C 03          INC     <$03
151E0: 0C 04          INC     <$04
151E2: 0C 05          INC     <$05
151E4: 08 06          ASL     <$06
151E6: 08 07          ASL     <$07
151E8: 08 08          ASL     <$08
151EA: 08 09          ASL     <$09
151EC: 08 10          ASL     <$10
151EE: AE 88 2D       LDX     45,X
151F1: A6 88 1B       LDA     27,X
151F4: 2B 11          BMI     $15207
151F6: A6 88 15       LDA     21,X
151F9: 84 EF          ANDA    #$EF
151FB: A7 88 15       STA     21,X
151FE: BD FE 64       JSR     $FE64
15201: BD 58 94       JSR     $5894
15204: 6F A8 25       CLR     37,Y
L15207:
15207: 10 8E 52 5B    LDY     #$525B
1520B: A6 88 18       LDA     24,X
1520E: 48             ASLA
1520F: 4C             INCA
15210: E6 88 19       LDB     25,X
15213: E1 A6          CMPB    A,Y
15215: 25 0D          BCS     $15224
15217: A6 88 18       LDA     24,X
1521A: 81 02          CMPA    #$02
1521C: 24 06          BCC     $15224
1521E: 6C 88 18       INC     24,X
15221: 6F 88 19       CLR     25,X
L15224:
15224: 6C 88 19       INC     25,X
15227: A6 88 18       LDA     24,X
1522A: 48             ASLA
1522B: E6 A6          LDB     A,Y
1522D: EA 03          ORB     3,X
1522F: E7 02          STB     2,X
15231: 6D 88 18       TST     24,X
15234: 27 24          BEQ     $1525A
15236: A6 88 19       LDA     25,X
15239: 81 08          CMPA    #$08
1523B: 25 1D          BCS     $1525A
1523D: 10 8E 52 61    LDY     #$5261
15241: 96 51          LDA     <$51
15243: 44             LSRA
15244: 84 01          ANDA    #$01
15246: C6 07          LDB     #$07
15248: 3D             MUL
15249: 31 AB          LEAY    D,Y
1524B: 96 51          LDA     <$51
1524D: 44             LSRA
1524E: 84 07          ANDA    #$07
15250: A6 A6          LDA     A,Y
15252: A7 88 1E       STA     30,X
15255: 86 08          LDA     #$08
15257: A7 88 1B       STA     27,X
L1525A:
1525A: 39             RTS
1525B: 79 08 7A       ROL     $087A
1525E: 08 68          ASL     <$68
15260: F0 12 12       SUBB    $1212
15263: 12             NOP
15264: 12             NOP
15265: 11 11          FCB     $11,$11
15267: 11 11          FCB     $11,$11
15269: 11 11          FCB     $11,$11
1526B: 11 11          FCB     $11,$11
1526D: 12             NOP
1526E: 12             NOP
1526F: 12             NOP
15270: 12             NOP
15271: 10 8E 52 C0    LDY     #$52C0
15275: 96 36          LDA     <$36
15277: 48             ASLA
15278: 10 AE A6       LDY     A,Y
1527B: A6 88 4B       LDA     75,X
1527E: 4A             DECA
1527F: 48             ASLA
15280: 48             ASLA
15281: 31 A6          LEAY    A,Y
15283: A6 88 1B       LDA     27,X
15286: 2B 09          BMI     $15291
15288: BD FE 64       JSR     $FE64
1528B: A6 A4          LDA     ,Y
1528D: AA 03          ORA     3,X
1528F: A7 02          STA     2,X
L15291:
15291: EC 21          LDD     1,Y
15293: 10 B3 03 A6    CMPD    $03A6
15297: 24 17          BCC     $152B0
15299: EC 08          LDD     8,X
1529B: 10 B3 03 AA    CMPD    $03AA
1529F: 26 04          BNE     $152A5
L152A1:
152A1: 86 04          LDA     #$04
152A3: 20 07          BRA     $152AC
L152A5:
152A5: A6 23          LDA     3,Y
152A7: A7 88 4E       STA     78,X
152AA: 86 11          LDA     #$11
L152AC:
152AC: A7 88 1B       STA     27,X
L152AF:
152AF: 39             RTS
L152B0:
152B0: 10 B3 04 05    CMPD    $0405
152B4: 24 F9          BCC     $152AF
152B6: EC 08          LDD     8,X
152B8: 10 B3 03 AA    CMPD    $03AA
152BC: 26 E7          BNE     $152A5
152BE: 20 E1          BRA     $152A1
152C0: 52             FCB     $52
152C1: C8 52          EORB    #$52
152C3: D0 52          SUBB    <$52
152C5: E0 52          SUBB    -14,U
152C7: FC 67 01       LDD     $6701
152CA: 88 03          EORA    #$03
152CC: 67 03          ASR     3,X
152CE: 80 03          SUBA    #$03
152D0: 67 05          ASR     5,X
152D2: 70 03 67       NEG     $0367
152D5: 05             FCB     $05
152D6: 78 03 67       ASL     $0367
152D9: 07 00          ASR     <$00
152DB: 03 67          COM     <$67
152DD: 07 80          ASR     <$80
152DF: 03 67          COM     <$67
152E1: 0B             FCB     $0B
152E2: 00 03          NEG     <$03
152E4: 67 0B          ASR     11,X
152E6: 60 03          NEG     3,X
152E8: 67 0B          ASR     11,X
152EA: 68 03          ASL     3,X
152EC: 07 0B          ASR     <$0B
152EE: B0 03 67       SUBA    $0367
152F1: 0D F0          TST     <$F0
152F3: 03 07          COM     <$07
152F5: 0D F8          TST     <$F8
152F7: 03 07          COM     <$07
152F9: 13             SYNC
152FA: 40             NEGA
152FB: 03 07          COM     <$07
152FD: 1B             FCB     $1B
152FE: 40             NEGA
152FF: 03 07          COM     <$07
15301: 1B             FCB     $1B
15302: 48             ASLA
15303: 03 34          COM     <$34
15305: 7E 10 8E       JMP     $108E
15308: 54             LSRB
15309: 32 A6          LEAS    A,Y
1530B: 01             FCB     $01
1530C: 81 0B          CMPA    #$0B
1530E: 26 04          BNE     $15314
15310: 10 8E 54 3A    LDY     #$543A
L15314:
15314: A6 88 4E       LDA     78,X
15317: 1F 89          TFR     A,B
15319: A6 88 1B       LDA     27,X
1531C: 10 2B 00 B7    LBMI    $153D7
15320: 34 20          PSHS    Y
15322: BD FE 64       JSR     $FE64
15325: CE 54 42       LDU     #$5442
15328: 1F 98          TFR     B,A
1532A: 48             ASLA
1532B: EE C6          LDU     A,U
1532D: C1 02          CMPB    #$02
1532F: 24 0D          BCC     $1533E
15331: 34 04          PSHS    B
15333: EC 06          LDD     6,X
15335: C3 FF FD       ADDD    #$FFFD
15338: ED 06          STD     6,X
1533A: 35 04          PULS    B
1533C: 20 38          BRA     $15376
L1533E:
1533E: C1 02          CMPB    #$02
15340: 26 19          BNE     $1535B
15342: E6 0D          LDB     13,X
15344: 54             LSRB
15345: 54             LSRB
15346: 54             LSRB
15347: 54             LSRB
15348: 54             LSRB
15349: C4 07          ANDB    #$07
1534B: 34 44          PSHS    B,U
1534D: CE 54 6B       LDU     #$546B
15350: 58             ASLB
15351: EC C5          LDD     B,U
15353: E3 06          ADDD    6,X
15355: ED 06          STD     6,X
15357: 35 44          PULS    B,U
15359: 20 1B          BRA     $15376
L1535B:
1535B: 96 36          LDA     <$36
1535D: 48             ASLA
1535E: EE C6          LDU     A,U
15360: E6 88 4B       LDB     75,X
15363: 5A             DECB
15364: 10 8E 54 7F    LDY     #$547F
15368: 10 AE A6       LDY     A,Y
1536B: 34 04          PSHS    B
1536D: 58             ASLB
1536E: EC A5          LDD     B,Y
15370: E3 06          ADDD    6,X
15372: ED 06          STD     6,X
15374: 35 04          PULS    B
L15376:
15376: A6 C5          LDA     B,U
15378: 34 02          PSHS    A
1537A: A6 88 13       LDA     19,X
1537D: 85 40          BITA    #$40
1537F: 27 04          BEQ     $15385
15381: 86 05          LDA     #$05
15383: A7 E4          STA     ,S
L15385:
15385: 35 02          PULS    A
15387: BD FB 62       JSR     $FB62
1538A: 35 20          PULS    Y
1538C: A6 84          LDA     ,X
1538E: 84 F0          ANDA    #$F0
15390: 8A 02          ORA     #$02
15392: A7 84          STA     ,X
15394: A6 A0          LDA     ,Y+
15396: AA 03          ORA     3,X
15398: A7 02          STA     2,X
1539A: A6 A4          LDA     ,Y
1539C: A7 88 19       STA     25,X
1539F: A6 88 15       LDA     21,X
153A2: 8A 40          ORA     #$40
153A4: A7 88 15       STA     21,X
153A7: A6 88 13       LDA     19,X
153AA: 84 BF          ANDA    #$BF
153AC: A7 88 13       STA     19,X
153AF: 6D 03          TST     3,X
153B1: 2A 18          BPL     $153CB
153B3: BD FB 6C       JSR     $FB6C
153B6: A6 01          LDA     1,X
153B8: 81 0B          CMPA    #$0B
153BA: 26 0F          BNE     $153CB
153BC: 96 36          LDA     <$36
153BE: 26 0B          BNE     $153CB
153C0: 86 04          LDA     #$04
153C2: A7 88 11       STA     17,X
153C5: 86 FF          LDA     #$FF
153C7: A7 0F          STA     15,X
153C9: 20 0C          BRA     $153D7
L153CB:
153CB: B6 0F 0F       LDA     $0F0F
153CE: 84 01          ANDA    #$01
153D0: 27 05          BEQ     $153D7
153D2: CC 00 00       LDD     #$0000
153D5: ED 0F          STD     15,X
L153D7:
153D7: 6A 88 19       DEC     25,X
153DA: 26 18          BNE     $153F4
153DC: A6 88 18       LDA     24,X
153DF: 81 02          CMPA    #$02
153E1: 24 04          BCC     $153E7
153E3: 4C             INCA
153E4: A7 88 18       STA     24,X
L153E7:
153E7: 48             ASLA
153E8: E6 A6          LDB     A,Y
153EA: EA 03          ORB     3,X
153EC: E7 02          STB     2,X
153EE: 4C             INCA
153EF: E6 A6          LDB     A,Y
153F1: E7 88 19       STB     25,X
L153F4:
153F4: BD 59 B3       JSR     $59B3
153F7: BD 5A 2C       JSR     $5A2C
153FA: A6 88 11       LDA     17,X
153FD: 2A 31          BPL     $15430
153FF: B6 0C 29       LDA     $0C29
15402: 84 F0          ANDA    #$F0
15404: 26 07          BNE     $1540D
15406: B6 0C 28       LDA     $0C28
15409: 84 F0          ANDA    #$F0
1540B: 27 23          BEQ     $15430
L1540D:
1540D: 86 04          LDA     #$04
1540F: A7 88 1B       STA     27,X
15412: 6F 88 56       CLR     86,X
15415: B6 0F 0F       LDA     $0F0F
15418: 84 FE          ANDA    #$FE
1541A: B7 0F 0F       STA     $0F0F
1541D: A6 84          LDA     ,X
1541F: 84 F0          ANDA    #$F0
15421: 8A 01          ORA     #$01
15423: A7 84          STA     ,X
15425: A6 88 15       LDA     21,X
15428: 84 BF          ANDA    #$BF
1542A: A7 88 15       STA     21,X
1542D: 6F 88 4B       CLR     75,X
L15430:
15430: 35 FE          PULS    A,B,DP,X,Y,U,PC
15432: 17 08 18       LBSR    $15C4D
15435: 08 18          ASL     <$18
15437: 08 18          ASL     <$18
15439: 08 1D          ASL     <$1D
1543B: 04 1E          LSR     <$1E
1543D: 06 1F          ROR     <$1F
1543F: 08 1F          ASL     <$1F
15441: 08 54          ASL     <$54
15443: 4A             DECA
15444: 54             LSRB
15445: 4A             DECA
15446: 54             LSRB
15447: 4C             INCA
15448: 54             LSRB
15449: 54             LSRB
1544A: 03 02          COM     <$02
1544C: 06 06          ROR     <$06
1544E: 02             FCB     $02
1544F: 02             FCB     $02
15450: 02             FCB     $02
15451: 02             FCB     $02
15452: 06 06          ROR     <$06
15454: 54             LSRB
15455: 5C             INCB
15456: 54             LSRB
15457: 5E             FCB     $5E
15458: 54             LSRB
15459: 62             FCB     $62
1545A: 54             LSRB
1545B: 69 04          ROL     4,X
1545D: 04 04          LSR     <$04
1545F: 04 04          LSR     <$04
15461: 04 04          LSR     <$04
15463: 04 04          LSR     <$04
15465: 03 04          COM     <$04
15467: 03 04          COM     <$04
15469: 04 04          LSR     <$04
1546B: FF F0 FF       STU     $F0FF
1546E: F0 FF F0       SUBB    $FFF0
15471: FF F0 FF       STU     $F0FF
15474: F0 FF F0       SUBB    $FFF0
15477: FF F0 FF       STU     $F0FF
1547A: F0 FF F0       SUBB    $FFF0
1547D: FF F0 54       STU     $F054
15480: 87             FCB     $87
15481: 54             LSRB
15482: 8B 54          ADDA    #$54
15484: 93 54          SUBD    <$54
15486: A1 FF F0 FF    CMPA    [$F0FF]
1548A: F0 FF F0       SUBB    $FFF0
1548D: FF F0 FF       STU     $F0FF
15490: F0 FF F0       SUBB    $FFF0
15493: FF F0 FF       STU     $F0FF
15496: F0 FF F0       SUBB    $FFF0
15499: FF F0 FF       STU     $F0FF
1549C: F0 FF F0       SUBB    $FFF0
1549F: FF F0 FF       STU     $F0FF
154A2: F0 FF F0       SUBB    $FFF0
154A5: 34 7E          PSHS    A,B,DP,X,Y,U
154A7: 6F 03          CLR     3,X
154A9: 96 36          LDA     <$36
154AB: 81 01          CMPA    #$01
154AD: 26 06          BNE     $154B5
154AF: A6 03          LDA     3,X
154B1: 88 80          EORA    #$80
154B3: A7 03          STA     3,X
L154B5:
154B5: A6 88 37       LDA     55,X
154B8: 80 02          SUBA    #$02
154BA: 48             ASLA
154BB: 10 8E 54 C3    LDY     #$54C3
154BF: AD B6          JSR     [A,Y]
154C1: 35 FE          PULS    A,B,DP,X,Y,U,PC
154C3: 54             LSRB
154C4: D3 54          ADDD    <$54
154C6: D3 54          ADDD    <$54
154C8: D3 54          ADDD    <$54
154CA: D3 54          ADDD    <$54
154CC: D3 54          ADDD    <$54
154CE: D3 56          ADDD    <$56
154D0: 93 57          SUBD    <$57
154D2: 12             NOP
154D3: 32 7C          LEAS    -4,S
154D5: 6F 0E          CLR     14,X
154D7: 10 AE 88 2D    LDY     45,X
154DB: A6 A8 37       LDA     55,Y
154DE: 81 04          CMPA    #$04
154E0: 25 04          BCS     $154E6
154E2: 81 08          CMPA    #$08
154E4: 25 19          BCS     $154FF
L154E6:
154E6: EC 08          LDD     8,X
154E8: 10 A3 28       CMPD    8,Y
154EB: 25 09          BCS     $154F6
154ED: 86 03          LDA     #$03
154EF: A7 88 37       STA     55,X
154F2: 86 05          LDA     #$05
154F4: 20 19          BRA     $1550F
L154F6:
154F6: 86 02          LDA     #$02
154F8: A7 88 37       STA     55,X
154FB: 86 01          LDA     #$01
154FD: 20 10          BRA     $1550F
L154FF:
154FF: 10 9F 00       STY     <$00
15502: BD FB 44       JSR     $FB44
15505: A7 0D          STA     13,X
15507: 44             LSRA
15508: 44             LSRA
15509: 44             LSRA
1550A: 44             LSRA
1550B: 44             LSRA
1550C: 84 07          ANDA    #$07
1550E: 4C             INCA
L1550F:
1550F: 97 0F          STA     <$0F
15511: A6 88 31       LDA     49,X
15514: 85 08          BITA    #$08
15516: 26 0A          BNE     $15522
15518: CE 57 49       LDU     #$5749
1551B: 96 0F          LDA     <$0F
1551D: A6 C6          LDA     A,U
1551F: A7 88 37       STA     55,X
L15522:
15522: EE 88 2D       LDU     45,X
15525: A6 C8 1B       LDA     27,U
15528: 84 7F          ANDA    #$7F
1552A: 81 00          CMPA    #$00
1552C: 26 2C          BNE     $1555A
1552E: A6 C8 37       LDA     55,U
15531: 81 02          CMPA    #$02
15533: 25 25          BCS     $1555A
15535: A6 88 38       LDA     56,X
15538: 84 0F          ANDA    #$0F
1553A: 27 09          BEQ     $15545
1553C: B6 0F 33       LDA     $0F33
1553F: 81 30          CMPA    #$30
15541: 10 25 00 18    LBCS    $1555D
L15545:
15545: EC 08          LDD     8,X
15547: A3 28          SUBD    8,Y
15549: 2A 07          BPL     $15552
1554B: DD 00          STD     <$00
1554D: CC 00 00       LDD     #$0000
15550: 93 00          SUBD    <$00
L15552:
15552: 10 83 00 30    CMPD    #$0030
15556: 10 25 00 03    LBCS    $1555D
L1555A:
1555A: BD 55 60       JSR     $5560
L1555D:
1555D: 32 64          LEAS    4,S
1555F: 39             RTS
15560: 32 71          LEAS    -15,S
15562: A6 88 18       LDA     24,X
15565: E6 02          LDB     2,X
15567: ED E4          STD     ,S
15569: EC 04          LDD     4,X
1556B: ED 62          STD     2,S
1556D: EC 06          LDD     6,X
1556F: ED 64          STD     4,S
15571: EC 08          LDD     8,X
15573: ED 66          STD     6,S
15575: BD FC 1E       JSR     $FC1E
15578: A6 E4          LDA     ,S
1557A: A1 88 18       CMPA    24,X
1557D: 10 27 00 3C    LBEQ    $155BD
15581: 10 8E 57 52    LDY     #$5752
15585: 96 0F          LDA     <$0F
15587: C6 04          LDB     #$04
15589: 3D             MUL
1558A: 31 AB          LEAY    D,Y
1558C: CE 0B EE       LDU     #$0BEE
1558F: EC 62          LDD     2,S
15591: ED C4          STD     ,U
15593: E3 A4          ADDD    ,Y
15595: ED 46          STD     6,U
15597: ED 04          STD     4,X
15599: EC 64          LDD     4,S
1559B: ED 42          STD     2,U
1559D: ED 48          STD     8,U
1559F: EC 66          LDD     6,S
155A1: ED 44          STD     4,U
155A3: E3 22          ADDD    2,Y
155A5: ED 4A          STD     10,U
155A7: A6 03          LDA     3,X
155A9: A7 4C          STA     12,U
155AB: BD FE 20       JSR     $FE20
155AE: BD FB 00       JSR     $FB00
155B1: A6 88 37       LDA     55,X
155B4: 80 02          SUBA    #$02
155B6: 48             ASLA
155B7: 10 8E 55 C0    LDY     #$55C0
155BB: 6E B6          JMP     [A,Y]
L155BD:
155BD: 32 6F          LEAS    15,S
155BF: 39             RTS
155C0: 55             FCB     $55
155C1: CC 55 FD       LDD     #$55FD
155C4: 55             FCB     $55
155C5: CC 55 FD       LDD     #$55FD
155C8: 56             RORB
155C9: 48             ASLA
155CA: 56             RORB
155CB: 48             ASLA
155CC: B6 0C 27       LDA     $0C27
155CF: 85 0F          BITA    #$0F
155D1: 10 26 00 9C    LBNE    $15671
155D5: B6 0C 29       LDA     $0C29
155D8: 84 0F          ANDA    #$0F
155DA: 27 09          BEQ     $155E5
155DC: EC 66          LDD     6,S
155DE: C3 00 0A       ADDD    #$000A
155E1: ED 08          STD     8,X
155E3: 20 15          BRA     $155FA
L155E5:
155E5: EC 66          LDD     6,S
155E7: C3 00 19       ADDD    #$0019
155EA: ED 08          STD     8,X
155EC: 86 08          LDA     #$08
155EE: A7 88 37       STA     55,X
155F1: 86 26          LDA     #$26
155F3: A7 02          STA     2,X
155F5: 86 08          LDA     #$08
155F7: A7 88 19       STA     25,X
L155FA:
155FA: 7E 55 BD       JMP     $55BD
155FD: B6 0C 27       LDA     $0C27
15600: 85 0F          BITA    #$0F
15602: 26 6D          BNE     $15671
15604: B6 0C 29       LDA     $0C29
15607: 84 F0          ANDA    #$F0
15609: 26 29          BNE     $15634
1560B: B6 0C 28       LDA     $0C28
1560E: 84 F0          ANDA    #$F0
15610: 27 15          BEQ     $15627
15612: B6 0C 26       LDA     $0C26
15615: 81 0A          CMPA    #$0A
15617: 25 1B          BCS     $15634
15619: 81 0D          CMPA    #$0D
1561B: 24 17          BCC     $15634
1561D: A6 88 13       LDA     19,X
15620: 8A 40          ORA     #$40
15622: A7 88 13       STA     19,X
15625: 20 0D          BRA     $15634
L15627:
15627: EC 66          LDD     6,S
15629: C3 FF F6       ADDD    #$FFF6
1562C: ED 08          STD     8,X
1562E: EC 64          LDD     4,S
15630: ED 06          STD     6,X
15632: 20 11          BRA     $15645
L15634:
15634: EC 66          LDD     6,S
15636: C3 FF F8       ADDD    #$FFF8
15639: ED 08          STD     8,X
1563B: 86 09          LDA     #$09
1563D: A7 88 37       STA     55,X
15640: 86 08          LDA     #$08
15642: A7 88 19       STA     25,X
L15645:
15645: 7E 55 BD       JMP     $55BD
15648: 10 8E 0C 26    LDY     #$0C26
1564C: EC 24          LDD     4,Y
1564E: ED 04          STD     4,X
15650: EC 26          LDD     6,Y
15652: ED 06          STD     6,X
15654: EC 28          LDD     8,Y
15656: ED 08          STD     8,X
15658: A6 A4          LDA     ,Y
1565A: 81 02          CMPA    #$02
1565C: 27 04          BEQ     $15662
1565E: 81 03          CMPA    #$03
15660: 26 0F          BNE     $15671
L15662:
15662: A6 21          LDA     1,Y
15664: 84 05          ANDA    #$05
15666: 27 24          BEQ     $1568C
15668: EC E4          LDD     ,S
1566A: A7 88 18       STA     24,X
1566D: E7 02          STB     2,X
1566F: 20 1B          BRA     $1568C
L15671:
15671: 86 11          LDA     #$11
15673: A7 88 1B       STA     27,X
15676: A6 88 37       LDA     55,X
15679: 80 06          SUBA    #$06
1567B: 84 01          ANDA    #$01
1567D: 48             ASLA
1567E: 10 8E 56 8F    LDY     #$568F
15682: 31 A6          LEAY    A,Y
15684: A6 A0          LDA     ,Y+
15686: A7 0D          STA     13,X
15688: A6 A4          LDA     ,Y
1568A: A7 03          STA     3,X
L1568C:
1568C: 7E 55 BD       JMP     $55BD
1568F: 40             NEGA
15690: 00 C0          NEG     <$C0
15692: 80 6A          SUBA    #$6A
15694: 88 19          EORA    #$19
15696: 10 26 00 77    LBNE    $15711
1569A: CE 0B EE       LDU     #$0BEE
1569D: EC 04          LDD     4,X
1569F: ED C4          STD     ,U
156A1: ED 46          STD     6,U
156A3: EC 06          LDD     6,X
156A5: ED 42          STD     2,U
156A7: C3 00 08       ADDD    #$0008
156AA: ED 48          STD     8,U
156AC: EC 08          LDD     8,X
156AE: ED 44          STD     4,U
156B0: C3 00 07       ADDD    #$0007
156B3: ED 4A          STD     10,U
156B5: A6 03          LDA     3,X
156B7: A7 4C          STA     12,U
156B9: BD FE 20       JSR     $FE20
156BC: BD FB 00       JSR     $FB00
156BF: FC 0C 2C       LDD     $0C2C
156C2: C3 00 01       ADDD    #$0001
156C5: ED 06          STD     6,X
156C7: FC 0C 2E       LDD     $0C2E
156CA: ED 08          STD     8,X
156CC: A6 01          LDA     1,X
156CE: 81 02          CMPA    #$02
156D0: 25 2C          BCS     $156FE
156D2: A6 88 38       LDA     56,X
156D5: 84 0F          ANDA    #$0F
156D7: 26 0E          BNE     $156E7
156D9: CC 00 00       LDD     #$0000
156DC: FD 0E E9       STD     $0EE9
156DF: B7 0E E7       STA     $0EE7
156E2: ED 88 2D       STD     45,X
156E5: 20 17          BRA     $156FE
L156E7:
156E7: 7A 0E E8       DEC     $0EE8
156EA: 10 8E 0E EB    LDY     #$0EEB
156EE: AC A4          CMPX    ,Y
156F0: 26 04          BNE     $156F6
156F2: EC 22          LDD     2,Y
156F4: ED A4          STD     ,Y
L156F6:
156F6: CC 00 00       LDD     #$0000
156F9: ED 22          STD     2,Y
156FB: ED 88 2D       STD     45,X
L156FE:
156FE: 86 00          LDA     #$00
15700: A7 88 1B       STA     27,X
15703: A6 88 31       LDA     49,X
15706: 84 E7          ANDA    #$E7
15708: A7 88 31       STA     49,X
1570B: 6F 88 38       CLR     56,X
1570E: 6F 88 37       CLR     55,X
L15711:
15711: 39             RTS
15712: 6A 88 19       DEC     25,X
15715: 26 FA          BNE     $15711
15717: CE 0B EE       LDU     #$0BEE
1571A: EC 04          LDD     4,X
1571C: ED C4          STD     ,U
1571E: ED 46          STD     6,U
15720: EC 06          LDD     6,X
15722: ED 42          STD     2,U
15724: C3 FF FE       ADDD    #$FFFE
15727: ED 48          STD     8,U
15729: EC 08          LDD     8,X
1572B: ED 44          STD     4,U
1572D: C3 FF F8       ADDD    #$FFF8
15730: ED 4A          STD     10,U
15732: A6 03          LDA     3,X
15734: A7 4C          STA     12,U
15736: BD FE 20       JSR     $FE20
15739: BD FB 00       JSR     $FB00
1573C: FC 0C 2C       LDD     $0C2C
1573F: ED 06          STD     6,X
15741: FC 0C 2E       LDD     $0C2E
15744: ED 08          STD     8,X
15746: 7E 56 CC       JMP     $56CC
15749: 04 04          LSR     <$04
1574B: 04 06          LSR     <$06
1574D: 05             FCB     $05
1574E: 05             FCB     $05
1574F: 05             FCB     $05
15750: 07 04          ASR     <$04
15752: 00 00          NEG     <$00
15754: 00 00          NEG     <$00
15756: 00 00          NEG     <$00
15758: 00 20          NEG     <$20
1575A: 00 04          NEG     <$04
1575C: 00 20          NEG     <$20
1575E: 00 04          NEG     <$04
15760: 00 00          NEG     <$00
15762: 00 04          NEG     <$04
15764: FF F0 00       STU     $F000
15767: 00 FF          NEG     <$FF
15769: F0 FF FC       SUBB    $FFFC
1576C: FF F0 FF       STU     $F0FF
1576F: FC 00 00       LDD     $0000
15772: FF FC 00       STU     $FC00
15775: 20 10          BRA     $15787
15777: 8E 57 C2       LDX     #$57C2
1577A: A6 01          LDA     1,X
1577C: 81 0B          CMPA    #$0B
1577E: 26 04          BNE     $15784
15780: 10 8E 57 C6    LDY     #$57C6
L15784:
15784: A6 88 1B       LDA     27,X
L15787:
15787: 85 40          BITA    #$40
15789: 26 2C          BNE     $157B7
1578B: 4D             TSTA
1578C: 2B 0E          BMI     $1579C
1578E: BD FE 64       JSR     $FE64
15791: A6 A0          LDA     ,Y+
15793: AA 03          ORA     3,X
15795: A7 02          STA     2,X
15797: 86 08          LDA     #$08
15799: A7 88 19       STA     25,X
L1579C:
1579C: 6A 88 19       DEC     25,X
1579F: 26 15          BNE     $157B6
157A1: 6C 88 18       INC     24,X
157A4: A6 88 18       LDA     24,X
157A7: 81 04          CMPA    #$04
157A9: 24 0C          BCC     $157B7
157AB: A6 A6          LDA     A,Y
157AD: AA 03          ORA     3,X
157AF: A7 02          STA     2,X
157B1: 86 08          LDA     #$08
157B3: A7 88 19       STA     25,X
L157B6:
157B6: 39             RTS
L157B7:
157B7: 86 00          LDA     #$00
157B9: A7 88 1B       STA     27,X
157BC: 86 10          LDA     #$10
157BE: A7 88 53       STA     83,X
157C1: 39             RTS
157C2: 20 21          BRA     $157E5
157C4: 20 21          BRA     $157E7
157C6: 00 01          NEG     <$01
157C8: 02             FCB     $02
157C9: 03 A6          COM     <$A6
157CB: 88 1B          EORA    #$1B
157CD: 2B 09          BMI     $157D8
157CF: BD FE 64       JSR     $FE64
157D2: 6F 88 1E       CLR     30,X
157D5: 6F 88 1D       CLR     29,X
L157D8:
157D8: A6 88 1E       LDA     30,X
157DB: 10 8E 57 E2    LDY     #$57E2
157DF: 48             ASLA
157E0: 6E B6          JMP     [A,Y]
157E2: 57             ASRB
157E3: E6 58          LDB     -8,U
L157E5:
157E5: 20 A6          BRA     $1578D
L157E7:
157E7: 88 4B          EORA    #$4B
157E9: 81 04          CMPA    #$04
157EB: 25 08          BCS     $157F5
157ED: 80 04          SUBA    #$04
157EF: 81 05          CMPA    #$05
157F1: 25 02          BCS     $157F5
157F3: 86 04          LDA     #$04
L157F5:
157F5: 10 8E 58 16    LDY     #$5816
157F9: 48             ASLA
157FA: EC A6          LDD     A,Y
157FC: 10 B3 03 A6    CMPD    $03A6
15800: 25 06          BCS     $15808
15802: 10 B3 04 05    CMPD    $0405
15806: 24 0D          BCC     $15815
L15808:
15808: 86 01          LDA     #$01
1580A: A7 88 1E       STA     30,X
1580D: A6 84          LDA     ,X
1580F: 84 F0          ANDA    #$F0
15811: 8A C1          ORA     #$C1
15813: A7 84          STA     ,X
L15815:
15815: 39             RTS
15816: 17 84 17       LBSR    $DC30
15819: D0 17          SUBB    <$17
1581B: 84 18          ANDA    #$18
1581D: CE 18 CE       LDU     #$18CE
15820: A6 88 1E       LDA     30,X
15823: 2B 12          BMI     $15837
15825: 8A 80          ORA     #$80
15827: A7 88 1E       STA     30,X
1582A: 86 80          LDA     #$80
1582C: A7 0D          STA     13,X
1582E: 86 08          LDA     #$08
15830: A7 88 1D       STA     29,X
15833: 86 10          LDA     #$10
15835: A7 0E          STA     14,X
L15837:
15837: 6A 88 1D       DEC     29,X
1583A: 26 08          BNE     $15844
1583C: 86 00          LDA     #$00
1583E: A7 88 1B       STA     27,X
15841: 6F 88 4B       CLR     75,X
L15844:
15844: BD FB 58       JSR     $FB58
15847: BD F9 3C       JSR     $F93C
1584A: BD FC 1E       JSR     $FC1E
1584D: 39             RTS
1584E: 34 26          PSHS    A,B,Y
15850: B6 0F 35       LDA     $0F35
15853: 10 8E 58 5F    LDY     #$585F
15857: 84 01          ANDA    #$01
15859: A6 A6          LDA     A,Y
1585B: A7 0D          STA     13,X
1585D: 35 A6          PULS    A,B,Y,PC
1585F: 40             NEGA
15860: C0 A6          SUBB    #$A6
15862: 0D 88          TST     <$88
15864: 80 A7          SUBA    #$A7
15866: 0D 39          TST     <$39
15868: 32 7F          LEAS    -1,S
1586A: 6F E4          CLR     ,S
1586C: EC 06          LDD     6,X
1586E: E3 08          ADDD    8,X
15870: 93 3F          SUBD    <$3F
15872: 10 83 00 80    CMPD    #$0080
15876: 25 04          BCS     $1587C
15878: 86 80          LDA     #$80
1587A: A7 E4          STA     ,S
L1587C:
1587C: A6 E4          LDA     ,S
1587E: A7 0D          STA     13,X
15880: 32 61          LEAS    1,S
15882: 39             RTS
15883: B6 0F 35       LDA     $0F35
15886: 84 02          ANDA    #$02
15888: 44             LSRA
15889: 10 8E 58 92    LDY     #$5892
1588D: A6 A6          LDA     A,Y
1588F: A7 0D          STA     13,X
15891: 39             RTS
15892: 00 80          NEG     <$80
15894: 34 40          PSHS    U
15896: 10 AE 88 2D    LDY     45,X
1589A: B6 0F 35       LDA     $0F35
1589D: 84 01          ANDA    #$01
1589F: E6 01          LDB     1,X
158A1: C1 02          CMPB    #$02
158A3: 24 02          BCC     $158A7
158A5: 88 01          EORA    #$01
L158A7:
158A7: CE 58 BA       LDU     #$58BA
158AA: 48             ASLA
158AB: E6 C6          LDB     A,U
158AD: E7 03          STB     3,X
158AF: 4C             INCA
158B0: E6 C6          LDB     A,U
158B2: A6 23          LDA     3,Y
158B4: 88 80          EORA    #$80
158B6: A7 03          STA     3,X
158B8: 35 C0          PULS    U,PC
158BA: 80 18          SUBA    #$18
158BC: 00 E8          NEG     <$E8
158BE: 39             RTS
158BF: 34 78          PSHS    DP,X,Y,U
158C1: 8E 07 DB       LDX     #$07DB
158C4: 0F 01          CLR     <$01
L158C6:
158C6: A6 84          LDA     ,X
158C8: 10 2A 00 A5    LBPL    $15971
158CC: A6 88 17       LDA     23,X
158CF: 27 10          BEQ     $158E1
158D1: 81 0E          CMPA    #$0E
158D3: 27 0C          BEQ     $158E1
158D5: 81 03          CMPA    #$03
158D7: 10 25 00 96    LBCS    $15971
158DB: 81 08          CMPA    #$08
158DD: 10 24 00 90    LBCC    $15971
L158E1:
158E1: A6 88 1B       LDA     27,X
158E4: 84 3F          ANDA    #$3F
158E6: 81 05          CMPA    #$05
158E8: 10 26 00 85    LBNE    $15971
158EC: A6 88 16       LDA     22,X
158EF: 10 2B 00 7E    LBMI    $15971
158F3: DC 3C          LDD     <$3C
158F5: 10 A3 04       CMPD    4,X
158F8: 10 24 00 75    LBCC    $15971
158FC: C3 01 00       ADDD    #$0100
158FF: 10 A3 04       CMPD    4,X
15902: 10 25 00 6B    LBCS    $15971
15906: 10 8E 04 60    LDY     #$0460
1590A: 0F 00          CLR     <$00
L1590C:
1590C: A6 A8 17       LDA     23,Y
1590F: 2B 53          BMI     $15964
15911: A6 A8 1B       LDA     27,Y
15914: 84 3F          ANDA    #$3F
15916: 81 00          CMPA    #$00
15918: 26 4A          BNE     $15964
1591A: A6 A8 38       LDA     56,Y
1591D: 84 0F          ANDA    #$0F
1591F: 81 03          CMPA    #$03
15921: 27 41          BEQ     $15964
15923: A6 A8 37       LDA     55,Y
15926: 81 02          CMPA    #$02
15928: 24 3A          BCC     $15964
1592A: A6 A8 21       LDA     33,Y
1592D: 26 35          BNE     $15964
1592F: A6 A4          LDA     ,Y
15931: 84 C0          ANDA    #$C0
15933: 81 C0          CMPA    #$C0
15935: 26 2D          BNE     $15964
15937: A6 A8 17       LDA     23,Y
1593A: 84 0F          ANDA    #$0F
1593C: CE 59 80       LDU     #$5980
1593F: 48             ASLA
15940: EE C6          LDU     A,U
L15942:
15942: A6 C4          LDA     ,U
15944: 81 FF          CMPA    #$FF
15946: 27 1C          BEQ     $15964
15948: A6 88 17       LDA     23,X
1594B: 84 1F          ANDA    #$1F
1594D: A1 C0          CMPA    ,U+
1594F: 26 F1          BNE     $15942
15951: EC 28          LDD     8,Y
15953: 10 A3 08       CMPD    8,X
15956: 26 0C          BNE     $15964
15958: 86 0D          LDA     #$0D
1595A: AF A8 41       STX     65,Y
1595D: 86 03          LDA     #$03
1595F: A7 A8 38       STA     56,Y
15962: 20 0D          BRA     $15971
L15964:
15964: 31 A8 63       LEAY    99,Y
15967: 0C 00          INC     <$00
15969: 96 00          LDA     <$00
1596B: 81 09          CMPA    #$09
1596D: 10 25 FF 9B    LBCS    $1590C
L15971:
15971: C6 24          LDB     #$24
15973: 3A             ABX
15974: 0C 01          INC     <$01
15976: 96 01          LDA     <$01
15978: 81 10          CMPA    #$10
1597A: 10 25 FF 48    LBCS    $158C6
1597E: 35 F8          PULS    DP,X,Y,U,PC
15980: 59             ROLB
15981: 96 59          LDA     <$59
15983: 96 59          LDA     <$59
15985: 97 59          STA     <$59
15987: 96 59          LDA     <$59
15989: 9F 59          STX     <$59
1598B: 96 59          LDA     <$59
1598D: AC 59          CMPX    -7,U
1598F: A7 59          STA     -7,U
15991: AF 59          STX     -7,U
15993: 96 59          LDA     <$59
15995: 96 FF          LDA     <$FF
15997: 00 03          NEG     <$03
15999: 04 FF          LSR     <$FF
1599B: 00 03          NEG     <$03
1599D: 04 FF          LSR     <$FF
1599F: 00 03          NEG     <$03
159A1: 04 FF          LSR     <$FF
159A3: 00 03          NEG     <$03
159A5: 04 FF          LSR     <$FF
159A7: 00 03          NEG     <$03
159A9: 04 07          LSR     <$07
159AB: FF 06 07       STU     $0607
159AE: FF 0E 06       STU     $0E06
159B1: FF 39 34       STU     $3934
159B4: 7E B6 0A       JMP     $B60A
159B7: AF 2B          STX     11,Y
159B9: 03 BD          COM     <$BD
159BB: 67 55          ASR     -11,U
159BD: CE 0B EE       LDU     #$0BEE
159C0: 10 8E 0E D7    LDY     #$0ED7
159C4: EC 04          LDD     4,X
159C6: ED C1          STD     ,U++
159C8: ED A1          STD     ,Y++
159CA: EC 06          LDD     6,X
159CC: ED C1          STD     ,U++
159CE: ED A1          STD     ,Y++
159D0: EC 08          LDD     8,X
159D2: ED C1          STD     ,U++
159D4: ED A1          STD     ,Y++
159D6: A6 88 1B       LDA     27,X
159D9: 84 3F          ANDA    #$3F
159DB: 81 1D          CMPA    #$1D
159DD: 26 05          BNE     $159E4
159DF: BD 4E D5       JSR     $4ED5
159E2: 20 03          BRA     $159E7
L159E4:
159E4: BD FB 58       JSR     $FB58
L159E7:
159E7: BD 6B EE       JSR     $6BEE
159EA: BD 6C 13       JSR     $6C13
159ED: CC 00 20       LDD     #$0020
159F0: 10 A3 04       CMPD    4,X
159F3: 25 0E          BCS     $15A03
159F5: ED 04          STD     4,X
159F7: A6 88 15       LDA     21,X
159FA: 85 40          BITA    #$40
159FC: 27 05          BEQ     $15A03
159FE: CC 00 00       LDD     #$0000
15A01: ED 0F          STD     15,X
L15A03:
15A03: EC 04          LDD     4,X
15A05: ED C1          STD     ,U++
15A07: EC 06          LDD     6,X
15A09: ED C1          STD     ,U++
15A0B: EC 08          LDD     8,X
15A0D: ED C1          STD     ,U++
15A0F: A6 03          LDA     3,X
15A11: 84 80          ANDA    #$80
15A13: A7 C0          STA     ,U+
15A15: BD FE 20       JSR     $FE20
15A18: BD FB 00       JSR     $FB00
15A1B: CE 0E D1       LDU     #$0ED1
15A1E: 8E 0C 30       LDX     #$0C30
L15A21:
15A21: EC 83          LDD     ,--X
15A23: 36 06          PSHU    A,B
15A25: 8C 0C 26       CMPX    #$0C26
15A28: 26 F7          BNE     $15A21
15A2A: 35 FE          PULS    A,B,DP,X,Y,U,PC
15A2C: 34 7E          PSHS    A,B,DP,X,Y,U
15A2E: 10 8E 0E CB    LDY     #$0ECB
L15A32:
15A32: EC A1          LDD     ,Y++
15A34: ED 04          STD     4,X
15A36: EC A1          LDD     ,Y++
15A38: ED 06          STD     6,X
15A3A: EC A1          LDD     ,Y++
15A3C: ED 08          STD     8,X
15A3E: 35 FE          PULS    A,B,DP,X,Y,U,PC
15A40: 34 7E          PSHS    A,B,DP,X,Y,U
15A42: 10 8E 0E D7    LDY     #$0ED7
15A46: 20 EA          BRA     $15A32
L15A48:
15A48: 32 64          LEAS    4,S
15A4A: 1C FE          ANDCC   #$FE
15A4C: 35 F8          PULS    DP,X,Y,U,PC
15A4E: 34 78          PSHS    DP,X,Y,U
15A50: 32 7C          LEAS    -4,S
15A52: A6 88 21       LDA     33,X
15A55: 81 03          CMPA    #$03
15A57: 27 EF          BEQ     $15A48
15A59: 81 05          CMPA    #$05
15A5B: 27 EB          BEQ     $15A48
15A5D: 81 06          CMPA    #$06
15A5F: 27 E7          BEQ     $15A48
15A61: A6 88 17       LDA     23,X
15A64: CE 5B 98       LDU     #$5B98
15A67: 84 0F          ANDA    #$0F
15A69: A6 C6          LDA     A,U
15A6B: 26 DB          BNE     $15A48
15A6D: A6 88 21       LDA     33,X
15A70: 81 03          CMPA    #$03
15A72: 25 04          BCS     $15A78
15A74: 81 05          CMPA    #$05
15A76: 26 D0          BNE     $15A48
L15A78:
15A78: A6 88 53       LDA     83,X
15A7B: 27 05          BEQ     $15A82
15A7D: 6A 88 53       DEC     83,X
15A80: 20 C6          BRA     $15A48
L15A82:
15A82: 10 BE 0F 36    LDY     $0F36
15A86: CE 0B EE       LDU     #$0BEE
15A89: 4F             CLRA
15A8A: BD 5B 26       JSR     $5B26
15A8D: EC 08          LDD     8,X
15A8F: 10 A3 28       CMPD    8,Y
15A92: 26 12          BNE     $15AA6
15A94: EC 46          LDD     6,U
15A96: A3 C4          SUBD    ,U
15A98: 2A 07          BPL     $15AA1
15A9A: ED 61          STD     1,S
15A9C: CC 00 00       LDD     #$0000
15A9F: A3 61          SUBD    1,S
L15AA1:
15AA1: F1 0F 33       CMPB    $0F33
15AA4: 24 A2          BCC     $15A48
L15AA6:
15AA6: A6 88 15       LDA     21,X
15AA9: 84 40          ANDA    #$40
15AAB: 26 73          BNE     $15B20
15AAD: EC 06          LDD     6,X
15AAF: ED 42          STD     2,U
15AB1: ED 48          STD     8,U
15AB3: EC 08          LDD     8,X
15AB5: ED 44          STD     4,U
15AB7: ED 4A          STD     10,U
15AB9: A6 0D          LDA     13,X
15ABB: 84 80          ANDA    #$80
15ABD: A7 4C          STA     12,U
15ABF: BD FE 20       JSR     $FE20
15AC2: BD FB 00       JSR     $FB00
15AC5: B6 0C 27       LDA     $0C27
15AC8: 84 05          ANDA    #$05
15ACA: 27 54          BEQ     $15B20
15ACC: 4F             CLRA
15ACD: BD 5B 26       JSR     $5B26
15AD0: EC 08          LDD     8,X
15AD2: ED 44          STD     4,U
15AD4: C3 00 30       ADDD    #$0030
15AD7: ED 4A          STD     10,U
15AD9: A6 03          LDA     3,X
15ADB: 84 80          ANDA    #$80
15ADD: A7 4C          STA     12,U
15ADF: BD FE 20       JSR     $FE20
15AE2: BD FB 00       JSR     $FB00
15AE5: B6 0C 27       LDA     $0C27
15AE8: 84 05          ANDA    #$05
15AEA: 26 15          BNE     $15B01
15AEC: EC 06          LDD     6,X
15AEE: 10 A3 26       CMPD    6,Y
15AF1: 25 2D          BCS     $15B20
15AF3: 86 11          LDA     #$11
15AF5: A7 88 1B       STA     27,X
15AF8: 86 00          LDA     #$00
15AFA: A7 88 4E       STA     78,X
15AFD: 1A 01          ORCC    #$01
15AFF: 20 21          BRA     $15B22
L15B01:
15B01: B6 0F 35       LDA     $0F35
15B04: 84 01          ANDA    #$01
15B06: 27 06          BEQ     $15B0E
15B08: 6D 0D          TST     13,X
15B0A: 2A 14          BPL     $15B20
15B0C: 20 04          BRA     $15B12
L15B0E:
15B0E: 6D 0D          TST     13,X
15B10: 2B 0E          BMI     $15B20
L15B12:
15B12: A6 88 1B       LDA     27,X
15B15: 84 3F          ANDA    #$3F
15B17: 81 12          CMPA    #$12
15B19: 27 05          BEQ     $15B20
15B1B: 86 0E          LDA     #$0E
15B1D: A7 88 38       STA     56,X
L15B20:
15B20: 1C FE          ANDCC   #$FE
L15B22:
15B22: 32 64          LEAS    4,S
15B24: 35 F8          PULS    DP,X,Y,U,PC
15B26: 34 22          PSHS    A,Y
15B28: EC 04          LDD     4,X
15B2A: ED C4          STD     ,U
15B2C: 10 8E 5B 58    LDY     #$5B58
15B30: 6D E4          TST     ,S
15B32: 27 04          BEQ     $15B38
15B34: 10 8E 5B 78    LDY     #$5B78
L15B38:
15B38: A6 0D          LDA     13,X
15B3A: 44             LSRA
15B3B: 44             LSRA
15B3C: 44             LSRA
15B3D: 84 1C          ANDA    #$1C
15B3F: 31 A6          LEAY    A,Y
15B41: EC A1          LDD     ,Y++
15B43: E3 04          ADDD    4,X
15B45: 81 FF          CMPA    #$FF
15B47: 26 03          BNE     $15B4C
15B49: CC 00 00       LDD     #$0000
L15B4C:
15B4C: ED 46          STD     6,U
15B4E: EC 06          LDD     6,X
15B50: ED 42          STD     2,U
15B52: E3 A1          ADDD    ,Y++
15B54: ED 48          STD     8,U
15B56: 35 A2          PULS    A,Y,PC
15B58: 00 10          NEG     <$10
15B5A: 00 00          NEG     <$00
15B5C: 00 10          NEG     <$10
15B5E: 00 00          NEG     <$00
15B60: 00 10          NEG     <$10
15B62: 00 00          NEG     <$00
15B64: 00 10          NEG     <$10
15B66: 00 00          NEG     <$00
15B68: FF F0 00       STU     $F000
15B6B: 00 FF          NEG     <$FF
15B6D: F0 00 00       SUBB    $0000
15B70: FF F0 00       STU     $F000
15B73: 00 FF          NEG     <$FF
15B75: F0 00 00       SUBB    $0000
15B78: 00 40          NEG     <$40
15B7A: 00 08          NEG     <$08
15B7C: 00 40          NEG     <$40
15B7E: 00 08          NEG     <$08
15B80: 00 40          NEG     <$40
15B82: 00 00          NEG     <$00
15B84: 00 40          NEG     <$40
15B86: FF F8 FF       STU     $F8FF
15B89: C0 FF          SUBB    #$FF
15B8B: F8 FF C0       EORB    $FFC0
15B8E: FF F8 FF       STU     $F8FF
15B91: C0 00          SUBB    #$00
15B93: 00 FF          NEG     <$FF
15B95: C0 00          SUBB    #$00
15B97: 08 FF          ASL     <$FF
15B99: 00 FF          NEG     <$FF
15B9B: FF FF FF       STU     $FFFF
15B9E: 00 00          NEG     <$00
15BA0: 00 FF          NEG     <$FF
15BA2: 00 34          NEG     <$34
15BA4: 78 FE 0F       ASL     $FE0F
15BA7: 36 B6          PSHU    A,B,X,Y,PC
15BA9: 0C 29          INC     <$29
15BAB: 84 F0          ANDA    #$F0
15BAD: 26 51          BNE     $15C00
15BAF: B6 0C 28       LDA     $0C28
15BB2: 84 F0          ANDA    #$F0
15BB4: 26 4A          BNE     $15C00
15BB6: A6 88 21       LDA     33,X
15BB9: 81 03          CMPA    #$03
15BBB: 27 2A          BEQ     $15BE7
15BBD: 81 05          CMPA    #$05
15BBF: 27 26          BEQ     $15BE7
15BC1: 81 06          CMPA    #$06
15BC3: 27 22          BEQ     $15BE7
15BC5: A6 01          LDA     1,X
15BC7: 81 02          CMPA    #$02
15BC9: 27 1C          BEQ     $15BE7
15BCB: EC 48          LDD     8,U
15BCD: 10 A3 08       CMPD    8,X
15BD0: 27 15          BEQ     $15BE7
15BD2: 24 13          BCC     $15BE7
15BD4: A6 C8 15       LDA     21,U
15BD7: 85 40          BITA    #$40
15BD9: 26 0C          BNE     $15BE7
15BDB: 86 11          LDA     #$11
15BDD: A7 88 1B       STA     27,X
15BE0: 86 01          LDA     #$01
15BE2: A7 88 4E       STA     78,X
15BE5: 20 19          BRA     $15C00
L15BE7:
15BE7: A6 88 38       LDA     56,X
15BEA: 84 0F          ANDA    #$0F
15BEC: 81 0E          CMPA    #$0E
15BEE: 27 0B          BEQ     $15BFB
15BF0: 86 0E          LDA     #$0E
15BF2: A7 88 38       STA     56,X
15BF5: A6 0D          LDA     13,X
15BF7: 8B 80          ADDA    #$80
15BF9: A7 0D          STA     13,X
L15BFB:
15BFB: BD 5A 40       JSR     $5A40
15BFE: 20 03          BRA     $15C03
L15C00:
15C00: BD 5A 2C       JSR     $5A2C
L15C03:
15C03: 35 F8          PULS    DP,X,Y,U,PC
15C05: A6 88 17       LDA     23,X
15C08: 84 0F          ANDA    #$0F
15C0A: 81 08          CMPA    #$08
15C0C: 26 51          BNE     $15C5F
15C0E: A6 88 61       LDA     97,X
15C11: 26 42          BNE     $15C55
15C13: A6 88 39       LDA     57,X
15C16: 84 7F          ANDA    #$7F
15C18: 26 45          BNE     $15C5F
15C1A: A6 88 21       LDA     33,X
15C1D: 27 0C          BEQ     $15C2B
15C1F: 81 01          CMPA    #$01
15C21: 27 08          BEQ     $15C2B
15C23: 81 04          CMPA    #$04
15C25: 27 04          BEQ     $15C2B
15C27: 81 08          CMPA    #$08
15C29: 26 34          BNE     $15C5F
L15C2B:
15C2B: B6 0F 4A       LDA     $0F4A
15C2E: 81 40          CMPA    #$40
15C30: 24 2D          BCC     $15C5F
15C32: B6 0F 34       LDA     $0F34
15C35: 81 08          CMPA    #$08
15C37: 24 26          BCC     $15C5F
15C39: B6 0F 33       LDA     $0F33
15C3C: 81 30          CMPA    #$30
15C3E: 25 1F          BCS     $15C5F
15C40: 81 38          CMPA    #$38
15C42: 24 1B          BCC     $15C5F
15C44: 86 01          LDA     #$01
15C46: A7 88 61       STA     97,X
15C49: A6 03          LDA     3,X
15C4B: 88 80          EORA    #$80
L15C4D:
15C4D: A7 03          STA     3,X
15C4F: 86 07          LDA     #$07
15C51: AA 03          ORA     3,X
15C53: A7 02          STA     2,X
L15C55:
15C55: 6C 88 62       INC     98,X
15C58: A6 88 62       LDA     98,X
15C5B: 81 20          CMPA    #$20
15C5D: 25 06          BCS     $15C65
L15C5F:
15C5F: 6F 88 62       CLR     98,X
15C62: 6F 88 61       CLR     97,X
L15C65:
15C65: A6 88 61       LDA     97,X
15C68: 27 37          BEQ     $15CA1
15C6A: B6 0F 34       LDA     $0F34
15C6D: 81 08          CMPA    #$08
15C6F: 24 EE          BCC     $15C5F
15C71: B6 0F 33       LDA     $0F33
15C74: 81 2C          CMPA    #$2C
15C76: 24 26          BCC     $15C9E
15C78: 10 8E 5C A4    LDY     #$5CA4
15C7C: A6 88 17       LDA     23,X
15C7F: 84 0F          ANDA    #$0F
15C81: 81 08          CMPA    #$08
15C83: 27 04          BEQ     $15C89
15C85: 10 8E 5C B4    LDY     #$5CB4
L15C89:
15C89: BD FB 76       JSR     $FB76
15C8C: 84 0F          ANDA    #$0F
15C8E: A6 A6          LDA     A,Y
15C90: A7 88 1E       STA     30,X
15C93: 86 07          LDA     #$07
15C95: A7 88 1B       STA     27,X
15C98: 6F 88 61       CLR     97,X
15C9B: 6F 88 62       CLR     98,X
L15C9E:
15C9E: 1A 01          ORCC    #$01
15CA0: 39             RTS
L15CA1:
15CA1: 1C FE          ANDCC   #$FE
15CA3: 39             RTS
15CA4: 04 05          LSR     <$05
15CA6: 04 05          LSR     <$05
15CA8: 04 05          LSR     <$05
15CAA: 05             FCB     $05
15CAB: 05             FCB     $05
15CAC: 04 05          LSR     <$05
15CAE: 04 05          LSR     <$05
15CB0: 04 05          LSR     <$05
15CB2: 05             FCB     $05
15CB3: 05             FCB     $05
15CB4: 04 07          LSR     <$07
15CB6: 01             FCB     $01
15CB7: 04 07          LSR     <$07
15CB9: 07 04          ASR     <$04
15CBB: 04 04          LSR     <$04
15CBD: 07 01          ASR     <$01
15CBF: 04 07          LSR     <$07
15CC1: 07 04          ASR     <$04
15CC3: 01             FCB     $01
15CC4: A6 88 1B       LDA     27,X
15CC7: 2B 06          BMI     $15CCF
15CC9: BD FE 64       JSR     $FE64
15CCC: 7F 0F 40       CLR     $0F40
L15CCF:
15CCF: B6 0F 40       LDA     $0F40
15CD2: 84 0F          ANDA    #$0F
15CD4: 48             ASLA
15CD5: 10 8E 5C DC    LDY     #$5CDC
15CD9: 6E B6          JMP     [A,Y]
15CDB: 39             RTS
15CDC: 5C             INCB
15CDD: EA 5D          ORB     -3,U
15CDF: 40             NEGA
15CE0: 5D             TSTB
15CE1: 7B             FCB     $7B
15CE2: 5D             TSTB
15CE3: BC 5D FA       CMPX    $5DFA
15CE6: 5E             FCB     $5E
15CE7: 40             NEGA
15CE8: 5E             FCB     $5E
15CE9: 7D 10 8E       TST     $108E
15CEC: 5D             TSTB
15CED: 36 B6          PSHU    A,B,X,Y,PC
15CEF: 0F 40          CLR     <$40
15CF1: 2B 0F          BMI     $15D02
15CF3: 8A 80          ORA     #$80
15CF5: B7 0F 40       STA     $0F40
15CF8: 6F 88 18       CLR     24,X
15CFB: 86 10          LDA     #$10
15CFD: A7 88 19       STA     25,X
15D00: A6 A4          LDA     ,Y
L15D02:
15D02: 6A 88 19       DEC     25,X
15D05: 26 22          BNE     $15D29
15D07: 6C 88 18       INC     24,X
15D0A: A6 88 18       LDA     24,X
15D0D: 81 02          CMPA    #$02
15D0F: 25 04          BCS     $15D15
15D11: 6F 88 18       CLR     24,X
15D14: 4F             CLRA
L15D15:
15D15: A6 A6          LDA     A,Y
15D17: AA 03          ORA     3,X
15D19: A7 02          STA     2,X
15D1B: BD FB 76       JSR     $FB76
15D1E: 84 07          ANDA    #$07
15D20: 10 8E 5D 38    LDY     #$5D38
15D24: A6 A6          LDA     A,Y
15D26: A7 88 19       STA     25,X
L15D29:
15D29: B6 0B DF       LDA     $0BDF
15D2C: 81 03          CMPA    #$03
15D2E: 25 05          BCS     $15D35
15D30: 86 01          LDA     #$01
15D32: B7 0F 40       STA     $0F40
L15D35:
15D35: 39             RTS
15D36: 1D             SEX
15D37: 1E 20          EXG     Y,D
15D39: 18             FCB     $18
15D3A: 10 08          FCB     $10,$08
15D3C: 10 18          FCB     $10,$18
15D3E: 20 08          BRA     $15D48
15D40: B6 0F 40       LDA     $0F40
15D43: 2B 17          BMI     $15D5C
15D45: 8A 80          ORA     #$80
15D47: B7 0F 40       STA     $0F40
15D4A: 6F 88 18       CLR     24,X
15D4D: 86 19          LDA     #$19
15D4F: A7 02          STA     2,X
15D51: 86 08          LDA     #$08
15D53: A7 88 19       STA     25,X
15D56: 10 BE 0F 3E    LDY     $0F3E
15D5A: 6F A4          CLR     ,Y
L15D5C:
15D5C: 6A 88 19       DEC     25,X
15D5F: 26 13          BNE     $15D74
15D61: 6C 88 18       INC     24,X
15D64: A6 88 18       LDA     24,X
15D67: 81 02          CMPA    #$02
15D69: 24 0A          BCC     $15D75
15D6B: 86 1A          LDA     #$1A
15D6D: A7 02          STA     2,X
15D6F: 86 08          LDA     #$08
15D71: A7 88 19       STA     25,X
L15D74:
15D74: 39             RTS
L15D75:
15D75: 86 02          LDA     #$02
15D77: B7 0F 40       STA     $0F40
15D7A: 39             RTS
15D7B: B6 0F 40       LDA     $0F40
15D7E: 2B 28          BMI     $15DA8
15D80: 8A 80          ORA     #$80
15D82: B7 0F 40       STA     $0F40
15D85: 6F 88 18       CLR     24,X
15D88: 86 00          LDA     #$00
15D8A: A7 88 37       STA     55,X
15D8D: A7 03          STA     3,X
15D8F: 86 00          LDA     #$00
15D91: AA 03          ORA     3,X
15D93: A7 02          STA     2,X
15D95: 86 01          LDA     #$01
15D97: A7 88 19       STA     25,X
15D9A: 86 40          LDA     #$40
15D9C: A7 0D          STA     13,X
15D9E: 86 10          LDA     #$10
15DA0: A7 0E          STA     14,X
15DA2: 10 BE 0F 3E    LDY     $0F3E
15DA6: 6F A4          CLR     ,Y
L15DA8:
15DA8: BD FB 58       JSR     $FB58
15DAB: EC 04          LDD     4,X
15DAD: 10 83 17 B0    CMPD    #$17B0
15DB1: 25 05          BCS     $15DB8
15DB3: 86 03          LDA     #$03
15DB5: B7 0F 40       STA     $0F40
L15DB8:
15DB8: BD FC 1E       JSR     $FC1E
15DBB: 39             RTS
15DBC: B6 0F 40       LDA     $0F40
15DBF: 2B 2E          BMI     $15DEF
15DC1: 8A 80          ORA     #$80
15DC3: B7 0F 40       STA     $0F40
15DC6: CC 17 40       LDD     #$1740
15DC9: ED 04          STD     4,X
15DCB: CC 01 8F       LDD     #$018F
15DCE: ED 06          STD     6,X
15DD0: CC 01 20       LDD     #$0120
15DD3: ED 08          STD     8,X
15DD5: 86 C0          LDA     #$C0
15DD7: A7 0D          STA     13,X
15DD9: 86 7F          LDA     #$7F
15DDB: A7 02          STA     2,X
15DDD: 86 30          LDA     #$30
15DDF: A7 88 19       STA     25,X
15DE2: 86 00          LDA     #$00
15DE4: A7 88 37       STA     55,X
15DE7: 6F 0E          CLR     14,X
15DE9: 10 BE 0F 3E    LDY     $0F3E
15DED: 6F A4          CLR     ,Y
L15DEF:
15DEF: 6A 88 19       DEC     25,X
15DF2: 26 05          BNE     $15DF9
15DF4: 86 04          LDA     #$04
15DF6: B7 0F 40       STA     $0F40
L15DF9:
15DF9: 39             RTS
15DFA: 10 8E 5E 3E    LDY     #$5E3E
15DFE: B6 0F 40       LDA     $0F40
15E01: 2B 0E          BMI     $15E11
15E03: 8A 80          ORA     #$80
15E05: B7 0F 40       STA     $0F40
15E08: 86 10          LDA     #$10
15E0A: A7 0E          STA     14,X
15E0C: 86 10          LDA     #$10
15E0E: A7 88 19       STA     25,X
L15E11:
15E11: 6A 88 19       DEC     25,X
15E14: 26 17          BNE     $15E2D
15E16: 6C 88 18       INC     24,X
15E19: A6 88 18       LDA     24,X
15E1C: 81 02          CMPA    #$02
15E1E: 25 04          BCS     $15E24
15E20: 6F 88 18       CLR     24,X
15E23: 4F             CLRA
L15E24:
15E24: A6 A6          LDA     A,Y
15E26: A7 02          STA     2,X
15E28: 86 10          LDA     #$10
15E2A: A7 88 19       STA     25,X
L15E2D:
15E2D: BD FB 58       JSR     $FB58
15E30: EC 04          LDD     4,X
15E32: 10 83 16 F8    CMPD    #$16F8
15E36: 24 05          BCC     $15E3D
15E38: 86 05          LDA     #$05
15E3A: B7 0F 40       STA     $0F40
L15E3D:
15E3D: 39             RTS
15E3E: 5A             DECB
15E3F: 5B             FCB     $5B
15E40: B6 0F 40       LDA     $0F40
15E43: 2B 28          BMI     $15E6D
15E45: 8A 80          ORA     #$80
15E47: B7 0F 40       STA     $0F40
15E4A: CC 16 C8       LDD     #$16C8
15E4D: ED 04          STD     4,X
15E4F: CC 01 8F       LDD     #$018F
15E52: ED 06          STD     6,X
15E54: CC 01 20       LDD     #$0120
15E57: ED 08          STD     8,X
15E59: 86 C0          LDA     #$C0
15E5B: A7 0D          STA     13,X
15E5D: 86 7F          LDA     #$7F
15E5F: A7 02          STA     2,X
15E61: 86 30          LDA     #$30
15E63: A7 88 19       STA     25,X
15E66: 86 00          LDA     #$00
15E68: A7 88 37       STA     55,X
15E6B: 6F 0E          CLR     14,X
L15E6D:
15E6D: 6A 88 19       DEC     25,X
15E70: 26 0A          BNE     $15E7C
15E72: 86 06          LDA     #$06
15E74: B7 0F 40       STA     $0F40
15E77: 86 08          LDA     #$08
15E79: B7 0B AE       STA     $0BAE
L15E7C:
15E7C: 39             RTS
15E7D: B6 0B AE       LDA     $0BAE
15E80: 84 04          ANDA    #$04
15E82: 27 3A          BEQ     $15EBE
15E84: B6 0F 40       LDA     $0F40
15E87: 2B 16          BMI     $15E9F
15E89: 8A 80          ORA     #$80
15E8B: B7 0F 40       STA     $0F40
15E8E: 86 08          LDA     #$08
15E90: A7 0E          STA     14,X
15E92: 86 01          LDA     #$01
15E94: A7 88 19       STA     25,X
15E97: 6F 88 18       CLR     24,X
15E9A: 6F 03          CLR     3,X
15E9C: 6F 88 37       CLR     55,X
L15E9F:
15E9F: BD FC 1E       JSR     $FC1E
15EA2: BD FB 58       JSR     $FB58
15EA5: 86 07          LDA     #$07
15EA7: A7 02          STA     2,X
15EA9: B6 0B AE       LDA     $0BAE
15EAC: 8A 02          ORA     #$02
15EAE: B7 0B AE       STA     $0BAE
15EB1: 86 0A          LDA     #$0A
15EB3: BD 6B DF       JSR     $6BDF
15EB6: 86 00          LDA     #$00
15EB8: A7 88 1B       STA     27,X
15EBB: 7F 0F 40       CLR     $0F40
L15EBE:
15EBE: 39             RTS
15EBF: 8E 04 60       LDX     #$0460
15EC2: 7F 0A AD       CLR     $0AAD
15EC5: 0F 81          CLR     <$81
15EC7: 0F 94          CLR     <$94
15EC9: 0F A7          CLR     <$A7
15ECB: 0F BA          CLR     <$BA
L15ECD:
15ECD: A6 84          LDA     ,X
15ECF: 84 C0          ANDA    #$C0
15ED1: 81 C0          CMPA    #$C0
15ED3: 26 0B          BNE     $15EE0
15ED5: 10 8E 5E EE    LDY     #$5EEE
15ED9: 96 29          LDA     <$29
15EDB: 84 03          ANDA    #$03
15EDD: 48             ASLA
15EDE: AD B6          JSR     [A,Y]
L15EE0:
15EE0: C6 63          LDB     #$63
15EE2: 3A             ABX
15EE3: 7C 0A AD       INC     $0AAD
15EE6: B6 0A AD       LDA     $0AAD
15EE9: 81 09          CMPA    #$09
15EEB: 25 E0          BCS     $15ECD
15EED: 39             RTS
15EEE: 5E             FCB     $5E
15EEF: F6 5E F7       LDB     $5EF7
15EF2: 5E             FCB     $5E
15EF3: FF 5F 07       STU     $5F07
15EF6: 39             RTS
15EF7: 10 8E 03 A2    LDY     #$03A2
15EFB: BD 5F 16       JSR     $5F16
15EFE: 39             RTS
15EFF: 10 8E 04 01    LDY     #$0401
15F03: BD 5F 16       JSR     $5F16
15F06: 39             RTS
15F07: 10 8E 03 A2    LDY     #$03A2
15F0B: BD 5F 16       JSR     $5F16
15F0E: 10 8E 04 01    LDY     #$0401
15F12: BD 5F 16       JSR     $5F16
15F15: 39             RTS
15F16: 32 71          LEAS    -15,S
15F18: EC 24          LDD     4,Y
15F1A: ED E4          STD     ,S
15F1C: EC 04          LDD     4,X
15F1E: ED 62          STD     2,S
15F20: A6 A8 1B       LDA     27,Y
15F23: 84 7F          ANDA    #$7F
15F25: 81 05          CMPA    #$05
15F27: 26 0E          BNE     $15F37
15F29: CC 00 10       LDD     #$0010
15F2C: 6D 23          TST     3,Y
15F2E: 2A 03          BPL     $15F33
15F30: CC FF F0       LDD     #$FFF0
L15F33:
15F33: E3 24          ADDD    4,Y
15F35: ED 24          STD     4,Y
L15F37:
15F37: A6 88 1B       LDA     27,X
15F3A: 84 0F          ANDA    #$0F
15F3C: 81 05          CMPA    #$05
15F3E: 26 0E          BNE     $15F4E
15F40: CC 00 10       LDD     #$0010
15F43: 6D 03          TST     3,X
15F45: 2A 03          BPL     $15F4A
15F47: CC FF F0       LDD     #$FFF0
L15F4A:
15F4A: E3 04          ADDD    4,X
15F4C: ED 04          STD     4,X
L15F4E:
15F4E: 10 9F 00       STY     <$00
15F51: BD FB 4E       JSR     $FB4E
15F54: 10 8C 03 A2    CMPY    #$03A2
15F58: 26 2A          BNE     $15F84
15F5A: A6 88 13       LDA     19,X
15F5D: 84 FC          ANDA    #$FC
15F5F: 9A 00          ORA     <$00
15F61: A7 88 13       STA     19,X
15F64: DC 01          LDD     <$01
15F66: 0D 01          TST     <$01
15F68: 27 04          BEQ     $15F6E
15F6A: 86 FF          LDA     #$FF
15F6C: 97 02          STA     <$02
L15F6E:
15F6E: 96 02          LDA     <$02
15F70: A7 88 3A       STA     58,X
15F73: DC 03          LDD     <$03
15F75: 0D 03          TST     <$03
15F77: 27 04          BEQ     $15F7D
15F79: 86 FF          LDA     #$FF
15F7B: 97 04          STA     <$04
L15F7D:
15F7D: 96 04          LDA     <$04
15F7F: A7 88 3B       STA     59,X
15F82: 20 28          BRA     $15FAC
L15F84:
15F84: A6 88 14       LDA     20,X
15F87: 84 FC          ANDA    #$FC
15F89: 9A 00          ORA     <$00
15F8B: A7 88 14       STA     20,X
15F8E: DC 01          LDD     <$01
15F90: 0D 01          TST     <$01
15F92: 27 04          BEQ     $15F98
15F94: 86 FF          LDA     #$FF
15F96: 97 02          STA     <$02
L15F98:
15F98: 96 02          LDA     <$02
15F9A: A7 88 3C       STA     60,X
15F9D: DC 03          LDD     <$03
15F9F: 0D 03          TST     <$03
15FA1: 27 04          BEQ     $15FA7
15FA3: 86 FF          LDA     #$FF
15FA5: 97 04          STA     <$04
L15FA7:
15FA7: 96 04          LDA     <$04
15FA9: A7 88 3D       STA     61,X
L15FAC:
15FAC: EC E4          LDD     ,S
15FAE: ED 24          STD     4,Y
15FB0: EC 62          LDD     2,S
15FB2: ED 04          STD     4,X
15FB4: 32 6F          LEAS    15,S
15FB6: 39             RTS
15FB7: 34 36          PSHS    A,B,X,Y
15FB9: 8E 04 60       LDX     #$0460
15FBC: 96 0F          LDA     <$0F
15FBE: C6 63          LDB     #$63
15FC0: 3D             MUL
15FC1: 30 8B          LEAX    D,X
15FC3: 9F 0E          STX     <$0E
15FC5: 35 B6          PULS    A,B,X,Y,PC
15FC7: 34 3E          PSHS    A,B,DP,X,Y
15FC9: 10 BE 0F 36    LDY     $0F36
15FCD: A6 A8 1B       LDA     27,Y
15FD0: 84 7F          ANDA    #$7F
15FD2: 81 0A          CMPA    #$0A
15FD4: 26 09          BNE     $15FDF
15FD6: BD 62 CD       JSR     $62CD
15FD9: 27 31          BEQ     $1600C
15FDB: 86 06          LDA     #$06
15FDD: 26 26          BNE     $16005
L15FDF:
15FDF: 81 09          CMPA    #$09
15FE1: 27 08          BEQ     $15FEB
15FE3: 81 06          CMPA    #$06
15FE5: 27 04          BEQ     $15FEB
15FE7: 81 08          CMPA    #$08
15FE9: 26 09          BNE     $15FF4
L15FEB:
15FEB: BD 62 CD       JSR     $62CD
15FEE: 26 1C          BNE     $1600C
L15FF0:
15FF0: 86 06          LDA     #$06
15FF2: 20 11          BRA     $16005
L15FF4:
15FF4: 81 0C          CMPA    #$0C
15FF6: 27 F8          BEQ     $15FF0
15FF8: 81 05          CMPA    #$05
15FFA: 26 10          BNE     $1600C
15FFC: B6 0F 33       LDA     $0F33
15FFF: 81 2C          CMPA    #$2C
16001: 24 09          BCC     $1600C
16003: 86 0B          LDA     #$0B
L16005:
16005: A7 88 38       STA     56,X
16008: 1A 01          ORCC    #$01
1600A: 35 BE          PULS    A,B,DP,X,Y,PC
L1600C:
1600C: 1C FE          ANDCC   #$FE
1600E: 35 BE          PULS    A,B,DP,X,Y,PC
16010: 34 3E          PSHS    A,B,DP,X,Y
16012: 10 BE 0F 36    LDY     $0F36
16016: A6 A8 1B       LDA     27,Y
16019: 84 3F          ANDA    #$3F
1601B: 81 0A          CMPA    #$0A
1601D: 26 0E          BNE     $1602D
1601F: BD 62 CD       JSR     $62CD
16022: 27 31          BEQ     $16055
16024: BD 63 34       JSR     $6334
16027: 26 34          BNE     $1605D
16029: 86 02          LDA     #$02
1602B: 26 29          BNE     $16056
L1602D:
1602D: 81 09          CMPA    #$09
1602F: 27 08          BEQ     $16039
16031: 81 06          CMPA    #$06
16033: 27 04          BEQ     $16039
16035: 81 08          CMPA    #$08
16037: 26 0E          BNE     $16047
L16039:
16039: BD 62 CD       JSR     $62CD
1603C: 26 17          BNE     $16055
1603E: BD 63 34       JSR     $6334
16041: 26 1A          BNE     $1605D
16043: 86 01          LDA     #$01
16045: 26 0F          BNE     $16056
L16047:
16047: B6 0F 34       LDA     $0F34
1604A: 81 04          CMPA    #$04
1604C: 24 0F          BCC     $1605D
1604E: B6 0F 33       LDA     $0F33
16051: 81 24          CMPA    #$24
16053: 24 08          BCC     $1605D
L16055:
16055: 4F             CLRA
L16056:
16056: A7 88 38       STA     56,X
16059: 1A 01          ORCC    #$01
1605B: 35 BE          PULS    A,B,DP,X,Y,PC
L1605D:
1605D: 1C FE          ANDCC   #$FE
1605F: 35 BE          PULS    A,B,DP,X,Y,PC
16061: 34 36          PSHS    A,B,X,Y
16063: A6 88 39       LDA     57,X
16066: 81 02          CMPA    #$02
16068: 26 3E          BNE     $160A8
1606A: 10 BE 0F 36    LDY     $0F36
1606E: A6 A8 54       LDA     84,Y
16071: 97 0F          STA     <$0F
16073: BD 5F B7       JSR     $5FB7
16076: 10 9E 0E       LDY     <$0E
16079: A6 A8 1B       LDA     27,Y
1607C: 84 3F          ANDA    #$3F
1607E: 81 0C          CMPA    #$0C
16080: 26 26          BNE     $160A8
16082: BD 63 2E       JSR     $632E
16085: 27 21          BEQ     $160A8
16087: 10 BE 0F 36    LDY     $0F36
1608B: A6 A8 1B       LDA     27,Y
1608E: 84 3F          ANDA    #$3F
16090: 81 0A          CMPA    #$0A
16092: 26 07          BNE     $1609B
16094: BD 62 CD       JSR     $62CD
16097: 27 07          BEQ     $160A0
16099: 26 0D          BNE     $160A8
L1609B:
1609B: BD 62 CD       JSR     $62CD
1609E: 27 08          BEQ     $160A8
L160A0:
160A0: 4F             CLRA
160A1: A7 88 38       STA     56,X
160A4: 1A 01          ORCC    #$01
160A6: 35 B6          PULS    A,B,X,Y,PC
L160A8:
160A8: 1C FE          ANDCC   #$FE
160AA: 35 B6          PULS    A,B,X,Y,PC
160AC: 34 7E          PSHS    A,B,DP,X,Y,U
160AE: A6 88 38       LDA     56,X
160B1: 84 20          ANDA    #$20
160B3: 26 47          BNE     $160FC
160B5: 10 BE 0F 36    LDY     $0F36
160B9: A6 A8 1B       LDA     27,Y
160BC: 84 3F          ANDA    #$3F
160BE: 81 07          CMPA    #$07
160C0: 10 26 00 7A    LBNE    $1613E
160C4: 96 51          LDA     <$51
160C6: 84 0E          ANDA    #$0E
160C8: 10 26 00 72    LBNE    $1613E
160CC: A6 A8 1E       LDA     30,Y
160CF: 84 7F          ANDA    #$7F
160D1: 81 09          CMPA    #$09
160D3: 26 07          BNE     $160DC
160D5: BD 62 CD       JSR     $62CD
160D8: 26 64          BNE     $1613E
160DA: 27 05          BEQ     $160E1
L160DC:
160DC: BD 62 CD       JSR     $62CD
160DF: 26 5D          BNE     $1613E
L160E1:
160E1: E6 01          LDB     1,X
160E3: C1 22          CMPB    #$22
160E5: 25 02          BCS     $160E9
160E7: C0 17          SUBB    #$17
L160E9:
160E9: C0 02          SUBB    #$02
160EB: 86 07          LDA     #$07
160ED: 97 00          STA     <$00
160EF: 10 8E 61 42    LDY     #$6142
160F3: A6 A5          LDA     B,Y
160F5: 97 01          STA     <$01
160F7: BD FC 0A       JSR     $FC0A
160FA: 27 42          BEQ     $1613E
L160FC:
160FC: 10 BE 0F 36    LDY     $0F36
16100: A6 A8 1E       LDA     30,Y
16103: 84 7F          ANDA    #$7F
16105: 48             ASLA
16106: 10 8E 61 4D    LDY     #$614D
1610A: 31 A6          LEAY    A,Y
1610C: A6 A0          LDA     ,Y+
1610E: 2B 26          BMI     $16136
16110: B1 0F 33       CMPA    $0F33
16113: 24 0E          BCC     $16123
16115: A6 A0          LDA     ,Y+
16117: B1 0F 33       CMPA    $0F33
1611A: 24 07          BCC     $16123
1611C: 86 04          LDA     #$04
1611E: A7 88 38       STA     56,X
16121: 20 13          BRA     $16136
L16123:
16123: A6 88 38       LDA     56,X
16126: 8A 20          ORA     #$20
16128: A7 88 38       STA     56,X
1612B: B6 0F 34       LDA     $0F34
1612E: 81 0C          CMPA    #$0C
16130: 24 0C          BCC     $1613E
16132: 1A 01          ORCC    #$01
16134: 20 0A          BRA     $16140
L16136:
16136: A6 88 38       LDA     56,X
16139: 84 DF          ANDA    #$DF
1613B: A7 88 38       STA     56,X
L1613E:
1613E: 1C FE          ANDCC   #$FE
L16140:
16140: 35 FE          PULS    A,B,DP,X,Y,U,PC
16142: 02             FCB     $02
16143: 03 03          COM     <$03
16145: 03 03          COM     <$03
16147: 03 03          COM     <$03
16149: 03 03          COM     <$03
1614B: 03 03          COM     <$03
1614D: 24 2C          BCC     $1617B
1614F: 24 2C          BCC     $1617D
16151: 24 2E          BCC     $16181
16153: 24 2C          BCC     $16181
16155: 24 2C          BCC     $16183
16157: 24 2C          BCC     $16185
16159: 24 2E          BCC     $16189
1615B: 24 2C          BCC     $16189
1615D: 24 2E          BCC     $1618D
1615F: 24 2C          BCC     $1618D
16161: 24 2C          BCC     $1618F
16163: 24 2C          BCC     $16191
16165: 24 2C          BCC     $16193
16167: 24 2C          BCC     $16195
16169: 24 2E          BCC     $16199
1616B: 24 2E          BCC     $1619B
1616D: 24 2C          BCC     $1619B
1616F: 24 2C          BCC     $1619D
16171: 24 2C          BCC     $1619F
16173: 24 2C          BCC     $161A1
16175: FF FF FF       STU     $FFFF
16178: FF FF FF       STU     $FFFF
L1617B:
1617B: FF FF 32       STU     $FF32
1617E: 7C A6 88       INC     $A688
L16181:
16181: 21 27          BRN     $161AA
L16183:
16183: 12             NOP
16184: 81 01          CMPA    #$01
16186: 27 0E          BEQ     $16196
16188: 81 04          CMPA    #$04
1618A: 27 0A          BEQ     $16196
1618C: 81 08          CMPA    #$08
1618E: 27 06          BEQ     $16196
16190: 81 09          CMPA    #$09
16192: 10 26 00 82    LBNE    $16218
L16196:
16196: 96 51          LDA     <$51
16198: 84 06          ANDA    #$06
1619A: 26 7C          BNE     $16218
1619C: 10 BE 0F 36    LDY     $0F36
161A0: EC 28          LDD     8,Y
161A2: A3 08          SUBD    8,X
161A4: 2B 72          BMI     $16218
161A6: 10 83 00 50    CMPD    #$0050
L161AA:
161AA: 24 6C          BCC     $16218
161AC: B6 0F 34       LDA     $0F34
161AF: 81 06          CMPA    #$06
161B1: 24 65          BCC     $16218
161B3: B6 0F 33       LDA     $0F33
161B6: 81 30          CMPA    #$30
161B8: 24 5E          BCC     $16218
161BA: A6 A8 1B       LDA     27,Y
161BD: 84 3F          ANDA    #$3F
161BF: 81 07          CMPA    #$07
161C1: 26 55          BNE     $16218
161C3: A6 A8 1E       LDA     30,Y
161C6: 84 7F          ANDA    #$7F
161C8: 81 02          CMPA    #$02
161CA: 27 0E          BEQ     $161DA
161CC: 81 05          CMPA    #$05
161CE: 27 1B          BEQ     $161EB
161D0: 81 06          CMPA    #$06
161D2: 26 44          BNE     $16218
161D4: 10 8E 62 1D    LDY     #$621D
161D8: 20 15          BRA     $161EF
L161DA:
161DA: A6 A8 5E       LDA     94,Y
161DD: 26 06          BNE     $161E5
161DF: 10 8E 62 49    LDY     #$6249
161E3: 20 0A          BRA     $161EF
L161E5:
161E5: 10 8E 62 75    LDY     #$6275
161E9: 20 04          BRA     $161EF
L161EB:
161EB: 10 8E 62 A1    LDY     #$62A1
L161EF:
161EF: A6 88 17       LDA     23,X
161F2: 84 0F          ANDA    #$0F
161F4: C6 04          LDB     #$04
161F6: 3D             MUL
161F7: 31 AB          LEAY    D,Y
161F9: 96 36          LDA     <$36
161FB: E6 A6          LDB     A,Y
161FD: 27 19          BEQ     $16218
161FF: 34 04          PSHS    B
16201: BD FB 76       JSR     $FB76
16204: 84 0F          ANDA    #$0F
16206: 35 04          PULS    B
16208: D7 00          STB     <$00
1620A: 91 00          CMPA    <$00
1620C: 24 0A          BCC     $16218
1620E: C6 04          LDB     #$04
16210: E7 88 1B       STB     27,X
16213: 32 64          LEAS    4,S
16215: 1A 01          ORCC    #$01
16217: 39             RTS
L16218:
16218: 32 64          LEAS    4,S
1621A: 1C FE          ANDCC   #$FE
1621C: 39             RTS
1621D: 00 00          NEG     <$00
1621F: 00 02          NEG     <$02
16221: 00 00          NEG     <$00
16223: 06 07          ROR     <$07
16225: 02             FCB     $02
16226: 03 04          COM     <$04
16228: 05             FCB     $05
16229: 00 02          NEG     <$02
1622B: 00 03          NEG     <$03
1622D: 02             FCB     $02
1622E: 03 04          COM     <$04
16230: 05             FCB     $05
16231: 00 00          NEG     <$00
16233: 07 08          ASR     <$08
16235: 01             FCB     $01
16236: 02             FCB     $02
16237: 03 03          COM     <$03
16239: 01             FCB     $01
1623A: 02             FCB     $02
1623B: 03 03          COM     <$03
1623D: 03 03          COM     <$03
1623F: 04 04          LSR     <$04
16241: 03 03          COM     <$03
16243: 04 05          LSR     <$05
16245: 00 00          NEG     <$00
16247: 00 0B          NEG     <$0B
16249: 00 00          NEG     <$00
1624B: 00 08          NEG     <$08
1624D: 00 00          NEG     <$00
1624F: 06 06          ROR     <$06
16251: 01             FCB     $01
16252: 02             FCB     $02
16253: 03 04          COM     <$04
16255: 00 04          NEG     <$04
16257: 00 06          NEG     <$06
16259: 01             FCB     $01
1625A: 02             FCB     $02
1625B: 03 04          COM     <$04
1625D: 00 00          NEG     <$00
1625F: 06 06          ROR     <$06
16261: 01             FCB     $01
16262: 02             FCB     $02
16263: 03 04          COM     <$04
16265: 01             FCB     $01
16266: 02             FCB     $02
16267: 03 04          COM     <$04
16269: 01             FCB     $01
1626A: 02             FCB     $02
1626B: 03 04          COM     <$04
1626D: 03 03          COM     <$03
1626F: 03 05          COM     <$05
16271: 00 00          NEG     <$00
16273: 00 0E          NEG     <$0E
16275: 00 00          NEG     <$00
16277: 00 0A          NEG     <$0A
16279: 00 00          NEG     <$00
1627B: 09 09          ROL     <$09
1627D: 03 03          COM     <$03
1627F: 04 04          LSR     <$04
16281: 00 05          NEG     <$05
16283: 00 07          NEG     <$07
16285: 03 03          COM     <$03
16287: 04 04          LSR     <$04
16289: 00 00          NEG     <$00
1628B: 0A 0A          DEC     <$0A
1628D: 02             FCB     $02
1628E: 02             FCB     $02
1628F: 03 03          COM     <$03
16291: 02             FCB     $02
16292: 02             FCB     $02
16293: 03 03          COM     <$03
16295: 03 03          COM     <$03
16297: 04 04          LSR     <$04
16299: 03 03          COM     <$03
1629B: 04 05          LSR     <$05
1629D: 00 00          NEG     <$00
1629F: 00 0C          NEG     <$0C
162A1: 00 00          NEG     <$00
162A3: 00 0C          NEG     <$0C
162A5: 00 00          NEG     <$00
162A7: 0A 0A          DEC     <$0A
162A9: 04 05          LSR     <$05
162AB: 06 07          ROR     <$07
162AD: 00 09          NEG     <$09
162AF: 00 0A          NEG     <$0A
162B1: 06 08          ROR     <$08
162B3: 0A 0C          DEC     <$0C
162B5: 00 00          NEG     <$00
162B7: 0E 0E          JMP     <$0E
162B9: 05             FCB     $05
162BA: 07 09          ASR     <$09
162BC: 0A 06          DEC     <$06
162BE: 08 0A          ASL     <$0A
162C0: 00 04          NEG     <$04
162C2: 06 08          ROR     <$08
162C4: 00 0C          NEG     <$0C
162C6: 08 08          ASL     <$08
162C8: 0C 00          INC     <$00
162CA: 00 00          NEG     <$00
162CC: 0F 34          CLR     <$34
162CE: 76 FE 0F       ROR     $FE0F
162D1: 36 B6          PSHU    A,B,X,Y,PC
162D3: 0F 35          CLR     <$35
162D5: 84 01          ANDA    #$01
162D7: 10 8E 62 E1    LDY     #$62E1
162DB: E6 43          LDB     3,U
162DD: E1 A6          CMPB    A,Y
162DF: 35 F6          PULS    A,B,X,Y,U,PC
162E1: 80 00          SUBA    #$00
162E3: B6 0F 35       LDA     $0F35
162E6: 84 01          ANDA    #$01
162E8: 10 8E 62 F1    LDY     #$62F1
162EC: E6 A6          LDB     A,Y
162EE: E1 0D          CMPB    13,X
162F0: 39             RTS
162F1: 40             NEGA
162F2: C0 34          SUBB    #$34
162F4: 36 4F          PSHU    CC,A,B,DP,S
L162F6:
162F6: 10 8E 03 F6    LDY     #$03F6
162FA: E6 88 14       LDB     20,X
162FD: C5 40          BITB    #$40
162FF: 27 04          BEQ     $16305
16301: 10 8E 04 55    LDY     #$0455
L16305:
16305: E6 A6          LDB     A,Y
16307: D7 0F          STB     <$0F
16309: BD 5F B7       JSR     $5FB7
1630C: 10 9E 0E       LDY     <$0E
1630F: A6 88 14       LDA     20,X
16312: 85 40          BITA    #$40
16314: 26 08          BNE     $1631E
16316: A6 88 13       LDA     19,X
16319: A8 A8 13       EORA    19,Y
1631C: 20 06          BRA     $16324
L1631E:
1631E: A6 88 14       LDA     20,X
16321: A8 A8 14       EORA    20,Y
L16324:
16324: 84 01          ANDA    #$01
16326: 35 B6          PULS    A,B,X,Y,PC
16328: 39             RTS
16329: 1C FE          ANDCC   #$FE
1632B: 35 B6          PULS    A,B,X,Y,PC
1632D: 39             RTS
1632E: 34 36          PSHS    A,B,X,Y
16330: 86 01          LDA     #$01
16332: 20 C2          BRA     $162F6
16334: 34 36          PSHS    A,B,X,Y
16336: 86 02          LDA     #$02
16338: 20 BC          BRA     $162F6
1633A: 34 16          PSHS    A,B,X
1633C: A6 01          LDA     1,X
1633E: 81 02          CMPA    #$02
16340: 25 08          BCS     $1634A
16342: A6 88 13       LDA     19,X
16345: 84 DF          ANDA    #$DF
16347: A7 88 13       STA     19,X
L1634A:
1634A: 10 AE 88 41    LDY     65,X
1634E: 27 59          BEQ     $163A9
16350: AF A8 21       STX     33,Y
16353: CC 00 00       LDD     #$0000
16356: ED 88 41       STD     65,X
16359: ED A8 1F       STD     31,Y
1635C: A7 A8 16       STA     22,Y
1635F: A7 88 21       STA     33,X
16362: 86 02          LDA     #$02
16364: A7 A8 1B       STA     27,Y
16367: A6 03          LDA     3,X
16369: A7 23          STA     3,Y
1636B: EC 04          LDD     4,X
1636D: ED 24          STD     4,Y
1636F: EC 06          LDD     6,X
16371: ED 26          STD     6,Y
16373: A6 01          LDA     1,X
16375: A7 A8 1E       STA     30,Y
16378: 81 02          CMPA    #$02
1637A: 25 2D          BCS     $163A9
1637C: A6 A8 17       LDA     23,Y
1637F: 84 1F          ANDA    #$1F
16381: 81 05          CMPA    #$05
16383: 27 15          BEQ     $1639A
16385: 81 06          CMPA    #$06
16387: 26 20          BNE     $163A9
16389: 7C 0F 22       INC     $0F22
1638C: B6 0F 22       LDA     $0F22
1638F: 81 02          CMPA    #$02
16391: 25 16          BCS     $163A9
16393: 7A 0F 22       DEC     $0F22
16396: 6F A4          CLR     ,Y
16398: 20 0F          BRA     $163A9
L1639A:
1639A: 7C 0F 23       INC     $0F23
1639D: B6 0F 23       LDA     $0F23
163A0: 81 02          CMPA    #$02
163A2: 25 05          BCS     $163A9
163A4: 7A 0F 23       DEC     $0F23
163A7: 6F A4          CLR     ,Y
L163A9:
163A9: 35 96          PULS    A,B,X,PC
163AB: 96 36          LDA     <$36
163AD: 81 01          CMPA    #$01
163AF: 26 5A          BNE     $1640B
163B1: B6 0B 13       LDA     $0B13
163B4: 81 03          CMPA    #$03
163B6: 26 53          BNE     $1640B
163B8: B6 0C 28       LDA     $0C28
163BB: 84 F0          ANDA    #$F0
163BD: 27 34          BEQ     $163F3
163BF: B6 0C 26       LDA     $0C26
163C2: 81 09          CMPA    #$09
163C4: 26 2D          BNE     $163F3
163C6: EC 06          LDD     6,X
163C8: 10 83 01 25    CMPD    #$0125
163CC: 25 05          BCS     $163D3
163CE: CC 01 25       LDD     #$0125
163D1: ED 06          STD     6,X
L163D3:
163D3: EC 04          LDD     4,X
163D5: C3 00 01       ADDD    #$0001
163D8: ED 04          STD     4,X
163DA: B6 0E F2       LDA     $0EF2
163DD: 85 20          BITA    #$20
163DF: 26 2A          BNE     $1640B
163E1: B6 0B A9       LDA     $0BA9
163E4: 84 04          ANDA    #$04
163E6: 26 23          BNE     $1640B
163E8: B6 0A AF       LDA     $0AAF
163EB: 2B 1E          BMI     $1640B
163ED: 86 1E          LDA     #$1E
163EF: BD 6B DF       JSR     $6BDF
163F2: 39             RTS
L163F3:
163F3: B6 0E F2       LDA     $0EF2
163F6: 85 20          BITA    #$20
163F8: 26 11          BNE     $1640B
163FA: B6 0B A9       LDA     $0BA9
163FD: 84 04          ANDA    #$04
163FF: 26 0A          BNE     $1640B
16401: B6 0A AF       LDA     $0AAF
16404: 2B 05          BMI     $1640B
16406: B6 0F 2A       LDA     $0F2A
16409: 26 00          BNE     $1640B
L1640B:
1640B: 39             RTS
1640C: B6 0C 26       LDA     $0C26
1640F: 81 04          CMPA    #$04
16411: 10 26 00 7A    LBNE    $1648F
16415: A6 88 4B       LDA     75,X
16418: 81 04          CMPA    #$04
1641A: 27 73          BEQ     $1648F
1641C: 81 06          CMPA    #$06
1641E: 27 6F          BEQ     $1648F
16420: 7F 0C 26       CLR     $0C26
16423: BD 64 92       JSR     $6492
16426: 25 67          BCS     $1648F
16428: 96 36          LDA     <$36
1642A: 81 02          CMPA    #$02
1642C: 26 1D          BNE     $1644B
1642E: A6 01          LDA     1,X
16430: 81 02          CMPA    #$02
16432: 25 17          BCS     $1644B
16434: A6 88 1B       LDA     27,X
16437: 84 3F          ANDA    #$3F
16439: 81 00          CMPA    #$00
1643B: 26 0E          BNE     $1644B
1643D: 86 00          LDA     #$00
1643F: A7 88 38       STA     56,X
16442: 86 00          LDA     #$00
16444: A7 0D          STA     13,X
16446: BD 5A 40       JSR     $5A40
16449: 20 44          BRA     $1648F
L1644B:
1644B: A6 88 1B       LDA     27,X
1644E: 84 3F          ANDA    #$3F
16450: 81 0B          CMPA    #$0B
16452: 27 38          BEQ     $1648C
16454: 81 09          CMPA    #$09
16456: 27 10          BEQ     $16468
16458: 81 0A          CMPA    #$0A
1645A: 27 0C          BEQ     $16468
1645C: 81 06          CMPA    #$06
1645E: 27 08          BEQ     $16468
16460: 81 08          CMPA    #$08
16462: 27 04          BEQ     $16468
16464: 81 0C          CMPA    #$0C
16466: 26 1C          BNE     $16484
L16468:
16468: 10 AE 88 2D    LDY     45,X
1646C: A6 88 16       LDA     22,X
1646F: 84 F9          ANDA    #$F9
16471: A7 88 16       STA     22,X
16474: A6 A8 16       LDA     22,Y
16477: 84 F9          ANDA    #$F9
16479: A7 A8 16       STA     22,Y
1647C: 86 0B          LDA     #$0B
1647E: A7 A8 1B       STA     27,Y
16481: BD 64 A8       JSR     $64A8
L16484:
16484: 86 0B          LDA     #$0B
16486: A7 88 1B       STA     27,X
16489: BD 64 A8       JSR     $64A8
L1648C:
1648C: 1A 01          ORCC    #$01
1648E: 39             RTS
L1648F:
1648F: 1C FE          ANDCC   #$FE
16491: 39             RTS
16492: A6 88 1B       LDA     27,X
16495: 84 3F          ANDA    #$3F
16497: 81 01          CMPA    #$01
16499: 26 07          BNE     $164A2
1649B: B6 0C 29       LDA     $0C29
1649E: 85 80          BITA    #$80
164A0: 26 03          BNE     $164A5
L164A2:
164A2: 1C FE          ANDCC   #$FE
164A4: 39             RTS
L164A5:
164A5: 1A 01          ORCC    #$01
164A7: 39             RTS
164A8: 10 8E 64 DB    LDY     #$64DB
164AC: 5F             CLRB
164AD: A6 02          LDA     2,X
164AF: 84 7F          ANDA    #$7F
164B1: 97 00          STA     <$00
L164B3:
164B3: A6 A5          LDA     B,Y
164B5: 81 FF          CMPA    #$FF
164B7: 27 21          BEQ     $164DA
164B9: 91 00          CMPA    <$00
164BB: 27 03          BEQ     $164C0
164BD: 5C             INCB
164BE: 20 F3          BRA     $164B3
L164C0:
164C0: 10 8E 64 E2    LDY     #$64E2
164C4: 58             ASLB
164C5: EC A5          LDD     B,Y
164C7: 6D 02          TST     2,X
164C9: 2A 09          BPL     $164D4
164CB: DD 00          STD     <$00
164CD: CC 00 00       LDD     #$0000
164D0: 93 00          SUBD    <$00
164D2: DD 00          STD     <$00
L164D4:
164D4: DC 00          LDD     <$00
164D6: E3 04          ADDD    4,X
164D8: ED 04          STD     4,X
L164DA:
164DA: 39             RTS
164DB: 0A 0B          DEC     <$0B
164DD: 0C 0D          INC     <$0D
164DF: 35 0E          PULS    A,B,DP
164E1: FF FF E4       STU     $FFE4
164E4: FF E4 00       STU     $E400
164E7: 10 00          FCB     $10,$00
164E9: 10 00          FCB     $10,$00
164EB: 10 00          FCB     $10,$00
164ED: 10 10          FCB     $10,$10
164EF: AE 88 41       LDX     65,X
164F2: A6 A8 16       LDA     22,Y
164F5: 2B 07          BMI     $164FE
164F7: EC 28          LDD     8,Y
164F9: 10 A3 08       CMPD    8,X
164FC: 27 0C          BEQ     $1650A
L164FE:
164FE: CC 00 00       LDD     #$0000
16501: ED 88 41       STD     65,X
16504: A7 88 21       STA     33,X
16507: A7 88 38       STA     56,X
L1650A:
1650A: 39             RTS
1650B: 10 8E 0B EE    LDY     #$0BEE
1650F: EC 04          LDD     4,X
16511: ED A4          STD     ,Y
16513: ED 26          STD     6,Y
16515: EC 06          LDD     6,X
16517: ED 22          STD     2,Y
16519: ED 28          STD     8,Y
1651B: EC 08          LDD     8,X
1651D: ED 24          STD     4,Y
1651F: 83 00 02       SUBD    #$0002
16522: ED 2A          STD     10,Y
16524: A6 03          LDA     3,X
16526: A7 2C          STA     12,Y
16528: BD FE 20       JSR     $FE20
1652B: BD FB 00       JSR     $FB00
1652E: B6 0C 26       LDA     $0C26
16531: 81 09          CMPA    #$09
16533: 26 11          BNE     $16546
16535: FC 0C 2C       LDD     $0C2C
16538: 10 83 01 25    CMPD    #$0125
1653C: 10 25 00 06    LBCS    $16546
16540: CC 01 25       LDD     #$0125
16543: FD 0C 2C       STD     $0C2C
L16546:
16546: 39             RTS
16547: A6 A4          LDA     ,Y
16549: 26 17          BNE     $16562
1654B: 6F 03          CLR     3,X
1654D: 86 40          LDA     #$40
1654F: A7 0D          STA     13,X
16551: EC 21          LDD     1,Y
16553: 10 A3 04       CMPD    4,X
16556: 24 1B          BCC     $16573
16558: 86 C0          LDA     #$C0
1655A: A7 0D          STA     13,X
1655C: 86 80          LDA     #$80
1655E: A7 03          STA     3,X
16560: 20 20          BRA     $16582
L16562:
16562: 6F 03          CLR     3,X
16564: 86 80          LDA     #$80
16566: A7 0D          STA     13,X
16568: EC 21          LDD     1,Y
1656A: 10 A3 06       CMPD    6,X
1656D: 25 04          BCS     $16573
1656F: 86 00          LDA     #$00
16571: A7 0D          STA     13,X
L16573:
16573: 96 36          LDA     <$36
16575: 81 03          CMPA    #$03
16577: 26 09          BNE     $16582
16579: 0D 38          TST     <$38
1657B: 26 05          BNE     $16582
1657D: 86 90          LDA     #$90
1657F: B7 03 AF       STA     $03AF
L16582:
16582: 39             RTS
16583: 34 7E          PSHS    A,B,DP,X,Y,U
16585: BD 5A 2C       JSR     $5A2C
16588: B6 0C 27       LDA     $0C27
1658B: 84 0F          ANDA    #$0F
1658D: 27 2B          BEQ     $165BA
1658F: 6D 0F          TST     15,X
16591: 2A 0F          BPL     $165A2
16593: 85 01          BITA    #$01
16595: 26 23          BNE     $165BA
16597: 85 04          BITA    #$04
16599: 26 16          BNE     $165B1
1659B: CC FF FF       LDD     #$FFFF
1659E: ED 0F          STD     15,X
165A0: 20 18          BRA     $165BA
L165A2:
165A2: 85 04          BITA    #$04
165A4: 26 14          BNE     $165BA
165A6: 85 01          BITA    #$01
165A8: 26 07          BNE     $165B1
165AA: CC 00 00       LDD     #$0000
165AD: ED 0F          STD     15,X
165AF: 20 09          BRA     $165BA
L165B1:
165B1: CC 00 00       LDD     #$0000
165B4: A3 0F          SUBD    15,X
165B6: ED 0F          STD     15,X
165B8: 20 00          BRA     $165BA
L165BA:
165BA: B6 0C 29       LDA     $0C29
165BD: 84 F0          ANDA    #$F0
165BF: 27 06          BEQ     $165C7
165C1: 85 80          BITA    #$80
165C3: 26 55          BNE     $1661A
165C5: 20 12          BRA     $165D9
L165C7:
165C7: B6 0C 28       LDA     $0C28
165CA: 84 F0          ANDA    #$F0
165CC: 27 51          BEQ     $1661F
165CE: B6 0C 26       LDA     $0C26
165D1: 81 0A          CMPA    #$0A
165D3: 25 45          BCS     $1661A
165D5: 81 0D          CMPA    #$0D
165D7: 24 41          BCC     $1661A
L165D9:
165D9: DC 3C          LDD     <$3C
165DB: C3 00 31       ADDD    #$0031
165DE: 10 A3 04       CMPD    4,X
165E1: 24 37          BCC     $1661A
165E3: C3 00 8E       ADDD    #$008E
165E6: 10 A3 04       CMPD    4,X
165E9: 25 2F          BCS     $1661A
165EB: A6 88 15       LDA     21,X
165EE: 8A 40          ORA     #$40
165F0: A7 88 15       STA     21,X
165F3: A6 84          LDA     ,X
165F5: 84 F0          ANDA    #$F0
165F7: 8A 02          ORA     #$02
165F9: A7 84          STA     ,X
165FB: 10 8E 66 21    LDY     #$6621
165FF: A6 88 22       LDA     34,X
16602: 48             ASLA
16603: EC A6          LDD     A,Y
16605: ED 88 11       STD     17,X
16608: EC 0F          LDD     15,X
1660A: DD 00          STD     <$00
1660C: CC 02 00       LDD     #$0200
1660F: ED 0F          STD     15,X
16611: 0D 00          TST     <$00
16613: 2A 0A          BPL     $1661F
16615: BD FB 6C       JSR     $FB6C
16618: 20 05          BRA     $1661F
L1661A:
1661A: 86 05          LDA     #$05
1661C: A7 88 1B       STA     27,X
L1661F:
1661F: 35 FE          PULS    A,B,DP,X,Y,U,PC
16621: 04 00          LSR     <$00
16623: 02             FCB     $02
16624: 00 04          NEG     <$04
16626: 00 04          NEG     <$04
16628: 00 04          NEG     <$04
1662A: 00 04          NEG     <$04
1662C: 00 04          NEG     <$04
1662E: 00 04          NEG     <$04
16630: 00 04          NEG     <$04
16632: 00 04          NEG     <$04
16634: 00 06          NEG     <$06
16636: 00 34          NEG     <$34
16638: 76 32 7C       ROR     $327C
1663B: A6 88 21       LDA     33,X
1663E: 27 06          BEQ     $16646
16640: 81 09          CMPA    #$09
16642: 10 26 00 99    LBNE    $166DF
L16646:
16646: FE 0F 36       LDU     $0F36
16649: EC 48          LDD     8,U
1664B: A3 08          SUBD    8,X
1664D: 10 2B 00 8E    LBMI    $166DF
16651: 4D             TSTA
16652: 10 26 00 89    LBNE    $166DF
16656: E7 62          STB     2,S
16658: A6 C8 1B       LDA     27,U
1665B: 84 3F          ANDA    #$3F
1665D: 81 00          CMPA    #$00
1665F: 27 04          BEQ     $16665
16661: 81 07          CMPA    #$07
16663: 26 7A          BNE     $166DF
L16665:
16665: A6 01          LDA     1,X
16667: 81 04          CMPA    #$04
16669: 27 0A          BEQ     $16675
1666B: 81 06          CMPA    #$06
1666D: 27 06          BEQ     $16675
1666F: 81 0B          CMPA    #$0B
16671: 10 26 00 B0    LBNE    $16725
L16675:
16675: 86 20          LDA     #$20
16677: 97 00          STA     <$00
16679: A6 01          LDA     1,X
1667B: 81 0B          CMPA    #$0B
1667D: 26 04          BNE     $16683
1667F: 86 30          LDA     #$30
16681: 97 00          STA     <$00
L16683:
16683: B6 0F 34       LDA     $0F34
16686: 81 06          CMPA    #$06
16688: 24 55          BCC     $166DF
1668A: B6 0F 33       LDA     $0F33
1668D: 91 00          CMPA    <$00
1668F: 24 4E          BCC     $166DF
16691: A6 62          LDA     2,S
16693: 81 10          CMPA    #$10
16695: 24 48          BCC     $166DF
16697: 10 8E 66 E5    LDY     #$66E5
1669B: A6 01          LDA     1,X
1669D: 80 04          SUBA    #$04
1669F: 48             ASLA
166A0: 48             ASLA
166A1: 48             ASLA
166A2: 34 02          PSHS    A
166A4: BD FB 76       JSR     $FB76
166A7: 84 07          ANDA    #$07
166A9: AA E4          ORA     ,S
166AB: E6 A6          LDB     A,Y
166AD: 35 02          PULS    A
166AF: E7 88 1E       STB     30,X
166B2: 86 07          LDA     #$07
166B4: A7 88 1B       STA     27,X
166B7: 86 00          LDA     #$00
166B9: A7 88 1D       STA     29,X
166BC: C1 01          CMPB    #$01
166BE: 26 1B          BNE     $166DB
166C0: A6 C8 1B       LDA     27,U
166C3: 84 3F          ANDA    #$3F
166C5: 81 0C          CMPA    #$0C
166C7: 26 07          BNE     $166D0
166C9: 86 00          LDA     #$00
166CB: A7 88 1E       STA     30,X
166CE: 20 0B          BRA     $166DB
L166D0:
166D0: 86 0C          LDA     #$0C
166D2: A7 C8 1B       STA     27,U
166D5: EF 88 2D       STU     45,X
166D8: AF C8 2D       STX     45,U
L166DB:
166DB: 1A 01          ORCC    #$01
166DD: 20 02          BRA     $166E1
L166DF:
166DF: 1C FE          ANDCC   #$FE
L166E1:
166E1: 32 64          LEAS    4,S
166E3: 35 F6          PULS    A,B,X,Y,U,PC
166E5: 00 00          NEG     <$00
166E7: 00 00          NEG     <$00
166E9: 01             FCB     $01
166EA: 01             FCB     $01
166EB: 01             FCB     $01
166EC: 01             FCB     $01
166ED: 00 00          NEG     <$00
166EF: 00 01          NEG     <$01
166F1: 01             FCB     $01
166F2: 01             FCB     $01
166F3: 01             FCB     $01
166F4: 01             FCB     $01
166F5: 00 00          NEG     <$00
166F7: 01             FCB     $01
166F8: 01             FCB     $01
166F9: 01             FCB     $01
166FA: 01             FCB     $01
166FB: 01             FCB     $01
166FC: 01             FCB     $01
166FD: 00 00          NEG     <$00
166FF: 01             FCB     $01
16700: 01             FCB     $01
16701: 01             FCB     $01
16702: 01             FCB     $01
16703: 01             FCB     $01
16704: 01             FCB     $01
16705: 00 00          NEG     <$00
16707: 00 00          NEG     <$00
16709: 00 00          NEG     <$00
1670B: 00 00          NEG     <$00
1670D: 00 00          NEG     <$00
1670F: 00 00          NEG     <$00
16711: 00 00          NEG     <$00
16713: 00 00          NEG     <$00
16715: 00 00          NEG     <$00
16717: 00 00          NEG     <$00
16719: 00 00          NEG     <$00
1671B: 00 00          NEG     <$00
1671D: 01             FCB     $01
1671E: 01             FCB     $01
1671F: 01             FCB     $01
16720: 01             FCB     $01
16721: 01             FCB     $01
16722: 01             FCB     $01
16723: 01             FCB     $01
16724: 01             FCB     $01
L16725:
16725: 81 07          CMPA    #$07
16727: 27 04          BEQ     $1672D
16729: 81 05          CMPA    #$05
1672B: 26 B2          BNE     $166DF
L1672D:
1672D: B6 0F 34       LDA     $0F34
16730: 81 08          CMPA    #$08
16732: 24 AB          BCC     $166DF
16734: B6 0F 33       LDA     $0F33
16737: 81 30          CMPA    #$30
16739: 24 A4          BCC     $166DF
1673B: 86 07          LDA     #$07
1673D: A7 88 1B       STA     27,X
16740: A6 01          LDA     1,X
16742: 81 07          CMPA    #$07
16744: 26 07          BNE     $1674D
16746: 4F             CLRA
16747: A7 88 1E       STA     30,X
1674A: 7E 66 C0       JMP     $66C0
L1674D:
1674D: 86 03          LDA     #$03
1674F: A7 88 1E       STA     30,X
16752: 7E 66 C0       JMP     $66C0
16755: 34 40          PSHS    U
16757: 32 71          LEAS    -15,S
16759: 6F E4          CLR     ,S
1675B: A6 04          LDA     4,X
1675D: 81 FF          CMPA    #$FF
1675F: 10 27 00 8E    LBEQ    $167F1
16763: DC 3C          LDD     <$3C
16765: 10 A3 04       CMPD    4,X
16768: 24 0C          BCC     $16776
1676A: 6C E4          INC     ,S
1676C: C3 01 00       ADDD    #$0100
1676F: 10 A3 04       CMPD    4,X
16772: 10 24 00 A1    LBCC    $16817
L16776:
16776: DC 3C          LDD     <$3C
16778: 6D E4          TST     ,S
1677A: 27 03          BEQ     $1677F
1677C: C3 01 00       ADDD    #$0100
L1677F:
1677F: A3 04          SUBD    4,X
16781: 2A 07          BPL     $1678A
16783: ED 61          STD     1,S
16785: CC 00 00       LDD     #$0000
16788: A3 61          SUBD    1,S
L1678A:
1678A: 10 83 00 40    CMPD    #$0040
1678E: 25 61          BCS     $167F1
16790: 96 36          LDA     <$36
16792: 81 03          CMPA    #$03
16794: 26 04          BNE     $1679A
16796: 0D 38          TST     <$38
16798: 26 57          BNE     $167F1
L1679A:
1679A: 6F 84          CLR     ,X
1679C: 6F 88 13       CLR     19,X
1679F: 6F 88 15       CLR     21,X
167A2: 7A 0A AC       DEC     $0AAC
167A5: A6 88 45       LDA     69,X
167A8: 27 03          BEQ     $167AD
167AA: 7A 0B 72       DEC     $0B72
L167AD:
167AD: A6 88 17       LDA     23,X
167B0: 2A 08          BPL     $167BA
167B2: B6 0A AF       LDA     $0AAF
167B5: 8A 80          ORA     #$80
167B7: B7 0A AF       STA     $0AAF
L167BA:
167BA: A6 88 21       LDA     33,X
167BD: 27 58          BEQ     $16817
167BF: 10 AE 88 41    LDY     65,X
167C3: CC 00 00       LDD     #$0000
167C6: A7 A4          STA     ,Y
167C8: A7 88 21       STA     33,X
167CB: A7 A8 16       STA     22,Y
167CE: ED A8 1F       STD     31,Y
167D1: ED 88 41       STD     65,X
167D4: A6 A8 17       LDA     23,Y
167D7: 81 07          CMPA    #$07
167D9: 24 3C          BCC     $16817
167DB: CE 4B 7A       LDU     #$4B7A
167DE: A6 C6          LDA     A,U
167E0: 81 FF          CMPA    #$FF
167E2: 27 33          BEQ     $16817
167E4: CE 4B 81       LDU     #$4B81
167E7: EE C6          LDU     A,U
167E9: 6D C4          TST     ,U
167EB: 27 2A          BEQ     $16817
167ED: 6A C4          DEC     ,U
167EF: 20 26          BRA     $16817
L167F1:
167F1: A6 88 15       LDA     21,X
167F4: 85 40          BITA    #$40
167F6: 26 1F          BNE     $16817
167F8: A6 84          LDA     ,X
167FA: 84 0F          ANDA    #$0F
167FC: 81 01          CMPA    #$01
167FE: 26 17          BNE     $16817
16800: 10 8E 68 1B    LDY     #$681B
16804: A6 E4          LDA     ,S
16806: A6 A6          LDA     A,Y
16808: A7 0D          STA     13,X
1680A: 86 00          LDA     #$00
1680C: A7 88 38       STA     56,X
1680F: A6 0E          LDA     14,X
16811: 26 04          BNE     $16817
16813: 86 0E          LDA     #$0E
16815: A7 0E          STA     14,X
L16817:
16817: 32 6F          LEAS    15,S
16819: 35 C0          PULS    U,PC
1681B: 40             NEGA
1681C: C0 34          SUBB    #$34
1681E: 36 32          PSHU    A,X,Y
16820: 7F BD FB       CLR     $BDFB
16823: 76 84 0F       ROR     $840F
16826: A7 E4          STA     ,S
16828: A6 88 1F       LDA     31,X
1682B: 84 F0          ANDA    #$F0
1682D: AA E4          ORA     ,S
1682F: 10 8E 68 3B    LDY     #$683B
16833: C6 10          LDB     #$10
16835: E1 A6          CMPB    A,Y
16837: 32 61          LEAS    1,S
16839: 35 B6          PULS    A,B,X,Y,PC
1683B: 00 00          NEG     <$00
1683D: 00 00          NEG     <$00
1683F: 00 00          NEG     <$00
16841: 00 00          NEG     <$00
16843: 00 00          NEG     <$00
16845: 00 00          NEG     <$00
16847: 00 00          NEG     <$00
16849: 20 20          BRA     $1686B
1684B: 00 00          NEG     <$00
1684D: 00 00          NEG     <$00
1684F: 00 00          NEG     <$00
16851: 00 00          NEG     <$00
16853: 00 00          NEG     <$00
16855: 20 20          BRA     $16877
16857: 20 20          BRA     $16879
16859: 20 20          BRA     $1687B
1685B: 00 00          NEG     <$00
1685D: 00 00          NEG     <$00
1685F: 20 20          BRA     $16881
16861: 20 20          BRA     $16883
16863: 20 20          BRA     $16885
16865: 20 20          BRA     $16887
16867: 20 20          BRA     $16889
16869: 20 20          BRA     $1688B
L1686B:
1686B: 00 20          NEG     <$20
1686D: 20 20          BRA     $1688F
1686F: 20 20          BRA     $16891
16871: 20 20          BRA     $16893
16873: 20 20          BRA     $16895
16875: 20 20          BRA     $16897
L16877:
16877: 20 20          BRA     $16899
L16879:
16879: 20 20          BRA     $1689B
L1687B:
1687B: 00 00          NEG     <$00
1687D: 00 00          NEG     <$00
1687F: 00 00          NEG     <$00
L16881:
16881: 00 00          NEG     <$00
L16883:
16883: 00 00          NEG     <$00
L16885:
16885: 00 00          NEG     <$00
L16887:
16887: 00 00          NEG     <$00
L16889:
16889: 00 00          NEG     <$00
L1688B:
1688B: 32 7D          LEAS    -3,S
1688D: B6 0F 34       LDA     $0F34
16890: 81 04          CMPA    #$04
16892: 24 2A          BCC     $168BE
16894: B6 0F 33       LDA     $0F33
L16897:
16897: 81 04          CMPA    #$04
L16899:
16899: 25 23          BCS     $168BE
L1689B:
1689B: 81 34          CMPA    #$34
1689D: 24 1F          BCC     $168BE
1689F: 10 BE 0F 36    LDY     $0F36
168A3: A6 A8 1B       LDA     27,Y
168A6: 84 3F          ANDA    #$3F
168A8: 10 8E 68 C3    LDY     #$68C3
168AC: A6 A6          LDA     A,Y
168AE: 26 0E          BNE     $168BE
168B0: A6 88 19       LDA     25,X
168B3: 27 09          BEQ     $168BE
168B5: 86 07          LDA     #$07
168B7: A7 88 1B       STA     27,X
168BA: 1A 01          ORCC    #$01
168BC: 20 02          BRA     $168C0
L168BE:
168BE: 1C FE          ANDCC   #$FE
L168C0:
168C0: 32 63          LEAS    3,S
168C2: 39             RTS
168C3: 00 00          NEG     <$00
168C5: 00 00          NEG     <$00
168C7: 00 FF          NEG     <$FF
168C9: 00 00          NEG     <$00
168CB: 00 00          NEG     <$00
168CD: 00 00          NEG     <$00
168CF: 00 00          NEG     <$00
168D1: 00 FF          NEG     <$FF
168D3: 00 00          NEG     <$00
168D5: 00 FF          NEG     <$FF
168D7: FF FF 00       STU     $FF00
168DA: 00 FF          NEG     <$FF
168DC: 34 40          PSHS    U
168DE: 32 71          LEAS    -15,S
168E0: DC 3C          LDD     <$3C
168E2: 10 83 19 06    CMPD    #$1906
168E6: 25 0B          BCS     $168F3
168E8: EC 04          LDD     4,X
168EA: 10 83 19 06    CMPD    #$1906
168EE: 24 03          BCC     $168F3
168F0: 7E 67 90       JMP     $6790
L168F3:
168F3: 7E 68 17       JMP     $6817
168F6: 39             RTS
168F7: 32 7C          LEAS    -4,S
168F9: 0D 36          TST     <$36
168FB: 27 04          BEQ     $16901
168FD: 6D 84          TST     ,X
168FF: 2A 5A          BPL     $1695B
L16901:
16901: 86 C1          LDA     #$C1
16903: A7 84          STA     ,X
16905: 96 2A          LDA     <$2A
16907: A7 01          STA     1,X
16909: 86 40          LDA     #$40
1690B: A7 88 1F       STA     31,X
1690E: 6F 88 1B       CLR     27,X
16911: 6F 88 37       CLR     55,X
16914: 6F 0E          CLR     14,X
16916: 6F 03          CLR     3,X
16918: 6F 88 13       CLR     19,X
1691B: 6F 88 14       CLR     20,X
1691E: 6F 88 15       CLR     21,X
16921: 6F 88 16       CLR     22,X
16924: 86 07          LDA     #$07
16926: A7 02          STA     2,X
16928: 10 8E 69 5E    LDY     #$695E
1692C: 96 36          LDA     <$36
1692E: 84 02          ANDA    #$02
16930: A7 E4          STA     ,S
16932: 48             ASLA
16933: AB E4          ADDA    ,S
16935: 31 A6          LEAY    A,Y
16937: EC A1          LDD     ,Y++
16939: ED E4          STD     ,S
1693B: 96 36          LDA     <$36
1693D: 26 0B          BNE     $1694A
1693F: 0D 2A          TST     <$2A
16941: 27 07          BEQ     $1694A
16943: EC E4          LDD     ,S
16945: C3 00 30       ADDD    #$0030
16948: ED E4          STD     ,S
L1694A:
1694A: EC E4          LDD     ,S
1694C: ED 04          STD     4,X
1694E: EC A1          LDD     ,Y++
16950: ED 06          STD     6,X
16952: EC A1          LDD     ,Y++
16954: ED 08          STD     8,X
16956: 7F 0F 1B       CLR     $0F1B
16959: 96 36          LDA     <$36
L1695B:
1695B: 32 64          LEAS    4,S
1695D: 39             RTS
1695E: 00 28          NEG     <$28
16960: 01             FCB     $01
16961: 41             FCB     $41
16962: 03 00          COM     <$00
16964: 12             NOP
16965: 90 01          SUBA    <$01
16967: 80 02          SUBA    #$02
16969: 00 32          NEG     <$32
1696B: 7F 8E 07       CLR     $8E07
1696E: DB 86          ADDB    <$86
16970: 05             FCB     $05
16971: A7 E4          STA     ,S
L16973:
16973: 86 80          LDA     #$80
16975: A7 84          STA     ,X
16977: 86 14          LDA     #$14
16979: A7 01          STA     1,X
1697B: 86 01          LDA     #$01
1697D: A7 02          STA     2,X
1697F: 6F 88 1B       CLR     27,X
16982: CC 00 3E       LDD     #$003E
16985: ED 04          STD     4,X
16987: CC 01 40       LDD     #$0140
1698A: ED 06          STD     6,X
1698C: A6 E4          LDA     ,S
1698E: C6 10          LDB     #$10
16990: 3D             MUL
16991: C3 02 F0       ADDD    #$02F0
16994: ED 08          STD     8,X
16996: C6 24          LDB     #$24
16998: 3A             ABX
16999: 6A E4          DEC     ,S
1699B: 26 D6          BNE     $16973
1699D: 32 61          LEAS    1,S
1699F: 86 10          LDA     #$10
169A1: B7 0F 1C       STA     $0F1C
169A4: 39             RTS
169A5: B6 0F 1A       LDA     $0F1A
169A8: 81 05          CMPA    #$05
169AA: 24 2F          BCC     $169DB
169AC: B6 0F 1C       LDA     $0F1C
169AF: 32 7F          LEAS    -1,S
169B1: 86 04          LDA     #$04
169B3: A7 E4          STA     ,S
169B5: 10 8E 69 DC    LDY     #$69DC
169B9: 8E 07 DB       LDX     #$07DB
L169BC:
169BC: A6 84          LDA     ,X
169BE: 2A 12          BPL     $169D2
169C0: B6 0F 1C       LDA     $0F1C
169C3: 26 0A          BNE     $169CF
169C5: B6 0F 1A       LDA     $0F1A
169C8: A1 E4          CMPA    ,S
169CA: 26 03          BNE     $169CF
169CC: BD 69 EC       JSR     $69EC
L169CF:
169CF: BD 41 00       JSR     $4100
L169D2:
169D2: C6 24          LDB     #$24
169D4: 3A             ABX
169D5: 6A E4          DEC     ,S
169D7: 2A E3          BPL     $169BC
169D9: 32 61          LEAS    1,S
L169DB:
169DB: 39             RTS
169DC: 02             FCB     $02
169DD: 03 04          COM     <$04
169DF: 05             FCB     $05
169E0: 03 20          COM     <$20
169E2: 00 60          NEG     <$60
169E4: 00 80          NEG     <$80
169E6: 01             FCB     $01
169E7: 78 12 80       ASL     $1280
169EA: 12             NOP
169EB: A0 A6          SUBA    A,Y
169ED: 88 1B          EORA    #$1B
169EF: 2B 21          BMI     $16A12
169F1: BD FE 64       JSR     $FE64
169F4: A6 A4          LDA     ,Y
169F6: A7 02          STA     2,X
169F8: 86 04          LDA     #$04
169FA: A7 88 19       STA     25,X
169FD: B6 0F 1A       LDA     $0F1A
16A00: 26 07          BNE     $16A09
16A02: 86 46          LDA     #$46
16A04: BD 6B DF       JSR     $6BDF
16A07: 20 09          BRA     $16A12
L16A09:
16A09: 81 03          CMPA    #$03
16A0B: 26 05          BNE     $16A12
16A0D: 86 28          LDA     #$28
16A0F: BD 6B DF       JSR     $6BDF
L16A12:
16A12: 6A 88 19       DEC     25,X
16A15: 26 13          BNE     $16A2A
16A17: 6C 88 18       INC     24,X
16A1A: A6 88 18       LDA     24,X
16A1D: 81 04          CMPA    #$04
16A1F: 24 0A          BCC     $16A2B
16A21: E6 A6          LDB     A,Y
16A23: E7 02          STB     2,X
16A25: C6 04          LDB     #$04
16A27: E7 88 19       STB     25,X
L16A2A:
16A2A: 39             RTS
L16A2B:
16A2B: 6F 84          CLR     ,X
16A2D: 7C 0F 1A       INC     $0F1A
16A30: 39             RTS
16A31: 10 8E 6A 92    LDY     #$6A92
16A35: A6 88 21       LDA     33,X
16A38: 81 07          CMPA    #$07
16A3A: 24 04          BCC     $16A40
16A3C: A6 A6          LDA     A,Y
16A3E: 27 0D          BEQ     $16A4D
L16A40:
16A40: A6 88 45       LDA     69,X
16A43: 26 0B          BNE     $16A50
16A45: A6 88 17       LDA     23,X
16A48: 2B 03          BMI     $16A4D
16A4A: 6C 88 17       INC     23,X
L16A4D:
16A4D: 1C FE          ANDCC   #$FE
16A4F: 39             RTS
L16A50:
16A50: A1 88 47       CMPA    71,X
16A53: 26 35          BNE     $16A8A
16A55: A7 88 47       STA     71,X
16A58: 81 03          CMPA    #$03
16A5A: 27 04          BEQ     $16A60
16A5C: 81 07          CMPA    #$07
16A5E: 26 2D          BNE     $16A8D
L16A60:
16A60: A6 88 17       LDA     23,X
16A63: 27 E8          BEQ     $16A4D
16A65: 81 08          CMPA    #$08
16A67: 24 24          BCC     $16A8D
16A69: 5F             CLRB
16A6A: A6 88 45       LDA     69,X
16A6D: 81 03          CMPA    #$03
16A6F: 27 02          BEQ     $16A73
16A71: C6 80          LDB     #$80
L16A73:
16A73: E7 03          STB     3,X
16A75: 86 07          LDA     #$07
16A77: A7 88 1B       STA     27,X
16A7A: 86 0B          LDA     #$0B
16A7C: A7 88 1E       STA     30,X
16A7F: 86 00          LDA     #$00
16A81: A7 88 1D       STA     29,X
16A84: 6F 88 17       CLR     23,X
16A87: 1A 01          ORCC    #$01
16A89: 39             RTS
L16A8A:
16A8A: A7 88 47       STA     71,X
L16A8D:
16A8D: 6F 88 17       CLR     23,X
16A90: 20 BB          BRA     $16A4D
16A92: FF FF FF       STU     $FFFF
16A95: 00 FF          NEG     <$FF
16A97: 00 00          NEG     <$00
16A99: FF 34 36       STU     $3436
16A9C: B6 0B DF       LDA     $0BDF
16A9F: 81 03          CMPA    #$03
16AA1: 24 7A          BCC     $16B1D
16AA3: 96 36          LDA     <$36
16AA5: 81 03          CMPA    #$03
16AA7: 26 74          BNE     $16B1D
16AA9: 96 38          LDA     <$38
16AAB: 81 02          CMPA    #$02
16AAD: 26 6E          BNE     $16B1D
16AAF: B6 0A AC       LDA     $0AAC
16AB2: 81 03          CMPA    #$03
16AB4: 24 67          BCC     $16B1D
16AB6: 8E 04 60       LDX     #$0460
16AB9: 5F             CLRB
L16ABA:
16ABA: A6 84          LDA     ,X
16ABC: 2B 57          BMI     $16B15
16ABE: 86 C1          LDA     #$C1
16AC0: A7 84          STA     ,X
16AC2: 86 1A          LDA     #$1A
16AC4: A7 88 1B       STA     27,X
16AC7: CC 17 90       LDD     #$1790
16ACA: ED 04          STD     4,X
16ACC: CC 01 60       LDD     #$0160
16ACF: ED 06          STD     6,X
16AD1: CC 01 70       LDD     #$0170
16AD4: ED 08          STD     8,X
16AD6: B6 0B DF       LDA     $0BDF
16AD9: 27 0B          BEQ     $16AE6
16ADB: 86 07          LDA     #$07
16ADD: A7 01          STA     1,X
16ADF: 86 05          LDA     #$05
16AE1: A7 88 17       STA     23,X
16AE4: 20 09          BRA     $16AEF
L16AE6:
16AE6: 86 03          LDA     #$03
16AE8: A7 01          STA     1,X
16AEA: 86 01          LDA     #$01
16AEC: A7 88 17       STA     23,X
L16AEF:
16AEF: 86 80          LDA     #$80
16AF1: A7 03          STA     3,X
16AF3: 86 1C          LDA     #$1C
16AF5: A7 88 1F       STA     31,X
16AF8: CC 00 00       LDD     #$0000
16AFB: ED 88 41       STD     65,X
16AFE: ED 88 13       STD     19,X
16B01: ED 88 15       STD     21,X
16B04: 6F 88 60       CLR     96,X
16B07: 6F 88 62       CLR     98,X
16B0A: 6F 88 61       CLR     97,X
16B0D: 7C 0B DF       INC     $0BDF
16B10: 7C 0A AC       INC     $0AAC
16B13: 20 08          BRA     $16B1D
L16B15:
16B15: 30 88 63       LEAX    99,X
16B18: 5C             INCB
16B19: C1 09          CMPB    #$09
16B1B: 25 9D          BCS     $16ABA
L16B1D:
16B1D: 35 B6          PULS    A,B,X,Y,PC
16B1F: A6 88 1B       LDA     27,X
16B22: 2B 1B          BMI     $16B3F
16B24: 8A 80          ORA     #$80
16B26: A7 88 1B       STA     27,X
16B29: A6 84          LDA     ,X
16B2B: 84 F0          ANDA    #$F0
16B2D: 8A 01          ORA     #$01
16B2F: A7 84          STA     ,X
16B31: 86 10          LDA     #$10
16B33: A7 0E          STA     14,X
16B35: 86 C0          LDA     #$C0
16B37: A7 0D          STA     13,X
16B39: 6F 88 19       CLR     25,X
16B3C: 6F 88 18       CLR     24,X
L16B3F:
16B3F: 17 90 16       LBSR    $FB58
16B42: 17 90 D9       LBSR    $FC1E
16B45: EC 04          LDD     4,X
16B47: 10 83 17 70    CMPD    #$1770
16B4B: 24 05          BCC     $16B52
16B4D: 86 1B          LDA     #$1B
16B4F: A7 88 1B       STA     27,X
L16B52:
16B52: 39             RTS
16B53: A6 88 1B       LDA     27,X
16B56: 2B 23          BMI     $16B7B
16B58: 8A 80          ORA     #$80
16B5A: A7 88 1B       STA     27,X
16B5D: A6 84          LDA     ,X
16B5F: 84 F0          ANDA    #$F0
16B61: 8A 02          ORA     #$02
16B63: A7 84          STA     ,X
16B65: CC FE 00       LDD     #$FE00
16B68: ED 0F          STD     15,X
16B6A: CC 04 00       LDD     #$0400
16B6D: ED 88 11       STD     17,X
16B70: CC 00 80       LDD     #$0080
16B73: ED 0D          STD     13,X
16B75: 6F 88 19       CLR     25,X
16B78: 6F 88 18       CLR     24,X
L16B7B:
16B7B: 17 8F DA       LBSR    $FB58
16B7E: A6 01          LDA     1,X
16B80: 81 07          CMPA    #$07
16B82: 26 20          BNE     $16BA4
16B84: 86 91          LDA     #$91
16B86: AB 88 18       ADDA    24,X
16B89: A7 02          STA     2,X
16B8B: 6C 88 19       INC     25,X
16B8E: A6 88 19       LDA     25,X
16B91: 81 04          CMPA    #$04
16B93: 25 2B          BCS     $16BC0
16B95: 6F 88 19       CLR     25,X
16B98: A6 88 18       LDA     24,X
16B9B: 81 04          CMPA    #$04
16B9D: 27 21          BEQ     $16BC0
16B9F: 6C 88 18       INC     24,X
16BA2: 20 1C          BRA     $16BC0
L16BA4:
16BA4: 86 97          LDA     #$97
16BA6: AB 88 18       ADDA    24,X
16BA9: A7 02          STA     2,X
16BAB: 6C 88 19       INC     25,X
16BAE: A6 88 19       LDA     25,X
16BB1: 81 10          CMPA    #$10
16BB3: 25 0B          BCS     $16BC0
16BB5: 6F 88 19       CLR     25,X
16BB8: A6 88 18       LDA     24,X
16BBB: 26 03          BNE     $16BC0
16BBD: 6C 88 18       INC     24,X
L16BC0:
16BC0: EC 08          LDD     8,X
16BC2: 10 83 01 20    CMPD    #$0120
16BC6: 24 16          BCC     $16BDE
16BC8: CC 01 20       LDD     #$0120
16BCB: ED 08          STD     8,X
16BCD: 86 04          LDA     #$04
16BCF: A7 88 1B       STA     27,X
16BD2: DC 3C          LDD     <$3C
16BD4: C3 01 00       ADDD    #$0100
16BD7: 10 A3 04       CMPD    4,X
16BDA: 24 02          BCC     $16BDE
16BDC: ED 04          STD     4,X
L16BDE:
16BDE: 39             RTS
16BDF: D6 26          LDB     <$26
16BE1: 26 07          BNE     $16BEA
16BE3: F6 38 04       LDB     $3804
16BE6: C4 04          ANDB    #$04
16BE8: 27 03          BEQ     $16BED
L16BEA:
16BEA: B7 38 0E       STA     $380E
L16BED:
16BED: 39             RTS
16BEE: DC 3C          LDD     <$3C
16BF0: 10 83 0F 00    CMPD    #$0F00
16BF4: 25 1B          BCS     $16C11
16BF6: 10 83 10 00    CMPD    #$1000
16BFA: 24 15          BCC     $16C11
16BFC: DC 3F          LDD     <$3F
16BFE: 10 83 01 6C    CMPD    #$016C
16C02: 25 0D          BCS     $16C11
16C04: EC 06          LDD     6,X
16C06: 10 83 00 88    CMPD    #$0088
16C0A: 24 05          BCC     $16C11
16C0C: CC 00 88       LDD     #$0088
16C0F: ED 06          STD     6,X
L16C11:
16C11: 39             RTS
16C12: 39             RTS
16C13: 39             RTS
16C14: 39             RTS
16C15: 0F 4B          CLR     <$4B
16C17: 0F 4D          CLR     <$4D
16C19: 0F 4F          CLR     <$4F
16C1B: 86 FF          LDA     #$FF
16C1D: 97 4C          STA     <$4C
16C1F: 97 4E          STA     <$4E
16C21: 97 50          STA     <$50
16C23: 34 40          PSHS    U
16C25: 32 7F          LEAS    -1,S
16C27: 96 4B          LDA     <$4B
16C29: 91 4C          CMPA    <$4C
16C2B: 27 1C          BEQ     $16C49
16C2D: 97 4C          STA     <$4C
16C2F: C6 10          LDB     #$10
16C31: 3D             MUL
16C32: A7 E4          STA     ,S
16C34: 10 8E 3C 80    LDY     #$3C80
16C38: 8E 6C BA       LDX     #$6CBA
L16C3B:
16C3B: A6 E4          LDA     ,S
16C3D: EE 8B          LDU     D,X
16C3F: 8D 50          BSR     $16C91
16C41: 5C             INCB
16C42: 5C             INCB
16C43: 1F 98          TFR     B,A
16C45: 84 0F          ANDA    #$0F
16C47: 26 F2          BNE     $16C3B
L16C49:
16C49: 96 4D          LDA     <$4D
16C4B: 91 4E          CMPA    <$4E
16C4D: 27 1C          BEQ     $16C6B
16C4F: 97 4E          STA     <$4E
16C51: C6 10          LDB     #$10
16C53: 3D             MUL
16C54: A7 E4          STA     ,S
16C56: 8E 7B 9A       LDX     #$7B9A
16C59: 10 8E 3C 00    LDY     #$3C00
L16C5D:
16C5D: A6 E4          LDA     ,S
16C5F: EE 8B          LDU     D,X
16C61: 8D 2E          BSR     $16C91
16C63: 5C             INCB
16C64: 5C             INCB
16C65: 1F 98          TFR     B,A
16C67: 84 0F          ANDA    #$0F
16C69: 26 F2          BNE     $16C5D
L16C6B:
16C6B: 96 4F          LDA     <$4F
16C6D: 91 50          CMPA    <$50
16C6F: 27 1C          BEQ     $16C8D
16C71: 97 50          STA     <$50
16C73: C6 10          LDB     #$10
16C75: 3D             MUL
16C76: A7 E4          STA     ,S
16C78: 10 8E 3D 00    LDY     #$3D00
16C7C: 8E 72 5A       LDX     #$725A
L16C7F:
16C7F: A6 E4          LDA     ,S
16C81: EE 8B          LDU     D,X
16C83: 8D 0C          BSR     $16C91
16C85: 5C             INCB
16C86: 5C             INCB
16C87: 1F 98          TFR     B,A
16C89: 84 0F          ANDA    #$0F
16C8B: 26 F2          BNE     $16C7F
L16C8D:
16C8D: 32 61          LEAS    1,S
16C8F: 35 C0          PULS    U,PC
L16C91:
16C91: 34 14          PSHS    B,X
16C93: 32 7D          LEAS    -3,S
L16C95:
16C95: B6 38 02       LDA     $3802
16C98: 84 08          ANDA    #$08
16C9A: 27 F9          BEQ     $16C95
16C9C: 86 10          LDA     #$10
16C9E: A7 62          STA     2,S
L16CA0:
16CA0: EC C4          LDD     ,U
16CA2: E7 A9 02 00    STB     512,Y
16CA6: 58             ASLB
16CA7: 49             ROLA
16CA8: 58             ASLB
16CA9: 49             ROLA
16CAA: 58             ASLB
16CAB: 49             ROLA
16CAC: 58             ASLB
16CAD: 49             ROLA
16CAE: A7 A0          STA     ,Y+
16CB0: 33 42          LEAU    2,U
16CB2: 6A 62          DEC     2,S
16CB4: 26 EA          BNE     $16CA0
16CB6: 32 63          LEAS    3,S
16CB8: 35 94          PULS    B,X,PC
16CBA: 6D FA          TST     [???]
16CBC: 6D DA          TST     [???]
16CBE: 6E 3A          JMP     -6,Y
16CC0: 6E DA          JMP     [???]
16CC2: 6F 1A          CLR     -6,X
16CC4: 6F 9A          CLR     [???]
16CC6: 6F FA          CLR     [???]
16CC8: 71             FCB     $71
16CC9: BA 6D FA       ORA     $6DFA
16CCC: 6D DA          TST     [???]
16CCE: 71             FCB     $71
16CCF: 3A             ABX
16CD0: 6E DA          JMP     [???]
16CD2: 6F 3A          CLR     -6,Y
16CD4: 6F 9A          CLR     [???]
16CD6: 70 7A 71       NEG     $7A71
16CD9: 9A 6D          ORA     <$6D
16CDB: FA 6D DA       ORB     $6DDA
16CDE: 6E 5A          JMP     -6,U
16CE0: 6E DA          JMP     [???]
16CE2: 6F 5A          CLR     -6,U
16CE4: 6F BA          CLR     [???]
16CE6: 6F FA          CLR     [???]
16CE8: 70 3A 6D       NEG     $3A6D
16CEB: FA 6D DA       ORB     $6DDA
16CEE: 6E 3A          JMP     -6,Y
16CF0: 71             FCB     $71
16CF1: DA 70          ORB     <$70
16CF3: FA 71 5A       ORB     $715A
16CF6: 70 9A 71       NEG     $9A71
16CF9: 9A 71          ORA     <$71
16CFB: FA 73 9A       ORB     $739A
16CFE: 73 9A 73       COM     $9A73
16D01: 9A 73          ORA     <$73
16D03: 9A 73          ORA     <$73
16D05: 9A 73          ORA     <$73
16D07: 9A 73          ORA     <$73
16D09: 9A 6D          ORA     <$6D
16D0B: FA 6D DA       ORB     $6DDA
16D0E: 6E 3A          JMP     -6,Y
16D10: 6E FA          JMP     [???]
16D12: 71             FCB     $71
16D13: 1A 6E          ORCC    #$6E
16D15: BA 70 9A       ORA     $709A
16D18: 71             FCB     $71
16D19: 9A 6D          ORA     <$6D
16D1B: FA 6D DA       ORB     $6DDA
16D1E: 6E 3A          JMP     -6,Y
16D20: 6E FA          JMP     [???]
16D22: 71             FCB     $71
16D23: 1A 6E          ORCC    #$6E
16D25: BA 6E 1A       ORA     $6E1A
16D28: 71             FCB     $71
16D29: DA 6D          ORB     <$6D
16D2B: FA 6D DA       ORB     $6DDA
16D2E: 6E 3A          JMP     -6,Y
16D30: 6E FA          JMP     [???]
16D32: 71             FCB     $71
16D33: 1A 6E          ORCC    #$6E
16D35: BA 70 9A       ORA     $709A
16D38: 70 1A 6D       NEG     $1A6D
16D3B: FA 6D DA       ORB     $6DDA
16D3E: 6E 5A          JMP     -6,U
16D40: 6E DA          JMP     [???]
16D42: 6F 3A          CLR     -6,Y
16D44: 6F BA          CLR     [???]
16D46: 6F FA          CLR     [???]
16D48: 71             FCB     $71
16D49: 9A 6D          ORA     <$6D
16D4B: FA 6D DA       ORB     $6DDA
16D4E: 6E 7A          JMP     -6,S
16D50: 6E DA          JMP     [???]
16D52: 70 BA 6F       NEG     $BA6F
16D55: BA 6F FA       ORA     $6FFA
16D58: 70 3A 6D       NEG     $3A6D
16D5B: FA 6D DA       ORB     $6DDA
16D5E: 72             FCB     $72
16D5F: 1A 72          ORCC    #$72
16D61: 1A 6D          ORCC    #$6D
16D63: 9A 6E          ORA     <$6E
16D65: BA 6E 1A       ORA     $6E1A
16D68: 6D 9A          TST     [???]
16D6A: 6D FA          TST     [???]
16D6C: 6D DA          TST     [???]
16D6E: 6D 7A          TST     -6,S
16D70: 72             FCB     $72
16D71: 3A             ABX
16D72: 70 BA 6F       NEG     $BA6F
16D75: 9A 6E          ORA     <$6E
16D77: 1A 71          ORCC    #$71
16D79: BA 00 00       ORA     $0000
16D7C: 0B             FCB     $0B
16D7D: F9 08 D6       ADCB    $08D6
16D80: 04 84          LSR     <$84
16D82: 04 70          LSR     <$70
16D84: 08 C0          ASL     <$C0
16D86: 0C F0          INC     <$F0
16D88: 00 00          NEG     <$00
16D8A: 04 46          LSR     <$46
16D8C: 08 5A          ASL     <$5A
16D8E: 0F FF          CLR     <$FF
16D90: 05             FCB     $05
16D91: B0 09 8C       SUBA    $098C
16D94: 00 0F          NEG     <$0F
16D96: 0E F4          JMP     <$F4
16D98: 03 70          COM     <$70
16D9A: 00 00          NEG     <$00
16D9C: 08 0D          ASL     <$0D
16D9E: 0A 1F          DEC     <$1F
16DA0: 0C 3F          INC     <$3F
16DA2: 0F FF          CLR     <$FF
16DA4: 07 0A          ASR     <$0A
16DA6: 0A F3          DEC     <$F3
16DA8: 05             FCB     $05
16DA9: C5 0D          BITB    #$0D
16DAB: FA 00 00       ORB     $0000
16DAE: 04 84          LSR     <$84
16DB0: 07 D7          ASR     <$D7
16DB2: 0B             FCB     $0B
16DB3: FA 07 57       ORB     $0757
16DB6: 08 8A          ASL     <$8A
16DB8: 0F 00          CLR     <$00
16DBA: 00 00          NEG     <$00
16DBC: 0F FF          CLR     <$FF
16DBE: 09 92          ROL     <$92
16DC0: 06 62          ROR     <$62
16DC2: 00 00          NEG     <$00
16DC4: 00 00          NEG     <$00
16DC6: 00 00          NEG     <$00
16DC8: 0A AA          DEC     <$AA
16DCA: 04 40          LSR     <$40
16DCC: 00 05          NEG     <$05
16DCE: 00 00          NEG     <$00
16DD0: 00 00          NEG     <$00
16DD2: 00 00          NEG     <$00
16DD4: 0C CC          INC     <$CC
16DD6: 06 60          ROR     <$60
16DD8: 00 05          NEG     <$05
16DDA: 00 00          NEG     <$00
16DDC: 0A F9          DEC     <$F9
16DDE: 07 E7          ASR     <$E7
16DE0: 03 B4          COM     <$B4
16DE2: 07 77          ASR     <$77
16DE4: 0B             FCB     $0B
16DE5: BB 0F FF       ADDA    $0FFF
16DE8: 00 00          NEG     <$00
16DEA: 08 69          ASL     <$69
16DEC: 08 8A          ASL     <$8A
16DEE: 0F FF          CLR     <$FF
16DF0: 05             FCB     $05
16DF1: B0 0B BA       SUBA    $0BBA
16DF4: 00 0F          NEG     <$0F
16DF6: 06 FA          ROR     <$FA
16DF8: 03 70          COM     <$70
16DFA: 00 00          NEG     <$00
16DFC: 0B             FCB     $0B
16DFD: F9 08 D6       ADCB    $08D6
16E00: 04 84          LSR     <$84
16E02: 00 03          NEG     <$03
16E04: 02             FCB     $02
16E05: 25 04          BCS     $16E0B
16E07: 47             ASRA
16E08: 00 00          NEG     <$00
16E0A: 04 46          LSR     <$46
16E0C: 08 5A          ASL     <$5A
16E0E: 0F FF          CLR     <$FF
16E10: 0A F3          DEC     <$F3
16E12: 09 8C          ROL     <$8C
16E14: 00 0F          NEG     <$0F
16E16: 0D FA          TST     <$FA
16E18: 05             FCB     $05
16E19: C5 00          BITB    #$00
16E1B: 00 08          NEG     <$08
16E1D: E7 06          STB     6,X
16E1F: D6 03          LDB     <$03
16E21: 83 00 A0       SUBD    #$00A0
16E24: 02             FCB     $02
16E25: D2 05          SBCB    <$05
16E27: F5 00 00       BITB    $0000
16E2A: 07 59          ASR     <$59
16E2C: 08 8B          ASL     <$8B
16E2E: 0D DF          TST     <$DF
16E30: 06 79          ROR     <$79
16E32: 0A F9          DEC     <$F9
16E34: 00 80          NEG     <$80
16E36: 00 50          NEG     <$50
16E38: 0B             FCB     $0B
16E39: BD 00 00       JSR     $0000
16E3C: 09 E8          ROL     <$E8
16E3E: 07 D7          ASR     <$D7
16E40: 06 A6          ROR     <$A6
16E42: 02             FCB     $02
16E43: 17 04 3B       LBSR    $17281
16E46: 07 3E          ASR     <$3E
16E48: 00 00          NEG     <$00
16E4A: 00 80          NEG     <$80
16E4C: 07 67          ASR     <$67
16E4E: 0F FF          CLR     <$FF
16E50: 04 81          LSR     <$81
16E52: 0B             FCB     $0B
16E53: FA 04 84       ORB     $0484
16E56: 0A BC          DEC     <$BC
16E58: 02             FCB     $02
16E59: 62             FCB     $62
16E5A: 00 00          NEG     <$00
16E5C: 0A F9          DEC     <$F9
16E5E: 08 E8          ASL     <$E8
16E60: 07 B7          ASR     <$B7
16E62: 04 22          LSR     <$22
16E64: 06 44          ROR     <$44
16E66: 0A 33          DEC     <$33
16E68: 00 00          NEG     <$00
16E6A: 03 A6          COM     <$A6
16E6C: 06 57          ROR     <$57
16E6E: 0D CD          TST     <$CD
16E70: 04 81          LSR     <$81
16E72: 0C FB          INC     <$FB
16E74: 04 84          LSR     <$84
16E76: 09 89          ROL     <$89
16E78: 02             FCB     $02
16E79: 72             FCB     $72
16E7A: 00 00          NEG     <$00
16E7C: 07 C6          ASR     <$C6
16E7E: 05             FCB     $05
16E7F: B5 04 84       BITA    $0484
16E82: 07 7C          ASR     <$7C
16E84: 0A AD          DEC     <$AD
16E86: 0D DE          TST     <$DE
16E88: 00 00          NEG     <$00
16E8A: 05             FCB     $05
16E8B: 45             FCB     $45
16E8C: 08 78          ASL     <$78
16E8E: 0F FF          CLR     <$FF
16E90: 04 81          LSR     <$81
16E92: 09 D8          ROL     <$D8
16E94: 03 73          COM     <$73
16E96: 0B             FCB     $0B
16E97: CD             FCB     $CD
16E98: 02             FCB     $02
16E99: 62             FCB     $62
16E9A: 00 00          NEG     <$00
16E9C: 0C F8          INC     <$F8
16E9E: 09 D7          ROL     <$D7
16EA0: 06 A5          ROR     <$A5
16EA2: 03 70          COM     <$70
16EA4: 00 00          NEG     <$00
16EA6: 08 90          ASL     <$90
16EA8: 0C C0          INC     <$C0
16EAA: 05             FCB     $05
16EAB: 60 05          NEG     5,X
16EAD: 46             RORA
16EAE: 08 78          ASL     <$78
16EB0: 0F 00          CLR     <$00
16EB2: 0F FF          CLR     <$FF
16EB4: 0F 00          CLR     <$00
16EB6: 00 A6          NEG     <$A6
16EB8: 00 F0          NEG     <$F0
16EBA: 00 00          NEG     <$00
16EBC: 0C CF          INC     <$CF
16EBE: 0A AD          DEC     <$AD
16EC0: 08 8A          ASL     <$8A
16EC2: 05             FCB     $05
16EC3: 57             ASRB
16EC4: 00 00          NEG     <$00
16EC6: 0C CC          INC     <$CC
16EC8: 0F FF          CLR     <$FF
16ECA: 08 99          ASL     <$99
16ECC: 00 70          NEG     <$70
16ECE: 02             FCB     $02
16ECF: F2 00 00       SBCB    $0000
16ED2: 0C FC          INC     <$FC
16ED4: 0F 00          CLR     <$00
16ED6: 0F FF          CLR     <$FF
16ED8: 0A AA          DEC     <$AA
16EDA: 00 00          NEG     <$00
16EDC: 0B             FCB     $0B
16EDD: F9 08 D6       ADCB    $08D6
16EE0: 04 84          LSR     <$84
16EE2: 04 14          LSR     <$14
16EE4: 00 A0          NEG     <$A0
16EE6: 00 F1          NEG     <$F1
16EE8: 00 00          NEG     <$00
16EEA: 04 46          LSR     <$46
16EEC: 08 5A          ASL     <$5A
16EEE: 0F FF          CLR     <$FF
16EF0: 0C F5          INC     <$F5
16EF2: 07 48          ASR     <$48
16EF4: 00 0F          NEG     <$0F
16EF6: 08 F6          ASL     <$F6
16EF8: 08 E1          ASL     <$E1
16EFA: 00 00          NEG     <$00
16EFC: 0B             FCB     $0B
16EFD: F9 08 D6       ADCB    $08D6
16F00: 04 84          LSR     <$84
16F02: 07 27          ASR     <$27
16F04: 09 19          ROL     <$19
16F06: 0D 5C          TST     <$5C
16F08: 00 00          NEG     <$00
16F0A: 04 45          LSR     <$45
16F0C: 06 67          ROR     <$67
16F0E: 08 89          ASL     <$89
16F10: 0C F5          INC     <$F5
16F12: 07 48          ASR     <$48
16F14: 00 0F          NEG     <$0F
16F16: 08 F6          ASL     <$F6
16F18: 08 E1          ASL     <$E1
16F1A: 00 00          NEG     <$00
16F1C: 0A E6          DEC     <$E6
16F1E: 08 D7          ASL     <$D7
16F20: 05             FCB     $05
16F21: A4 03          ANDA    3,X
16F23: 34 02          PSHS    A
16F25: 82 02          SBCA    #$02
16F27: E2 00          SBCB    ,X
16F29: 00 02          NEG     <$02
16F2B: 23 02          BLS     $16F2F
16F2D: 45             FCB     $45
16F2E: 0C DD          INC     <$DD
16F30: 03 C0          COM     <$C0
16F32: 0D FA          TST     <$FA
16F34: 04 84          LSR     <$84
16F36: 07 7A          ASR     <$7A
16F38: 02             FCB     $02
16F39: 62             FCB     $62
16F3A: 00 00          NEG     <$00
16F3C: 09 E8          ROL     <$E8
16F3E: 07 D7          ASR     <$D7
16F40: 06 A6          ROR     <$A6
16F42: 03 34          COM     <$34
16F44: 07 11          ASR     <$11
16F46: 0C 00          INC     <$00
16F48: 00 00          NEG     <$00
16F4A: 04 45          LSR     <$45
16F4C: 04 67          LSR     <$67
16F4E: 0C DD          INC     <$DD
16F50: 03 C0          COM     <$C0
16F52: 0D FA          TST     <$FA
16F54: 05             FCB     $05
16F55: 94 07          ANDA    <$07
16F57: 7A 02 72       DEC     $0272
16F5A: 00 00          NEG     <$00
16F5C: 09 E8          ROL     <$E8
16F5E: 07 D7          ASR     <$D7
16F60: 05             FCB     $05
16F61: A5 03          BITA    3,X
16F63: 34 07          PSHS    CC,A,B
16F65: 5B             FCB     $5B
16F66: 0B             FCB     $0B
16F67: 8F             FCB     $8F
16F68: 00 00          NEG     <$00
16F6A: 04 45          LSR     <$45
16F6C: 04 67          LSR     <$67
16F6E: 0C DD          INC     <$DD
16F70: 03 C0          COM     <$C0
16F72: 0D FA          TST     <$FA
16F74: 05             FCB     $05
16F75: 74 07 7A       LSR     $077A
16F78: 01             FCB     $01
16F79: 62             FCB     $62
16F7A: 00 00          NEG     <$00
16F7C: 0A E6          DEC     <$E6
16F7E: 08 D7          ASL     <$D7
16F80: 05             FCB     $05
16F81: A4 03          ANDA    3,X
16F83: 34 05          PSHS    CC,B
16F85: 56             RORB
16F86: 08 78          ASL     <$78
16F88: 00 00          NEG     <$00
16F8A: 05             FCB     $05
16F8B: 45             FCB     $45
16F8C: 06 57          ROR     <$57
16F8E: 0F FF          CLR     <$FF
16F90: 03 C0          COM     <$C0
16F92: 0D FA          TST     <$FA
16F94: 04 84          LSR     <$84
16F96: 09 9C          ROL     <$9C
16F98: 02             FCB     $02
16F99: 62             FCB     $62
16F9A: 00 00          NEG     <$00
16F9C: 0B             FCB     $0B
16F9D: E9 09          ADCB    9,X
16F9F: E8 06          EORB    6,X
16FA1: C6 03          LDB     #$03
16FA3: 73 00 00       COM     $0000
16FA6: 04 3B          LSR     <$3B
16FA8: 07 3E          ASR     <$3E
16FAA: 02             FCB     $02
16FAB: 18             FCB     $18
16FAC: 05             FCB     $05
16FAD: 46             RORA
16FAE: 08 78          ASL     <$78
16FB0: 00 F0          NEG     <$F0
16FB2: 0F FF          CLR     <$FF
16FB4: 06 A6          ROR     <$A6
16FB6: 01             FCB     $01
16FB7: 91 00          CMPA    <$00
16FB9: E0 00          SUBB    ,X
16FBB: 00 0B          NEG     <$0B
16FBD: EA 09          ORB     9,X
16FBF: E8 06          EORB    6,X
16FC1: C6 03          LDB     #$03
16FC3: 73 00 00       COM     $0000
16FC6: 02             FCB     $02
16FC7: B2 00 F0       SBCA    $00F0
16FCA: 02             FCB     $02
16FCB: 71             FCB     $71
16FCC: 05             FCB     $05
16FCD: 46             RORA
16FCE: 08 78          ASL     <$78
16FD0: 00 F0          NEG     <$F0
16FD2: 0F FF          CLR     <$FF
16FD4: 06 A6          ROR     <$A6
16FD6: 04 1C          LSR     <$1C
16FD8: 09 6E          ROL     <$6E
16FDA: 00 00          NEG     <$00
16FDC: 0B             FCB     $0B
16FDD: E9 09          ADCB    9,X
16FDF: E8 06          EORB    6,X
16FE1: C6 03          LDB     #$03
16FE3: 73 00 00       COM     $0000
16FE6: 06 23          ROR     <$23
16FE8: 09 11          ROL     <$11
16FEA: 04 00          LSR     <$00
16FEC: 05             FCB     $05
16FED: 46             RORA
16FEE: 08 78          ASL     <$78
16FF0: 00 F0          NEG     <$F0
16FF2: 0F FF          CLR     <$FF
16FF4: 06 A6          ROR     <$A6
16FF6: 03 52          COM     <$52
16FF8: 05             FCB     $05
16FF9: 74 00 00       LSR     $0000
16FFC: 00 00          NEG     <$00
16FFE: 03 71          COM     <$71
17000: 0E F8          JMP     <$F8
17002: 0D E3          TST     <$E3
17004: 0A D1          DEC     <$D1
17006: 08 C2          ASL     <$C2
17008: 05             FCB     $05
17009: A1 06          CMPA    6,X
1700B: B1 0C E0       CMPA    $0CE0
1700E: 06 93          ROR     <$93
17010: 02             FCB     $02
17011: 50             NEGB
17012: 04 81          LSR     <$81
17014: 05             FCB     $05
17015: 92 09          SBCA    <$09
17017: 9A 0B          ORA     <$0B
17019: BC 00 00       CMPX    $0000
1701C: 00 00          NEG     <$00
1701E: 0A E6          DEC     <$E6
17020: 07 C3          ASR     <$C3
17022: 04 A1          LSR     <$A1
17024: 03 80          COM     <$80
17026: 00 60          NEG     <$60
17028: 00 50          NEG     <$50
1702A: 00 40          NEG     <$40
1702C: 03 20          COM     <$20
1702E: 04 40          LSR     <$40
17030: 05             FCB     $05
17031: 60 07          NEG     7,X
17033: 82 08          SBCA    #$08
17035: 94 0A          ANDA    <$0A
17037: B5 0D E7       BITA    $0DE7
1703A: 00 00          NEG     <$00
1703C: 00 00          NEG     <$00
1703E: 0C C0          INC     <$C0
17040: 0F F0          CLR     <$F0
17042: 0F FF          CLR     <$FF
17044: 04 40          LSR     <$40
17046: 06 61          ROR     <$61
17048: 08 89          ASL     <$89
1704A: 0B             FCB     $0B
1704B: BC 02 23       CMPX    $0223
1704E: 07 78          ASR     <$78
17050: 06 67          ROR     <$67
17052: 05             FCB     $05
17053: 56             RORB
17054: 04 45          LSR     <$45
17056: 03 34          COM     <$34
17058: 00 00          NEG     <$00
1705A: 00 00          NEG     <$00
1705C: 00 00          NEG     <$00
1705E: 03 71          COM     <$71
17060: 0E F8          JMP     <$F8
17062: 0D E3          TST     <$E3
17064: 0A D1          DEC     <$D1
17066: 08 C2          ASL     <$C2
17068: 05             FCB     $05
17069: A1 06          CMPA    6,X
1706B: B1 0C F0       CMPA    $0CF0
1706E: 06 93          ROR     <$93
17070: 02             FCB     $02
17071: 50             NEGB
17072: 05             FCB     $05
17073: 55             FCB     $55
17074: 07 78          ASR     <$78
17076: 09 9A          ROL     <$9A
17078: 0B             FCB     $0B
17079: BC 00 00       CMPX    $0000
1707C: 00 00          NEG     <$00
1707E: 0A AA          DEC     <$AA
17080: 08 89          ASL     <$89
17082: 08 78          ASL     <$78
17084: 06 66          ROR     <$66
17086: 09 A7          ROL     <$A7
17088: 06 66          ROR     <$66
1708A: 03 43          COM     <$43
1708C: 07 29          ASR     <$29
1708E: 05             FCB     $05
1708F: 26 02          BNE     $17093
17091: 03 0A          COM     <$0A
L17093:
17093: 4C             INCA
17094: 03 14          COM     <$14
17096: 03 9B          COM     <$9B
17098: 08 2A          ASL     <$2A
1709A: 00 00          NEG     <$00
1709C: 00 00          NEG     <$00
1709E: 0A F0          DEC     <$F0
170A0: 08 D0          ASL     <$D0
170A2: 05             FCB     $05
170A3: C0 04          SUBB    #$04
170A5: 90 02          SUBA    <$02
170A7: 20 02          BRA     $170AB
170A9: 60 03          NEG     3,X
L170AB:
170AB: 43             COMA
170AC: 07 29          ASR     <$29
170AE: 05             FCB     $05
170AF: 26 02          BNE     $170B3
170B1: 03 0A          COM     <$0A
L170B3:
170B3: 4C             INCA
170B4: 03 14          COM     <$14
170B6: 09 3B          ROL     <$3B
170B8: 08 2A          ASL     <$2A
170BA: 00 00          NEG     <$00
170BC: 0C FA          INC     <$FA
170BE: 09 E7          ROL     <$E7
170C0: 06 B5          ROR     <$B5
170C2: 09 8E          ROL     <$8E
170C4: 07 6C          ASR     <$6C
170C6: 05             FCB     $05
170C7: 48             ASLA
170C8: 00 00          NEG     <$00
170CA: 09 8A          ROL     <$8A
170CC: 0C BC          INC     <$BC
170CE: 0F FF          CLR     <$FF
170D0: 03 85          COM     <$85
170D2: 01             FCB     $01
170D3: 64 00          LSR     ,X
170D5: D0 0E          SUBB    <$0E
170D7: FC 04 73       LDD     $0473
170DA: 00 00          NEG     <$00
170DC: 07 C6          ASR     <$C6
170DE: 05             FCB     $05
170DF: B5 04 84       BITA    $0484
170E2: 0F FF          CLR     <$FF
170E4: 0C BC          INC     <$BC
170E6: 09 89          ROL     <$89
170E8: 00 00          NEG     <$00
170EA: 07 7F          ASR     <$7F
170EC: 0A AF          DEC     <$AF
170EE: 0D DF          TST     <$DF
170F0: 08 D3          ASL     <$D3
170F2: 05             FCB     $05
170F3: A0 00          SUBA    ,X
170F5: D0 07          SUBB    <$07
170F7: C6 03          LDB     #$03
170F9: 62             FCB     $62
170FA: 00 00          NEG     <$00
170FC: 0B             FCB     $0B
170FD: FA 09 E9       ORB     $09E9
17100: 07 C7          ASR     <$C7
17102: 0F 70          CLR     <$70
17104: 0A 30          DEC     <$30
17106: 07 10          ASR     <$10
17108: 00 00          NEG     <$00
1710A: 0B             FCB     $0B
1710B: BB 0E EE       ADDA    $0EEE
1710E: 0F FF          CLR     <$FF
17110: 04 44          LSR     <$44
17112: 00 00          NEG     <$00
17114: 00 D0          NEG     <$D0
17116: 0E FC          JMP     <$FC
17118: 02             FCB     $02
17119: 51             FCB     $51
1711A: 00 00          NEG     <$00
1711C: 0C FA          INC     <$FA
1711E: 09 E7          ROL     <$E7
17120: 06 B5          ROR     <$B5
17122: 0C F0          INC     <$F0
17124: 08 C0          ASL     <$C0
17126: 04 70          LSR     <$70
17128: 00 00          NEG     <$00
1712A: 09 8A          ROL     <$8A
1712C: 0C BC          INC     <$BC
1712E: 0F FF          CLR     <$FF
17130: 03 85          COM     <$85
17132: 01             FCB     $01
17133: 64 00          LSR     ,X
17135: D0 0E          SUBB    <$0E
17137: FC 04 73       LDD     $0473
1713A: 00 00          NEG     <$00
1713C: 07 C6          ASR     <$C6
1713E: 05             FCB     $05
1713F: B5 04 84       BITA    $0484
17142: 01             FCB     $01
17143: 02             FCB     $02
17144: 03 04          COM     <$04
17146: 05             FCB     $05
17147: 16 00 00       LBRA    $1714A
L1714A:
1714A: 05             FCB     $05
1714B: 45             FCB     $45
1714C: 05             FCB     $05
1714D: 06 09          ROR     <$09
1714F: 2A 00          BPL     $17151
L17151:
17151: D0 09          SUBB    <$09
17153: D8 04          EORB    <$04
17155: 84 07          ANDA    #$07
17157: 08 02          ASL     <$02
17159: 62             FCB     $62
1715A: 00 00          NEG     <$00
1715C: 02             FCB     $02
1715D: 22 00          BHI     $1715F
L1715F:
1715F: 0F 00          CLR     <$00
17161: 09 06          ROL     <$06
17163: 5F             CLRB
17164: 00 07          NEG     <$07
17166: 05             FCB     $05
17167: 4F             CLRA
17168: 07 7A          ASR     <$7A
1716A: 05             FCB     $05
1716B: 58             ASLB
1716C: 0B             FCB     $0B
1716D: BE 09 9C       LDX     $099C
17170: 00 07          NEG     <$07
17172: 04 07          LSR     <$07
17174: 00 07          NEG     <$07
17176: 00 77          NEG     <$77
17178: 07 70          ASR     <$70
1717A: 00 00          NEG     <$00
1717C: 06 84          ROR     <$84
1717E: 04 72          LSR     <$72
17180: 01             FCB     $01
17181: 60 05          NEG     5,X
17183: 5A             DECB
17184: 07 7B          ASR     <$7B
17186: 0A AE          DEC     <$AE
17188: 00 00          NEG     <$00
1718A: 07 77          ASR     <$77
1718C: 0A AA          DEC     <$AA
1718E: 0D DD          TST     <$DD
17190: 0C F5          INC     <$F5
17192: 07 48          ASR     <$48
17194: 00 0F          NEG     <$0F
17196: 08 F6          ASL     <$F6
17198: 08 E1          ASL     <$E1
1719A: 00 00          NEG     <$00
1719C: 00 00          NEG     <$00
1719E: 05             FCB     $05
1719F: 72             FCB     $72
171A0: 09 C7          ROL     <$C7
171A2: 08 A5          ASL     <$A5
171A4: 0C C9          INC     <$C9
171A6: 0B             FCB     $0B
171A7: D8 08          EORB    <$08
171A9: 89 0B          ADCA    #$0B
171AB: BC 02 23       CMPX    $0223
171AE: 07 78          ASR     <$78
171B0: 06 67          ROR     <$67
171B2: 05             FCB     $05
171B3: 56             RORB
171B4: 04 45          LSR     <$45
171B6: 03 34          COM     <$34
171B8: 00 00          NEG     <$00
171BA: 00 00          NEG     <$00
171BC: 00 00          NEG     <$00
171BE: 05             FCB     $05
171BF: 72             FCB     $72
171C0: 09 C7          ROL     <$C7
171C2: 08 A5          ASL     <$A5
171C4: 0C C9          INC     <$C9
171C6: 0B             FCB     $0B
171C7: D8 07          EORB    <$07
171C9: 0F 09          CLR     <$09
171CB: 0D 00          TST     <$00
171CD: 05             FCB     $05
171CE: 00 0A          NEG     <$0A
171D0: 00 0F          NEG     <$0F
171D2: 00 0B          NEG     <$0B
171D4: 00 04          NEG     <$04
171D6: 00 07          NEG     <$07
171D8: 00 00          NEG     <$00
171DA: 00 00          NEG     <$00
171DC: 00 00          NEG     <$00
171DE: 0A E6          DEC     <$E6
171E0: 07 C3          ASR     <$C3
171E2: 04 A1          LSR     <$A1
171E4: 03 80          COM     <$80
171E6: 00 60          NEG     <$60
171E8: 00 50          NEG     <$50
171EA: 00 40          NEG     <$40
171EC: 03 20          COM     <$20
171EE: 04 40          LSR     <$40
171F0: 05             FCB     $05
171F1: 60 07          NEG     7,X
171F3: 82 08          SBCA    #$08
171F5: 94 0A          ANDA    <$0A
171F7: B5 0D E7       BITA    $0DE7
171FA: 00 00          NEG     <$00
171FC: 00 F0          NEG     <$F0
171FE: 00 B0          NEG     <$B0
17200: 0F 00          CLR     <$00
17202: 0F 00          CLR     <$00
17204: 0F 00          CLR     <$00
17206: 0F 00          CLR     <$00
17208: 0F 00          CLR     <$00
1720A: 0F 00          CLR     <$00
1720C: 0F 00          CLR     <$00
1720E: 0F 00          CLR     <$00
17210: 0F 00          CLR     <$00
17212: 0F 00          CLR     <$00
17214: 0F 00          CLR     <$00
17216: 0F 00          CLR     <$00
17218: 0F 00          CLR     <$00
1721A: 00 00          NEG     <$00
1721C: 08 CC          ASL     <$CC
1721E: 06 BA          ROR     <$BA
17220: 03 77          COM     <$77
17222: 02             FCB     $02
17223: 67 00          ASR     ,X
17225: 9B 00          ADDA    <$00
17227: BD 00 00       JSR     $0000
1722A: 01             FCB     $01
1722B: 6A 01          DEC     1,X
1722D: 9A 04          ORA     <$04
1722F: BB 03 EE       ADDA    $03EE
17232: 00 BE          NEG     <$BE
17234: 00 46          NEG     <$46
17236: 09 DD          ROL     <$DD
17238: 00 99          NEG     <$99
1723A: 00 00          NEG     <$00
1723C: 0E F9          JMP     <$F9
1723E: 0A E4          DEC     <$E4
17240: 06 81          ROR     <$81
17242: 04 70          LSR     <$70
17244: 08 C0          ASL     <$C0
17246: 0C F0          INC     <$F0
17248: 00 00          NEG     <$00
1724A: 05             FCB     $05
1724B: 73 07 93       COM     $0793
1724E: 09 C4          ROL     <$C4
17250: 0C E0          INC     <$E0
17252: 0C F1          INC     <$F1
17254: 03 31          COM     <$31
17256: 0E DA          JMP     <$DA
17258: 09 B0          ROL     <$B0
1725A: 75             FCB     $75
1725B: 5A             DECB
1725C: 73 DA 74       COM     $DA74
1725F: DA 74          ORB     <$74
17261: BA 74 7A       ORA     $747A
17264: 74 FA 74       LSR     $FA74
17267: 3A             ABX
17268: 74 9A 75       LSR     $9A75
1726B: 5A             DECB
1726C: 73 DA 74       COM     $DA74
1726F: DA 74          ORB     <$74
17271: BA 73 FA       ORA     $73FA
17274: 74 FA 74       LSR     $FA74
17277: 5A             DECB
17278: 74 9A 75       LSR     $9A75
1727B: 5A             DECB
1727C: 73 DA 74       COM     $DA74
1727F: DA 74          ORB     <$74
L17281:
17281: 1A 73          ORCC    #$73
17283: FA 74 FA       ORB     $74FA
17286: 74 5A 74       LSR     $5A74
17289: 9A 75          ORA     <$75
1728B: 9A 75          ORA     <$75
1728D: 7A 75 3A       DEC     $753A
17290: 74 1A 73       LSR     $1A73
17293: FA 75 1A       ORB     $751A
17296: 75             FCB     $75
17297: DA 74          ORB     <$74
17299: 9A 75          ORA     <$75
1729B: 9A 75          ORA     <$75
1729D: 7A 75 3A       DEC     $753A
172A0: 76 3A 76       ROR     $3A76
172A3: 1A 75          ORCC    #$75
172A5: 1A 75          ORCC    #$75
172A7: DA 74          ORB     <$74
172A9: 9A 75          ORA     <$75
172AB: 9A 75          ORA     <$75
172AD: BA 75 3A       ORA     $753A
172B0: 76 3A 76       ROR     $3A76
172B3: 1A 75          ORCC    #$75
172B5: FA 75 DA       ORB     $75DA
172B8: 74 9A 77       LSR     $9A77
172BB: 1A 75          ORCC    #$75
172BD: BA 77 3A       ORA     $773A
172C0: 76 3A 76       ROR     $3A76
172C3: 1A 75          ORCC    #$75
172C5: FA 75 DA       ORB     $75DA
172C8: 73 9A 77       COM     $9A77
172CB: 1A 75          ORCC    #$75
172CD: BA 77 3A       ORA     $773A
172D0: 76 7A 76       ROR     $7A76
172D3: 1A 75          ORCC    #$75
172D5: FA 76 5A       ORB     $765A
172D8: 77 9A 77       ASR     $9A77
172DB: 1A 77          ORCC    #$77
172DD: 5A             DECB
172DE: 77 7A 76       ASR     $7A76
172E1: 7A 77 BA       DEC     $77BA
172E4: 76 FA 76       ROR     $FA76
172E7: 5A             DECB
172E8: 73 9A 77       COM     $9A77
172EB: 1A 76          ORCC    #$76
172ED: 9A 76          ORA     <$76
172EF: DA 76          ORB     <$76
172F1: BA 77 BA       ORA     $77BA
172F4: 76 FA 76       ROR     $FA76
172F7: 5A             DECB
172F8: 73 9A 79       COM     $9A79
172FB: 3A             ABX
172FC: 78 5A 78       ASL     $5A78
172FF: 9A 78          ORA     <$78
17301: BA 78 DA       ORA     $78DA
17304: 77 DA 78       ASR     $DA78
17307: 7A 73 9A       DEC     $739A
1730A: 79 3A 78       ROL     $3A78
1730D: 5A             DECB
1730E: 79 1A 78       ROL     $1A78
17311: 3A             ABX
17312: 78 DA 77       ASL     $DA77
17315: DA 78          ORB     <$78
17317: 7A 78 1A       DEC     $781A
1731A: 79 3A 78       ROL     $3A78
1731D: 5A             DECB
1731E: 79 1A 78       ROL     $1A78
17321: 3A             ABX
17322: 77 FA 77       ASR     $FA77
17325: DA 78          ORB     <$78
17327: 7A 78 1A       DEC     $781A
1732A: 79 9A 78       ROL     $9A78
1732D: 5A             DECB
1732E: 79 1A 79       ROL     $1A79
17331: 7A 77 FA       DEC     $77FA
17334: 77 DA 78       ASR     $DA78
17337: FA 79 5A       ORB     $795A
1733A: 79 DA 73       ROL     $DA73
1733D: 9A 73          ORA     <$73
1733F: 9A 7A          ORA     <$7A
17341: 3A             ABX
17342: 73 9A 73       COM     $9A73
17345: 9A 7A          ORA     <$7A
17347: 9A 7A          ORA     <$7A
17349: FA 79 FA       ORB     $79FA
1734C: 73 9A 73       COM     $9A73
1734F: 9A 7A          ORA     <$7A
17351: 5A             DECB
17352: 73 9A 73       COM     $9A73
17355: 9A 7A          ORA     <$7A
17357: BA 7B 1A       ORA     $7B1A
1735A: 7A 1A 73       DEC     $1A73
1735D: 9A 73          ORA     <$73
1735F: 9A 7A          ORA     <$7A
17361: 7A 73 9A       DEC     $739A
17364: 73 9A 7A       COM     $9A7A
17367: DA 7B          ORB     <$7B
17369: 3A             ABX
1736A: 79 BA 79       ROL     $BA79
1736D: BA 79 BA       ORA     $79BA
17370: 79 BA 73       ROL     $BA73
17373: 9A 73          ORA     <$73
17375: 9A 73          ORA     <$73
17377: 9A 73          ORA     <$73
17379: BA 7B 5A       ORA     $7B5A
1737C: 7B             FCB     $7B
1737D: 5A             DECB
1737E: 7B             FCB     $7B
1737F: 5A             DECB
17380: 7B             FCB     $7B
17381: 5A             DECB
17382: 73 9A 73       COM     $9A73
17385: 9A 73          ORA     <$73
17387: 9A 73          ORA     <$73
17389: 9A 7B          ORA     <$7B
1738B: 7A 7B 7A       DEC     $7B7A
1738E: 7B             FCB     $7B
1738F: 7A 7B 7A       DEC     $7B7A
17392: 73 9A 73       COM     $9A73
17395: 9A 73          ORA     <$73
17397: 9A 73          ORA     <$73
17399: 9A 00          ORA     <$00
1739B: 00 00          NEG     <$00
1739D: 00 00          NEG     <$00
1739F: 00 00          NEG     <$00
173A1: 00 00          NEG     <$00
173A3: 00 00          NEG     <$00
173A5: 00 00          NEG     <$00
173A7: 00 00          NEG     <$00
173A9: 00 00          NEG     <$00
173AB: 00 00          NEG     <$00
173AD: 00 00          NEG     <$00
173AF: 00 00          NEG     <$00
173B1: 00 00          NEG     <$00
173B3: 00 00          NEG     <$00
173B5: 00 00          NEG     <$00
173B7: 00 00          NEG     <$00
173B9: 00 0A          NEG     <$0A
173BB: 8C 0A 8C       CMPX    #$0A8C
173BE: 0A 8C          DEC     <$8C
173C0: 0A 8C          DEC     <$8C
173C2: 0A 8C          DEC     <$8C
173C4: 0A 8C          DEC     <$8C
173C6: 0A 8C          DEC     <$8C
173C8: 0A 8C          DEC     <$8C
173CA: 0A 8C          DEC     <$8C
173CC: 0A 8C          DEC     <$8C
173CE: 0A 8C          DEC     <$8C
173D0: 0A 8C          DEC     <$8C
173D2: 0A 8C          DEC     <$8C
173D4: 0A 8C          DEC     <$8C
173D6: 0A 8C          DEC     <$8C
173D8: 0A 8C          DEC     <$8C
173DA: 00 00          NEG     <$00
173DC: 00 00          NEG     <$00
173DE: 00 AC          NEG     <$AC
173E0: 0D FE          TST     <$FE
173E2: 0B             FCB     $0B
173E3: FD 06 FC       STD     $06FC
173E6: 00 DB          NEG     <$DB
173E8: 00 FF          NEG     <$FF
173EA: 05             FCB     $05
173EB: 56             RORB
173EC: 0F F0          CLR     <$F0
173EE: 08 8D          ASL     <$8D
173F0: 04 45          LSR     <$45
173F2: 06 68          ROR     <$68
173F4: 06 01          ROR     <$01
173F6: 0D 05          TST     <$05
173F8: 09 03          ROL     <$03
173FA: 00 00          NEG     <$00
173FC: 00 00          NEG     <$00
173FE: 0A AA          DEC     <$AA
17400: 08 89          ASL     <$89
17402: 08 78          ASL     <$78
17404: 06 66          ROR     <$66
17406: 09 A7          ROL     <$A7
17408: 06 66          ROR     <$66
1740A: 07 85          ASR     <$85
1740C: 03 43          COM     <$43
1740E: 0C DA          INC     <$DA
17410: 04 53          LSR     <$53
17412: 07 78          ASR     <$78
17414: 05             FCB     $05
17415: 56             RORB
17416: 04 44          LSR     <$44
17418: 0E EE          JMP     <$EE
1741A: 00 00          NEG     <$00
1741C: 00 00          NEG     <$00
1741E: 07 99          ASR     <$99
17420: 07 88          ASR     <$88
17422: 08 98          ASL     <$98
17424: 0C CC          INC     <$CC
17426: 04 55          LSR     <$55
17428: 06 67          ROR     <$67
1742A: 09 A8          ROL     <$A8
1742C: 0A B8          DEC     <$B8
1742E: 07 94          ASR     <$94
17430: 04 80          LSR     <$80
17432: 02             FCB     $02
17433: 51             FCB     $51
17434: 0A AA          DEC     <$AA
17436: 05             FCB     $05
17437: F0 05 C0       SUBB    $05C0
1743A: 00 00          NEG     <$00
1743C: 00 00          NEG     <$00
1743E: 00 F0          NEG     <$F0
17440: 04 00          LSR     <$00
17442: 05             FCB     $05
17443: 12             NOP
17444: 04 44          LSR     <$44
17446: 07 64          ASR     <$64
17448: 09 85          ROL     <$85
1744A: 0E EE          JMP     <$EE
1744C: 0C B7          INC     <$B7
1744E: 06 66          ROR     <$66
17450: 06 42          ROR     <$42
17452: 08 88          ASL     <$88
17454: 08 8D          ASL     <$8D
17456: 06 68          ROR     <$68
17458: 04 45          LSR     <$45
1745A: 00 00          NEG     <$00
1745C: 00 00          NEG     <$00
1745E: 04 44          LSR     <$44
17460: 00 40          NEG     <$40
17462: 00 71          NEG     <$71
17464: 04 44          LSR     <$44
17466: 00 B4          NEG     <$B4
17468: 00 D5          NEG     <$D5
1746A: 0E EE          JMP     <$EE
1746C: 01             FCB     $01
1746D: F7 06 66       STB     $0666
17470: 00 83          NEG     <$83
17472: 08 88          ASL     <$88
17474: 08 8D          ASL     <$8D
17476: 06 68          ROR     <$68
17478: 04 45          LSR     <$45
1747A: 00 00          NEG     <$00
1747C: 00 00          NEG     <$00
1747E: 00 50          NEG     <$50
17480: 06 67          ROR     <$67
17482: 00 60          NEG     <$60
17484: 01             FCB     $01
17485: 90 02          SUBA    <$02
17487: A0 03          SUBA    3,X
17489: B0 0A F1       SUBA    $0AF1
1748C: 03 34          COM     <$34
1748E: 04 45          LSR     <$45
17490: 04 C0          LSR     <$C0
17492: 04 F0          LSR     <$F0
17494: 06 F0          ROR     <$F0
17496: 05             FCB     $05
17497: 56             RORB
17498: 07 78          ASR     <$78
1749A: 00 00          NEG     <$00
1749C: 00 00          NEG     <$00
1749E: 00 06          NEG     <$06
174A0: 00 0A          NEG     <$0A
174A2: 00 0F          NEG     <$0F
174A4: 00 0B          NEG     <$0B
174A6: 00 09          NEG     <$09
174A8: 0A A9          DEC     <$A9
174AA: 00 07          NEG     <$07
174AC: 00 FF          NEG     <$FF
174AE: 0A 99          DEC     <$99
174B0: 0B             FCB     $0B
174B1: 79 0E DC       ROL     $0EDC
174B4: 0F E0          CLR     <$E0
174B6: 06 66          ROR     <$66
174B8: 06 66          ROR     <$66
174BA: 00 00          NEG     <$00
174BC: 00 00          NEG     <$00
174BE: 0F FF          CLR     <$FF
174C0: 0F F0          CLR     <$F0
174C2: 0A B0          DEC     <$B0
174C4: 0C D9          INC     <$D9
174C6: 08 91          ASL     <$91
174C8: 06 71          ROR     <$71
174CA: 05             FCB     $05
174CB: 60 04          NEG     4,X
174CD: 50             NEGB
174CE: 07 77          ASR     <$77
174D0: 08 8A          ASL     <$8A
174D2: 05             FCB     $05
174D3: 56             RORB
174D4: 08 8D          ASL     <$8D
174D6: 06 68          ROR     <$68
174D8: 04 45          LSR     <$45
174DA: 00 00          NEG     <$00
174DC: 00 00          NEG     <$00
174DE: 00 B0          NEG     <$B0
174E0: 04 44          LSR     <$44
174E2: 0C 9E          INC     <$9E
174E4: 0E EE          JMP     <$EE
174E6: 0A 9C          DEC     <$9C
174E8: 0B             FCB     $0B
174E9: 6D 00          TST     ,X
174EB: 70 08 6A       NEG     $086A
174EE: 0F FF          CLR     <$FF
174F0: 0C 9D          INC     <$9D
174F2: 05             FCB     $05
174F3: F0 0B C2       SUBB    $0BC2
174F6: 08 8D          ASL     <$8D
174F8: 06 68          ROR     <$68
174FA: 00 00          NEG     <$00
174FC: 00 00          NEG     <$00
174FE: 00 B0          NEG     <$B0
17500: 04 44          LSR     <$44
17502: 0C 9E          INC     <$9E
17504: 0E EE          JMP     <$EE
17506: 0A 9C          DEC     <$9C
17508: 0B             FCB     $0B
17509: 6D 00          TST     ,X
1750B: 70 08 6A       NEG     $086A
1750E: 0F FF          CLR     <$FF
17510: 0C 9D          INC     <$9D
17512: 05             FCB     $05
17513: F0 0B C2       SUBB    $0BC2
17516: 08 8D          ASL     <$8D
17518: 06 68          ROR     <$68
1751A: 00 00          NEG     <$00
1751C: 04 33          LSR     <$33
1751E: 0A 68          DEC     <$68
17520: 08 57          ASL     <$57
17522: 06 45          ROR     <$45
17524: 09 F0          ROL     <$F0
17526: 05             FCB     $05
17527: B0 02 70       SUBA    $0270
1752A: 00 00          NEG     <$00
1752C: 03 33          COM     <$33
1752E: 03 04          COM     <$04
17530: 09 9A          ROL     <$9A
17532: 05             FCB     $05
17533: 56             RORB
17534: 0B             FCB     $0B
17535: BC 06 67       CMPX    $0667
17538: 07 78          ASR     <$78
1753A: 00 00          NEG     <$00
1753C: 00 00          NEG     <$00
1753E: 0A A8          DEC     <$A8
17540: 09 97          ROL     <$97
17542: 07 75          ASR     <$75
17544: 05             FCB     $05
17545: 53             COMB
17546: 03 31          COM     <$31
17548: 0C CB          INC     <$CB
1754A: 06 45          ROR     <$45
1754C: 04 33          LSR     <$33
1754E: 09 B4          ROL     <$B4
17550: 0B             FCB     $0B
17551: C7             FCB     $C7
17552: 07 93          ASR     <$93
17554: 06 80          ROR     <$80
17556: 04 62          LSR     <$62
17558: 02             FCB     $02
17559: 41             FCB     $41
1755A: 00 00          NEG     <$00
1755C: 00 00          NEG     <$00
1755E: 00 AC          NEG     <$AC
17560: 0D FE          TST     <$FE
17562: 0B             FCB     $0B
17563: FD 06 FC       STD     $06FC
17566: 00 DB          NEG     <$DB
17568: 0C CD          INC     <$CD
1756A: 09 9A          ROL     <$9A
1756C: 07 78          ASR     <$78
1756E: 05             FCB     $05
1756F: 56             RORB
17570: 03 33          COM     <$33
17572: 00 70          NEG     <$70
17574: 06 01          ROR     <$01
17576: 0D 05          TST     <$05
17578: 09 03          ROL     <$03
1757A: 00 00          NEG     <$00
1757C: 00 00          NEG     <$00
1757E: 09 B4          ROL     <$B4
17580: 09 F0          ROL     <$F0
17582: 05             FCB     $05
17583: B0 09 7A       SUBA    $097A
17586: 04 15          LSR     <$15
17588: 06 37          ROR     <$37
1758A: 07 58          ASR     <$58
1758C: 04 44          LSR     <$44
1758E: 06 66          ROR     <$66
17590: 08 88          ASL     <$88
17592: 0B             FCB     $0B
17593: BB 06 80       ADDA    $0680
17596: 04 62          LSR     <$62
17598: 02             FCB     $02
17599: 41             FCB     $41
1759A: 00 00          NEG     <$00
1759C: 00 00          NEG     <$00
1759E: 0A A8          DEC     <$A8
175A0: 09 97          ROL     <$97
175A2: 07 75          ASR     <$75
175A4: 05             FCB     $05
175A5: 53             COMB
175A6: 03 31          COM     <$31
175A8: 0C CB          INC     <$CB
175AA: 06 45          ROR     <$45
175AC: 04 33          LSR     <$33
175AE: 09 B4          ROL     <$B4
175B0: 0B             FCB     $0B
175B1: C7             FCB     $C7
175B2: 07 93          ASR     <$93
175B4: 06 80          ROR     <$80
175B6: 04 62          LSR     <$62
175B8: 02             FCB     $02
175B9: 41             FCB     $41
175BA: 00 00          NEG     <$00
175BC: 00 00          NEG     <$00
175BE: 03 35          COM     <$35
175C0: 05             FCB     $05
175C1: 57             ASRB
175C2: 06 68          ROR     <$68
175C4: 07 79          ASR     <$79
175C6: 08 8A          ASL     <$8A
175C8: 09 9B          ROL     <$9B
175CA: 0C CC          INC     <$CC
175CC: 02             FCB     $02
175CD: 50             NEGB
175CE: 04 44          LSR     <$44
175D0: 06 66          ROR     <$66
175D2: 08 88          ASL     <$88
175D4: 09 99          ROL     <$99
175D6: 0A AA          DEC     <$AA
175D8: 0B             FCB     $0B
175D9: BB 00 00       ADDA    $0000
175DC: 00 00          NEG     <$00
175DE: 03 02          COM     <$02
175E0: 04 03          LSR     <$03
175E2: 05             FCB     $05
175E3: 04 06          LSR     <$06
175E5: 05             FCB     $05
175E6: 08 07          ASL     <$07
175E8: 02             FCB     $02
175E9: 01             FCB     $01
175EA: 00 00          NEG     <$00
175EC: 00 00          NEG     <$00
175EE: 00 00          NEG     <$00
175F0: 00 00          NEG     <$00
175F2: 00 00          NEG     <$00
175F4: 00 00          NEG     <$00
175F6: 00 00          NEG     <$00
175F8: 00 00          NEG     <$00
175FA: 00 00          NEG     <$00
175FC: 00 00          NEG     <$00
175FE: 07 57          ASR     <$57
17600: 08 A7          ASL     <$A7
17602: 09 99          ROL     <$99
17604: 00 07          NEG     <$07
17606: 04 53          LSR     <$53
17608: 02             FCB     $02
17609: 31 05          LEAY    5,X
1760B: 54             LSRB
1760C: 04 53          LSR     <$53
1760E: 07 77          ASR     <$77
17610: 05             FCB     $05
17611: 70 09 88       NEG     $0988
17614: 04 06          LSR     <$06
17616: 05             FCB     $05
17617: 08 06          ASL     <$06
17619: 0A 00          DEC     <$00
1761B: 00 00          NEG     <$00
1761D: 00 07          NEG     <$07
1761F: 85 02          BITA    #$02
17621: 31 09          LEAY    9,X
17623: 79 09 96       ROL     $0996
17626: 0C AC          INC     <$AC
17628: 07 86          ASR     <$86
1762A: 0C CA          INC     <$CA
1762C: 04 53          LSR     <$53
1762E: 05             FCB     $05
1762F: 64 06          LSR     6,X
17631: 75             FCB     $75
17632: 08 87          ASL     <$87
17634: 06 65          ROR     <$65
17636: 09 98          ROL     <$98
17638: 04 43          LSR     <$43
1763A: 00 00          NEG     <$00
1763C: 00 00          NEG     <$00
1763E: 07 85          ASR     <$85
17640: 05             FCB     $05
17641: 70 08 96       NEG     $0896
17644: 09 A6          ROL     <$A6
17646: 0A B7          DEC     <$B7
17648: 09 96          ROL     <$96
1764A: 0C C8          INC     <$C8
1764C: 04 53          LSR     <$53
1764E: 07 77          ASR     <$77
17650: 0C CD          INC     <$CD
17652: 09 88          ROL     <$88
17654: 02             FCB     $02
17655: 31 05          LEAY    5,X
17657: C6 05          LDB     #$05
17659: 55             FCB     $55
1765A: 00 00          NEG     <$00
1765C: 00 00          NEG     <$00
1765E: 00 96          NEG     <$96
17660: 00 A6          NEG     <$A6
17662: 00 B7          NEG     <$B7
17664: 00 C8          NEG     <$C8
17666: 00 D9          NEG     <$D9
17668: 00 EA          NEG     <$EA
1766A: 05             FCB     $05
1766B: 66 04          ROR     4,X
1766D: 53             COMB
1766E: 02             FCB     $02
1766F: 21 03          BRN     $17674
17671: 98 08          EORA    <$08
17673: C2 0A          SBCB    #$0A
17675: D1 03          CMPB    <$03
17677: 71             FCB     $71
17678: 07 D0          ASR     <$D0
1767A: 00 00          NEG     <$00
1767C: 00 00          NEG     <$00
1767E: 03 71          COM     <$71
17680: 0E F8          JMP     <$F8
17682: 0D E3          TST     <$E3
17684: 0A D1          DEC     <$D1
17686: 08 C2          ASL     <$C2
17688: 05             FCB     $05
17689: A1 06          CMPA    6,X
1768B: B1 0C E0       CMPA    $0CE0
1768E: 06 93          ROR     <$93
17690: 02             FCB     $02
17691: 50             NEGB
17692: 05             FCB     $05
17693: 55             FCB     $55
17694: 07 78          ASR     <$78
17696: 09 9A          ROL     <$9A
17698: 0B             FCB     $0B
17699: BC 00 00       CMPX    $0000
1769C: 00 00          NEG     <$00
1769E: 02             FCB     $02
1769F: 00 03          NEG     <$03
176A1: 11 04          FCB     $11,$04
176A3: 22 05          BHI     $176AA
176A5: 03 06          COM     <$06
176A7: 44             LSRA
176A8: 04 45          LSR     <$45
L176AA:
176AA: 03 41          COM     <$41
176AC: 06 74          ROR     <$74
176AE: 00 05          NEG     <$05
176B0: 01             FCB     $01
176B1: 17 07 78       LBSR    $17E2C
176B4: 03 39          COM     <$39
176B6: 04 4A          LSR     <$4A
176B8: 05             FCB     $05
176B9: 5B             FCB     $5B
176BA: 00 00          NEG     <$00
176BC: 00 00          NEG     <$00
176BE: 00 40          NEG     <$40
176C0: 00 50          NEG     <$50
176C2: 01             FCB     $01
176C3: 61             FCB     $61
176C4: 02             FCB     $02
176C5: 72             FCB     $72
176C6: 03 83          COM     <$83
176C8: 04 94          LSR     <$94
176CA: 03 32          COM     <$32
176CC: 07 76          ASR     <$76
176CE: 08 87          ASL     <$87
176D0: 07 70          ASR     <$70
176D2: 08 80          ASL     <$80
176D4: 04 43          LSR     <$43
176D6: 05             FCB     $05
176D7: 54             LSRB
176D8: 06 65          ROR     <$65
176DA: 00 00          NEG     <$00
176DC: 00 00          NEG     <$00
176DE: 05             FCB     $05
176DF: 46             RORA
176E0: 03 11          COM     <$11
176E2: 04 22          LSR     <$22
176E4: 05             FCB     $05
176E5: 03 06          COM     <$06
176E7: 44             LSRA
176E8: 03 41          COM     <$41
176EA: 06 74          ROR     <$74
176EC: 07 68          ASR     <$68
176EE: 03 23          COM     <$23
176F0: 04 34          LSR     <$34
176F2: 05             FCB     $05
176F3: 45             FCB     $45
176F4: 04 35          LSR     <$35
176F6: 08 79          ASL     <$79
176F8: 07 70          ASR     <$70
176FA: 00 00          NEG     <$00
176FC: 00 00          NEG     <$00
176FE: 06 29          ROR     <$29
17700: 03 06          COM     <$06
17702: 05             FCB     $05
17703: 03 06          COM     <$06
17705: 14             FCB     $14
17706: 07 12          ASR     <$12
17708: 07 55          ASR     <$55
1770A: 06 74          ROR     <$74
1770C: 07 84          ASR     <$84
1770E: 08 94          ASL     <$94
17710: 08 B7          ASL     <$B7
17712: 0C DB          INC     <$DB
17714: 0A B5          DEC     <$B5
17716: 07 84          ASR     <$84
17718: 05             FCB     $05
17719: 53             COMB
1771A: 00 00          NEG     <$00
1771C: 00 00          NEG     <$00
1771E: 07 A0          ASR     <$A0
17720: 04 72          LSR     <$72
17722: 05             FCB     $05
17723: 83 06 93       SUBD    #$0693
17726: 04 35          LSR     <$35
17728: 05             FCB     $05
17729: F2 09 C6       SBCB    $09C6
1772C: 05             FCB     $05
1772D: 46             RORA
1772E: 07 68          ASR     <$68
17730: 09 8A          ROL     <$8A
17732: 08 5B          ASL     <$5B
17734: 04 17          LSR     <$17
17736: 06 29          ROR     <$29
17738: 07 4A          ASR     <$4A
1773A: 00 00          NEG     <$00
1773C: 00 00          NEG     <$00
1773E: 04 53          LSR     <$53
17740: 02             FCB     $02
17741: 31 05          LEAY    5,X
17743: 54             LSRB
17744: 04 53          LSR     <$53
17746: 04 72          LSR     <$72
17748: 05             FCB     $05
17749: 83 06 93       SUBD    #$0693
1774C: 02             FCB     $02
1774D: 50             NEGB
1774E: 07 A0          ASR     <$A0
17750: 08 D3          ASL     <$D3
17752: 0A A8          DEC     <$A8
17754: 0C CC          INC     <$CC
17756: 06 29          ROR     <$29
17758: 07 4A          ASR     <$4A
1775A: 00 00          NEG     <$00
1775C: 00 00          NEG     <$00
1775E: 03 71          COM     <$71
17760: 06 93          ROR     <$93
17762: 05             FCB     $05
17763: A1 08          CMPA    8,X
17765: C2 0A          SBCB    #$0A
17767: D1 04          CMPB    <$04
17769: 17 06 29       LBSR    $17D95
1776C: 07 4A          ASR     <$4A
1776E: 04 44          LSR     <$44
17770: 06 67          ROR     <$67
17772: 08 89          ASL     <$89
17774: 0B             FCB     $0B
17775: BC 02 50       CMPX    $0250
17778: 0D E3          TST     <$E3
1777A: 00 00          NEG     <$00
1777C: 00 00          NEG     <$00
1777E: 03 30          COM     <$30
17780: 04 40          LSR     <$40
17782: 06 61          ROR     <$61
17784: 05             FCB     $05
17785: 55             FCB     $55
17786: 08 83          ASL     <$83
17788: 03 33          COM     <$33
1778A: 04 44          LSR     <$44
1778C: 06 67          ROR     <$67
1778E: 08 89          ASL     <$89
17790: 0B             FCB     $0B
17791: BC 0C C7       CMPX    $0CC7
17794: 02             FCB     $02
17795: 50             NEGB
17796: 04 72          LSR     <$72
17798: 06 93          ROR     <$93
1779A: 00 00          NEG     <$00
1779C: 07 77          ASR     <$77
1779E: 03 81          COM     <$81
177A0: 0F FF          CLR     <$FF
177A2: 05             FCB     $05
177A3: 55             FCB     $55
177A4: 01             FCB     $01
177A5: 61             FCB     $61
177A6: 04 92          LSR     <$92
177A8: 03 33          COM     <$33
177AA: 00 00          NEG     <$00
177AC: 0D DB          TST     <$DB
177AE: 06 91          ROR     <$91
177B0: 08 D3          ASL     <$D3
177B2: 0A A8          DEC     <$A8
177B4: 0C CC          INC     <$CC
177B6: 06 29          ROR     <$29
177B8: 07 4A          ASR     <$4A
177BA: 00 00          NEG     <$00
177BC: 00 00          NEG     <$00
177BE: 03 23          COM     <$23
177C0: 04 34          LSR     <$34
177C2: 05             FCB     $05
177C3: 45             FCB     $45
177C4: 06 56          ROR     <$56
177C6: 07 67          ASR     <$67
177C8: 04 35          LSR     <$35
177CA: 05             FCB     $05
177CB: 46             RORA
177CC: 07 68          ASR     <$68
177CE: 02             FCB     $02
177CF: 13             SYNC
177D0: 09 8A          ROL     <$8A
177D2: 0B             FCB     $0B
177D3: AC 04          CMPX    4,X
177D5: 43             COMA
177D6: 05             FCB     $05
177D7: 54             LSRB
177D8: 06 65          ROR     <$65
177DA: 00 00          NEG     <$00
177DC: 00 00          NEG     <$00
177DE: 05             FCB     $05
177DF: 54             LSRB
177E0: 08 FB          ASL     <$FB
177E2: 03 F9          COM     <$F9
177E4: 00 D6          NEG     <$D6
177E6: 00 84          NEG     <$84
177E8: 0F FF          CLR     <$FF
177EA: 09 99          ROL     <$99
177EC: 06 66          ROR     <$66
177EE: 0C CC          INC     <$CC
177F0: 07 29          ASR     <$29
177F2: 05             FCB     $05
177F3: 26 03          BNE     $177F8
177F5: 42             FCB     $42
177F6: 08 87          ASL     <$87
L177F8:
177F8: 07 75          ASR     <$75
177FA: 00 00          NEG     <$00
177FC: 00 00          NEG     <$00
177FE: 0A F0          DEC     <$F0
17800: 08 D0          ASL     <$D0
17802: 05             FCB     $05
17803: C0 04          SUBB    #$04
17805: 90 02          SUBA    <$02
17807: 20 02          BRA     $1780B
17809: 60 03          NEG     3,X
L1780B:
1780B: 43             COMA
1780C: 05             FCB     $05
1780D: 50             NEGB
1780E: 06 60          ROR     <$60
17810: 08 80          ASL     <$80
17812: 08 19          ASL     <$19
17814: 00 A0          NEG     <$A0
17816: 0B             FCB     $0B
17817: C3 06 37       ADDD    #$0637
1781A: 00 00          NEG     <$00
1781C: 00 00          NEG     <$00
1781E: 00 57          NEG     <$57
17820: 00 46          NEG     <$46
17822: 00 35          NEG     <$35
17824: 00 12          NEG     <$12
17826: 02             FCB     $02
17827: 79 0A B9       ROL     $0AB9
1782A: 02             FCB     $02
1782B: 31 04          LEAY    4,X
1782D: BA 05 89       ORA     $0589
17830: 0F FF          CLR     <$FF
17832: 0F F1          CLR     <$F1
17834: 00 F0          NEG     <$F0
17836: 02             FCB     $02
17837: 51             FCB     $51
17838: 06 82          ROR     <$82
1783A: 00 00          NEG     <$00
1783C: 00 00          NEG     <$00
1783E: 08 87          ASL     <$87
17840: 0B             FCB     $0B
17841: A9 07          ADCA    7,X
17843: 75             FCB     $75
17844: 05             FCB     $05
17845: 54             LSRB
17846: 07 29          ASR     <$29
17848: 05             FCB     $05
17849: 26 02          BNE     $1784D
1784B: 03 0F          COM     <$0F
L1784D:
1784D: F9 0F F0       ADCB    $0FF0
17850: 0A B0          DEC     <$B0
17852: 07 81          ASR     <$81
17854: 04 50          LSR     <$50
17856: 0F FF          CLR     <$FF
17858: 0A 4C          DEC     <$4C
1785A: 00 00          NEG     <$00
1785C: 00 00          NEG     <$00
1785E: 06 6A          ROR     <$6A
17860: 04 47          LSR     <$47
17862: 09 9B          ROL     <$9B
17864: 0D DF          TST     <$DF
17866: 02             FCB     $02
17867: 25 07          BCS     $17870
17869: 7B             FCB     $7B
1786A: 03 40          COM     <$40
1786C: 04 51          LSR     <$51
1786E: 06 73          ROR     <$73
L17870:
17870: 05             FCB     $05
17871: 73 08 95       COM     $0895
17874: 04 40          LSR     <$40
17876: 04 33          LSR     <$33
17878: 07 A5          ASR     <$A5
1787A: 00 00          NEG     <$00
1787C: 00 00          NEG     <$00
1787E: 04 A1          LSR     <$A1
17880: 07 C3          ASR     <$C3
17882: 03 20          COM     <$20
17884: 04 30          LSR     <$30
17886: 05             FCB     $05
17887: 60 07          NEG     7,X
17889: 82 08          SBCA    #$08
1788B: 94 0A          ANDA    <$0A
1788D: B5 0D E7       BITA    $0DE7
17890: 03 33          COM     <$33
17892: 00 60          NEG     <$60
17894: 02             FCB     $02
17895: 22 0A          BHI     $178A1
17897: A0 09          SUBA    9,X
17899: 99 00          ADCA    <$00
1789B: 00 00          NEG     <$00
1789D: 00 0F          NEG     <$0F
1789F: F0 03 33       SUBB    $0333
178A2: 06 60          ROR     <$60
178A4: 0B             FCB     $0B
178A5: C0 02          SUBB    #$02
178A7: 41             FCB     $41
178A8: 05             FCB     $05
178A9: 55             FCB     $55
178AA: 08 90          ASL     <$90
178AC: 01             FCB     $01
178AD: 03 06          COM     <$06
178AF: 19             DAA
178B0: 03 05          COM     <$05
178B2: 01             FCB     $01
178B3: 30 02          LEAX    2,X
178B5: 22 08          BHI     $178BF
178B7: 88 04          EORA    #$04
178B9: 72             FCB     $72
178BA: 00 00          NEG     <$00
178BC: 00 00          NEG     <$00
178BE: 0F DD          CLR     <$DD
178C0: 0D AA          TST     <$AA
178C2: 0B             FCB     $0B
178C3: 88 09          EORA    #$09
178C5: 66 07          ROR     7,X
178C7: 55             FCB     $55
178C8: 05             FCB     $05
178C9: 33 03          LEAU    3,X
178CB: 11 06          FCB     $11,$06
178CD: 64 04          LSR     4,X
178CF: 42             FCB     $42
178D0: 09 F0          ROL     <$F0
178D2: 03 E3          COM     <$E3
178D4: 06 F0          ROR     <$F0
178D6: 0E E4          JMP     <$E4
178D8: 09 94          ROL     <$94
178DA: 00 00          NEG     <$00
178DC: 00 00          NEG     <$00
178DE: 06 80          ROR     <$80
178E0: 08 A0          ASL     <$A0
178E2: 0A C0          DEC     <$C0
178E4: 0C F0          INC     <$F0
178E6: 05             FCB     $05
178E7: 60 03          NEG     3,X
178E9: 40             NEGA
178EA: 01             FCB     $01
178EB: 20 00          BRA     $178ED
L178ED:
178ED: 90 0F          SUBA    <$0F
178EF: F7 04 F0       STB     $04F0
178F2: 00 60          NEG     <$60
178F4: 05             FCB     $05
178F5: 55             FCB     $55
178F6: 0F 94          CLR     <$94
178F8: 0F 30          CLR     <$30
178FA: 00 00          NEG     <$00
178FC: 00 00          NEG     <$00
178FE: 0A E6          DEC     <$E6
17900: 07 C3          ASR     <$C3
17902: 04 A1          LSR     <$A1
17904: 03 80          COM     <$80
17906: 00 60          NEG     <$60
17908: 00 50          NEG     <$50
1790A: 00 40          NEG     <$40
1790C: 03 20          COM     <$20
1790E: 04 40          LSR     <$40
17910: 05             FCB     $05
17911: 60 07          NEG     7,X
17913: 82 08          SBCA    #$08
17915: 94 0A          ANDA    <$0A
17917: B5 0D E7       BITA    $0DE7
1791A: 00 00          NEG     <$00
1791C: 00 00          NEG     <$00
1791E: 08 F0          ASL     <$F0
17920: 07 E0          ASR     <$E0
17922: 06 E0          ROR     <$E0
17924: 03 80          COM     <$80
17926: 01             FCB     $01
17927: 60 05          NEG     5,X
17929: C0 07          SUBB    #$07
1792B: 76 00 40       ROR     $0040
1792E: 00 30          NEG     <$30
17930: 01             FCB     $01
17931: 20 0A          BRA     $1793D
17933: F0 08 09       SUBB    $0809
17936: 07 08          ASR     <$08
17938: 06 07          ROR     <$07
1793A: 00 00          NEG     <$00
1793C: 00 00          NEG     <$00
1793E: 02             FCB     $02
1793F: 22 03          BHI     $17944
17941: 33 04          LEAU    4,X
17943: 44             LSRA
L17944:
17944: 05             FCB     $05
17945: 55             FCB     $55
17946: 06 66          ROR     <$66
17948: 07 77          ASR     <$77
1794A: 08 88          ASL     <$88
1794C: 09 99          ROL     <$99
1794E: 0A AA          DEC     <$AA
17950: 0B             FCB     $0B
17951: BB 0C CC       ADDA    $0CCC
17954: 0D DD          TST     <$DD
17956: 02             FCB     $02
17957: 25 0F          BCS     $17968
17959: FF 00 00       STU     $0000
1795C: 00 00          NEG     <$00
1795E: 0C 0C          INC     <$0C
17960: 06 06          ROR     <$06
17962: 06 80          ROR     <$80
17964: 08 A0          ASL     <$A0
17966: 0D F5          TST     <$F5
L17968:
17968: 05             FCB     $05
17969: 05             FCB     $05
1796A: 08 08          ASL     <$08
1796C: 0B             FCB     $0B
1796D: 7B             FCB     $7B
1796E: 02             FCB     $02
1796F: 92 03          SBCA    <$03
17971: 50             NEGB
17972: 0A 6A          DEC     <$6A
17974: 03 55          COM     <$55
17976: 09 59          ROL     <$59
17978: 0A B0          DEC     <$B0
1797A: 00 00          NEG     <$00
1797C: 00 00          NEG     <$00
1797E: 06 07          ROR     <$07
17980: 07 08          ASR     <$08
17982: 08 09          ASL     <$09
17984: 08 A2          ASL     <$A2
17986: 0E E5          JMP     <$E5
17988: 01             FCB     $01
17989: 41             FCB     $41
1798A: 00 50          NEG     <$50
1798C: 00 61          NEG     <$61
1798E: 01             FCB     $01
1798F: 72             FCB     $72
17990: 01             FCB     $01
17991: 82 02          SBCA    #$02
17993: 92 03          SBCA    <$03
17995: A3 03          SUBD    3,X
17997: B3 04 C3       SUBD    $04C3
1799A: 00 00          NEG     <$00
1799C: 00 00          NEG     <$00
1799E: 00 06          NEG     <$06
179A0: 00 04          NEG     <$04
179A2: 05             FCB     $05
179A3: 0F 09          CLR     <$09
179A5: 8A 00          ORA     #$00
179A7: 0A 00          DEC     <$00
179A9: 0F 05          CLR     <$05
179AB: 06 00          ROR     <$00
179AD: 0C 00          INC     <$00
179AF: 08 08          ASL     <$08
179B1: 0C 0B          INC     <$0B
179B3: 0E 06          JMP     <$06
179B5: 07 08          ASR     <$08
179B7: 09 07          ROL     <$07
179B9: 08 00          ASL     <$00
179BB: 00 0F          NEG     <$0F
179BD: F6 0F FF       LDB     $0FFF
179C0: 0F F0          CLR     <$F0
179C2: 0F FC          CLR     <$FC
179C4: 00 00          NEG     <$00
179C6: 01             FCB     $01
179C7: 30 02          LEAX    2,X
179C9: 50             NEGB
179CA: 04 60          LSR     <$60
179CC: 05             FCB     $05
179CD: 80 07          SUBA    #$07
179CF: A0 09          SUBA    9,X
179D1: C0 0A          SUBB    #$0A
179D3: D0 0B          SUBB    <$0B
179D5: E0 0D          SUBB    13,X
179D7: F0 0F F9       SUBB    $0FF9
179DA: 00 00          NEG     <$00
179DC: 00 00          NEG     <$00
179DE: 00 05          NEG     <$05
179E0: 00 03          NEG     <$03
179E2: 04 0E          LSR     <$0E
179E4: 08 79          ASL     <$79
179E6: 00 09          NEG     <$09
179E8: 00 0E          NEG     <$0E
179EA: 04 05          LSR     <$05
179EC: 00 0B          NEG     <$0B
179EE: 00 07          NEG     <$07
179F0: 07 0B          ASR     <$0B
179F2: 0A 0D          DEC     <$0D
179F4: 06 57          ROR     <$57
179F6: 07 68          ASR     <$68
179F8: 05             FCB     $05
179F9: 46             RORA
179FA: 00 00          NEG     <$00
179FC: 00 00          NEG     <$00
179FE: 00 04          NEG     <$04
17A00: 00 02          NEG     <$02
17A02: 03 0D          COM     <$0D
17A04: 07 68          ASR     <$68
17A06: 00 08          NEG     <$08
17A08: 00 0D          NEG     <$0D
17A0A: 03 04          COM     <$04
17A0C: 00 0A          NEG     <$0A
17A0E: 00 06          NEG     <$06
17A10: 06 0A          ROR     <$0A
17A12: 09 0C          ROL     <$0C
17A14: 05             FCB     $05
17A15: 46             RORA
17A16: 06 57          ROR     <$57
17A18: 04 35          LSR     <$35
17A1A: 00 00          NEG     <$00
17A1C: 00 00          NEG     <$00
17A1E: 00 03          NEG     <$03
17A20: 00 01          NEG     <$01
17A22: 02             FCB     $02
17A23: 0C 06          INC     <$06
17A25: 57             ASRB
17A26: 00 06          NEG     <$06
17A28: 00 0B          NEG     <$0B
17A2A: 02             FCB     $02
17A2B: 03 00          COM     <$00
17A2D: 08 00          ASL     <$00
17A2F: 05             FCB     $05
17A30: 05             FCB     $05
17A31: 09 06          ROL     <$06
17A33: 0A 04          DEC     <$04
17A35: 35 05          PULS    CC,B
17A37: 46             RORA
17A38: 03 24          COM     <$24
17A3A: 00 00          NEG     <$00
17A3C: 00 00          NEG     <$00
17A3E: 05             FCB     $05
17A3F: 46             RORA
17A40: 06 57          ROR     <$57
17A42: 07 68          ASR     <$68
17A44: 07 90          ASR     <$90
17A46: 0C D4          INC     <$D4
17A48: 00 30          NEG     <$30
17A4A: 00 40          NEG     <$40
17A4C: 00 50          NEG     <$50
17A4E: 00 61          NEG     <$61
17A50: 00 71          NEG     <$71
17A52: 01             FCB     $01
17A53: 81 02          CMPA    #$02
17A55: 92 02          SBCA    <$02
17A57: A2 03          SBCA    3,X
17A59: B2 00 00       SBCA    $0000
17A5C: 00 00          NEG     <$00
17A5E: 04 35          LSR     <$35
17A60: 05             FCB     $05
17A61: 46             RORA
17A62: 06 57          ROR     <$57
17A64: 06 80          ROR     <$80
17A66: 0B             FCB     $0B
17A67: C3 00 20       ADDD    #$0020
17A6A: 00 30          NEG     <$30
17A6C: 00 40          NEG     <$40
17A6E: 00 50          NEG     <$50
17A70: 00 60          NEG     <$60
17A72: 00 70          NEG     <$70
17A74: 01             FCB     $01
17A75: 81 01          CMPA    #$01
17A77: 91 02          CMPA    <$02
17A79: A1 00          CMPA    ,X
17A7B: 00 00          NEG     <$00
17A7D: 00 03          NEG     <$03
17A7F: 24 04          BCC     $17A85
17A81: 35 05          PULS    CC,B
17A83: 46             RORA
17A84: 05             FCB     $05
L17A85:
17A85: 70 0A B2       NEG     $0AB2
17A88: 00 10          NEG     <$10
17A8A: 00 20          NEG     <$20
17A8C: 00 30          NEG     <$30
17A8E: 00 40          NEG     <$40
17A90: 00 50          NEG     <$50
17A92: 00 60          NEG     <$60
17A94: 00 70          NEG     <$70
17A96: 00 80          NEG     <$80
17A98: 01             FCB     $01
17A99: 90 00          SUBA    <$00
17A9B: 00 00          NEG     <$00
17A9D: 00 09          NEG     <$09
17A9F: D5 06          BITB    <$06
17AA1: B2 03 90       SBCA    $0390
17AA4: 02             FCB     $02
17AA5: 70 00 50       NEG     $0050
17AA8: 00 40          NEG     <$40
17AAA: 00 30          NEG     <$30
17AAC: 02             FCB     $02
17AAD: 10 03          FCB     $10,$03
17AAF: 30 04          LEAX    4,X
17AB1: 50             NEGB
17AB2: 06 71          ROR     <$71
17AB4: 07 83          ASR     <$83
17AB6: 09 A4          ROL     <$A4
17AB8: 0C D6          INC     <$D6
17ABA: 00 00          NEG     <$00
17ABC: 00 00          NEG     <$00
17ABE: 08 C4          ASL     <$C4
17AC0: 05             FCB     $05
17AC1: A1 02          CMPA    2,X
17AC3: 80 01          SUBA    #$01
17AC5: 60 00          NEG     ,X
17AC7: 40             NEGA
17AC8: 00 30          NEG     <$30
17ACA: 00 20          NEG     <$20
17ACC: 01             FCB     $01
17ACD: 00 02          NEG     <$02
17ACF: 20 03          BRA     $17AD4
17AD1: 40             NEGA
17AD2: 05             FCB     $05
17AD3: 60 06          NEG     6,X
17AD5: 72             FCB     $72
17AD6: 08 93          ASL     <$93
17AD8: 0B             FCB     $0B
17AD9: C5 00          BITB    #$00
17ADB: 00 00          NEG     <$00
17ADD: 00 06          NEG     <$06
17ADF: A2 03          SBCA    3,X
17AE1: 80 01          SUBA    #$01
17AE3: 70 00 50       NEG     $0050
17AE6: 00 30          NEG     <$30
17AE8: 00 20          NEG     <$20
17AEA: 00 10          NEG     <$10
17AEC: 00 00          NEG     <$00
L17AEE:
17AEE: 01             FCB     $01
17AEF: 10 02          FCB     $10,$02
17AF1: 30 04          LEAX    4,X
17AF3: 50             NEGB
17AF4: 05             FCB     $05
17AF5: 61             FCB     $61
17AF6: 07 82          ASR     <$82
17AF8: 09 A3          ROL     <$A3
17AFA: 00 00          NEG     <$00
17AFC: 00 00          NEG     <$00
17AFE: 0B             FCB     $0B
17AFF: 0B             FCB     $0B
17B00: 05             FCB     $05
17B01: 05             FCB     $05
17B02: 05             FCB     $05
17B03: 70 07 90       NEG     $0790
17B06: 0C C4          INC     <$C4
17B08: 04 04          LSR     <$04
17B0A: 07 07          ASR     <$07
17B0C: 0A 6A          DEC     <$6A
17B0E: 01             FCB     $01
17B0F: 81 02          CMPA    #$02
17B11: 40             NEGA
17B12: 09 59          ROL     <$59
17B14: 02             FCB     $02
17B15: 44             LSRA
17B16: 08 48          ASL     <$48
17B18: 09 A0          ROL     <$A0
17B1A: 00 00          NEG     <$00
17B1C: 00 00          NEG     <$00
17B1E: 0A 0A          DEC     <$0A
17B20: 04 04          LSR     <$04
17B22: 04 60          LSR     <$60
17B24: 06 80          ROR     <$80
17B26: 0B             FCB     $0B
17B27: B3 03 03       SUBD    $0303
17B2A: 06 06          ROR     <$06
17B2C: 09 59          ROL     <$59
17B2E: 00 70          NEG     <$70
17B30: 01             FCB     $01
17B31: 30 08          LEAX    8,X
17B33: 48             ASLA
17B34: 01             FCB     $01
17B35: 33 07          LEAU    7,X
17B37: 37 08          PULU    DP
17B39: 90 00          SUBA    <$00
17B3B: 00 00          NEG     <$00
17B3D: 00 09          NEG     <$09
17B3F: 09 03          ROL     <$03
17B41: 03 03          COM     <$03
17B43: 50             NEGB
17B44: 05             FCB     $05
17B45: 70 0A A2       NEG     $0AA2
17B48: 02             FCB     $02
17B49: 02             FCB     $02
17B4A: 05             FCB     $05
17B4B: 05             FCB     $05
17B4C: 08 48          ASL     <$48
17B4E: 00 60          NEG     <$60
17B50: 00 20          NEG     <$20
17B52: 07 37          ASR     <$37
17B54: 00 22          NEG     <$22
17B56: 06 26          ROR     <$26
17B58: 07 80          ASR     <$80
17B5A: 05             FCB     $05
17B5B: 5D             TSTB
17B5C: 00 00          NEG     <$00
17B5E: 00 00          NEG     <$00
17B60: 00 00          NEG     <$00
17B62: 00 00          NEG     <$00
17B64: 00 00          NEG     <$00
17B66: 00 00          NEG     <$00
17B68: 00 00          NEG     <$00
17B6A: 00 00          NEG     <$00
17B6C: 00 00          NEG     <$00
17B6E: 00 00          NEG     <$00
17B70: 00 00          NEG     <$00
17B72: 00 00          NEG     <$00
17B74: 00 00          NEG     <$00
17B76: 00 00          NEG     <$00
17B78: 00 00          NEG     <$00
17B7A: 07 79          ASR     <$79
17B7C: 07 79          ASR     <$79
17B7E: 07 79          ASR     <$79
17B80: 07 79          ASR     <$79
17B82: 07 79          ASR     <$79
17B84: 07 79          ASR     <$79
17B86: 07 79          ASR     <$79
17B88: 07 79          ASR     <$79
17B8A: 07 79          ASR     <$79
17B8C: 07 79          ASR     <$79
17B8E: 07 79          ASR     <$79
17B90: 07 79          ASR     <$79
17B92: 07 79          ASR     <$79
17B94: 07 79          ASR     <$79
17B96: 07 79          ASR     <$79
17B98: 07 79          ASR     <$79
17B9A: 7C 2A 7D       INC     $2A7D
17B9D: 0A 7D          DEC     <$7D
17B9F: 0A 7D          DEC     <$7D
17BA1: CA 7D          ORB     #$7D
17BA3: 4A             DECA
17BA4: 7C 6A 7D       INC     $6A7D
17BA7: 8A 73          ORA     #$73
17BA9: 9A 7C          ORA     <$7C
17BAB: 2A 7D          BPL     $17C2A
17BAD: 0A 7D          DEC     <$7D
17BAF: 2A 7D          BPL     $17C2E
17BB1: CA 7D          ORB     #$7D
17BB3: 4A             DECA
17BB4: 7D 6A 7D       TST     $6A7D
17BB7: 8A 7D          ORA     #$7D
17BB9: AA 7C          ORA     -4,S
17BBB: 2A 7C          BPL     $17C39
17BBD: 4A             DECA
17BBE: 7C 8A 7C       INC     $8A7C
17BC1: AA 7C          ORA     -4,S
17BC3: CA 7C          ORB     #$7C
17BC5: EA 7D          ORB     -3,S
17BC7: 8A 7D          ORA     #$7D
17BC9: AA 7C          ORA     -4,S
17BCB: 6A 7C          DEC     -4,S
17BCD: 6A 73          DEC     -13,S
17BCF: 9A 73          ORA     <$73
17BD1: 9A 73          ORA     <$73
17BD3: 9A 73          ORA     <$73
17BD5: 9A 7D          ORA     <$7D
17BD7: 8A 7C          ORA     #$7C
17BD9: 0A 7C          DEC     <$7C
17BDB: 6A 7C          DEC     -4,S
17BDD: 6A 73          DEC     -13,S
17BDF: 9A 73          ORA     <$73
17BE1: 9A 73          ORA     <$73
17BE3: 9A 73          ORA     <$73
17BE5: 9A 7D          ORA     <$7D
17BE7: 8A 7B          ORA     #$7B
17BE9: EA 00          ORB     ,X
17BEB: 00 00          NEG     <$00
17BED: 00 00          NEG     <$00
17BEF: 06 00          ROR     <$00
17BF1: D0 0F          SUBB    <$0F
17BF3: FF 09 00       STU     $0900
17BF6: 08 C1          ASL     <$C1
17BF8: 03 B0          COM     <$B0
17BFA: 07 0E          ASR     <$0E
17BFC: 0D D0          TST     <$D0
17BFE: 00 80          NEG     <$80
17C00: 0C CC          INC     <$CC
17C02: 07 00          ASR     <$00
17C04: 04 C0          LSR     <$C0
17C06: 0C CC          INC     <$CC
17C08: 05             FCB     $05
17C09: 55             FCB     $55
17C0A: 00 00          NEG     <$00
17C0C: 00 00          NEG     <$00
17C0E: 00 04          NEG     <$04
17C10: 0C CC          INC     <$CC
17C12: 0A E4          DEC     <$E4
17C14: 0D F0          TST     <$F0
17C16: 06 A0          ROR     <$A0
17C18: 05             FCB     $05
17C19: 5D             TSTB
17C1A: 08 C0          ASL     <$C0
17C1C: 07 79          ASR     <$79
17C1E: 00 B0          NEG     <$B0
17C20: 08 04          ASL     <$04
17C22: 05             FCB     $05
17C23: 04 0A          LSR     <$0A
17C25: AB 04          ADDA    4,X
17C27: 90 00          SUBA    <$00
17C29: F0 00 00       SUBB    $0000
17C2C: 00 00          NEG     <$00
L17C2E:
17C2E: 0C AF          INC     <$AF
17C30: 09 7E          ROL     <$7E
17C32: 09 7F          ROL     <$7F
17C34: 05             FCB     $05
17C35: 3C 0F          CWAI    #$0F
17C37: EF 00          STU     ,X
L17C39:
17C39: AD 07          JSR     7,X
17C3B: 5F             CLRB
17C3C: 00 AD          NEG     <$AD
17C3E: 0F FF          CLR     <$FF
17C40: 07 7F          ASR     <$7F
17C42: 00 07          NEG     <$07
17C44: 0F 00          CLR     <$00
17C46: 00 0F          NEG     <$0F
17C48: 05             FCB     $05
17C49: 5F             CLRB
17C4A: 00 00          NEG     <$00
17C4C: 00 00          NEG     <$00
17C4E: 0F FF          CLR     <$FF
17C50: 0C CF          INC     <$CF
17C52: 09 9F          ROL     <$9F
17C54: 0D DF          TST     <$DF
17C56: 0E EF          JMP     <$EF
17C58: 00 9C          NEG     <$9C
17C5A: 0A AF          DEC     <$AF
17C5C: 00 AD          NEG     <$AD
17C5E: 0F F5          CLR     <$F5
17C60: 07 7F          ASR     <$7F
17C62: 00 07          NEG     <$07
17C64: 0F 00          CLR     <$00
17C66: 00 0F          NEG     <$0F
17C68: 05             FCB     $05
17C69: 5F             CLRB
17C6A: 00 00          NEG     <$00
17C6C: 00 00          NEG     <$00
17C6E: 0F FF          CLR     <$FF
17C70: 0C CF          INC     <$CF
17C72: 09 9F          ROL     <$9F
17C74: 0D DF          TST     <$DF
17C76: 0E EF          JMP     <$EF
17C78: 00 00          NEG     <$00
17C7A: 0A AF          DEC     <$AF
17C7C: 00 AD          NEG     <$AD
17C7E: 0F F0          CLR     <$F0
17C80: 07 7F          ASR     <$7F
17C82: 00 07          NEG     <$07
17C84: 0F 00          CLR     <$00
17C86: 00 0F          NEG     <$0F
17C88: 05             FCB     $05
17C89: 5F             CLRB
17C8A: 00 00          NEG     <$00
17C8C: 0D FB          TST     <$FB
17C8E: 0C E9          INC     <$E9
17C90: 0A E7          DEC     <$E7
17C92: 08 C5          ASL     <$C5
17C94: 07 A4          ASR     <$A4
17C96: 05             FCB     $05
17C97: 82 02          SBCA    #$02
17C99: 70 09 6E       NEG     $096E
17C9C: 06 2B          ROR     <$2B
17C9E: 01             FCB     $01
17C9F: 31 08          LEAY    8,X
17CA1: C1 0C          CMPB    #$0C
17CA3: F5 0F FF       BITB    $0FFF
17CA6: 0C CF          INC     <$CF
17CA8: 02             FCB     $02
17CA9: 15             FCB     $15
17CAA: 00 00          NEG     <$00
17CAC: 0E FB          JMP     <$FB
17CAE: 0B             FCB     $0B
17CAF: F7 09 D5       STB     $09D5
17CB2: 06 B3          ROR     <$B3
17CB4: 04 81          LSR     <$81
17CB6: 03 50          COM     <$50
17CB8: 08 E8          ASL     <$E8
17CBA: 01             FCB     $01
17CBB: 91 01          CMPA    <$01
17CBD: 21 09          BRN     $17CC8
17CBF: E1 06          CMPB    6,X
17CC1: A0 0B          SUBA    11,X
17CC3: 8F             FCB     $8F
17CC4: 08 4C          ASL     <$4C
17CC6: 04 44          LSR     <$44
L17CC8:
17CC8: 02             FCB     $02
17CC9: 15             FCB     $15
17CCA: 00 00          NEG     <$00
17CCC: 06 91          ROR     <$91
17CCE: 04 44          LSR     <$44
17CD0: 08 C5          ASL     <$C5
17CD2: 05             FCB     $05
17CD3: 80 00          SUBA    #$00
17CD5: 00 02          NEG     <$02
17CD7: 60 04          NEG     4,X
17CD9: 71             FCB     $71
17CDA: 07 B3          ASR     <$B3
17CDC: 00 58          NEG     <$58
17CDE: 00 47          NEG     <$47
17CE0: 03 8C          COM     <$8C
17CE2: 01             FCB     $01
17CE3: 69 08          ROL     8,X
17CE5: 78 0D FD       ASL     $0DFD
17CE8: 02             FCB     $02
17CE9: 15             FCB     $15
17CEA: 00 00          NEG     <$00
17CEC: 00 00          NEG     <$00
17CEE: 0F FF          CLR     <$FF
17CF0: 0B             FCB     $0B
17CF1: BB 08 88       ADDA    $0888
17CF4: 0B             FCB     $0B
17CF5: BF 0D DF       STX     $0DDF
17CF8: 00 AD          NEG     <$AD
17CFA: 0F A0          CLR     <$A0
17CFC: 00 AD          NEG     <$AD
17CFE: 0F FF          CLR     <$FF
17D00: 07 7E          ASR     <$7E
17D02: 00 07          NEG     <$07
17D04: 0F 00          CLR     <$00
17D06: 00 0F          NEG     <$0F
17D08: 05             FCB     $05
17D09: 5F             CLRB
17D0A: 00 00          NEG     <$00
17D0C: 0F FF          CLR     <$FF
17D0E: 00 00          NEG     <$00
17D10: 02             FCB     $02
17D11: CE 00 EE       LDU     #$00EE
17D14: 03 FE          COM     <$FE
17D16: 05             FCB     $05
17D17: FF 07 FF       STU     $07FF
17D1A: 09 FE          ROL     <$FE
17D1C: 0A FE          DEC     <$FE
17D1E: 0B             FCB     $0B
17D1F: EE 0C          LDU     12,X
17D21: EE 00          LDU     ,X
17D23: BD 0F 00       JSR     $0F00
17D26: 0F 00          CLR     <$00
17D28: 0F 00          CLR     <$00
17D2A: 00 00          NEG     <$00
17D2C: 0F FF          CLR     <$FF
17D2E: 00 00          NEG     <$00
17D30: 0C F3          INC     <$F3
17D32: 0C F4          INC     <$F4
17D34: 0D F0          TST     <$F0
17D36: 0D F3          TST     <$F3
17D38: 0D F5          TST     <$F5
17D3A: 0E F5          JMP     <$F5
17D3C: 0E F6          JMP     <$F6
17D3E: 0E F7          JMP     <$F7
17D40: 0E F8          JMP     <$F8
17D42: 0C F0          INC     <$F0
17D44: 0F 00          CLR     <$00
17D46: 0F 00          CLR     <$00
17D48: 0F 00          CLR     <$00
17D4A: 00 00          NEG     <$00
17D4C: 00 00          NEG     <$00
17D4E: 0F FF          CLR     <$FF
17D50: 0C CF          INC     <$CF
17D52: 09 9F          ROL     <$9F
17D54: 0D DF          TST     <$DF
17D56: 0E EF          JMP     <$EF
17D58: 00 AD          NEG     <$AD
17D5A: 0A AF          DEC     <$AF
17D5C: 00 AD          NEG     <$AD
17D5E: 0F FF          CLR     <$FF
17D60: 07 7F          ASR     <$7F
17D62: 00 07          NEG     <$07
17D64: 0F 00          CLR     <$00
17D66: 00 0F          NEG     <$0F
17D68: 05             FCB     $05
17D69: 5F             CLRB
17D6A: 00 00          NEG     <$00
17D6C: 0F FF          CLR     <$FF
17D6E: 09 1F          ROL     <$1F
17D70: 08 1F          ASL     <$1F
17D72: 07 1D          ASR     <$1D
17D74: 06 1C          ROR     <$1C
17D76: 05             FCB     $05
17D77: 1B             FCB     $1B
17D78: 04 2B          LSR     <$2B
17D7A: 03 1A          COM     <$1A
17D7C: 08 89          ASL     <$89
17D7E: 06 67          ROR     <$67
17D80: 05             FCB     $05
17D81: 56             RORB
17D82: 04 44          LSR     <$44
17D84: 03 33          COM     <$33
17D86: 02             FCB     $02
17D87: 22 0C          BHI     $17D95
17D89: CD             FCB     $CD
17D8A: 00 00          NEG     <$00
17D8C: 00 00          NEG     <$00
17D8E: 0D BF          TST     <$BF
17D90: 0C AF          INC     <$AF
17D92: 0B             FCB     $0B
17D93: 9F 0A          STX     <$0A
L17D95:
17D95: 2F 09          BLE     $17DA0
17D97: 1F 08          TFR     D,A
17D99: 0F 08          CLR     <$08
17D9B: 89 06          ADCA    #$06
17D9D: 67 05          ASR     5,X
17D9F: 56             RORB
L17DA0:
17DA0: 04 44          LSR     <$44
17DA2: 04 07          LSR     <$07
17DA4: 00 07          NEG     <$07
17DA6: 00 77          NEG     <$77
17DA8: 07 70          ASR     <$70
17DAA: 00 00          NEG     <$00
17DAC: 0F F6          CLR     <$F6
17DAE: 0F FF          CLR     <$FF
17DB0: 0F F0          CLR     <$F0
17DB2: 0F FC          CLR     <$FC
17DB4: 00 00          NEG     <$00
17DB6: 01             FCB     $01
17DB7: 30 02          LEAX    2,X
17DB9: 50             NEGB
17DBA: 04 60          LSR     <$60
17DBC: 05             FCB     $05
17DBD: 80 07          SUBA    #$07
17DBF: A0 09          SUBA    9,X
17DC1: C0 0D          SUBB    #$0D
17DC3: A0 0B          SUBA    11,X
17DC5: E0 0D          SUBB    13,X
17DC7: F0 0F F9       SUBB    $0FF9
17DCA: 00 00          NEG     <$00
17DCC: 02             FCB     $02
17DCD: 62             FCB     $62
17DCE: 0F FF          CLR     <$FF
17DD0: 0D FB          TST     <$FB
17DD2: 0C E9          INC     <$E9
17DD4: 0A E7          DEC     <$E7
17DD6: 08 C5          ASL     <$C5
17DD8: 06 93          ROR     <$93
17DDA: 07 77          ASR     <$77
17DDC: 00 F0          NEG     <$F0
17DDE: 02             FCB     $02
17DDF: 70 00 A0       NEG     $00A0
17DE2: 02             FCB     $02
17DE3: E5 0A          BITB    10,X
17DE5: AA 00          ORA     ,X
17DE7: F0 0B B0       SUBB    $0BB0
17DEA: 32 7F          LEAS    -1,S
17DEC: 6F E4          CLR     ,S
L17DEE:
17DEE: D6 36          LDB     <$36
17DF0: C1 03          CMPB    #$03
17DF2: 26 04          BNE     $17DF8
17DF4: D6 37          LDB     <$37
17DF6: 26 30          BNE     $17E28
L17DF8:
17DF8: E6 E4          LDB     ,S
17DFA: 58             ASLB
17DFB: 58             ASLB
17DFC: 8E 7E 2B       LDX     #$7E2B
17DFF: 30 85          LEAX    B,X
17E01: FC 0B 1C       LDD     $0B1C
17E04: 10 A3 89 00 00 CMPD    0,X
17E09: 25 04          BCS     $17E0F
17E0B: 6C E4          INC     ,S
17E0D: 20 DF          BRA     $17DEE
L17E0F:
17E0F: E6 E4          LDB     ,S
17E11: 5A             DECB
17E12: F7 0B 18       STB     $0B18
17E15: E1 89 00 03    CMPB    3,X
17E19: 27 0D          BEQ     $17E28
17E1B: 58             ASLB
17E1C: 58             ASLB
17E1D: 8E 7E 2B       LDX     #$7E2B
17E20: 30 85          LEAX    B,X
17E22: E6 89 00 03    LDB     3,X
17E26: D7 4F          STB     <$4F
L17E28:
17E28: 32 61          LEAS    1,S
17E2A: 39             RTS
17E2B: 00 00          NEG     <$00
17E2D: 00 00          NEG     <$00
17E2F: 01             FCB     $01
17E30: FC 01 01       LDD     $0101
17E33: 03 4C          COM     <$4C
17E35: 02             FCB     $02
17E36: 02             FCB     $02
17E37: 04 04          LSR     <$04
17E39: 03 03          COM     <$03
17E3B: 06 00          ROR     <$00
17E3D: 04 04          LSR     <$04
17E3F: 07 00          ASR     <$00
17E41: 05             FCB     $05
17E42: 05             FCB     $05
17E43: 08 00          ASL     <$00
17E45: 06 06          ROR     <$06
17E47: 08 04          ASL     <$04
17E49: 07 07          ASR     <$07
17E4B: 0A 04          DEC     <$04
17E4D: 08 08          ASL     <$08
17E4F: 0E 04          JMP     <$04
17E51: 09 09          ROL     <$09
17E53: 12             NOP
17E54: 00 0A          NEG     <$0A
17E56: 0A 13          DEC     <$13
17E58: 80 0B          SUBA    #$0B
17E5A: 0B             FCB     $0B
17E5B: 14             FCB     $14
17E5C: 60 0C          NEG     12,X
17E5E: 0C 15          INC     <$15
17E60: 01             FCB     $01
17E61: 0D 0D          TST     <$0D
17E63: FF FF 00       STU     $FF00
17E66: 00 FF          NEG     <$FF
17E68: FF FF FF       STU     $FFFF
17E6B: FF FF FF       STU     $FFFF
17E6E: FF FF FF       STU     $FFFF
17E71: FF FF FF       STU     $FFFF
17E74: FF FF FF       STU     $FFFF
17E77: FF FF FF       STU     $FFFF
17E7A: FF FF FF       STU     $FFFF
17E7D: FF FF FF       STU     $FFFF
17E80: FF FF FF       STU     $FFFF
17E83: FF FF FF       STU     $FFFF
17E86: FF FF FF       STU     $FFFF
17E89: FF FF FF       STU     $FFFF
17E8C: FF FF FF       STU     $FFFF
17E8F: FF FF FF       STU     $FFFF
17E92: FF FF FF       STU     $FFFF
17E95: FF FF FF       STU     $FFFF
17E98: FF FF FF       STU     $FFFF
17E9B: FF FF FF       STU     $FFFF
17E9E: FF FF FF       STU     $FFFF
17EA1: FF FF FF       STU     $FFFF
17EA4: FF FF FF       STU     $FFFF
17EA7: FF FF FF       STU     $FFFF
17EAA: FF FF FF       STU     $FFFF
17EAD: FF FF FF       STU     $FFFF
17EB0: FF FF FF       STU     $FFFF
17EB3: FF FF FF       STU     $FFFF
17EB6: FF FF FF       STU     $FFFF
17EB9: FF FF FF       STU     $FFFF
17EBC: FF FF FF       STU     $FFFF
17EBF: FF FF FF       STU     $FFFF
17EC2: FF FF FF       STU     $FFFF
17EC5: FF FF FF       STU     $FFFF
17EC8: FF FF FF       STU     $FFFF
17ECB: FF FF FF       STU     $FFFF
17ECE: FF FF FF       STU     $FFFF
17ED1: FF FF FF       STU     $FFFF
17ED4: FF FF FF       STU     $FFFF
17ED7: FF FF FF       STU     $FFFF
17EDA: FF FF FF       STU     $FFFF
17EDD: FF FF FF       STU     $FFFF
17EE0: FF FF FF       STU     $FFFF
17EE3: FF FF FF       STU     $FFFF
17EE6: FF FF FF       STU     $FFFF
17EE9: FF FF FF       STU     $FFFF
17EEC: FF FF FF       STU     $FFFF
17EEF: FF FF FF       STU     $FFFF
17EF2: FF FF FF       STU     $FFFF
17EF5: FF FF FF       STU     $FFFF
17EF8: FF FF FF       STU     $FFFF
17EFB: FF FF FF       STU     $FFFF
17EFE: FF FF FF       STU     $FFFF
17F01: FF FF FF       STU     $FFFF
17F04: FF FF FF       STU     $FFFF
17F07: FF FF FF       STU     $FFFF
17F0A: FF FF FF       STU     $FFFF
17F0D: FF FF FF       STU     $FFFF
17F10: FF FF FF       STU     $FFFF
17F13: FF FF FF       STU     $FFFF
17F16: FF FF FF       STU     $FFFF
17F19: FF FF FF       STU     $FFFF
17F1C: FF FF FF       STU     $FFFF
17F1F: FF FF FF       STU     $FFFF
17F22: FF FF FF       STU     $FFFF
17F25: FF FF FF       STU     $FFFF
17F28: FF FF FF       STU     $FFFF
17F2B: FF FF FF       STU     $FFFF
17F2E: FF FF FF       STU     $FFFF
17F31: FF FF FF       STU     $FFFF
17F34: FF FF FF       STU     $FFFF
17F37: FF FF FF       STU     $FFFF
17F3A: FF FF FF       STU     $FFFF
17F3D: FF FF FF       STU     $FFFF
17F40: FF FF FF       STU     $FFFF
17F43: FF FF FF       STU     $FFFF
17F46: FF FF FF       STU     $FFFF
17F49: FF FF FF       STU     $FFFF
17F4C: FF FF FF       STU     $FFFF
17F4F: FF FF FF       STU     $FFFF
17F52: FF FF FF       STU     $FFFF
17F55: FF FF FF       STU     $FFFF
17F58: FF FF FF       STU     $FFFF
17F5B: FF FF FF       STU     $FFFF
17F5E: FF FF FF       STU     $FFFF
17F61: FF FF FF       STU     $FFFF
17F64: FF FF FF       STU     $FFFF
17F67: FF FF FF       STU     $FFFF
17F6A: FF FF FF       STU     $FFFF
17F6D: FF FF FF       STU     $FFFF
17F70: FF FF FF       STU     $FFFF
17F73: FF FF FF       STU     $FFFF
17F76: FF FF FF       STU     $FFFF
17F79: FF FF FF       STU     $FFFF
17F7C: FF FF FF       STU     $FFFF
17F7F: FF FF FF       STU     $FFFF
17F82: FF FF FF       STU     $FFFF
17F85: FF FF FF       STU     $FFFF
17F88: FF FF FF       STU     $FFFF
17F8B: FF FF FF       STU     $FFFF
17F8E: FF FF FF       STU     $FFFF
17F91: FF FF FF       STU     $FFFF
17F94: FF FF FF       STU     $FFFF
17F97: FF FF FF       STU     $FFFF
17F9A: FF FF FF       STU     $FFFF
17F9D: FF FF FF       STU     $FFFF
17FA0: FF FF FF       STU     $FFFF
17FA3: FF FF FF       STU     $FFFF
17FA6: FF FF FF       STU     $FFFF
17FA9: FF FF FF       STU     $FFFF
17FAC: FF FF FF       STU     $FFFF
17FAF: FF FF FF       STU     $FFFF
17FB2: FF FF FF       STU     $FFFF
17FB5: FF FF FF       STU     $FFFF
17FB8: FF FF FF       STU     $FFFF
17FBB: FF FF FF       STU     $FFFF
17FBE: FF FF FF       STU     $FFFF
17FC1: FF FF FF       STU     $FFFF
17FC4: FF FF FF       STU     $FFFF
17FC7: FF FF FF       STU     $FFFF
17FCA: FF FF FF       STU     $FFFF
17FCD: FF FF FF       STU     $FFFF
17FD0: FF FF FF       STU     $FFFF
17FD3: FF FF FF       STU     $FFFF
17FD6: FF FF FF       STU     $FFFF
17FD9: FF FF FF       STU     $FFFF
17FDC: FF FF FF       STU     $FFFF
17FDF: FF FF FF       STU     $FFFF
17FE2: FF FF FF       STU     $FFFF
17FE5: FF FF FF       STU     $FFFF
17FE8: FF FF FF       STU     $FFFF
17FEB: FF FF FF       STU     $FFFF
17FEE: FF FF FF       STU     $FFFF
17FF1: FF FF FF       STU     $FFFF
17FF4: FF FF FF       STU     $FFFF
17FF7: FF FF FF       STU     $FFFF
17FFA: FF FF FF       STU     $FFFF
17FFD: FF FF FF       STU     $FFFF
