; Z80 Disassembly
; Generated by disasmZ80.js
; ROM size: 32768 bytes
;


sub_0000:
0000: 34            INC (HL)

sub_0001:
0001: 3E 86         LD A,86h

sub_0003:
0003: 0B            DEC BC
0004: 1F            RRA
0005: 8B            ADC A,E

sub_0006:
0006: 7F            LD A,A
0007: 0C            INC C

sub_0008:
0008: 26 7F         LD H,7Fh
000A: 0C            INC C
000B: 27            DAA

sub_000C:
000C: 7F            LD A,A
000D: 0C            INC C
000E: 28 7F         JR Z,loc_008F

sub_0010:
0010: 0C            INC C
0011: 29            ADD HL,HL
0012: DC F4 FD      CALL C,FDF4h
0015: 0C            INC C
0016: 2A DC F6      LD HL,(F6DCh)
0019: FD            DB FDh ; prefix (nop)
001A: 0C            INC C
001B: 2C            INC L
001C: DC F8 FD      CALL C,FDF8h
001F: 0C            INC C

sub_0020:
0020: 2E 7F         LD L,7Fh
0022: 0C            INC C
0023: 07            RLCA
0024: 8E            ADC A,(HL)
0025: 0B            DEC BC
0026: FB            EI
0027: B6            OR (HL)

sub_0028:
0028: 0F            RRCA
0029: 5B            LD E,E
002A: 26 02         LD H,02h
002C: 20 11         JR NZ,loc_003F
002E: 7F            LD A,A
002F: 0C            INC C

sub_0030:
0030: 26 7F         LD H,7Fh
0032: 0C            INC C
0033: 27            DAA
0034: 7F            LD A,A
0035: 0C            INC C
0036: 28 86         JR Z,0-42h

sub_0038:
0038: F0            RET P
0039: B7            OR A
003A: 0C            INC C
003B: 29            ADD HL,HL
003C: 16 00         LD D,00h
003E: 7D            LD A,L

loc_003F:
003F: A6            AND (HL)
0040: 84            ADD A,H
0041: AA            XOR D
0042: 01 AA 02      LD BC,02AAh
0045: 27            DAA
0046: 44            LD B,H
0047: 96            SUB (HL)
0048: FA 27 02      JP M,loc_0227
004B: 60            LD H,B
004C: 84            ADD A,H
004D: E6 84         AND 84h
004F: 1D            DEC E
0050: C1            POP BC
0051: 01 26 06      LD BC,0626h
0054: C1            POP BC
0055: FF            RST 38h
0056: 26 02         LD H,02h
0058: 4F            LD C,A
0059: 5F            LD E,A
005A: FD            DB FDh ; prefix (nop)
005B: 0C            INC C
005C: 1C            INC E
005D: D3 F4         OUT (F4h),A
005F: FD            DB FDh ; prefix (nop)
0060: 0C            INC C
0061: 08            EX AF,AF'
0062: E6 01         AND 01h
0064: 1D            DEC E
0065: D3 F6         OUT (F6h),A
0067: FD            DB FDh ; prefix (nop)
0068: 0C            INC C
0069: 0A            LD A,(BC)
006A: E6 02         AND 02h
006C: 1D            DEC E
006D: D3 F8         OUT (F8h),A
006F: FD            DB FDh ; prefix (nop)
0070: 0C            INC C
0071: 0C            INC C
0072: 34            INC (HL)
0073: 10 86         DJNZ 00-5h
0075: 08            EX AF,AF'
0076: 34            INC (HL)
0077: 02            LD (BC),A
0078: BD            CP L
0079: 40            LD B,B
007A: BE            CP (HL)
007B: 25            DEC H

loc_007C:
007C: 04            INC B
007D: 35            DEC (HL)
007E: 02            LD (BC),A
007F: 20 05         JR NZ,loc_0086
0081: 35            DEC (HL)
0082: 02            LD (BC),A

sub_0083:
0083: 4A            LD C,D
0084: 26 F0         LD H,F0h

loc_0086:
0086: BD            CP L
0087: 42            LD B,D
0088: FD 35 10      DEC (IY+10h)
008B: B6            OR (HL)
008C: 0C            INC C
008D: 07            RLCA
008E: 4C            LD C,H

loc_008F:
008F: B7            OR A
0090: 0C            INC C
0091: 07            RLCA
0092: 81            ADD A,C
0093: 03            INC BC
0094: 27            DAA
0095: 06 C6         LD B,C6h
0097: 03            INC BC

loc_0098:
0098: 3A 7E 40      LD A,(407Eh)
009B: 3F            CCF
009C: B6            OR (HL)
009D: 0C            INC C
009E: 26 81         LD H,81h
00A0: 04            INC B
00A1: 26 09         LD H,09h
00A3: 7F            LD A,A
00A4: 0C            INC C
00A5: 27            DAA
00A6: 7F            LD A,A
00A7: 0C            INC C
00A8: 28 7F         JR Z,loc_0129
00AA: 0C            INC C
00AB: 29            ADD HL,HL
00AC: B6            OR (HL)
00AD: 0C            INC C
00AE: 27            DAA
00AF: 84            ADD A,H
00B0: 05            DEC B
00B1: 27            DAA
00B2: 09            ADD HL,BC

loc_00B3:
00B3: FC 0C 2A      CALL M,sub_2A0C
00B6: B3            OR E
00B7: 0C            INC C
00B8: 1C            INC E
00B9: FD            DB FDh ; prefix (nop)

loc_00BA:
00BA: 0C            INC C
00BB: 2A 35 BE      LD HL,(BE35h)
00BE: FC 0C 0C      CALL M,sub_0C0C
00C1: 2A 12 86      LD HL,(8612h)
00C4: 04            INC B
00C5: B7            OR A

sub_00C6:
00C6: 0C            INC C
00C7: 26 86         LD H,86h

loc_00C9:
00C9: 00            NOP
00CA: B7            OR A
00CB: 0C            INC C

loc_00CC:
00CC: 27            DAA
00CD: B7            OR A
00CE: 0C            INC C

loc_00CF:
00CF: 28 86         JR Z,loc_0057
00D1: F0            RET P
00D2: 1C            INC E
00D3: FE 39         CP 39h
00D5: BD            CP L
00D6: 43            LD B,E
00D7: 67            LD H,A
00D8: 10 BE         DJNZ loc_0098
00DA: 0C            INC C
00DB: 0E EC         LD C,ECh

loc_00DD:
00DD: 26 10         LD H,10h
00DF: B3            OR E
00E0: 0C            INC C
00E1: 0A            LD A,(BC)
00E2: 25            DEC H
00E3: 0E C3         LD C,C3h
00E5: 00            NOP
00E6: 01 FD 0C      LD BC,0CFDh
00E9: 0A            LD A,(BC)
00EA: FD            DB FDh ; prefix (nop)
00EB: 0C            INC C
00EC: 2C            INC L
00ED: 86            ADD A,(HL)
00EE: 08            EX AF,AF'
00EF: B7            OR A
00F0: 0C            INC C
00F1: 27            DAA
00F2: 10 AE         DJNZ loc_00A2
00F4: A4            AND H
00F5: 10 BC         DJNZ loc_00B3
00F7: 00            NOP
00F8: 00            NOP
00F9: 10 27         DJNZ loc_0122
00FB: 00            NOP
00FC: 80            ADD A,B
00FD: EC 22 10      CALL PE,sub_1022

loc_0100:
0100: B3            OR E
0101: 0C            INC C
0102: 0A            LD A,(BC)
0103: 22 69 FD      LD (FD69h),HL
0106: 0C            INC C
0107: 12            LD (DE),A
0108: E3            EX (SP),HL
0109: 28 10         JR Z,loc_011B

loc_010B:
010B: B3            OR E
010C: 0C            INC C
010D: 0A            LD A,(BC)
010E: 25            DEC H
010F: 5E            LD E,(HL)
0110: FD            DB FDh ; prefix (nop)
0111: 0C            INC C
0112: 18 A6         JR loc_00BA

loc_0114:
0114: 2B            DEC HL
0115: 27            DAA
0116: 39            ADD HL,SP
0117: 2B            DEC HL
0118: 1A            LD A,(DE)
0119: FC 0C 0A      CALL M,sub_0A0C
011C: B3            OR E
011D: 0C            INC C
011E: 12            LD (DE),A
011F: FD            DB FDh ; prefix (nop)
0120: 0C            INC C
0121: 22 E3 A4      LD (A4E3h),HL

sub_0124:
0124: FD            DB FDh ; prefix (nop)
0125: 0C            INC C

sub_0126:
0126: 10 EC         DJNZ loc_0114
0128: A4            AND H

loc_0129:
0129: E3            EX (SP),HL
012A: 26 F3         LD H,F3h
012C: 0C            INC C
012D: 22 FD 0C      LD (0CFDh),HL
0130: 16 20         LD D,20h
0132: 27            DAA
0133: FC 0C 0A      CALL M,sub_0A0C
0136: B3            OR E
0137: 0C            INC C
0138: 12            LD (DE),A

loc_0139:
0139: FD            DB FDh ; prefix (nop)
013A: 0C            INC C
013B: 22 EC A4      LD (A4ECh),HL
013E: B3            OR E
013F: 0C            INC C
0140: 22 FD 0C      LD (0CFDh),HL
0143: 10 EC         DJNZ loc_0131
0145: A4            AND H
0146: E3            EX (SP),HL
0147: 26 B3         LD H,B3h
0149: 0C            INC C
014A: 22 FD 0C      LD (0CFDh),HL
014D: 16 20         LD D,20h
014F: 0A            LD A,(BC)
0150: EC A4 FD      CALL PE,FDA4h
0153: 0C            INC C
0154: 10 E3         DJNZ loc_0139
0156: 26 FD         LD H,FDh
0158: 0C            INC C
0159: 16 FC         LD D,FCh
015B: 0C            INC C
015C: 10 10         DJNZ loc_016E
015E: B3            OR E
015F: 0C            INC C
0160: 08            EX AF,AF'
0161: 22 0B FC      LD (FC0Bh),HL
0164: 0C            INC C
0165: 16 10         LD D,10h
0167: B3            OR E
0168: 0C            INC C
0169: 08            EX AF,AF'
016A: 25            DEC H
016B: 02            LD (BC),A
016C: 20 10         JR NZ,loc_017E

loc_016E:
016E: 1F            RRA
016F: 20 C3         JR NZ,loc_0134
0171: 00            NOP
0172: 0C            INC C
0173: 1F            RRA
0174: 02            LD (BC),A
0175: EC A4 10      CALL PE,sub_10A4
0178: 83            ADD A,E
0179: FF            RST 38h
017A: FF            RST 38h
017B: 26 80         LD H,80h
017D: 39            ADD HL,SP

loc_017E:
017E: EC 24 FD      CALL PE,FD24h
0181: 0C            INC C
0182: 14            INC D
0183: B3            OR E
0184: 0C            INC C
0185: 0C            INC C
0186: 10 83         DJNZ loc_010B
0188: 00            NOP
0189: 05            DEC B
018A: 25            DEC H
018B: 0B            DEC BC
018C: FC 0C 14      CALL M,sub_140C
018F: 10 B3         DJNZ loc_0144
0191: 0C            INC C
0192: 0C            INC C
0193: 22 0D 25      LD (250Dh),HL

loc_0196:
0196: 11 FC 0C      LD DE,0CFCh
0199: 14            INC D
019A: FD            DB FDh ; prefix (nop)
019B: 0C            INC C
019C: 2E 8D         LD L,8Dh
019E: 0C            INC C
019F: 1C            INC E
01A0: FE 39         CP 39h
01A2: BD            CP L
01A3: 41            LD B,C
01A4: F9            LD SP,HL
01A5: 1A            LD A,(DE)
01A6: 01 39 1C      LD BC,1C39h
01A9: FE 39         CP 39h
01AB: A6            AND (HL)
01AC: 2A 2A 02      LD HL,(022Ah)
01AF: 86            ADD A,(HL)
01B0: 00            NOP
01B1: F6 0C         OR 0Ch
01B3: 26 26         LD H,26h
01B5: 05            DEC B
01B6: B7            OR A
01B7: 0C            INC C
01B8: 26 20         LD H,20h
01BA: 03            INC BC
01BB: B6            OR (HL)
01BC: 0C            INC C
01BD: 26 81         LD H,81h
01BF: 00            NOP
01C0: 27            DAA
01C1: 11 81 08      LD DE,0881h
01C4: 27            DAA
01C5: 1C            INC E
01C6: 81            ADD A,C
01C7: 09            ADD HL,BC
01C8: 27            DAA
01C9: 18 81         JR loc_014C
01CB: 0A            LD A,(BC)
01CC: 27            DAA
01CD: 14            INC D
01CE: 81            ADD A,C
01CF: 0C            INC C

loc_01D0:
01D0: 27            DAA
01D1: 10 39         DJNZ loc_020C
01D3: 8E            ADC A,(HL)
01D4: 41            LD B,C
01D5: F1            POP AF
01D6: F6 0C         OR 0Ch
01D8: 07            RLCA
01D9: B6            OR (HL)
01DA: 0C            INC C
01DB: 29            ADD HL,HL
01DC: AA            XOR D
01DD: 85            ADD A,L

sub_01DE:
01DE: B7            OR A
01DF: 0C            INC C
01E0: 29            ADD HL,HL
01E1: 39            ADD HL,SP

loc_01E2:
01E2: 8E            ADC A,(HL)
01E3: 41            LD B,C
01E4: F1            POP AF
01E5: F6 0C         OR 0Ch
01E7: 07            RLCA
01E8: B6            OR (HL)
01E9: 0C            INC C
01EA: 28 AA         JR Z,loc_0196
01EC: 85            ADD A,L
01ED: B7            OR A
01EE: 0C            INC C
01EF: 28 39         JR Z,loc_022A
01F1: 80            ADD A,B
01F2: 40            LD B,B
01F3: 20 10         JR NZ,loc_0205
01F5: 08            EX AF,AF'
01F6: 04            INC B
01F7: 02            LD (BC),A
01F8: 01 34 16      LD BC,1634h

loc_01FB:
01FB: 96            SUB (HL)
01FC: F1            POP AF
01FD: CC FF FF      CALL Z,FFFFh

sub_0200:
0200: FD            DB FDh ; prefix (nop)
0201: 0C            INC C
0202: 22 FC 0C      LD (0CFCh),HL

loc_0205:
0205: 08            EX AF,AF'
0206: B3            OR E
0207: 0C            INC C
0208: 10 10         DJNZ loc_021A
020A: B3            OR E
020B: 0C            INC C

loc_020C:
020C: 22 24 06      LD (0624h),HL
020F: FD            DB FDh ; prefix (nop)
0210: 0C            INC C
0211: 22 8E 42      LD (428Eh),HL
0214: 97            SUB A
0215: FC 0C 16      CALL M,sub_160C
0218: B3            OR E
0219: 0C            INC C

loc_021A:
021A: 08            EX AF,AF'
021B: 10 B3         DJNZ loc_01D0
021D: 0C            INC C
021E: 22 24 06      LD (0624h),HL
0221: FD            DB FDh ; prefix (nop)
0222: 0C            INC C
0223: 22 8E 42      LD (428Eh),HL

sub_0226:
0226: AD            XOR L

loc_0227:
0227: FC 0C 0A      CALL M,sub_0A0C

loc_022A:
022A: B3            OR E
022B: 0C            INC C
022C: 12            LD (DE),A
022D: 10 B3         DJNZ loc_01E2
022F: 0C            INC C
0230: 22 24 06      LD (0624h),HL
0233: FD            DB FDh ; prefix (nop)

sub_0234:
0234: 0C            INC C

sub_0235:
0235: 22 8E 42      LD (428Eh),HL
0238: C3 A6 2A      JP loc_2AA6
023B: 81            ADD A,C
023C: FE 26         CP 26h
023E: 12            LD (DE),A
023F: FC 0C 18      CALL M,sub_180C
0242: B3            OR E
0243: 0C            INC C
0244: 0A            LD A,(BC)
0245: 10 B3         DJNZ loc_01FA
0247: 0C            INC C
0248: 22 24 06      LD (0624h),HL
024B: FD            DB FDh ; prefix (nop)
024C: 0C            INC C
024D: 22 8E 42      LD (428Eh),HL
0250: DC A6 2A      CALL C,loc_2AA6
0253: 81            ADD A,C
0254: FF            RST 38h
0255: 27            DAA
0256: 2A FC 0C      LD HL,(0CFCh)
0259: 14            INC D
025A: B3            OR E
025B: 0C            INC C
025C: 0C            INC C
025D: 10 B3         DJNZ loc_0212
025F: 0C            INC C
0260: 22 24 08      LD (0824h),HL
0263: FD            DB FDh ; prefix (nop)
0264: 0C            INC C
0265: 22 8E 42      LD (428Eh),HL
0268: 8C            ADC A,H
0269: 20 16         JR NZ,loc_0281
026B: 10 83         DJNZ loc_01F0
026D: 00            NOP
026E: 0A            LD A,(BC)

sub_026F:
026F: 22 10 8C      LD (8C10h),HL
0272: 42            LD B,D
0273: C3 27 08      JP loc_0827
0276: FC 0C 14      CALL M,sub_140C
0279: FD            DB FDh ; prefix (nop)
027A: 0C            INC C
027B: 2E 20         LD L,20h
027D: 03            INC BC
027E: 8E            ADC A,(HL)
027F: 42            LD B,D
0280: 8C            ADC A,H

loc_0281:
0281: FC 0C 22      CALL M,sub_220C
0284: 10 83         DJNZ loc_0209
0286: FF            RST 38h
0287: FF            RST 38h
0288: 27            DAA
0289: 71            LD (HL),C
028A: 6E            LD L,(HL)
028B: 84            ADD A,H
028C: FC 0C 14      CALL M,sub_140C
028F: FD            DB FDh ; prefix (nop)
0290: 0C            INC C
0291: 2E FD         LD L,FDh
0293: 0C            INC C
0294: 0C            INC C
0295: 20 64         JR NZ,loc_02FB

loc_0297:
0297: FC 0C 10      CALL M,sub_100C
029A: 83            ADD A,E
029B: 00            NOP
029C: 01 FD 0C      LD BC,0CFDh
029F: 2A FD 0C      LD HL,(0CFDh)
02A2: 08            EX AF,AF'
02A3: B6            OR (HL)
02A4: 0C            INC C
02A5: 27            DAA

loc_02A6:
02A6: 8A            ADC A,D
02A7: 01 B7 0C      LD BC,0CB7h
02AA: 27            DAA
02AB: 20 4E         JR NZ,loc_02FB
02AD: FC 0C 16      CALL M,sub_160C
02B0: C3 00 01      JP loc_0100
02B3: FD            DB FDh ; prefix (nop)
02B4: 0C            INC C
02B5: 2A FD 0C      LD HL,(0CFDh)
02B8: 08            EX AF,AF'
02B9: B6            OR (HL)
02BA: 0C            INC C
02BB: 27            DAA
02BC: 8A            ADC A,D

loc_02BD:
02BD: 04            INC B
02BE: B7            OR A
02BF: 0C            INC C
02C0: 27            DAA
02C1: 20 38         JR NZ,loc_02FB

loc_02C3:
02C3: B6            OR (HL)
02C4: 0C            INC C
02C5: 20 FC         JR NZ,loc_02C3
02C7: 0C            INC C
02C8: 12            LD (DE),A
02C9: 83            ADD A,E
02CA: 00            NOP
02CB: 01 FD 0C      LD BC,0CFDh
02CE: 2C            INC L

loc_02CF:
02CF: FD            DB FDh ; prefix (nop)
02D0: 0C            INC C
02D1: 0A            LD A,(BC)
02D2: B6            OR (HL)
02D3: 0C            INC C
02D4: 27            DAA
02D5: 8A            ADC A,D
02D6: 02            LD (BC),A
02D7: B7            OR A
02D8: 0C            INC C
02D9: 27            DAA
02DA: 20 1F         JR NZ,loc_02FB

loc_02DC:
02DC: B6            OR (HL)
02DD: 0C            INC C
02DE: 20 FC         JR NZ,loc_02DC
02E0: 0C            INC C
02E1: 18 C3         JR loc_02A6
02E3: 00            NOP
02E4: 01 FD 0C      LD BC,0CFDh
02E7: 2C            INC L
02E8: FD            DB FDh ; prefix (nop)
02E9: 0C            INC C
02EA: 42            LD B,D
02EB: B6            OR (HL)
02EC: 0C            INC C
02ED: 27            DAA
02EE: 8A            ADC A,D
02EF: 04            INC B
02F0: B7            OR A
02F1: 0C            INC C
02F2: 27            DAA
02F3: B6            OR (HL)
02F4: 0C            INC C
02F5: 29            ADD HL,HL
02F6: 8A            ADC A,D
02F7: F0            RET P
02F8: B7            OR A
02F9: 0C            INC C
02FA: 29            ADD HL,HL

loc_02FB:
02FB: 35            DEC (HL)
02FC: 96            SUB (HL)
02FD: 10 BE         DJNZ loc_02BD
02FF: 0C            INC C

loc_0300:
0300: 0E 10         LD C,10h
0302: AE            XOR (HL)
0303: 22 10 8C      LD (8C10h),HL
0306: 00            NOP
0307: 00            NOP
0308: 27            DAA
0309: 5C            LD E,H
030A: FC 0C 0A      CALL M,sub_0A0C
030D: A3            AND E
030E: 22 BD 43      LD (43BDh),HL
0311: A5            AND L
0312: 10 83         DJNZ loc_0297
0314: 00            NOP
0315: 02            LD (BC),A
0316: 22 22 EC      LD (EC22h),HL
0319: A4            AND H
031A: 10 B3         DJNZ loc_02CF
031C: 0C            INC C
031D: 08            EX AF,AF'
031E: 22 1A E3      LD (E31Ah),HL
0321: 26 10         LD H,10h
0323: B3            OR E
0324: 0C            INC C
0325: 08            EX AF,AF'
0326: 25            DEC H
0327: 12            LD (DE),A
0328: EC 24 10      CALL PE,sub_1024
032B: B3            OR E
032C: 0C            INC C
032D: 0C            INC C
032E: 22 0A E3      LD (E30Ah),HL
0331: 28 10         JR Z,loc_0343
0333: B3            OR E
0334: 0C            INC C
0335: 0C            INC C
0336: 25            DEC H
0337: 02            LD (BC),A
0338: 20 11         JR NZ,loc_034B
033A: 1F            RRA
033B: 20 C3         JR NZ,loc_0300
033D: 00            NOP
033E: 0B            DEC BC
033F: 1F            RRA
0340: 02            LD (BC),A
0341: EC A4 10      CALL PE,sub_10A4

loc_0344:
0344: 83            ADD A,E
0345: FF            RST 38h
0346: FF            RST 38h
0347: 26 C1         LD H,C1h
0349: 20 1B         JR NZ,loc_0366

loc_034B:
034B: 7F            LD A,A
034C: 0C            INC C
034D: 27            DAA
034E: A6            AND (HL)
034F: 2A B7 0C      LD HL,(0CB7h)
0352: 26 EC         LD H,ECh
0354: 22 B7 0C      LD (0CB7h),HL
0357: 2C            INC L
0358: 8E            ADC A,(HL)
0359: 41            LD B,C
035A: F5            PUSH AF
035B: F6 0C         OR 0Ch
035D: 07            RLCA
035E: B6            OR (HL)
035F: 0C            INC C
0360: 29            ADD HL,HL
0361: AA            XOR D
0362: 85            ADD A,L
0363: B7            OR A
0364: 0C            INC C
0365: 29            ADD HL,HL

loc_0366:
0366: 39            ADD HL,SP
0367: 34            INC (HL)
0368: 16 FC         LD D,FCh
036A: 0C            INC C
036B: 0A            LD A,(BC)
036C: F3            DI
036D: 0C            INC C
036E: 0C            INC C
036F: 81            ADD A,C
0370: 00            NOP
0371: 22 05 CC      LD (CC05h),HL
0374: 01 00 20      LD BC,2000h
0377: 07            RLCA
0378: 81            ADD A,C
0379: 05            DEC B
037A: 25            DEC H
037B: 03            INC BC
037C: CC 04 FF      CALL Z,FF04h
037F: 1F            RRA
0380: 89            ADC A,C
0381: 5A            LD E,D
0382: 8E            ADC A,(HL)
0383: 44            LD B,H

sub_0384:
0384: 14            INC D
0385: A6            AND (HL)

sub_0386:
0386: 85            ADD A,L
0387: 34            INC (HL)
0388: 02            LD (BC),A
0389: F6 0C         OR 0Ch
038B: 08            EX AF,AF'
038C: 58            LD E,B
038D: EB            EX DE,HL

loc_038E:
038E: E0            RET PO
038F: 8E            ADC A,(HL)
0390: 44            LD B,H
0391: 18 3A         JR loc_03CD
0393: 1F            RRA
0394: 10 AE         DJNZ loc_0344
0396: 84            ADD A,H
0397: 26 07         LD H,07h
0399: 83            ADD A,E
039A: 00            NOP
039B: 40            LD B,B
039C: 1F            RRA
039D: 01 AE 84      LD BC,84AEh
03A0: BF            CP A
03A1: 0C            INC C

loc_03A2:
03A2: 0E 35         LD C,35h
03A4: 96            SUB (HL)
03A5: 10 83         DJNZ loc_032A
03A7: 00            NOP
03A8: 00            NOP
03A9: 2A 02 43      LD HL,(4302h)
03AC: 50            LD D,B
03AD: 39            ADD HL,SP
03AE: 7F            LD A,A
03AF: 0C            INC C
03B0: 20 DC         JR NZ,loc_038E
03B2: F4 93 EE      CALL P,EE93h
03B5: 27            DAA

sub_03B6:
03B6: 0E 25         LD C,25h
03B8: 07            RLCA
03B9: 86            ADD A,(HL)
03BA: 01 B7 0C      LD BC,0CB7h
03BD: 20 20         JR NZ,loc_03DF
03BF: 05            DEC B
03C0: 86            ADD A,(HL)
03C1: 02            LD (BC),A
03C2: B7            OR A
03C3: 0C            INC C
03C4: 20 DC         JR NZ,loc_03A2
03C6: F6 10         OR 10h
03C8: 93            SUB E
03C9: F0            RET P
03CA: 27            DAA
03CB: 03            INC BC
03CC: 7F            LD A,A

loc_03CD:
03CD: 0C            INC C
03CE: 20 39         JR NZ,loc_0409
03D0: 34            INC (HL)
03D1: 36 34         LD (HL),34h
03D3: 02            LD (BC),A
03D4: 44            LD B,H
03D5: 44            LD B,H
03D6: 44            LD B,H
03D7: 44            LD B,H
03D8: 84            ADD A,H
03D9: 0F            RRCA
03DA: 8D            ADC A,L
03DB: 1A            LD A,(DE)
03DC: 35            DEC (HL)
03DD: 02            LD (BC),A
03DE: 84            ADD A,H

loc_03DF:
03DF: 0F            RRCA
03E0: 8D            ADC A,L
03E1: 14            INC D
03E2: 1F            RRA
03E3: 98            SBC A,B
03E4: 34            INC (HL)
03E5: 02            LD (BC),A
03E6: 44            LD B,H
03E7: 44            LD B,H
03E8: 44            LD B,H
03E9: 44            LD B,H
03EA: 84            ADD A,H
03EB: 0F            RRCA
03EC: 8D            ADC A,L
03ED: 08            EX AF,AF'
03EE: 35            DEC (HL)
03EF: 02            LD (BC),A
03F0: 84            ADD A,H
03F1: 0F            RRCA
03F2: 8D            ADC A,L
03F3: 02            LD (BC),A
03F4: 35            DEC (HL)
03F5: B6            OR (HL)
03F6: 34            INC (HL)
03F7: 06 10         LD B,10h
03F9: 8E            ADC A,(HL)
03FA: 44            LD B,H
03FB: 04            INC B
03FC: E6 A6         AND A6h
03FE: 86            ADD A,(HL)
03FF: 00            NOP
0400: ED 81         DB EDh,81h
0402: 35            DEC (HL)
0403: 86            ADD A,(HL)
0404: 10 11         DJNZ loc_0417
0406: 12            LD (DE),A
0407: 13            INC DE
0408: 14            INC D

loc_0409:
0409: 15            DEC D
040A: 16 17         LD D,17h
040C: 18 19         JR loc_0427
040E: 21 22 23      LD HL,2322h
0411: 24            INC H
0412: 25            DEC H
0413: 26 96         LD H,96h
0415: 64            LD H,H
0416: 32 00 45      LD (4500h),A
0419: 12            LD (DE),A
041A: 45            LD B,L
041B: 1A            LD A,(DE)
041C: 45            LD B,L
041D: 22 45 2A      LD (2A45h),HL
0420: 45            LD B,L
0421: 32 45 32      LD (3245h),A

sub_0424:
0424: 00            NOP
0425: 00            NOP
0426: 45            LD B,L

loc_0427:
0427: 82            ADD A,D
0428: 45            LD B,L
0429: 9A            SBC A,D
042A: 00 00 00 00...DB 00h ; x12
0436: 45            LD B,L
0437: DA 45 E2      JP C,E245h
043A: 45            LD B,L
043B: E2 45 EA      JP PO,EA45h
043E: 45            LD B,L
043F: EA 45 F2      JP PE,F245h
0442: 45            LD B,L
0443: F2 00 00      JP P,sub_0000
0446: 00            NOP
0447: 00            NOP
0448: 00            NOP
0449: 00            NOP
044A: 45            LD B,L
044B: 12            LD (DE),A
044C: 45            LD B,L
044D: 1A            LD A,(DE)
044E: 45            LD B,L
044F: 22 45 2A      LD (2A45h),HL
0452: 45            LD B,L
0453: 32 45 5A      LD (5A45h),A
0456: 45            LD B,L
0457: 6A            LD L,D
0458: 45            LD B,L
0459: 7A            LD A,D
045A: 45            LD B,L
045B: 92            SUB D
045C: 00 00 00 00...DB 00h ; x12
0468: 45            LD B,L
0469: DA 45 E2      JP C,E245h
046C: 45            LD B,L
046D: E2 45 EA      JP PO,EA45h
0470: 45            LD B,L
0471: EA 45 F2      JP PE,F245h
0474: 45            LD B,L
0475: F2 46 02      JP P,loc_0246
0478: 46            LD B,(HL)
0479: 02            LD (BC),A
047A: 00            NOP
047B: 00            NOP
047C: 00            NOP
047D: 00            NOP
047E: 00            NOP
047F: 00            NOP
0480: 00            NOP

sub_0481:
0481: 00            NOP
0482: 45            LD B,L
0483: 42            LD B,D
0484: 45            LD B,L
0485: 42            LD B,D

sub_0486:
0486: 45            LD B,L
0487: 52            LD D,D
0488: 45            LD B,L
0489: 62            LD H,D
048A: 45            LD B,L
048B: 72            LD (HL),D
048C: 45            LD B,L
048D: 8A            ADC A,D
048E: 45            LD B,L
048F: AA            XOR D
0490: 45            LD B,L
0491: AA            XOR D
0492: 45            LD B,L
0493: B2            OR D
0494: 45            LD B,L
0495: BA            CP D
0496: 45            LD B,L
0497: C2 45 CA      JP NZ,CA45h
049A: 45            LD B,L
049B: D2 45 E2      JP NC,E245h
049E: 45            LD B,L
049F: E2 00 00      JP PO,sub_0000
04A2: 00            NOP
04A3: 00            NOP
04A4: 45            LD B,L
04A5: FA 45 FA      JP M,FA45h
04A8: 46            LD B,(HL)
04A9: 02            LD (BC),A
04AA: 46            LD B,(HL)
04AB: 02            LD (BC),A
04AC: 00 00 00 00...DB 00h ; x10

sub_04B6:
04B6: 45            LD B,L
04B7: 42            LD B,D
04B8: 45            LD B,L
04B9: 52            LD D,D
04BA: 00            NOP
04BB: 00            NOP
04BC: 00            NOP
04BD: 00            NOP
04BE: 45            LD B,L
04BF: A2            AND D
04C0: 45            LD B,L
04C1: AA            XOR D
04C2: 45            LD B,L
04C3: AA            XOR D
04C4: 45            LD B,L
04C5: B2            OR D
04C6: 45            LD B,L
04C7: BA            CP D
04C8: 45            LD B,L
04C9: C2 45 CA      JP NZ,CA45h
04CC: 45            LD B,L
04CD: D2 45 D2      JP NC,D245h
04D0: 00 00 00 00...DB 00h ; x28

sub_04EC:
04EC: 00            NOP
04ED: 00            NOP
04EE: 45            LD B,L
04EF: A2            AND D
04F0: 45            LD B,L
04F1: A2            AND D
04F2: 45            LD B,L
04F3: AA            XOR D
04F4: 45            LD B,L
04F5: AA            XOR D
04F6: 45            LD B,L
04F7: B2            OR D
04F8: 45            LD B,L
04F9: BA            CP D
04FA: 45            LD B,L
04FB: C2 45 CA      JP NZ,CA45h
04FE: 45            LD B,L
04FF: D2 45 D2      JP NC,D245h
0502: 00 00 00 00...DB 00h ; x12

loc_050E:
050E: 00            NOP
050F: 00            NOP
0510: 00            NOP
0511: 00            NOP
0512: 46            LD B,(HL)
0513: 0A            LD A,(BC)
0514: 00            NOP
0515: 00            NOP
0516: 00            NOP
0517: 00            NOP
0518: 01 04 46      LD BC,4604h
051B: 30 00         JR NC,loc_051D

loc_051D:
051D: 00            NOP
051E: 00            NOP
051F: 00            NOP
0520: 00            NOP
0521: FC 46 56      CALL M,sub_5646
0524: 46            LD B,(HL)
0525: 7C            LD A,H
0526: 00            NOP
0527: 00            NOP
0528: 00            NOP
0529: FC 46 94      CALL M,9446h
052C: 00            NOP
052D: 00            NOP
052E: 00            NOP
052F: 00            NOP
0530: 00            NOP
0531: FC 46 94      CALL M,9446h
0534: 00            NOP
0535: 00            NOP
0536: 00            NOP
0537: 00            NOP
0538: 00            NOP
0539: FC 46 C6      CALL M,C646h
053C: 00            NOP
053D: 00            NOP
053E: 00            NOP
053F: 00            NOP
0540: 00            NOP
0541: FC 46 C6      CALL M,C646h
0544: 00            NOP
0545: 00            NOP
0546: 00            NOP
0547: 00            NOP
0548: 01 04 46      LD BC,4604h
054B: E0            RET PO
054C: 00            NOP
054D: 00            NOP
054E: 00            NOP
054F: 00            NOP
0550: 01 00 46      LD BC,4600h
0553: FA 47 38      JP M,loc_3847
0556: 00            NOP
0557: 00            NOP
0558: 01 04 46      LD BC,4604h
055B: FA 00 00      JP M,sub_0000
055E: 00            NOP
055F: 00            NOP

loc_0560:
0560: 00            NOP
0561: 00            NOP
0562: 47            LD B,A
0563: 45            LD B,L
0564: 47            LD B,A
0565: B3            OR E
0566: 00            NOP
0567: 00            NOP
0568: 00            NOP
0569: 00            NOP
056A: 47            LD B,A
056B: 45            LD B,L
056C: 00            NOP
056D: 00            NOP
056E: 00            NOP
056F: 00            NOP
0570: 00            NOP
0571: 00            NOP
0572: 47            LD B,A
0573: C0            RET NZ
0574: 48            LD C,B
0575: 46            LD B,(HL)
0576: 00            NOP
0577: 00            NOP
0578: 00            NOP
0579: 00            NOP
057A: 47            LD B,A
057B: C0            RET NZ
057C: 48            LD C,B
057D: 46            LD B,(HL)
057E: 00            NOP
057F: 00            NOP
0580: 00            NOP
0581: 00            NOP
0582: 48            LD C,B
0583: 53            LD D,E
0584: 00            NOP
0585: 00            NOP

sub_0586:
0586: 00            NOP
0587: 00            NOP
0588: 00            NOP
0589: 00            NOP
058A: 48            LD C,B
058B: 53            LD D,E
058C: 00            NOP
058D: 00            NOP
058E: 00            NOP
058F: 00            NOP
0590: 00            NOP
0591: 00            NOP
0592: 48            LD C,B
0593: 53            LD D,E
0594: 00            NOP
0595: 00            NOP
0596: 00            NOP
0597: 00            NOP
0598: 00            NOP
0599: 00            NOP
059A: 48            LD C,B
059B: 53            LD D,E
059C: 00            NOP
059D: 00            NOP
059E: 00            NOP
059F: 00            NOP
05A0: 00            NOP
05A1: 00            NOP
05A2: 48            LD C,B
05A3: C1            POP BC
05A4: 00            NOP
05A5: 00            NOP
05A6: 00            NOP
05A7: 00            NOP
05A8: 00            NOP
05A9: 90            SUB B
05AA: 48            LD C,B
05AB: E7            RST 20h
05AC: 00            NOP
05AD: 00            NOP
05AE: 00            NOP
05AF: 00            NOP
05B0: 00            NOP
05B1: 90            SUB B
05B2: 49            LD C,C
05B3: 01 00 00      LD BC,0000h
05B6: 00            NOP
05B7: 00            NOP
05B8: 00            NOP
05B9: 90            SUB B
05BA: 49            LD C,C
05BB: 27            DAA
05BC: 00            NOP
05BD: 00            NOP
05BE: 00            NOP
05BF: 00            NOP
05C0: 00            NOP
05C1: C0            RET NZ
05C2: 49            LD C,C
05C3: 4D            LD C,L
05C4: 00            NOP
05C5: 00            NOP
05C6: 00            NOP
05C7: 00            NOP
05C8: 00            NOP
05C9: 90            SUB B
05CA: 49            LD C,C
05CB: 73            LD (HL),E
05CC: 00            NOP
05CD: 00            NOP
05CE: 00            NOP
05CF: 00            NOP
05D0: 00            NOP
05D1: 90            SUB B
05D2: 49            LD C,C
05D3: 8D            ADC A,L
05D4: 00            NOP
05D5: 00            NOP
05D6: 00            NOP
05D7: 00            NOP
05D8: 00            NOP
05D9: 90            SUB B
05DA: 49            LD C,C
05DB: B3            OR E
05DC: 00            NOP
05DD: 00            NOP
05DE: 00            NOP
05DF: 00            NOP
05E0: 00            NOP
05E1: 00            NOP
05E2: 49            LD C,C
05E3: CD 00 00      CALL sub_0000
05E6: 00            NOP
05E7: 00            NOP
05E8: 00            NOP
05E9: 00            NOP
05EA: 49            LD C,C
05EB: FF            RST 38h
05EC: 00            NOP
05ED: 00            NOP
05EE: 00            NOP
05EF: 00            NOP
05F0: 00            NOP
05F1: 00            NOP
05F2: 4A            LD C,D
05F3: 25            DEC H
05F4: 4A            LD C,D
05F5: 63            LD H,E
05F6: 00            NOP
05F7: 00            NOP
05F8: 00            NOP
05F9: 00            NOP
05FA: 4A            LD C,D
05FB: 70            LD (HL),B
05FC: 4A            LD C,D
05FD: 63            LD H,E
05FE: 00            NOP
05FF: 00            NOP
0600: 00            NOP
0601: 00            NOP
0602: 4A            LD C,D
0603: 70            LD (HL),B
0604: 00 00 00 00...DB 00h ; x9
060D: E8            RET PE
060E: 03            INC BC
060F: 00            NOP
0610: 01 10 00      LD BC,0010h
0613: 50            LD D,B
0614: 00            NOP
0615: 00            NOP
0616: FF            RST 38h
0617: F0            RET P
0618: 00            NOP
0619: F8            RET M
061A: 05            DEC B
061B: 00            NOP
061C: 00            NOP
061D: 10 00         DJNZ loc_061F

loc_061F:
061F: 40            LD B,B
0620: FF            RST 38h
0621: 00            NOP
0622: 00            NOP
0623: 00            NOP
0624: 01 38 05      LD BC,0538h
0627: 00            NOP
0628: 01 10 01      LD BC,0110h
062B: 00            NOP
062C: FF            RST 38h
062D: 00            NOP
062E: FF            RST 38h
062F: FF            RST 38h
0630: 00            NOP
0631: F0            RET P
0632: 01 38 05      LD BC,0538h
0635: 00            NOP
0636: 01 20 01      LD BC,0120h
0639: 00            NOP
063A: FF            RST 38h
063B: 00            NOP
063C: 02            LD (BC),A
063D: 00            NOP
063E: 01 18 05      LD BC,0518h
0641: 00            NOP
0642: 00            NOP
0643: 40            LD B,B
0644: 00            NOP
0645: 30 FF         JR NC,loc_0646
0647: FF            RST 38h
0648: 00            NOP
0649: F0            RET P
064A: 00            NOP
064B: E8            RET PE
064C: 03            INC BC
064D: 00            NOP
064E: 01 20 00      LD BC,0020h
0651: 50            LD D,B
0652: 00            NOP
0653: 00            NOP
0654: FF            RST 38h
0655: FF            RST 38h
0656: 01 F0 01      LD BC,01F0h
0659: 18 03         JR loc_065E
065B: 70            LD (HL),B
065C: 00            NOP
065D: FF            RST 38h

loc_065E:
065E: 00            NOP
065F: 10 00         DJNZ loc_0661

loc_0661:
0661: 00            NOP
0662: 01 F0 01      LD BC,01F0h
0665: 28 05         JR Z,loc_066C
0667: 00            NOP
0668: 01 20 01      LD BC,0120h
066B: 00            NOP

loc_066C:
066C: FF            RST 38h
066D: 00            NOP
066E: 01 F0 00      LD BC,00F0h
0671: E8            RET PE
0672: 03            INC BC
0673: 00            NOP
0674: 01 20 00      LD BC,0020h
0677: 40            LD B,B
0678: 00            NOP
0679: 00            NOP
067A: FF            RST 38h
067B: FF            RST 38h
067C: 02            LD (BC),A
067D: 10 01         DJNZ loc_0680
067F: 18 03         JR loc_0684
0681: 00            NOP
0682: 00            NOP
0683: 10 00         DJNZ loc_0685

loc_0685:
0685: 74            LD (HL),H

sub_0686:
0686: 01 02 B0      LD BC,B002h
0689: 01 18 03      LD BC,0318h
068C: 00            NOP
068D: 00            NOP
068E: 10 00         DJNZ loc_0690

loc_0690:
0690: 74            LD (HL),H
0691: 01 FF FF      LD BC,FFFFh
0694: 04            INC B
0695: 30 01         JR NC,loc_0698
0697: 28 05         JR Z,loc_069E
0699: 00            NOP
069A: 02            LD (BC),A
069B: 00            NOP
069C: 01 00 FF      LD BC,FF00h
069F: FF            RST 38h
06A0: 04            INC B
06A1: 40            LD B,B
06A2: 01 18 03      LD BC,0318h
06A5: 70            LD (HL),B
06A6: 02            LD (BC),A
06A7: 00            NOP
06A8: 00            NOP
06A9: 40            LD B,B
06AA: 00            NOP
06AB: FF            RST 38h
06AC: 02            LD (BC),A
06AD: F0            RET P
06AE: 01 38 05      LD BC,0538h
06B1: 00            NOP
06B2: 03            INC BC
06B3: 00            NOP
06B4: 01 00 FF      LD BC,FF00h
06B7: 00            NOP
06B8: 02            LD (BC),A
06B9: F0            RET P
06BA: 00            NOP
06BB: E8            RET PE
06BC: 03            INC BC
06BD: 00            NOP
06BE: 03            INC BC
06BF: 00            NOP
06C0: 00            NOP
06C1: 50            LD D,B
06C2: 00            NOP
06C3: 00            NOP
06C4: FF            RST 38h
06C5: FF            RST 38h
06C6: 03            INC BC
06C7: 80            ADD A,B
06C8: 00            NOP
06C9: E8            RET PE
06CA: 01 00 02      LD BC,0200h
06CD: 00            NOP
06CE: 00            NOP
06CF: 58            LD E,B
06D0: 00            NOP
06D1: 00            NOP
06D2: 03            INC BC
06D3: 80            ADD A,B
06D4: 01 40 03      LD BC,0340h
06D7: 00            NOP
06D8: 02            LD (BC),A
06D9: 00            NOP
06DA: 02            LD (BC),A
06DB: 00            NOP
06DC: FF            RST 38h
06DD: 00            NOP
06DE: FF            RST 38h
06DF: FF            RST 38h
06E0: 04            INC B
06E1: F0            RET P
06E2: 01 1C 05      LD BC,051Ch
06E5: 00            NOP
06E6: 01 10 00      LD BC,0010h
06E9: 10 FF         DJNZ loc_06EA
06EB: 00            NOP
06EC: 04            INC B
06ED: F0            RET P
06EE: 00            NOP
06EF: FC 03 00      CALL M,sub_0003
06F2: 01 10 00      LD BC,0010h
06F5: 20 00         JR NZ,loc_06F7

loc_06F7:
06F7: 00            NOP
06F8: FF            RST 38h
06F9: FF            RST 38h
06FA: 04            INC B
06FB: F0            RET P
06FC: 01 5C 03      LD BC,035Ch
06FF: 00            NOP
0700: 02            LD (BC),A

sub_0701:
0701: 00            NOP
0702: 02            LD (BC),A
0703: 00            NOP

sub_0704:
0704: FF            RST 38h
0705: 00            NOP
0706: 04            INC B
0707: F0            RET P
0708: 01 4C 03      LD BC,034Ch
070B: 00            NOP
070C: 00            NOP
070D: 58            LD E,B
070E: 02            LD (BC),A

loc_070F:
070F: 00            NOP
0710: FF            RST 38h
0711: 00            NOP
0712: 05            DEC B
0713: 00            NOP
0714: 01 4C 01      LD BC,014Ch
0717: 70            LD (HL),B
0718: 01 20 01      LD BC,0120h
071B: 00            NOP
071C: 00            NOP
071D: 00            NOP
071E: 05            DEC B
071F: E0            RET PO
0720: 01 2C 01      LD BC,012Ch
0723: 30 00         JR NC,loc_0725

loc_0725:
0725: 50            LD D,B
0726: 01 00 00      LD BC,0000h
0729: FF            RST 38h
072A: 04            INC B
072B: F0            RET P
072C: 00            NOP
072D: FC 01 00      CALL M,sub_0001
0730: 01 30 01      LD BC,0130h
0733: 00            NOP
0734: 00            NOP
0735: FF            RST 38h
0736: FF            RST 38h
0737: FF            RST 38h
0738: 05            DEC B
0739: 40            LD B,B
073A: 01 4C 01      LD BC,014Ch
073D: 00            NOP
073E: 00            NOP
073F: 70            LD (HL),B
0740: 00            NOP
0741: 80            ADD A,B
0742: 02            LD (BC),A
0743: FF            RST 38h
0744: FF            RST 38h
0745: 06 08         LD B,08h
0747: 01 4C 03      LD BC,034Ch
074A: 00            NOP
074B: 02            LD (BC),A
074C: 00            NOP
074D: 02            LD (BC),A
074E: 00            NOP
074F: FF            RST 38h
0750: 00            NOP
0751: 05            DEC B
0752: F0            RET P
0753: 01 5C 03      LD BC,035Ch
0756: 00            NOP
0757: 00            NOP
0758: 30 02         JR NC,loc_075C
075A: 00            NOP
075B: FF            RST 38h

loc_075C:
075C: 00            NOP
075D: 06 F0         LD B,F0h
075F: 01 2C 01      LD BC,012Ch
0762: A0            AND B
0763: 00            NOP
0764: 40            LD B,B
0765: 01 00 00      LD BC,0000h
0768: FF            RST 38h
0769: 06 9C         LD B,9Ch
076B: 01 30 01      LD BC,0130h
076E: 70            LD (HL),B
076F: 01 00 01      LD BC,0100h
0772: 00            NOP
0773: 00            NOP
0774: FF            RST 38h
0775: 06 E0         LD B,E0h
0777: 01 20 01      LD BC,0120h
077A: 70            LD (HL),B
077B: 01 00 01      LD BC,0100h
077E: 00            NOP
077F: 00            NOP
0780: FF            RST 38h
0781: 06 60         LD B,60h
0783: 01 0C 01      LD BC,010Ch
0786: 60            LD H,B
0787: 01 00 01      LD BC,0100h
078A: 00            NOP
078B: 00            NOP
078C: FF            RST 38h
078D: 05            DEC B
078E: F0            RET P
078F: 01 4C 01      LD BC,014Ch
0792: 70            LD (HL),B
0793: 00            NOP
0794: 20 00         JR NZ,loc_0796

loc_0796:
0796: 20 00         JR NZ,loc_0798

loc_0798:
0798: 00            NOP
0799: 05            DEC B
079A: F0            RET P
079B: 01 2C 01      LD BC,012Ch
079E: 30 01         JR NC,loc_07A1
07A0: 00            NOP

loc_07A1:
07A1: 01 00 00      LD BC,0000h
07A4: FF            RST 38h
07A5: 05            DEC B
07A6: F0            RET P
07A7: 00            NOP
07A8: FC 01 00      CALL M,sub_0001
07AB: 02            LD (BC),A
07AC: 00            NOP
07AD: 01 00 04      LD BC,0400h
07B0: 00            NOP
07B1: FF            RST 38h
07B2: FF            RST 38h
07B3: 06 10         LD B,10h
07B5: 01 4C 01      LD BC,014Ch
07B8: 30 00         JR NC,loc_07BA

loc_07BA:
07BA: 10 00         DJNZ loc_07BC

loc_07BC:
07BC: 70            LD (HL),B
07BD: 01 FF FF      LD BC,FFFFh
07C0: 06 F0         LD B,F0h
07C2: 01 4C 04      LD BC,044Ch
07C5: 00            NOP
07C6: 01 20 01      LD BC,0120h
07C9: 00            NOP
07CA: FF            RST 38h
07CB: 00            NOP

sub_07CC:
07CC: 07            RLCA
07CD: 80            ADD A,B
07CE: 01 3C 02      LD BC,023Ch
07D1: 40            LD B,B
07D2: 01 00 01      LD BC,0100h
07D5: 00            NOP
07D6: 00            NOP
07D7: FF            RST 38h
07D8: 07            RLCA
07D9: 68            LD L,B
07DA: 01 3C 02      LD BC,023Ch
07DD: 20 01         JR NZ,loc_07E0
07DF: 00            NOP

loc_07E0:
07E0: 01 00 00      LD BC,0000h
07E3: FF            RST 38h
07E4: 07            RLCA
07E5: 50            LD D,B
07E6: 01 3C 02      LD BC,023Ch
07E9: 08            EX AF,AF'
07EA: 01 00 01      LD BC,0100h
07ED: 00            NOP
07EE: 00            NOP
07EF: FF            RST 38h
07F0: 07            RLCA
07F1: 38 01         JR C,loc_07F4
07F3: 3C            INC A

loc_07F4:
07F4: 01 F0 01      LD BC,01F0h
07F7: 00            NOP
07F8: 01 00 00      LD BC,0000h
07FB: FF            RST 38h
07FC: 07            RLCA
07FD: 50            LD D,B
07FE: 00            NOP
07FF: FC 01 C0      CALL M,C001h
0802: 01 00 01      LD BC,0100h
0805: 00            NOP

loc_0806:
0806: 00            NOP
0807: FF            RST 38h
0808: 06 F0         LD B,F0h
080A: 01 2C 01      LD BC,012Ch
080D: A0            AND B
080E: 01 00 01      LD BC,0100h
0811: 00            NOP
0812: 00            NOP
0813: FF            RST 38h
0814: 06 F0         LD B,F0h
0816: 01 24 01      LD BC,0124h
0819: 70            LD (HL),B
081A: 01 00 01      LD BC,0100h
081D: 00            NOP
081E: 00            NOP
081F: 00            NOP

sub_0820:
0820: 07            RLCA
0821: 10 01         DJNZ loc_0824
0823: 10 01         DJNZ loc_0826
0825: 70            LD (HL),B

loc_0826:
0826: 01 00 01      LD BC,0100h
0829: 00            NOP
082A: 00            NOP
082B: FF            RST 38h
082C: 06 F0         LD B,F0h
082E: 01 0C 01      LD BC,010Ch
0831: 60            LD H,B
0832: 01 00 01      LD BC,0100h
0835: 00            NOP
0836: 00            NOP
0837: 00            NOP
0838: 06 F0         LD B,F0h
083A: 00            NOP
083B: FC 01 00      CALL M,sub_0001
083E: 02            LD (BC),A
083F: 00            NOP
0840: 01 00 04      LD BC,0400h
0843: 00            NOP
0844: FF            RST 38h
0845: FF            RST 38h
0846: 07            RLCA
0847: A5            AND L
0848: 01 3C 01      LD BC,013Ch
084B: C0            RET NZ
084C: 00            NOP
084D: 10 00         DJNZ loc_084F

loc_084F:
084F: 80            ADD A,B
0850: 01 FF FF      LD BC,FFFFh
0853: 08            EX AF,AF'
0854: 88            ADC A,B
0855: 01 1C 01      LD BC,011Ch
0858: D0            RET NC
0859: 03            INC BC
085A: 00            NOP
085B: 00            NOP
085C: 12            LD (DE),A
085D: 04            INC B
085E: FF            RST 38h
085F: 07            RLCA
0860: F0            RET P
0861: 01 4C 04      LD BC,044Ch
0864: 00            NOP
0865: 02            LD (BC),A
0866: 00            NOP
0867: 02            LD (BC),A
0868: 00            NOP
0869: FF            RST 38h
086A: 00            NOP
086B: 08            EX AF,AF'
086C: C4 00 DC      CALL NZ,DC00h
086F: 04            INC B
0870: 00            NOP
0871: 02            LD (BC),A
0872: 00            NOP
0873: 02            LD (BC),A
0874: 00            NOP
0875: FF            RST 38h
0876: FF            RST 38h
0877: 07            RLCA
0878: F0            RET P
0879: 01 3C 02      LD BC,023Ch
087C: 40            LD B,B
087D: 01 00 01      LD BC,0100h
0880: 00            NOP
0881: 00            NOP
0882: 00            NOP
0883: 08            EX AF,AF'
0884: 58            LD E,B
0885: 01 2C 02      LD BC,022Ch
0888: 20 01         JR NZ,loc_088B
088A: 00            NOP

loc_088B:
088B: 01 00 00      LD BC,0000h
088E: FF            RST 38h
088F: 08            EX AF,AF'
0890: 40            LD B,B
0891: 01 2C 02      LD BC,022Ch
0894: 08            EX AF,AF'
0895: 01 00 01      LD BC,0100h
0898: 00            NOP
0899: 00            NOP
089A: FF            RST 38h
089B: 08            EX AF,AF'
089C: 28 01         JR Z,loc_089F
089E: 2C            INC L

loc_089F:
089F: 01 F0 01      LD BC,01F0h
08A2: 00            NOP
08A3: 01 00 00      LD BC,0000h
08A6: FF            RST 38h
08A7: 08            EX AF,AF'
08A8: 34            INC (HL)
08A9: 01 1C 01      LD BC,011Ch
08AC: D0            RET NC
08AD: 00            NOP
08AE: 54            LD D,H
08AF: 00            NOP
08B0: 12            LD (DE),A
08B1: 09            ADD HL,BC
08B2: FF            RST 38h
08B3: 07            RLCA
08B4: F0            RET P
08B5: 00            NOP
08B6: FC 01 C0      CALL M,C001h
08B9: 01 00 01      LD BC,0100h
08BC: 00            NOP
08BD: 00            NOP
08BE: FF            RST 38h
08BF: FF            RST 38h
08C0: FF            RST 38h
08C1: 07            RLCA
08C2: 00            NOP
08C3: 00            NOP
08C4: F0            RET P
08C5: 03            INC BC
08C6: 00            NOP
08C7: 03            INC BC
08C8: 00            NOP
08C9: 02            LD (BC),A
08CA: 00            NOP
08CB: FF            RST 38h
08CC: 00            NOP
08CD: 08            EX AF,AF'
08CE: C0            RET NZ
08CF: 00            NOP
08D0: D8            RET C
08D1: 03            INC BC
08D2: 00            NOP
08D3: 02            LD (BC),A
08D4: 00            NOP
08D5: 02            LD (BC),A
08D6: 00            NOP
08D7: FF            RST 38h
08D8: FF            RST 38h
08D9: 07            RLCA
08DA: 00            NOP
08DB: 00            NOP
08DC: 78            LD A,B
08DD: 01 00 03      LD BC,0300h
08E0: 00            NOP
08E1: 02            LD (BC),A
08E2: 00            NOP
08E3: 00            NOP
08E4: 00            NOP
08E5: FF            RST 38h
08E6: FF            RST 38h
08E7: 08            EX AF,AF'
08E8: F0            RET P
08E9: 00            NOP
08EA: 78            LD A,B
08EB: 01 00 02      LD BC,0200h
08EE: 20 00         JR NZ,loc_08F0

loc_08F0:
08F0: 60            LD H,B
08F1: 00            NOP
08F2: 00            NOP
08F3: 08            EX AF,AF'
08F4: F0            RET P
08F5: 00            NOP
08F6: D8            RET C
08F7: 03            INC BC
08F8: 00            NOP
08F9: 02            LD (BC),A
08FA: 20 01         JR NZ,loc_08FD
08FC: 00            NOP

loc_08FD:
08FD: FF            RST 38h
08FE: 00            NOP
08FF: FF            RST 38h
0900: FF            RST 38h
0901: 0B            DEC BC
0902: A0            AND B
0903: 00            NOP
0904: 78            LD A,B
0905: 03            INC BC
0906: 00            NOP
0907: 00            NOP
0908: 70            LD (HL),B
0909: 00            NOP
090A: 48            LD C,B
090B: FE 01         CP 01h
090D: 0A            LD A,(BC)
090E: F0            RET P
090F: 00            NOP
0910: D8            RET C
0911: 03            INC BC
0912: 00            NOP
0913: 01 20 01      LD BC,0120h
0916: 00            NOP
0917: FF            RST 38h
0918: 00            NOP
0919: 0A            LD A,(BC)
091A: F0            RET P
091B: 00            NOP
091C: 78            LD A,B
091D: 01 00 01      LD BC,0100h
0920: 20 01         JR NZ,loc_0923
0922: 00            NOP

loc_0923:
0923: 00            NOP
0924: 00            NOP
0925: FF            RST 38h
0926: FF            RST 38h
0927: 0B            DEC BC
0928: F0            RET P
0929: 00            NOP
092A: 78            LD A,B

sub_092B:
092B: 03            INC BC
092C: 00            NOP
092D: 02            LD (BC),A
092E: 00            NOP
092F: 00            NOP
0930: 48            LD C,B
0931: FE 00         CP 00h
0933: 0B            DEC BC
0934: F0            RET P
0935: 00            NOP
0936: D8            RET C
0937: 03            INC BC
0938: 00            NOP
0939: 01 20 01      LD BC,0120h
093C: 00            NOP
093D: FF            RST 38h
093E: 00            NOP
093F: 0B            DEC BC
0940: F0            RET P
0941: 00            NOP
0942: 78            LD A,B
0943: 01 00 01      LD BC,0100h
0946: 20 01         JR NZ,loc_0949
0948: 00            NOP

loc_0949:
0949: 00            NOP
094A: 00            NOP
094B: FF            RST 38h
094C: FF            RST 38h
094D: 0C            INC C
094E: F0            RET P
094F: 00            NOP
0950: 78            LD A,B
0951: 03            INC BC
0952: 00            NOP
0953: 00            NOP
0954: 70            LD (HL),B
0955: 00            NOP
0956: 48            LD C,B
0957: FE FF         CP FFh
0959: 0C            INC C
095A: F0            RET P
095B: 00            NOP
095C: D8            RET C
095D: 03            INC BC
095E: 00            NOP
095F: 01 20 01      LD BC,0120h
0962: 00            NOP
0963: FF            RST 38h
0964: 00            NOP
0965: 0C            INC C
0966: F0            RET P
0967: 00            NOP
0968: 78            LD A,B
0969: 01 00 01      LD BC,0100h
096C: 20 01         JR NZ,loc_096F
096E: 00            NOP

loc_096F:
096F: 00            NOP
0970: 00            NOP
0971: FF            RST 38h
0972: FF            RST 38h
0973: 0D            DEC C
0974: F0            RET P
0975: 00            NOP
0976: 78            LD A,B
0977: 01 00 01      LD BC,0100h
097A: 20 00         JR NZ,loc_097C

loc_097C:
097C: 60            LD H,B
097D: 00            NOP
097E: 00            NOP
097F: 0D            DEC C
0980: F0            RET P

loc_0981:
0981: 00            NOP
0982: D8            RET C
0983: 03            INC BC
0984: 00            NOP
0985: 01 20 01      LD BC,0120h
0988: 00            NOP
0989: FF            RST 38h
098A: 00            NOP
098B: FF            RST 38h
098C: FF            RST 38h
098D: 0F            RRCA
098E: 80            ADD A,B
098F: 00            NOP
0990: B8            CP B
0991: 03            INC BC
0992: 00            NOP
0993: 02            LD (BC),A
0994: 00            NOP
0995: 01 00 FF      LD BC,FF00h
0998: FF            RST 38h
0999: 0E F0         LD C,F0h
099B: 00            NOP
099C: 78            LD A,B
099D: 01 00 02      LD BC,0200h
09A0: 00            NOP
09A1: 00            NOP
09A2: 60            LD H,B
09A3: 00            NOP
09A4: 00            NOP
09A5: 0E F0         LD C,F0h
09A7: 00            NOP
09A8: D8            RET C
09A9: 03            INC BC
09AA: 00            NOP
09AB: 02            LD (BC),A
09AC: 00            NOP
09AD: 01 00 FF      LD BC,FF00h
09B0: 00            NOP
09B1: FF            RST 38h
09B2: FF            RST 38h
09B3: 0F            RRCA
09B4: 00            NOP
09B5: 00            NOP
09B6: D8            RET C
09B7: 04            INC B
09B8: 80            ADD A,B
09B9: 01 10 01      LD BC,0110h
09BC: 10 FF         DJNZ loc_09BD
09BE: 00            NOP
09BF: 0F            RRCA
09C0: 80            ADD A,B
09C1: 00            NOP
09C2: B8            CP B
09C3: 02            LD (BC),A
09C4: 80            ADD A,B
09C5: 02            LD (BC),A
09C6: 00            NOP
09C7: 00            NOP
09C8: 30 00         JR NC,loc_09CA

loc_09CA:
09CA: FF            RST 38h
09CB: FF            RST 38h
09CC: FF            RST 38h
09CD: 0F            RRCA
09CE: F0            RET P
09CF: 00            NOP
09D0: D8            RET C
09D1: 04            INC B
09D2: 80            ADD A,B
09D3: 01 60 01      LD BC,0160h
09D6: 00            NOP
09D7: FF            RST 38h
09D8: 00            NOP
09D9: 11 80 00      LD DE,0080h
09DC: 98            SBC A,B
09DD: 04            INC B
09DE: 80            ADD A,B
09DF: 01 00 01      LD BC,0100h
09E2: 00            NOP
09E3: FF            RST 38h
09E4: FF            RST 38h
09E5: 0F            RRCA
09E6: F0            RET P
09E7: 00            NOP
09E8: B8            CP B
09E9: 02            LD (BC),A
09EA: 80            ADD A,B
09EB: 02            LD (BC),A
09EC: 00            NOP
09ED: 00            NOP
09EE: 20 00         JR NZ,loc_09F0

loc_09F0:
09F0: 00            NOP
09F1: 10 70         DJNZ loc_0A63
09F3: 00            NOP
09F4: 98            SBC A,B
09F5: 02            LD (BC),A
09F6: 80            ADD A,B
09F7: 02            LD (BC),A
09F8: 00            NOP
09F9: 00            NOP
09FA: 40            LD B,B
09FB: 00            NOP
09FC: FF            RST 38h
09FD: FF            RST 38h
09FE: FF            RST 38h
09FF: 12            LD (DE),A
0A00: 00            NOP
0A01: 01 78 04      LD BC,0478h
0A04: 00            NOP
0A05: 02            LD (BC),A
0A06: 20 02         JR NZ,loc_0A0A
0A08: 00            NOP
0A09: FF            RST 38h

loc_0A0A:
0A0A: 00            NOP
0A0B: 11 F0 01      LD DE,01F0h
0A0E: 6C            LD L,H

sub_0A0F:
0A0F: 02            LD (BC),A
0A10: 00            NOP
0A11: 02            LD (BC),A
0A12: 00            NOP
0A13: 00            NOP
0A14: 20 00         JR NZ,loc_0A16

loc_0A16:
0A16: 00            NOP
0A17: 13            INC DE
0A18: 00            NOP
0A19: 01 3C 02      LD BC,023Ch
0A1C: 00            NOP
0A1D: 02            LD (BC),A
0A1E: 00            NOP
0A1F: 00            NOP
0A20: 50            LD D,B
0A21: 00            NOP
0A22: FF            RST 38h
0A23: FF            RST 38h
0A24: FF            RST 38h
0A25: 13            INC DE
0A26: F0            RET P
0A27: 01 78 04      LD BC,0478h
0A2A: 00            NOP
0A2B: 01 00 01      LD BC,0100h
0A2E: 00            NOP
0A2F: FF            RST 38h
0A30: 00            NOP
0A31: 14            INC D
0A32: 30 01         JR NC,loc_0A35
0A34: 48            LD C,B

loc_0A35:
0A35: 04            INC B
0A36: 00            NOP
0A37: 02            LD (BC),A
0A38: 00            NOP
0A39: 02            LD (BC),A
0A3A: 00            NOP
0A3B: FF            RST 38h
0A3C: FF            RST 38h
0A3D: 15            DEC D
0A3E: E0            RET PO
0A3F: 01 18 04      LD BC,0418h
0A42: 00            NOP
0A43: 02            LD (BC),A
0A44: 00            NOP
0A45: 02            LD (BC),A
0A46: 00            NOP
0A47: FF            RST 38h
0A48: FF            RST 38h
0A49: 13            INC DE
0A4A: F0            RET P
0A4B: 01 3A 02      LD BC,023Ah
0A4E: 00            NOP
0A4F: 02            LD (BC),A
0A50: 00            NOP
0A51: 00            NOP
0A52: 60            LD H,B
0A53: 00            NOP
0A54: FF            RST 38h
0A55: 14            INC D
0A56: 00            NOP
0A57: 01 3A 02      LD BC,023Ah
0A5A: 00            NOP
0A5B: 02            LD (BC),A
0A5C: 00            NOP
0A5D: 00            NOP
0A5E: 20 00         JR NZ,loc_0A60

loc_0A60:
0A60: 00            NOP
0A61: FF            RST 38h
0A62: FF            RST 38h

loc_0A63:
0A63: 15            DEC D
0A64: 10 01         DJNZ loc_0A67
0A66: 3A 01 20      LD A,(2001h)
0A69: 00            NOP
0A6A: 30 00         JR NC,loc_0A6C

loc_0A6C:
0A6C: E4 02 FF      CALL PO,FF02h
0A6F: FF            RST 38h
0A70: 14            INC D
0A71: 00            NOP
0A72: 01 3A 04      LD BC,043Ah
0A75: 00            NOP
0A76: 02            LD (BC),A
0A77: 00            NOP
0A78: 01 00 FF      LD BC,FF00h
0A7B: 01 16 00      LD BC,0016h
0A7E: 01 8A 04      LD BC,048Ah
0A81: 00            NOP
0A82: 03            INC BC
0A83: 00            NOP
0A84: 03            INC BC
0A85: 00            NOP
0A86: FF            RST 38h
0A87: 00            NOP
0A88: 17            RLA
0A89: B0            OR B
0A8A: 01 1A 04      LD BC,041Ah
0A8D: 00            NOP
0A8E: 01 00 01      LD BC,0100h
0A91: 00            NOP
0A92: FF            RST 38h
0A93: FF            RST 38h
0A94: 14            INC D
0A95: 00            NOP
0A96: 01 1A 01      LD BC,011Ah
0A99: 20 02         JR NZ,loc_0A9D
0A9B: 00            NOP
0A9C: 00            NOP

loc_0A9D:
0A9D: 80            ADD A,B
0A9E: 00            NOP
0A9F: 00            NOP
0AA0: 15            DEC D
0AA1: F0            RET P
0AA2: 01 1A 01      LD BC,011Ah
0AA5: 20 02         JR NZ,loc_0AA9
0AA7: 00            NOP
0AA8: 02            LD (BC),A

loc_0AA9:
0AA9: 00            NOP
0AAA: 00            NOP
0AAB: 00            NOP
0AAC: FF            RST 38h
0AAD: FF            RST 38h
0AAE: FF            RST 38h
0AAF: FF            RST 38h
0AB0: FF            RST 38h
0AB1: FF            RST 38h
0AB2: FF            RST 38h
0AB3: FF            RST 38h
0AB4: FF            RST 38h
0AB5: FF            RST 38h
0AB6: FF            RST 38h
0AB7: FF            RST 38h
0AB8: FF            RST 38h
0AB9: FF            RST 38h
0ABA: FF            RST 38h
0ABB: FF            RST 38h
0ABC: FF            RST 38h
0ABD: FF            RST 38h
0ABE: FF            RST 38h
0ABF: FF            RST 38h
0AC0: FF            RST 38h
0AC1: FF            RST 38h
0AC2: FF            RST 38h
0AC3: FF            RST 38h
0AC4: FF            RST 38h
0AC5: FF            RST 38h
0AC6: FF            RST 38h
0AC7: FF            RST 38h
0AC8: FF            RST 38h
0AC9: FF            RST 38h
0ACA: FF            RST 38h
0ACB: FF            RST 38h
0ACC: FF            RST 38h
0ACD: FF            RST 38h
0ACE: FF            RST 38h
0ACF: FF            RST 38h
0AD0: FF            RST 38h
0AD1: FF            RST 38h
0AD2: FF            RST 38h
0AD3: FF            RST 38h
0AD4: FF            RST 38h
0AD5: FF            RST 38h
0AD6: FF            RST 38h
0AD7: FF            RST 38h
0AD8: FF            RST 38h
0AD9: FF            RST 38h
0ADA: FF            RST 38h
0ADB: FF            RST 38h
0ADC: FF            RST 38h
0ADD: FF            RST 38h
0ADE: FF            RST 38h
0ADF: FF            RST 38h
0AE0: FF            RST 38h

loc_0AE1:
0AE1: FF            RST 38h
0AE2: FF            RST 38h
0AE3: FF            RST 38h
0AE4: FF            RST 38h
0AE5: FF            RST 38h
0AE6: FF            RST 38h
0AE7: FF            RST 38h
0AE8: FF            RST 38h
0AE9: FF            RST 38h
0AEA: FF            RST 38h
0AEB: FF            RST 38h
0AEC: FF            RST 38h
0AED: FF            RST 38h
0AEE: FF            RST 38h
0AEF: FF            RST 38h
0AF0: FF            RST 38h
0AF1: FF            RST 38h
0AF2: FF            RST 38h
0AF3: FF            RST 38h
0AF4: FF            RST 38h
0AF5: FF            RST 38h
0AF6: FF            RST 38h
0AF7: FF            RST 38h
0AF8: FF            RST 38h
0AF9: FF            RST 38h
0AFA: FF            RST 38h
0AFB: FF            RST 38h
0AFC: FF            RST 38h
0AFD: FF            RST 38h
0AFE: FF            RST 38h
0AFF: FF            RST 38h
0B00: 0F            RRCA
0B01: B2            OR D
0B02: 0F            RRCA
0B03: B3            OR E
0B04: BD            CP L
0B05: 4B            LD C,E
0B06: 57            LD D,A
0B07: BD            CP L

sub_0B08:
0B08: 4B            LD C,E

loc_0B09:
0B09: 73            LD (HL),E
0B0A: BD            CP L
0B0B: 4B            LD C,E
0B0C: 87            ADD A,A
0B0D: BD            CP L
0B0E: 4B            LD C,E
0B0F: 9A            SBC A,D
0B10: BD            CP L
0B11: 4B            LD C,E
0B12: BE            CP (HL)
0B13: BD            CP L
0B14: 4B            LD C,E
0B15: B3            OR E
0B16: BD            CP L
0B17: 4B            LD C,E
0B18: EF            RST 28h
0B19: 86            ADD A,(HL)
0B1A: 01 BD FE      LD BC,FEBDh
0B1D: 23            INC HL
0B1E: BD            CP L
0B1F: 4C            LD C,H
0B20: 2D            DEC L
0B21: 86            ADD A,(HL)
0B22: 10 BD         DJNZ loc_0AE1
0B24: FE 23         CP 23h
0B26: BD            CP L
0B27: 4C            LD C,H
0B28: CF            RST 08h
0B29: 8E            ADC A,(HL)
0B2A: 1E 34         LD E,34h
0B2C: CC 00 2E      CALL Z,sub_2E00
0B2F: ED 81         DB EDh,81h
0B31: CC 00 27      CALL Z,sub_2700
0B34: ED 84         DB EDh,84h
0B36: 39            ADD HL,SP
0B37: BD            CP L
0B38: 4B            LD C,E
0B39: 57            LD D,A
0B3A: BD            CP L
0B3B: 4B            LD C,E
0B3C: 73            LD (HL),E
0B3D: BD            CP L
0B3E: 4B            LD C,E
0B3F: 87            ADD A,A
0B40: BD            CP L
0B41: 4B            LD C,E
0B42: EF            RST 28h
0B43: BD            CP L
0B44: 4C            LD C,H
0B45: 5A            LD E,D
0B46: BD            CP L
0B47: 4D            LD C,L
0B48: 19            ADD HL,DE
0B49: 8E            ADC A,(HL)
0B4A: 1E 34         LD E,34h
0B4C: CC 00 2E      CALL Z,sub_2E00

loc_0B4F:
0B4F: ED 81         DB EDh,81h
0B51: CC 00 27      CALL Z,sub_2700
0B54: ED 84         DB EDh,84h
0B56: 39            ADD HL,SP
0B57: 8E            ADC A,(HL)
0B58: 30 00         JR NC,loc_0B5A

loc_0B5A:
0B5A: CC 00 00      CALL Z,sub_0000
0B5D: ED 81         DB EDh,81h

sub_0B5F:
0B5F: 8C            ADC A,H
0B60: 38 00         JR C,loc_0B62

loc_0B62:
0B62: 26 F9         LD H,F9h
0B64: 39            ADD HL,SP
0B65: 8E            ADC A,(HL)
0B66: 30 00         JR NC,loc_0B68

loc_0B68:
0B68: CC 38 00      CALL Z,sub_0038
0B6B: ED 81         DB EDh,81h
0B6D: 8C            ADC A,H
0B6E: 38 00         JR C,loc_0B70

loc_0B70:
0B70: 26 F9         LD H,F9h
0B72: 39            ADD HL,SP
0B73: C6 00         ADD A,00h
0B75: F7            RST 30h
0B76: 38 09         JR C,loc_0B81
0B78: F7            RST 30h
0B79: 38 0A         JR C,loc_0B85
0B7B: B6            OR (HL)
0B7C: 00            NOP
0B7D: 3A 84 FC      LD A,(FC84h)
0B80: B7            OR A

loc_0B81:
0B81: 00            NOP
0B82: 3A B7 38      LD A,(38B7h)

loc_0B85:
0B85: 08            EX AF,AF'
0B86: 39            ADD HL,SP
0B87: 86            ADD A,(HL)
0B88: 04            INC B
0B89: B7            OR A
0B8A: 00            NOP
0B8B: 4B            LD C,E
0B8C: 86            ADD A,(HL)
0B8D: 01 B7 00      LD BC,00B7h
0B90: 4D            LD C,L
0B91: 86            ADD A,(HL)
0B92: 11 B7 00      LD DE,00B7h
0B95: 4F            LD C,A
0B96: BD            CP L
0B97: FD            DB FDh ; prefix (nop)
0B98: F3            DI
0B99: 39            ADD HL,SP
0B9A: 8E            ADC A,(HL)
0B9B: 10 10         DJNZ loc_0BAD
0B9D: 10 8E         DJNZ loc_0B2D
0B9F: 10 70         DJNZ loc_0C11
0BA1: 6F            LD L,A
0BA2: 89            ADC A,C
0BA3: 02            LD (BC),A
0BA4: 00            NOP
0BA5: 6F            LD L,A
0BA6: 80            ADD A,B
0BA7: 6F            LD L,A
0BA8: A9            XOR C
0BA9: 02            LD (BC),A
0BAA: 00            NOP
0BAB: 6F            LD L,A
0BAC: A0            AND B

loc_0BAD:
0BAD: 8C            ADC A,H
0BAE: 10 20         DJNZ loc_0BD0
0BB0: 26 EF         LD H,EFh
0BB2: 39            ADD HL,SP
0BB3: 8E            ADC A,(HL)
0BB4: 18 00         JR loc_0BB6

loc_0BB6:
0BB6: 6F            LD L,A
0BB7: 80            ADD A,B
0BB8: 8C            ADC A,H
0BB9: 20 00         JR NZ,loc_0BBB

loc_0BBB:
0BBB: 26 F9         LD H,F9h
0BBD: 39            ADD HL,SP
0BBE: 5F            LD E,A
0BBF: 10 8E         DJNZ loc_0B4F
0BC1: 4B            LD C,E
0BC2: D3 AE         OUT (AEh),A
0BC4: A1            AND C
0BC5: BD            CP L
0BC6: 4C            LD C,H
0BC7: 74            LD (HL),H
0BC8: 86            ADD A,(HL)
0BC9: 04            INC B
0BCA: BD            CP L
0BCB: FE 23         CP 23h
0BCD: 5C            LD E,H
0BCE: C1            POP BC
0BCF: 0E 26         LD C,26h
0BD1: F1            POP AF
0BD2: 39            ADD HL,SP
0BD3: 4D            LD C,L
0BD4: D2 4D DD      JP NC,DD4Dh
0BD7: 4D            LD C,L
0BD8: E8            RET PE
0BD9: 4D            LD C,L
0BDA: F3            DI
0BDB: 4E            LD C,(HL)
0BDC: 00            NOP
0BDD: 4E            LD C,(HL)
0BDE: 0F            RRCA
0BDF: 4E            LD C,(HL)
0BE0: 20 4E         JR NZ,loc_0C30
0BE2: 33            INC SP
0BE3: 4E            LD C,(HL)
0BE4: 44            LD B,H
0BE5: 4E            LD C,(HL)
0BE6: 55            LD D,L
0BE7: 4E            LD C,(HL)
0BE8: 72            LD (HL),D
0BE9: 4E            LD C,(HL)
0BEA: 8F            ADC A,A

loc_0BEB:
0BEB: 4E            LD C,(HL)
0BEC: B2            OR D
0BED: 4E            LD C,(HL)
0BEE: DD 8E 4F      ADC A,(IX+4Fh)
0BF1: 12            LD (DE),A
0BF2: C6 0A         ADD A,0Ah
0BF4: F7            RST 30h
0BF5: 00            NOP
0BF6: 00            NOP
0BF7: CC 30 4A      CALL Z,sub_4A30
0BFA: FD            DB FDh ; prefix (nop)
0BFB: 00            NOP
0BFC: 02            LD (BC),A
0BFD: C6 06         ADD A,06h
0BFF: F7            RST 30h
0C00: 00            NOP
0C01: 01 10 BE      LD BC,BE10h
0C04: 00            NOP
0C05: 02            LD (BC),A
0C06: EC 81 34      CALL PE,sub_3481
0C09: 04            INC B
0C0A: 1F            RRA
0C0B: 89            ADC A,C

sub_0C0C:
0C0C: C4 07 34      CALL NZ,sub_3407

sub_0C0F:
0C0F: 04            INC B
0C10: 84            ADD A,H

loc_0C11:
0C11: F0            RET P
0C12: 44            LD B,H
0C13: AA            XOR D
0C14: E0            RET PO
0C15: 35            DEC (HL)
0C16: 04            INC B
0C17: ED A1         CPI
0C19: 7A            LD A,D
0C1A: 00            NOP
0C1B: 01 26 E8      LD BC,E826h
0C1E: FC 00 02      CALL M,sub_0200
0C21: C3 00 20      JP loc_2000
0C24: FD            DB FDh ; prefix (nop)
0C25: 00            NOP
0C26: 02            LD (BC),A
0C27: 7A            LD A,D
0C28: 00            NOP
0C29: 00            NOP
0C2A: 26 D1         LD H,D1h
0C2C: 39            ADD HL,SP
0C2D: 86            ADD A,(HL)
0C2E: 05            DEC B
0C2F: 97            SUB A

loc_0C30:
0C30: B5            OR L
0C31: BD            CP L
0C32: 4B            LD C,E
0C33: B3            OR E
0C34: 86            ADD A,(HL)
0C35: 03            INC BC
0C36: BD            CP L
0C37: FE 23         CP 23h
0C39: 96            SUB (HL)
0C3A: B5            OR L
0C3B: 85            ADD A,L
0C3C: 01 27 08      LD BC,0827h
0C3F: BD            CP L
0C40: 4B            LD C,E
0C41: 65            LD H,L
0C42: 86            ADD A,(HL)
0C43: 01 BD FE      LD BC,FEBDh
0C46: 23            INC HL
0C47: BD            CP L
0C48: 4B            LD C,E
0C49: 57            LD D,A
0C4A: BD            CP L
0C4B: 4B            LD C,E
0C4C: EF            RST 28h
0C4D: BD            CP L
0C4E: 4C            LD C,H
0C4F: 5A            LD E,D
0C50: 86            ADD A,(HL)
0C51: 03            INC BC
0C52: BD            CP L
0C53: FE 23         CP 23h
0C55: 0A            LD A,(BC)
0C56: B5            OR L
0C57: 26 D8         LD H,D8h
0C59: 39            ADD HL,SP
0C5A: 5F            LD E,A
0C5B: 10 8E         DJNZ loc_0BEB
0C5D: 4C            LD C,H
0C5E: 6A            LD L,D
0C5F: AE            XOR (HL)
0C60: A1            AND C
0C61: BD            CP L
0C62: 4C            LD C,H
0C63: 74            LD (HL),H
0C64: 5C            LD E,H
0C65: C1            POP BC
0C66: 05            DEC B
0C67: 26 F6         LD H,F6h
0C69: 39            ADD HL,SP
0C6A: 4D            LD C,L
0C6B: 44            LD B,H
0C6C: 4D            LD C,L
0C6D: 71            LD (HL),C
0C6E: 4D            LD C,L
0C6F: 9A            SBC A,D
0C70: 4D            LD C,L
0C71: BC            CP H
0C72: 4D            LD C,L
0C73: C7            RST 00h
0C74: 34            INC (HL)
0C75: 36 EC         LD (HL),ECh
0C77: 81            ADD A,C
0C78: FD            DB FDh ; prefix (nop)
0C79: 00            NOP
0C7A: 00            NOP
0C7B: EC 81 FD      CALL PE,FD81h
0C7E: 00            NOP
0C7F: 02            LD (BC),A
0C80: FD            DB FDh ; prefix (nop)
0C81: 00            NOP
0C82: 04            INC B
0C83: A6            AND (HL)
0C84: 80            ADD A,B
0C85: B7            OR A
0C86: 00            NOP
0C87: 06 10         LD B,10h
0C89: BE            CP (HL)
0C8A: 00            NOP
0C8B: 00            NOP
0C8C: 7F            LD A,A
0C8D: 00            NOP
0C8E: 07            RLCA
0C8F: B6            OR (HL)
0C90: 00            NOP
0C91: 06 E6         LD B,E6h
0C93: 80            ADD A,B
0C94: 27            DAA
0C95: 12            LD (DE),A
0C96: 7D            LD A,L
0C97: 00            NOP
0C98: 07            RLCA
0C99: 27            DAA
0C9A: 0D            DEC C
0C9B: F1            POP AF
0C9C: 00            NOP
0C9D: 07            RLCA
0C9E: 27            DAA
0C9F: F2 7C 00      JP P,loc_007C
0CA2: 07            RLCA
0CA3: F6 00         OR 00h
0CA5: 07            RLCA
0CA6: 30 1F         JR NC,loc_0CC7
0CA8: ED A1         CPI
0CAA: F7            RST 30h
0CAB: 00            NOP
0CAC: 07            RLCA
0CAD: 7A            LD A,D
0CAE: 00            NOP
0CAF: 04            INC B
0CB0: 26 E0         LD H,E0h
0CB2: B6            OR (HL)
0CB3: 00            NOP
0CB4: 02            LD (BC),A
0CB5: B7            OR A
0CB6: 00            NOP
0CB7: 04            INC B
0CB8: FC 00 00      CALL M,sub_0000
0CBB: C3 00 40      JP loc_4000
0CBE: FD            DB FDh ; prefix (nop)
0CBF: 00            NOP
0CC0: 00            NOP
0CC1: 7D            LD A,L
0CC2: 00            NOP
0CC3: 07            RLCA
0CC4: 27            DAA
0CC5: 02            LD (BC),A
0CC6: 30 01         JR NC,loc_0CC9
0CC8: 7A            LD A,D

loc_0CC9:
0CC9: 00            NOP
0CCA: 05            DEC B
0CCB: 26 BB         LD H,BBh
0CCD: 35            DEC (HL)
0CCE: B6            OR (HL)
0CCF: 32 7F 10      LD (107Fh),A
0CD2: 8E            ADC A,(HL)
0CD3: 28 00         JR Z,loc_0CD5

loc_0CD5:
0CD5: 8E            ADC A,(HL)
0CD6: 4F            LD C,A
0CD7: 8A            ADC A,D
0CD8: 86            ADD A,(HL)
0CD9: 13            INC DE
0CDA: A7            AND A
0CDB: E4 86 05      CALL PO,sub_0586
0CDE: E6 80         AND 80h
0CE0: E7            RST 20h
0CE1: A0            AND B
0CE2: 4A            LD C,D
0CE3: 26 F9         LD H,F9h
0CE5: 6A            LD L,D
0CE6: E4 26 F3      CALL PO,F326h
0CE9: 86            ADD A,(HL)
0CEA: D0            RET NC
0CEB: A7            AND A
0CEC: E4 10 8E      CALL PO,8E10h
0CEF: 28 00         JR Z,loc_0CF1

loc_0CF1:
0CF1: C6 13         ADD A,13h
0CF3: B6            OR (HL)
0CF4: 38 02         JR C,loc_0CF8
0CF6: 84            ADD A,H
0CF7: 08            EX AF,AF'

loc_0CF8:
0CF8: 27            DAA
0CF9: F9            LD SP,HL
0CFA: A6            AND (HL)
0CFB: 24            INC H
0CFC: 8B            ADC A,E
0CFD: 01 A7 24      LD BC,24A7h
0D00: 24            INC H
0D01: 06 A6         LD B,A6h
0D03: 21 84 FD      LD HL,FD84h
0D06: A7            AND A
0D07: 21 31 25      LD HL,2531h
0D0A: 5A            LD E,D
0D0B: 26 ED         LD H,EDh
0D0D: 86            ADD A,(HL)
0D0E: 01 BD FE      LD BC,FEBDh
0D11: 23            INC HL
0D12: 6A            LD L,D
0D13: E4 26 D7      CALL PO,D726h
0D16: 32 61 39      LD (3961h),A
0D19: 32 7F 10      LD (107Fh),A
0D1C: 8E            ADC A,(HL)
0D1D: 28 00         JR Z,loc_0D1F

loc_0D1F:
0D1F: 8E            ADC A,(HL)
0D20: 4F            LD C,A
0D21: 8A            ADC A,D
0D22: 86            ADD A,(HL)
0D23: 13            INC DE

sub_0D24:
0D24: A7            AND A
0D25: E4 86 05      CALL PO,sub_0586
0D28: E6 80         AND 80h
0D2A: 81            ADD A,C
0D2B: 01 26 04      LD BC,0426h
0D2E: CB D0         SET 2,B
0D30: 20 06         JR NZ,loc_0D38
0D32: 81            ADD A,C
0D33: 04            INC B
0D34: 26 02         LD H,02h
0D36: C4 FD E7      CALL NZ,E7FDh
0D39: A0            AND B
0D3A: 4A            LD C,D
0D3B: 26 EB         LD H,EBh
0D3D: 6A            LD L,D
0D3E: E4 26 E5      CALL PO,E526h
0D41: 32 61 39      LD (3961h),A
0D44: 1A            LD A,(DE)
0D45: C4 08 0B      CALL NZ,sub_0B08
0D48: A1            AND C
0D49: 00            NOP
0D4A: 01 04 00      LD BC,0004h
0D4D: 00            NOP
0D4E: 00            NOP
0D4F: 05            DEC B
0D50: 09            ADD HL,BC
0D51: 00            NOP
0D52: 00            NOP
0D53: 00            NOP
0D54: 0A            LD A,(BC)
0D55: 10 00         DJNZ loc_0D57

loc_0D57:
0D57: 00            NOP
0D58: 11 17 00      LD DE,0017h
0D5B: 18 1E         JR loc_0D7B
0D5D: 1F            RRA
0D5E: 22 00 00      LD (0000h),HL
0D61: 23            INC HL
0D62: 24            INC H
0D63: 25            DEC H
0D64: 2C            INC L
0D65: 2D            DEC L
0D66: 34            INC (HL)
0D67: 35            DEC (HL)
0D68: 3C            INC A
0D69: 3D            DEC A
0D6A: 44            LD B,H
0D6B: 45            LD B,L
0D6C: 46            LD B,(HL)
0D6D: 00            NOP
0D6E: 00            NOP
0D6F: 47            LD B,A
0D70: 4A            LD C,D
0D71: 1A            LD A,(DE)
0D72: D6 09         SUB 09h
0D74: 0B            DEC BC
0D75: A1            AND C
0D76: 00            NOP
0D77: 4B            LD C,E
0D78: 52            LD D,D
0D79: 00            NOP
0D7A: 53            LD D,E

loc_0D7B:
0D7B: 5A            LD E,D
0D7C: 5B            LD E,E
0D7D: 62            LD H,D
0D7E: 00            NOP
0D7F: 00            NOP
0D80: 63            LD H,E
0D81: 69            LD L,C
0D82: 00            NOP
0D83: 6A            LD L,D
0D84: 71            LD (HL),C
0D85: 00            NOP
0D86: 00            NOP
0D87: 72            LD (HL),D
0D88: 79            LD A,C
0D89: 00            NOP
0D8A: 7A            LD A,D
0D8B: 81            ADD A,C
0D8C: 00            NOP
0D8D: 82            ADD A,D
0D8E: 89            ADC A,C
0D8F: 00            NOP
0D90: 8A            ADC A,D
0D91: 91            SUB C
0D92: 92            SUB D
0D93: 9A            SBC A,D
0D94: 00            NOP
0D95: 9B            SBC A,E
0D96: 9F            SBC A,A
0D97: 00            NOP
0D98: A0            AND B
0D99: A1            AND C
0D9A: 1A            LD A,(DE)
0D9B: EA 09 0B      JP PE,loc_0B09
0D9E: A1            AND C
0D9F: A2            AND D
0DA0: A8            XOR B
0DA1: 00            NOP
0DA2: 00            NOP
0DA3: A9            XOR C
0DA4: B0            OR B
0DA5: 00            NOP
0DA6: B1            OR C
0DA7: B8            CP B
0DA8: 00            NOP
0DA9: B9            CP C
0DAA: C0            RET NZ
0DAB: 00            NOP
0DAC: C1            POP BC
0DAD: C8            RET Z
0DAE: 00            NOP
0DAF: C9            RET
0DB0: D1            POP DE
0DB1: D2 DA DB      JP NC,DBDAh
0DB4: E3            EX (SP),HL
0DB5: E4 EC ED      CALL PO,EDECh
0DB8: F5            PUSH AF
0DB9: 00            NOP
0DBA: F6 FD         OR FDh
0DBC: 19            ADD HL,DE
0DBD: C8            RET Z
0DBE: 0C            INC C
0DBF: 03            INC BC
0DC0: C3 AD B8      JP B8ADh
0DC3: B9            CP C
0DC4: C4 C5 D0      CALL NZ,D0C5h
0DC7: 19            ADD HL,DE
0DC8: E0            RET PO
0DC9: 0D            DEC C
0DCA: 03            INC BC
0DCB: C3 D1 DD      JP DDD1h
0DCE: DE EA         SBC A,EAh
0DD0: EB            EX DE,HL
0DD1: F7            RST 30h
0DD2: 1B            DEC DE
0DD3: 9E            SBC A,(HL)
0DD4: 02            LD (BC),A
0DD5: 03            INC BC
0DD6: E5            PUSH HL
0DD7: 01 02 07      LD BC,0702h
0DDA: 08            EX AF,AF'
0DDB: 0D            DEC C
0DDC: 0E 1B         LD C,1Bh
0DDE: 9E            SBC A,(HL)
0DDF: 02            LD (BC),A
0DE0: 03            INC BC
0DE1: E5            PUSH HL
0DE2: 03            INC BC
0DE3: 04            INC B
0DE4: 09            ADD HL,BC
0DE5: 0A            LD A,(BC)
0DE6: 0F            RRCA
0DE7: 10 1B         DJNZ loc_0E04
0DE9: 9E            SBC A,(HL)
0DEA: 02            LD (BC),A
0DEB: 03            INC BC
0DEC: E5            PUSH HL
0DED: 05            DEC B
0DEE: 06 0B         LD B,0Bh
0DF0: 0C            INC C
0DF1: 11 12 1B      LD DE,1B12h
0DF4: 5E            LD E,(HL)
0DF5: 02            LD (BC),A
0DF6: 04            INC B
0DF7: E5            PUSH HL
0DF8: 13            INC DE
0DF9: 14            INC D
0DFA: 1D            DEC E
0DFB: 1E 25         LD E,25h
0DFD: 26 2B         LD H,2Bh
0DFF: 2C            INC L
0E00: 1B            DEC DE
0E01: 5C            LD E,H
0E02: 04            INC B
0E03: 04            INC B

loc_0E04:
0E04: E5            PUSH HL
0E05: 15            DEC D
0E06: 18 1F         JR loc_0E27
0E08: 22 00 27      LD (2700h),HL
0E0B: 28 00         JR Z,loc_0E0D

loc_0E0D:
0E0D: 2D            DEC L
0E0E: 30 1B         JR NC,loc_0E2B
0E10: 5C            LD E,H
0E11: 04            INC B
0E12: 04            INC B
0E13: E5            PUSH HL
0E14: 19            ADD HL,DE
0E15: 1C            INC E
0E16: 00            NOP
0E17: 23            INC HL
0E18: 24            INC H
0E19: 00            NOP
0E1A: 00            NOP
0E1B: 29            ADD HL,HL
0E1C: 2A 00 31      LD HL,(3100h)
0E1F: 34            INC (HL)
0E20: 1B            DEC DE
0E21: 5C            LD E,H
0E22: 04            INC B
0E23: 05            DEC B
0E24: E5            PUSH HL
0E25: 3D            DEC A
0E26: 40            LD B,B

loc_0E27:
0E27: 00            NOP
0E28: 49            LD C,C
0E29: 4A            LD C,D
0E2A: 00            NOP

loc_0E2B:
0E2B: 00            NOP
0E2C: 53            LD D,E
0E2D: 54            LD D,H
0E2E: 00            NOP
0E2F: 5D            LD E,L
0E30: 60            LD H,B
0E31: 69            LD L,C
0E32: 6C            LD L,H
0E33: 1B            DEC DE
0E34: 1C            INC E
0E35: 04            INC B
0E36: 06 E5         LD B,E5h
0E38: 35            DEC (HL)
0E39: 38 41         JR C,loc_0E7C
0E3B: 44            LD B,H
0E3C: 4B            LD C,E
0E3D: 4E            LD C,(HL)
0E3E: 55            LD D,L
0E3F: 58            LD E,B
0E40: 61            LD H,C
0E41: 64            LD H,H
0E42: 6D            LD L,L
0E43: 70            LD (HL),B
0E44: 1B            DEC DE
0E45: 1C            INC E
0E46: 04            INC B
0E47: 06 E5         LD B,E5h
0E49: 39            ADD HL,SP
0E4A: 3C            INC A
0E4B: 45            LD B,L
0E4C: 48            LD C,B
0E4D: 4F            LD C,A
0E4E: 52            LD D,D
0E4F: 59            LD E,C
0E50: 5C            LD E,H
0E51: 65            LD H,L
0E52: 68            LD L,B
0E53: 71            LD (HL),C
0E54: 74            LD (HL),H
0E55: 1A            LD A,(DE)
0E56: DA 06 08      JP C,loc_0806
0E59: E3            EX (SP),HL
0E5A: 85            ADD A,L
0E5B: 8A            ADC A,D
0E5C: 8B            ADC A,E
0E5D: 90            SUB B
0E5E: 00            NOP
0E5F: 91            SUB C
0E60: 94            SUB H
0E61: 00            NOP
0E62: 00            NOP
0E63: 95            SUB L
0E64: 98            SBC A,B
0E65: 00            NOP
0E66: 00            NOP
0E67: 99            SBC A,C
0E68: 9C            SBC A,H
0E69: 00            NOP
0E6A: 00            NOP
0E6B: 9D            SBC A,L
0E6C: A0            AND B
0E6D: 00            NOP
0E6E: A1            AND C
0E6F: A6            AND (HL)
0E70: A7            AND A
0E71: AC            XOR H
0E72: 1A            LD A,(DE)
0E73: DA 06 08      JP C,loc_0806
0E76: E4 2F 34      CALL PO,sub_342F
0E79: 3B            DEC SP
0E7A: 40            LD B,B
0E7B: 00            NOP

loc_0E7C:
0E7C: 49            LD C,C
0E7D: 4C            LD C,H
0E7E: 00            NOP
0E7F: 00            NOP
0E80: 55            LD D,L
0E81: 58            LD E,B
0E82: 00            NOP
0E83: 00            NOP
0E84: 59            LD E,C
0E85: 5C            LD E,H
0E86: 00            NOP
0E87: 00            NOP
0E88: 5D            LD E,L
0E89: 60            LD H,B
0E8A: 00            NOP
0E8B: 61            LD H,C
0E8C: 66            LD H,(HL)
0E8D: 67            LD H,A
0E8E: 6C            LD L,H
0E8F: 1A            LD A,(DE)
0E90: 9A            SBC A,D
0E91: 06 0A         LD B,0Ah
0E93: E4 75 7A      CALL PO,sub_7A75
0E96: 83            ADD A,E
0E97: 88            ADC A,B
0E98: 00            NOP
0E99: 8F            ADC A,A
0E9A: 92            SUB D
0E9B: 00            NOP
0E9C: 00            NOP
0E9D: 99            SBC A,C
0E9E: 9C            SBC A,H
0E9F: 00            NOP
0EA0: 00            NOP
0EA1: A3            AND E
0EA2: A6            AND (HL)
0EA3: 00            NOP
0EA4: 00            NOP
0EA5: AD            XOR L
0EA6: B0            OR B
0EA7: 00            NOP
0EA8: 00            NOP
0EA9: B7            OR A
0EAA: BA            CP D
0EAB: 00            NOP
0EAC: C1            POP BC
0EAD: C6 CD         ADD A,CDh
0EAF: D2 DB E0      JP NC,E0DBh
0EB2: 1A            LD A,(DE)
0EB3: 58            LD E,B
0EB4: 08            EX AF,AF'
0EB5: 0C            INC C

sub_0EB6:
0EB6: E4 6D 74      CALL PO,sub_746D
0EB9: 7B            LD A,E
0EBA: 82            ADD A,D
0EBB: 00            NOP
0EBC: 89            ADC A,C
0EBD: 8E            ADC A,(HL)
0EBE: 00            NOP
0EBF: 00            NOP
0EC0: 93            SUB E
0EC1: 98            SBC A,B
0EC2: 00            NOP
0EC3: 00            NOP
0EC4: 9D            SBC A,L
0EC5: A2            AND D
0EC6: 00            NOP
0EC7: 00            NOP
0EC8: A7            AND A
0EC9: AC            XOR H
0ECA: 00            NOP
0ECB: 00            NOP
0ECC: B1            OR C
0ECD: B6            OR (HL)
0ECE: 00            NOP
0ECF: 00            NOP
0ED0: BB            CP E
0ED1: C0            RET NZ
0ED2: 00            NOP
0ED3: 00            NOP
0ED4: C7            RST 00h
0ED5: CC 00 D3      CALL Z,D300h
0ED8: DA E1 E8      JP C,E8E1h
0EDB: E9            JP (HL)
0EDC: F0            RET P
0EDD: 19            ADD HL,DE
0EDE: D6 0A         SUB 0Ah
0EE0: 0F            RRCA
0EE1: E3            EX (SP),HL
0EE2: 01 0A 0B      LD BC,0B0Ah
0EE5: 14            INC D
0EE6: 15            DEC D
0EE7: 1E 00         LD E,00h
0EE9: 1F            RRA
0EEA: 26 00         LD H,00h
0EEC: 00            NOP
0EED: 27            DAA
0EEE: 2E 00         LD L,00h
0EF0: 00            NOP
0EF1: 2F            CPL
0EF2: 36 00         LD (HL),00h
0EF4: 00            NOP
0EF5: 37            SCF
0EF6: 3E 00         LD A,00h
0EF8: 00            NOP
0EF9: 3F            CCF
0EFA: 46            LD B,(HL)
0EFB: 00            NOP
0EFC: 00            NOP
0EFD: 47            LD B,A
0EFE: 4E            LD C,(HL)
0EFF: 00            NOP
0F00: 00            NOP
0F01: 4F            LD C,A
0F02: 56            LD D,(HL)
0F03: 00            NOP
0F04: 00            NOP
0F05: 57            LD D,A
0F06: 5E            LD E,(HL)
0F07: 00            NOP
0F08: 00            NOP
0F09: 5F            LD E,A
0F0A: 66            LD H,(HL)
0F0B: 00            NOP
0F0C: 67            LD H,A
0F0D: 70            LD (HL),B
0F0E: 71            LD (HL),C
0F0F: 7A            LD A,D
0F10: 7B            LD A,E
0F11: 84            ADD A,H
0F12: 07            RLCA

loc_0F13:
0F13: E8            RET PE
0F14: 07            RLCA
0F15: E9            JP (HL)
0F16: 07            RLCA
0F17: E9            JP (HL)
0F18: 07            RLCA
0F19: E9            JP (HL)
0F1A: 07            RLCA
0F1B: E9            JP (HL)
0F1C: 87            ADD A,A
0F1D: E8            RET PE
0F1E: 07            RLCA
0F1F: EA 07 EB      JP PE,EB07h
0F22: 07            RLCA
0F23: EC 87 EC      CALL PE,EC87h
0F26: 87            ADD A,A

loc_0F27:
0F27: EB            EX DE,HL
0F28: 87            ADD A,A
0F29: EA 00 00      JP PE,sub_0000
0F2C: 07            RLCA

loc_0F2D:
0F2D: ED 07         DB EDh,07h
0F2F: EE 87         XOR 87h
0F31: EE 87         XOR 87h
0F33: ED 00         DB EDh,00h
0F35: 00            NOP
0F36: 00            NOP
0F37: 00            NOP
0F38: 07            RLCA
0F39: EF            RST 28h
0F3A: 07            RLCA
0F3B: F0            RET P
0F3C: 87            ADD A,A
0F3D: F0            RET P
0F3E: 87            ADD A,A
0F3F: EF            RST 28h
0F40: 00            NOP
0F41: 00            NOP
0F42: 00            NOP
0F43: 00            NOP
0F44: 07            RLCA
0F45: F1            POP AF

loc_0F46:
0F46: 07            RLCA
0F47: F2 87 F2      JP P,F287h

loc_0F4A:
0F4A: 87            ADD A,A
0F4B: F1            POP AF
0F4C: 00            NOP
0F4D: 00            NOP
0F4E: 00            NOP
0F4F: 00            NOP

loc_0F50:
0F50: 07            RLCA
0F51: F3            DI
0F52: 07            RLCA
0F53: F4 87 F4      CALL P,F487h
0F56: 87            ADD A,A
0F57: F3            DI
0F58: 00            NOP
0F59: 00            NOP
0F5A: 00            NOP
0F5B: 00            NOP
0F5C: 07            RLCA
0F5D: F5            PUSH AF

loc_0F5E:
0F5E: 07            RLCA

loc_0F5F:
0F5F: F6 87         OR 87h
0F61: F6 87         OR 87h
0F63: F5            PUSH AF

loc_0F64:
0F64: 00            NOP
0F65: 00            NOP
0F66: 00            NOP
0F67: 00            NOP
0F68: 07            RLCA

loc_0F69:
0F69: F7            RST 30h
0F6A: 07            RLCA
0F6B: F8            RET M
0F6C: 87            ADD A,A
0F6D: F8            RET M
0F6E: 87            ADD A,A
0F6F: F7            RST 30h
0F70: 00            NOP
0F71: 00            NOP
0F72: 07            RLCA

loc_0F73:
0F73: F9            LD SP,HL
0F74: 07            RLCA
0F75: FA 07 FB      JP M,FB07h
0F78: 87            ADD A,A
0F79: FB            EI
0F7A: 87            ADD A,A
0F7B: FA 87 F9      JP M,F987h
0F7E: 07            RLCA
0F7F: FC 07 FD      CALL M,FD07h
0F82: 07            RLCA
0F83: FD            DB FDh ; prefix (nop)

sub_0F84:
0F84: 07            RLCA
0F85: FD            DB FDh ; prefix (nop)
0F86: 07            RLCA
0F87: FD 87         ADD A,A
0F89: FC 30 92      CALL M,9230h
0F8C: 14            INC D
0F8D: 6C            LD L,H
0F8E: F8            RET M
0F8F: 20 82         JR NZ,loc_0F13
0F91: 14            INC D
0F92: 74            LD (HL),H
0F93: F8            RET M
0F94: 40            LD B,B
0F95: 92            SUB D
0F96: 14            INC D
0F97: 6E            LD L,(HL)
0F98: E8            RET PE
0F99: 20 92         JR NZ,loc_0F2D
0F9B: 14            INC D
0F9C: 70            LD (HL),B
0F9D: E8            RET PE
0F9E: 40            LD B,B
0F9F: 92            SUB D
0FA0: 14            INC D
0FA1: 72            LD (HL),D
0FA2: D8            RET C
0FA3: 30 82         JR NC,loc_0F27
0FA5: 14            INC D
0FA6: 75            LD (HL),L
0FA7: D8            RET C
0FA8: 50            LD D,B
0FA9: 82            ADD A,D
0FAA: 14            INC D
0FAB: 76            HALT
0FAC: C8            RET Z
0FAD: 40            LD B,B
0FAE: 82            ADD A,D
0FAF: 15            DEC D
0FB0: 77            LD (HL),A
0FB1: C8            RET Z
0FB2: 20 92         JR NZ,loc_0F46
0FB4: 15            DEC D
0FB5: 78            LD A,B
0FB6: C8            RET Z
0FB7: 40            LD B,B
0FB8: 92            SUB D
0FB9: 15            DEC D
0FBA: 7A            LD A,D
0FBB: B8            CP B
0FBC: 20 92         JR NZ,loc_0F50
0FBE: 15            DEC D
0FBF: 7C            LD A,H
0FC0: B8            CP B
0FC1: 30 92         JR NC,loc_0F55
0FC3: 15            DEC D
0FC4: 7E            LD A,(HL)
0FC5: A8            XOR B
0FC6: 20 82         JR NZ,loc_0F4A

loc_0FC8:
0FC8: 15            DEC D
0FC9: 89            ADC A,C
0FCA: A8            XOR B
0FCB: 30 92         JR NC,loc_0F5F
0FCD: 15            DEC D
0FCE: 80            ADD A,B
0FCF: 98            SBC A,B
0FD0: 30 92         JR NC,loc_0F64
0FD2: 15            DEC D
0FD3: 82            ADD A,D

loc_0FD4:
0FD4: 88            ADC A,B
0FD5: 30 92         JR NC,loc_0F69
0FD7: 15            DEC D
0FD8: 84            ADD A,H
0FD9: 78            LD A,B
0FDA: 20 82         JR NZ,loc_0F5E
0FDC: 15            DEC D
0FDD: 88            ADC A,B

loc_0FDE:
0FDE: 78            LD A,B
0FDF: 30 92         JR NC,loc_0F73
0FE1: 15            DEC D
0FE2: 86            ADD A,(HL)

loc_0FE3:
0FE3: 68            LD L,B
0FE4: 40            LD B,B
0FE5: 82            ADD A,D
0FE6: 17            RLA
0FE7: F6 58         OR 58h
0FE9: FF            RST 38h
0FEA: FF            RST 38h
0FEB: FF            RST 38h
0FEC: FF            RST 38h
0FED: FF            RST 38h
0FEE: FF            RST 38h
0FEF: FF            RST 38h
0FF0: FF            RST 38h
0FF1: FF            RST 38h
0FF2: FF            RST 38h
0FF3: FF            RST 38h
0FF4: FF            RST 38h
0FF5: FF            RST 38h
0FF6: FF            RST 38h
0FF7: FF            RST 38h
0FF8: FF            RST 38h
0FF9: FF            RST 38h
0FFA: FF            RST 38h
0FFB: FF            RST 38h
0FFC: FF            RST 38h
0FFD: FF            RST 38h

loc_0FFE:
0FFE: FF            RST 38h
0FFF: FF            RST 38h

loc_1000:
1000: 86            ADD A,(HL)

loc_1001:
1001: 02            LD (BC),A
1002: B7            OR A
1003: 00            NOP

sub_1004:
1004: 4D            LD C,L
1005: BD            CP L
1006: 4B            LD C,E
1007: 57            LD D,A

sub_1008:
1008: BD            CP L
1009: 4B            LD C,E

loc_100A:
100A: B3            OR E

loc_100B:
100B: BD            CP L

sub_100C:
100C: 50            LD D,B
100D: 33            INC SP
100E: BD            CP L
100F: 50            LD D,B
1010: 7B            LD A,E
1011: 86            ADD A,(HL)
1012: FF            RST 38h
1013: BD            CP L
1014: FE 23         CP 23h
1016: BD            CP L
1017: 50            LD D,B
1018: 83            ADD A,E
1019: 86            ADD A,(HL)
101A: 40            LD B,B
101B: BD            CP L
101C: FE 23         CP 23h
101E: 86            ADD A,(HL)
101F: F2 BD 54      JP P,loc_54BD

sub_1022:
1022: 29            ADD HL,HL
1023: 86            ADD A,(HL)

sub_1024:
1024: 08            EX AF,AF'
1025: BD            CP L
1026: FE 23         CP 23h
1028: 86            ADD A,(HL)
1029: 20 BD         JR NZ,loc_0FE8
102B: 54            LD D,H
102C: 29            ADD HL,HL
102D: 86            ADD A,(HL)
102E: F0            RET P
102F: BD            CP L
1030: FE 23         CP 23h
1032: 39            ADD HL,SP
1033: 32 7F 8E      LD (8E7Fh),A
1036: 18 C6         JR loc_0FFE
1038: 10 8E         DJNZ loc_0FC8
103A: 1D            DEC E
103B: 06 86         LD B,86h
103D: 1A            LD A,(DE)
103E: A7            AND A

sub_103F:
103F: E4 CC 07      CALL PO,sub_07CC
1042: 19            ADD HL,DE
1043: ED 81         DB EDh,81h
1045: ED A1         CPI
1047: 6A            LD L,D

sub_1048:
1048: E4 26 F8      CALL PO,F826h
104B: 8E            ADC A,(HL)
104C: 18 86         JR loc_0FD4
104E: 10 8E         DJNZ loc_0FDE

loc_1050:
1050: 18 B8         JR loc_100A
1052: 86            ADD A,(HL)
1053: 12            LD (DE),A
1054: A7            AND A
1055: E4 CC 07      CALL PO,sub_07CC
1058: 19            ADD HL,DE
1059: 30 88         JR NC,loc_0FE3
105B: 40            LD B,B

loc_105C:
105C: 31 A8 40      LD SP,40A8h
105F: ED 84         DB EDh,84h
1061: ED A4         DB EDh,A4h
1063: 6A            LD L,D
1064: E4 26 F2      CALL PO,F226h
1067: 8E            ADC A,(HL)
1068: 1D            DEC E
1069: 2C            INC L
106A: 86            ADD A,(HL)
106B: 06 A7         LD B,A7h
106D: E4 CC 07      CALL PO,sub_07CC
1070: 1A            LD A,(DE)
1071: ED 81         DB EDh,81h
1073: 5C            LD E,H
1074: 6A            LD L,D
1075: E4 26 F9      CALL PO,F926h
1078: 32 61 39      LD (3961h),A
107B: 10 8E         DJNZ loc_100B
107D: 51            LD D,C
107E: 76            HALT
107F: BD            CP L
1080: 51            LD D,C

sub_1081:
1081: 02            LD (BC),A
1082: 39            ADD HL,SP
1083: 34            INC (HL)
1084: 7E            LD A,(HL)

loc_1085:
1085: 32 7F CE      LD (CE7Fh),A
1088: 50            LD D,B
1089: EC 8E 50      CALL PE,sub_508E
108C: BC            CP H
108D: 86            ADD A,(HL)
108E: 15            DEC D
108F: A7            AND A
1090: E4 10 AE      CALL PO,AE10h
1093: 81            ADD A,C
1094: BD            CP L
1095: 51            LD D,C
1096: 02            LD (BC),A
1097: A6            AND (HL)
1098: C0            RET NZ
1099: BD            CP L
109A: FE 23         CP 23h
109C: 6A            LD L,D
109D: E4 26 F1      CALL PO,F126h
10A0: 10 AE         DJNZ loc_1050
10A2: 81            ADD A,C
10A3: BD            CP L

sub_10A4:
10A4: 51            LD D,C
10A5: 02            LD (BC),A
10A6: 10 AE         DJNZ loc_1056
10A8: 81            ADD A,C
10A9: BD            CP L
10AA: 51            LD D,C
10AB: 02            LD (BC),A
10AC: 10 AE         DJNZ loc_105C
10AE: 81            ADD A,C
10AF: BD            CP L
10B0: 51            LD D,C
10B1: 02            LD (BC),A
10B2: 86            ADD A,(HL)
10B3: FF            RST 38h
10B4: BD            CP L
10B5: FE 23         CP 23h
10B7: 32 61 35      LD (3561h),A
10BA: FE 39         CP 39h
10BC: 52            LD D,D
10BD: 8B            ADC A,E
10BE: 52            LD D,D
10BF: 96            SUB (HL)
10C0: 52            LD D,D
10C1: A1            AND C
10C2: 52            LD D,D
10C3: B1            OR C
10C4: 52            LD D,D
10C5: BE            CP (HL)
10C6: 52            LD D,D
10C7: C9            RET
10C8: 52            LD D,D
10C9: D4 52 DB      CALL NC,DB52h
10CC: 52            LD D,D
10CD: E6 52         AND 52h
10CF: F3            DI
10D0: 53            LD D,E
10D1: 06 53         LD B,53h
10D3: 0E 53         LD C,53h
10D5: 16 53         LD D,53h
10D7: 1E 53         LD E,53h
10D9: 26 53         LD H,53h
10DB: 2D            DEC L
10DC: 53            LD D,E
10DD: 36 53         LD (HL),53h
10DF: 49            LD C,C
10E0: 53            LD D,E
10E1: 67            LD H,A
10E2: 53            LD D,E
10E3: 8B            ADC A,E
10E4: 53            LD D,E
10E5: B5            OR L
10E6: 53            LD D,E
10E7: DD 54         LD D,IXH
10E9: 08            EX AF,AF'
10EA: 54            LD D,H
10EB: 15            DEC D
10EC: 08            EX AF,AF'
10ED: 10 08         DJNZ loc_10F7
10EF: 08            EX AF,AF'

loc_10F0:
10F0: 08            EX AF,AF'
10F1: 0C            INC C
10F2: 05            DEC B
10F3: 05            DEC B
10F4: 05            DEC B
10F5: 05            DEC B
10F6: 05            DEC B

loc_10F7:
10F7: 05            DEC B
10F8: 05            DEC B
10F9: 05            DEC B
10FA: 05            DEC B
10FB: 05            DEC B
10FC: 06 06         LD B,06h
10FE: 06 06         LD B,06h
1100: 06 06         LD B,06h
1102: 34            INC (HL)
1103: 10 32         DJNZ loc_1137
1105: 74            LD (HL),H
1106: AE            XOR (HL)
1107: A1            AND C
1108: AF            XOR A
1109: 68            LD L,B
110A: A6            AND (HL)
110B: A0            AND B
110C: A7            AND A
110D: E4 A7 61      CALL PO,sub_61A7
1110: A6            AND (HL)
1111: A0            AND B
1112: A7            AND A
1113: 62            LD H,D
1114: A6            AND (HL)
1115: A0            AND B
1116: A7            AND A
1117: 64            LD H,H
1118: 6F            LD L,A
1119: 66            LD H,(HL)
111A: 6F            LD L,A
111B: 67            LD H,A

loc_111C:
111C: E6 A0         AND A0h
111E: E7            RST 20h
111F: 65            LD H,L
1120: 27            DAA
1121: 2E C1         LD L,C1h
1123: FF            RST 38h
1124: 26 08         LD H,08h
1126: E6 A0         AND A0h
1128: C1            POP BC
1129: FF            RST 38h
112A: 27            DAA
112B: E8            RET PE
112C: 31 3F E6      LD SP,E63Fh
112F: 67            LD H,A
1130: 27            DAA
1131: 0E 6C         LD C,6Ch
1133: 63            LD H,E
1134: E6 63         AND 63h
1136: E1            POP HL

loc_1137:
1137: 65            LD H,L
1138: 27            DAA
1139: 16 E7         LD D,E7h
113B: 65            LD H,L
113C: 31 3F 20      LD SP,203Fh
113F: 14            INC D
1140: E6 65         AND 65h
1142: E7            RST 20h
1143: 66            LD H,(HL)
1144: E6 A0         AND A0h
1146: E1            POP HL
1147: 66            LD H,(HL)
1148: 27            DAA
1149: 06 E7         LD B,E7h
114B: 67            LD H,A
114C: 31 3F 20      LD SP,203Fh
114F: 04            INC B
1150: 6F            LD L,A
1151: 66            LD H,(HL)
1152: 6F            LD L,A
1153: 67            LD H,A
1154: E6 65         AND 65h
1156: A6            AND (HL)
1157: 64            LD H,H
1158: ED 81         DB EDh,81h
115A: E7            RST 20h
115B: 63            LD H,E
115C: 6A            LD L,D
115D: 61            LD H,C
115E: 26 BC         LD H,BCh
1160: 6A            LD L,D
1161: 62            LD H,D
1162: 27            DAA
1163: 0D            DEC C
1164: AE            XOR (HL)
1165: 68            LD L,B
1166: 30 88         JR NC,loc_10F0
1168: 40            LD B,B
1169: AF            XOR A
116A: 68            LD L,B
116B: A6            AND (HL)
116C: E4 A7 61      CALL PO,sub_61A7
116F: 20 AB         JR NZ,loc_111C
1171: 32 6C 35      LD (356Ch),A
1174: 10 39         DJNZ loc_11AF
1176: 19            ADD HL,DE
1177: 08            EX AF,AF'
1178: 18 10         JR loc_118A
117A: 45            LD B,L
117B: 75            LD (HL),L
117C: 84            ADD A,H
117D: D4 DB 85      CALL NC,85DBh
1180: 94            SUB H
1181: DD            DB DDh ; prefix (nop)
1182: E4 95 A4      CALL PO,A495h
1185: E6 ED         AND EDh
1187: A5            AND L
1188: AF            XOR A
1189: FF            RST 38h

loc_118A:
118A: FF            RST 38h
118B: 66            LD H,(HL)
118C: 10 11         DJNZ loc_119F
118E: FF            RST 38h
118F: FF            RST 38h
1190: 45            LD B,L
1191: B0            OR B
1192: B2            OR D
1193: EE F5         XOR F5h
1195: B3            OR E
1196: BC            CP H
1197: FF            RST 38h
1198: FF            RST 38h
1199: 66            LD H,(HL)
119A: 12            LD (DE),A
119B: 15            DEC D
119C: FF            RST 38h
119D: FF            RST 38h
119E: 45            LD B,L

loc_119F:
119F: BD            CP L
11A0: BE            CP (HL)
11A1: F6 FD         OR FDh
11A3: BF            CP A
11A4: C7            RST 00h
11A5: FF            RST 38h
11A6: FF            RST 38h
11A7: 66            LD H,(HL)
11A8: 16 1A         LD D,1Ah
11AA: FF            RST 38h
11AB: FF            RST 38h
11AC: 45            LD B,L
11AD: C8            RET Z
11AE: C9            RET

loc_11AF:
11AF: FF            RST 38h
11B0: FF            RST 38h
11B1: 46            LD B,(HL)
11B2: 01 08 FF      LD BC,FF08h
11B5: FF            RST 38h
11B6: 86            ADD A,(HL)
11B7: 77            LD (HL),A
11B8: 78            LD A,B
11B9: FF            RST 38h
11BA: FF            RST 38h
11BB: 45            LD B,L
11BC: CA CD FF      JP Z,FFCDh
11BF: FF            RST 38h
11C0: 86            ADD A,(HL)
11C1: 79            LD A,C
11C2: 7B            LD A,E
11C3: FF            RST 38h
11C4: FF            RST 38h
11C5: 66            LD H,(HL)
11C6: 1B            DEC DE
11C7: 20 FF         JR NZ,loc_11C8
11C9: FF            RST 38h
11CA: 45            LD B,L
11CB: CE CE         ADC A,CEh
11CD: FF            RST 38h
11CE: FF            RST 38h
11CF: 46            LD B,(HL)
11D0: 09            ADD HL,BC
11D1: 09            ADD HL,BC
11D2: FF            RST 38h
11D3: FF            RST 38h
11D4: 86            ADD A,(HL)
11D5: C3 C5 FF      JP FFC5h
11D8: FF            RST 38h
11D9: 46            LD B,(HL)
11DA: 0A            LD A,(BC)
11DB: 0C            INC C
11DC: FF            RST 38h
11DD: FF            RST 38h
11DE: 86            ADD A,(HL)
11DF: C6 C6         ADD A,C6h
11E1: FF            RST 38h
11E2: FF            RST 38h
11E3: 86            ADD A,(HL)
11E4: 7C            LD A,H
11E5: 7D            LD A,L
11E6: FF            RST 38h
11E7: FF            RST 38h
11E8: 45            LD B,L
11E9: CF            RST 08h
11EA: D2 FF FF      JP NC,FFFFh
11ED: 86            ADD A,(HL)
11EE: 7E            LD A,(HL)
11EF: 80            ADD A,B
11F0: FF            RST 38h
11F1: FF            RST 38h
11F2: 66            LD H,(HL)
11F3: 21 26 FF      LD HL,FF26h
11F6: FF            RST 38h
11F7: 45            LD B,L
11F8: D3 D3         OUT (D3h),A
11FA: FF            RST 38h
11FB: FF            RST 38h
11FC: 86            ADD A,(HL)
11FD: C7            RST 00h
11FE: CA FF FF      JP Z,FFFFh
1201: 46            LD B,(HL)
1202: 0D            DEC C
1203: 0F            RRCA
1204: FF            RST 38h
1205: FF            RST 38h
1206: 86            ADD A,(HL)
1207: CB CB         SET 1,E
1209: FF            RST 38h
120A: FF            RST 38h
120B: 86            ADD A,(HL)
120C: 81            ADD A,C
120D: 89            ADC A,C
120E: FF            RST 38h
120F: FF            RST 38h
1210: 66            LD H,(HL)
1211: 27            DAA
1212: 2C            INC L
1213: FF            RST 38h
1214: FF            RST 38h
1215: 45            LD B,L
1216: DC DC FF      CALL C,FFDCh
1219: FF            RST 38h
121A: 86            ADD A,(HL)
121B: CC D3 FF      CALL Z,FFD3h
121E: FF            RST 38h
121F: 86            ADD A,(HL)
1220: 8A            ADC A,D
1221: 92            SUB D
1222: FF            RST 38h
1223: FF            RST 38h
1224: 66            LD H,(HL)
1225: 2D            DEC L
1226: 32 FF FF      LD (FFFFh),A
1229: 45            LD B,L
122A: E5            PUSH HL
122B: E5            PUSH HL
122C: FF            RST 38h
122D: FF            RST 38h
122E: 86            ADD A,(HL)
122F: D4 DB FF      CALL NC,FFDBh
1232: FF            RST 38h
1233: 86            ADD A,(HL)
1234: 93            SUB E
1235: 9A            SBC A,D
1236: FF            RST 38h
1237: FF            RST 38h
1238: 66            LD H,(HL)
1239: 33            INC SP
123A: 3A FF FF      LD A,(FFFFh)
123D: 86            ADD A,(HL)
123E: DC E3 FF      CALL C,FFE3h
1241: FF            RST 38h
1242: 86            ADD A,(HL)
1243: 9B            SBC A,E
1244: A2            AND D
1245: FF            RST 38h
1246: FF            RST 38h
1247: 66            LD H,(HL)
1248: 3B            DEC SP
1249: 42            LD B,D
124A: FF            RST 38h
124B: FF            RST 38h
124C: 86            ADD A,(HL)
124D: E4 EB FF      CALL PO,FFEBh
1250: FF            RST 38h
1251: 86            ADD A,(HL)
1252: A3            AND E
1253: AA            XOR D
1254: FF            RST 38h
1255: FF            RST 38h
1256: 66            LD H,(HL)
1257: 43            LD B,E
1258: 4A            LD C,D
1259: FF            RST 38h
125A: FF            RST 38h
125B: 86            ADD A,(HL)
125C: EC F3 FF      CALL PE,FFF3h
125F: FF            RST 38h
1260: 86            ADD A,(HL)
1261: AB            XOR E
1262: B2            OR D
1263: FF            RST 38h
1264: FF            RST 38h
1265: 66            LD H,(HL)
1266: 4B            LD C,E
1267: 52            LD D,D
1268: FF            RST 38h
1269: FF            RST 38h
126A: 87            ADD A,A
126B: 01 08 FF      LD BC,FF08h
126E: FF            RST 38h
126F: 86            ADD A,(HL)
1270: B3            OR E
1271: BA            CP D
1272: FF            RST 38h
1273: FF            RST 38h
1274: 66            LD H,(HL)
1275: 53            LD D,E
1276: 5A            LD E,D
1277: FF            RST 38h
1278: FF            RST 38h
1279: 87            ADD A,A
127A: 09            ADD HL,BC
127B: 10 FF         DJNZ loc_127C
127D: FF            RST 38h
127E: 86            ADD A,(HL)
127F: BB            CP E
1280: C2 FF FF      JP NZ,FFFFh
1283: 66            LD H,(HL)
1284: 5B            LD E,E
1285: 62            LD H,D
1286: FF            RST 38h
1287: FF            RST 38h
1288: 87            ADD A,A
1289: 11 18 1A      LD DE,1A18h
128C: 9E            SBC A,(HL)
128D: 02            LD (BC),A
128E: 02            LD (BC),A
128F: 66            LD H,(HL)
1290: 1D            DEC E
1291: 1D            DEC E
1292: 63            LD H,E
1293: 63            LD H,E
1294: 66            LD H,(HL)
1295: 67            LD H,A
1296: 1A            LD A,(DE)
1297: 9E            SBC A,(HL)
1298: 02            LD (BC),A
1299: 02            LD (BC),A
129A: 66            LD H,(HL)
129B: 1D            DEC E
129C: 1D            DEC E
129D: 64            LD H,H
129E: 64            LD H,H
129F: 68            LD L,B
12A0: 69            LD L,C
12A1: 1A            LD A,(DE)
12A2: 9C            SBC A,H
12A3: 03            INC BC
12A4: 03            INC BC
12A5: 66            LD H,(HL)
12A6: 1C            INC E
12A7: 1D            DEC E
12A8: 65            LD H,L
12A9: 65            LD H,L
12AA: 22 22 6A      LD (6A22h),HL
12AD: 6B            LD L,E
12AE: 6C            LD L,H
12AF: 6D            LD L,L
12B0: 2A 1A 9C      LD HL,(9C1Ah)
12B3: 03            INC BC
12B4: 03            INC BC
12B5: 66            LD H,(HL)
12B6: 1C            INC E
12B7: 1E 22         LD E,22h
12B9: 24            INC H
12BA: 6E            LD L,(HL)
12BB: 6E            LD L,(HL)
12BC: 29            ADD HL,HL
12BD: 2A 1B 1C      LD HL,(1C1Bh)
12C0: 02            LD (BC),A
12C1: 02            LD (BC),A
12C2: 66            LD H,(HL)
12C3: 28 29         JR Z,loc_12EE
12C5: 2E 2E         LD L,2Eh
12C7: 6F            LD L,A
12C8: 6F            LD L,A
12C9: 1B            DEC DE
12CA: 5E            LD E,(HL)
12CB: 02            LD (BC),A
12CC: 02            LD (BC),A
12CD: 66            LD H,(HL)
12CE: 2F            CPL
12CF: 30 36         JR NC,loc_1307
12D1: 36 70         LD (HL),70h
12D3: 70            LD (HL),B
12D4: 1B            DEC DE
12D5: A0            AND B
12D6: 01 02 66      LD BC,6602h
12D9: 71            LD (HL),C
12DA: 72            LD (HL),D
12DB: 1B            DEC DE
12DC: A0            AND B
12DD: 01 03 66      LD BC,6603h
12E0: 37            SCF
12E1: 37            SCF
12E2: 73            LD (HL),E
12E3: 73            LD (HL),E
12E4: 75            LD (HL),L
12E5: 75            LD (HL),L
12E6: 1B            DEC DE
12E7: E0            RET PO
12E8: 01 04 66      LD BC,6604h
12EB: 3F            CCF
12EC: 3F            CCF
12ED: 47            LD B,A

loc_12EE:
12EE: 47            LD B,A
12EF: 74            LD (HL),H
12F0: 74            LD (HL),H
12F1: 76            HALT
12F2: 76            HALT
12F3: 1C            INC E
12F4: 60            LD H,B
12F5: 01 05 66      LD BC,6605h
12F8: 4F            LD C,A
12F9: 4F            LD C,A
12FA: 57            LD D,A
12FB: 57            LD D,A
12FC: 5F            LD E,A
12FD: 5F            LD E,A
12FE: FF            RST 38h
12FF: FF            RST 38h
1300: 07            RLCA
1301: 19            ADD HL,DE
1302: FF            RST 38h
1303: FF            RST 38h
1304: 57            LD D,A
1305: 20 1D         JR NZ,loc_1324

loc_1307:
1307: 60            LD H,B
1308: 01 03 57      LD BC,5703h
130B: 00            NOP
130C: 00            NOP
130D: 20 1D         JR NZ,loc_132C
130F: E0            RET PO
1310: 01 03 57      LD BC,5703h
1313: 00            NOP
1314: 00            NOP
1315: 20 1E         JR NZ,loc_1335
1317: 60            LD H,B
1318: 01 03 57      LD BC,5703h
131B: 00            NOP
131C: 00            NOP
131D: 20 1E         JR NZ,loc_133D
131F: E0            RET PO
1320: 01 03 A7      LD BC,A703h
1323: 00            NOP

loc_1324:
1324: 00            NOP
1325: 20 1F         JR NZ,loc_1346
1327: 5E            LD E,(HL)
1328: 02            LD (BC),A
1329: 01 A7 21      LD BC,21A7h

loc_132C:
132C: 22 1F 1E      LD (1E1Fh),HL
132F: 02            LD (BC),A
1330: 02            LD (BC),A
1331: A7            AND A
1332: 23            INC HL
1333: 24            INC H
1334: 25            DEC H

loc_1335:
1335: 26 1E         LD H,1Eh
1337: 5C            LD E,H
1338: 04            INC B
1339: 05            DEC B
133A: A7            AND A
133B: 00            NOP
133C: 27            DAA

loc_133D:
133D: 29            ADD HL,HL
133E: 2A 2D 2E      LD HL,(2E2Dh)
1341: 31 32 34      LD SP,3432h
1344: 00            NOP
1345: 00            NOP

loc_1346:
1346: 35            DEC (HL)
1347: 36 00         LD (HL),00h
1349: 1E 16         LD E,16h
134B: 0A            LD A,(BC)
134C: 06 A7         LD B,A7h
134E: 37            SCF
134F: 40            LD B,B
1350: 41            LD B,C
1351: 4A            LD C,D
1352: 4B            LD C,E
1353: 54            LD D,H
1354: 55            LD D,L
1355: 5C            LD E,H
1356: 00            NOP
1357: 00            NOP
1358: 00            NOP
1359: 00            NOP
135A: 5D            LD E,L
135B: 62            LD H,D
135C: 00            NOP
135D: 00            NOP
135E: 00            NOP
135F: 00            NOP
1360: 00            NOP
1361: 00            NOP
1362: 63            LD H,E
1363: 65            LD H,L
1364: 00            NOP
1365: 00            NOP
1366: 00            NOP
1367: 1E 12         LD E,12h
1369: 0E 06         LD C,06h
136B: A7            AND A
136C: 66            LD H,(HL)
136D: 73            LD (HL),E
136E: 00            NOP
136F: 74            LD (HL),H
1370: 80            ADD A,B
1371: 81            ADD A,C
1372: 8E            ADC A,(HL)
1373: 8F            ADC A,A
1374: 9C            SBC A,H
1375: 00            NOP
1376: 9D            SBC A,L
1377: 00            NOP
1378: 9E            SBC A,(HL)
1379: A4            AND H
137A: 00            NOP
137B: A5            AND L
137C: A7            AND A
137D: 00            NOP
137E: 00            NOP
137F: 00            NOP
1380: 00            NOP
1381: 00            NOP
1382: 00            NOP
1383: A8            XOR B
1384: 00            NOP
1385: 00            NOP
1386: 00            NOP
1387: 00            NOP
1388: 00            NOP
1389: 00            NOP
138A: 00            NOP
138B: 1D            DEC E
138C: D2 0F 07      JP NC,loc_070F
138F: A7            AND A
1390: 00            NOP
1391: 00            NOP
1392: A9            XOR C
1393: B0            OR B
1394: 00            NOP
1395: B1            OR C
1396: B3            OR E
1397: 00            NOP
1398: B4            OR H
1399: C1            POP BC
139A: 00            NOP
139B: C2 CF 00      JP NZ,loc_00CF
139E: D0            RET NC
139F: DD            DB DDh ; prefix (nop)
13A0: 00            NOP
13A1: DE EB         SBC A,EBh
13A3: 00            NOP
13A4: EC FA FF      CALL PE,FFFAh
13A7: FF            RST 38h
13A8: A0            AND B
13A9: 6D            LD L,L
13AA: 70            LD (HL),B
13AB: 00            NOP
13AC: 00            NOP
13AD: 71            LD (HL),C
13AE: 73            LD (HL),E
13AF: 00            NOP
13B0: 74            LD (HL),H
13B1: 00            NOP
13B2: 00            NOP
13B3: 00            NOP
13B4: 00            NOP
13B5: 1D            DEC E
13B6: D2 0F 07      JP NC,loc_070F
13B9: A0            AND B
13BA: 00            NOP
13BB: 00            NOP
13BC: 00            NOP
13BD: 00            NOP
13BE: 75            LD (HL),L
13BF: 7A            LD A,D
13C0: 00            NOP
13C1: 00            NOP
13C2: 7B            LD A,E
13C3: 7C            LD A,H
13C4: 00            NOP
13C5: 00            NOP
13C6: 7D            LD A,L
13C7: 89            ADC A,C
13C8: 00            NOP
13C9: 8A            ADC A,D
13CA: 97            SUB A
13CB: 00            NOP
13CC: 98            SBC A,B
13CD: A5            AND L
13CE: 00            NOP
13CF: A6            AND (HL)
13D0: B3            OR E
13D1: 00            NOP
13D2: B4            OR H
13D3: C1            POP BC
13D4: 00            NOP
13D5: 00            NOP
13D6: C2 C9 00      JP NZ,loc_00C9
13D9: CA CC 00      JP Z,loc_00CC
13DC: 00            NOP
13DD: 1D            DEC E
13DE: D2 0E 05      JP NC,loc_050E
13E1: A0            AND B
13E2: 00            NOP
13E3: 00            NOP
13E4: 00            NOP
13E5: 00            NOP
13E6: 00            NOP
13E7: CD CF 00      CALL loc_00CF
13EA: 00            NOP
13EB: 00            NOP
13EC: 00            NOP
13ED: 00            NOP
13EE: D0            RET NC
13EF: 00            NOP
13F0: 00            NOP
13F1: D1            POP DE
13F2: D8            RET C
13F3: 00            NOP
13F4: 00            NOP
13F5: 00            NOP
13F6: D9            EXX
13F7: D9            EXX
13F8: DA DD 00      JP C,loc_00DD
13FB: 00            NOP
13FC: DE E1         SBC A,E1h
13FE: 00            NOP
13FF: E2 E4 E5      JP PO,E5E4h
1402: E9            JP (HL)
1403: 00            NOP
1404: EA F1 F2      JP PE,F2F1h
1407: FF            RST 38h
1408: 1F            RRA
1409: 12            LD (DE),A
140A: 07            RLCA
140B: 02            LD (BC),A

sub_140C:
140C: A4            AND H
140D: 00            NOP
140E: F1            POP AF
140F: F6 FB         OR FBh
1411: FE 00         CP 00h
1413: 00            NOP
1414: FF            RST 38h
1415: 1F            RRA
1416: 20 07         JR NZ,loc_141F
1418: 02            LD (BC),A
1419: A4            AND H
141A: F7            RST 30h
141B: FA 00 00      JP M,sub_0000
141E: 00            NOP

loc_141F:
141F: FF            RST 38h
1420: FF            RST 38h
1421: 51            LD D,C
1422: FE 00         CP 00h
1424: 00            NOP
1425: 00            NOP
1426: 00            NOP
1427: 00            NOP
1428: 00            NOP
1429: F6 00         OR 00h
142B: 26 26         LD H,26h
142D: 07            RLCA
142E: F6 38         OR 38h
1430: 04            INC B
1431: C4 04 27      CALL NZ,sub_2704
1434: 03            INC BC
1435: B7            OR A
1436: 38 0E         JR C,loc_1446
1438: 39            ADD HL,SP
1439: FF            RST 38h
143A: FF            RST 38h
143B: FF            RST 38h
143C: FF            RST 38h
143D: FF            RST 38h
143E: FF            RST 38h
143F: FF            RST 38h
1440: FF            RST 38h
1441: FF            RST 38h
1442: FF            RST 38h
1443: FF            RST 38h
1444: FF            RST 38h
1445: FF            RST 38h

loc_1446:
1446: FF            RST 38h
1447: FF            RST 38h
1448: FF            RST 38h
1449: FF            RST 38h
144A: FF            RST 38h
144B: FF            RST 38h
144C: FF            RST 38h
144D: FF            RST 38h
144E: FF            RST 38h
144F: FF            RST 38h
1450: FF            RST 38h
1451: FF            RST 38h
1452: FF            RST 38h
1453: FF            RST 38h
1454: FF            RST 38h
1455: FF            RST 38h
1456: FF            RST 38h
1457: FF            RST 38h
1458: FF            RST 38h
1459: FF            RST 38h
145A: FF            RST 38h
145B: FF            RST 38h
145C: FF            RST 38h
145D: FF            RST 38h
145E: FF            RST 38h
145F: FF            RST 38h
1460: FF            RST 38h
1461: FF            RST 38h
1462: FF            RST 38h
1463: FF            RST 38h
1464: FF            RST 38h
1465: FF            RST 38h
1466: FF            RST 38h
1467: FF            RST 38h
1468: FF            RST 38h
1469: FF            RST 38h
146A: FF            RST 38h
146B: FF            RST 38h
146C: FF            RST 38h
146D: FF            RST 38h
146E: FF            RST 38h
146F: FF            RST 38h
1470: FF            RST 38h
1471: FF            RST 38h
1472: FF            RST 38h
1473: FF            RST 38h
1474: FF            RST 38h
1475: FF            RST 38h
1476: FF            RST 38h
1477: FF            RST 38h
1478: FF            RST 38h
1479: FF            RST 38h
147A: FF            RST 38h
147B: FF            RST 38h
147C: FF            RST 38h
147D: FF            RST 38h
147E: FF            RST 38h
147F: FF            RST 38h
1480: FF            RST 38h
1481: FF            RST 38h
1482: FF            RST 38h
1483: FF            RST 38h
1484: FF            RST 38h
1485: FF            RST 38h

sub_1486:
1486: FF            RST 38h
1487: FF            RST 38h
1488: FF            RST 38h
1489: FF            RST 38h
148A: FF            RST 38h
148B: FF            RST 38h
148C: FF            RST 38h
148D: FF            RST 38h
148E: FF            RST 38h
148F: FF            RST 38h
1490: FF            RST 38h
1491: FF            RST 38h
1492: FF            RST 38h
1493: FF            RST 38h
1494: FF            RST 38h
1495: FF            RST 38h
1496: FF            RST 38h
1497: FF            RST 38h
1498: FF            RST 38h
1499: FF            RST 38h
149A: FF            RST 38h
149B: FF            RST 38h
149C: FF            RST 38h
149D: FF            RST 38h
149E: FF            RST 38h
149F: FF            RST 38h
14A0: FF            RST 38h
14A1: FF            RST 38h
14A2: FF            RST 38h
14A3: FF            RST 38h
14A4: FF            RST 38h
14A5: FF            RST 38h
14A6: FF            RST 38h
14A7: FF            RST 38h
14A8: FF            RST 38h
14A9: FF            RST 38h
14AA: FF            RST 38h
14AB: FF            RST 38h
14AC: FF            RST 38h
14AD: FF            RST 38h
14AE: FF            RST 38h
14AF: FF            RST 38h
14B0: FF            RST 38h
14B1: FF            RST 38h
14B2: FF            RST 38h
14B3: FF            RST 38h
14B4: FF            RST 38h
14B5: FF            RST 38h
14B6: FF            RST 38h
14B7: FF            RST 38h
14B8: FF            RST 38h
14B9: FF            RST 38h
14BA: FF            RST 38h
14BB: FF            RST 38h
14BC: FF            RST 38h
14BD: FF            RST 38h
14BE: FF            RST 38h
14BF: FF            RST 38h
14C0: FF            RST 38h
14C1: FF            RST 38h
14C2: FF            RST 38h
14C3: FF            RST 38h
14C4: FF            RST 38h
14C5: FF            RST 38h
14C6: FF            RST 38h
14C7: FF            RST 38h
14C8: FF            RST 38h
14C9: FF            RST 38h
14CA: FF            RST 38h
14CB: FF            RST 38h
14CC: FF            RST 38h
14CD: FF            RST 38h
14CE: FF            RST 38h
14CF: FF            RST 38h
14D0: FF            RST 38h
14D1: FF            RST 38h
14D2: FF            RST 38h
14D3: FF            RST 38h
14D4: FF            RST 38h
14D5: FF            RST 38h
14D6: FF            RST 38h
14D7: FF            RST 38h
14D8: FF            RST 38h
14D9: FF            RST 38h
14DA: FF            RST 38h
14DB: FF            RST 38h
14DC: FF            RST 38h
14DD: FF            RST 38h
14DE: FF            RST 38h
14DF: FF            RST 38h
14E0: FF            RST 38h
14E1: FF            RST 38h
14E2: FF            RST 38h
14E3: FF            RST 38h
14E4: FF            RST 38h
14E5: FF            RST 38h
14E6: FF            RST 38h
14E7: FF            RST 38h
14E8: FF            RST 38h
14E9: FF            RST 38h
14EA: FF            RST 38h
14EB: FF            RST 38h
14EC: FF            RST 38h
14ED: FF            RST 38h
14EE: FF            RST 38h
14EF: FF            RST 38h
14F0: FF            RST 38h
14F1: FF            RST 38h
14F2: FF            RST 38h
14F3: FF            RST 38h
14F4: FF            RST 38h
14F5: FF            RST 38h
14F6: FF            RST 38h
14F7: FF            RST 38h
14F8: FF            RST 38h
14F9: FF            RST 38h
14FA: FF            RST 38h
14FB: FF            RST 38h
14FC: FF            RST 38h
14FD: FF            RST 38h
14FE: FF            RST 38h
14FF: FF            RST 38h
1500: FF            RST 38h
1501: FF            RST 38h
1502: FF            RST 38h
1503: FF            RST 38h
1504: FF            RST 38h
1505: FF            RST 38h
1506: FF            RST 38h
1507: FF            RST 38h

sub_1508:
1508: FF            RST 38h
1509: FF            RST 38h
150A: FF            RST 38h
150B: FF            RST 38h
150C: FF            RST 38h
150D: FF            RST 38h
150E: FF            RST 38h
150F: FF            RST 38h
1510: FF            RST 38h
1511: FF            RST 38h
1512: FF            RST 38h
1513: FF            RST 38h
1514: FF            RST 38h
1515: FF            RST 38h
1516: FF            RST 38h
1517: FF            RST 38h
1518: FF            RST 38h
1519: FF            RST 38h
151A: FF            RST 38h
151B: FF            RST 38h
151C: FF            RST 38h
151D: FF            RST 38h
151E: FF            RST 38h
151F: FF            RST 38h
1520: FF            RST 38h
1521: FF            RST 38h
1522: FF            RST 38h
1523: FF            RST 38h
1524: FF            RST 38h
1525: FF            RST 38h
1526: FF            RST 38h
1527: FF            RST 38h
1528: FF            RST 38h
1529: FF            RST 38h
152A: FF            RST 38h
152B: FF            RST 38h
152C: FF            RST 38h
152D: FF            RST 38h
152E: FF            RST 38h
152F: FF            RST 38h
1530: FF            RST 38h
1531: FF            RST 38h
1532: FF            RST 38h
1533: FF            RST 38h
1534: FF            RST 38h
1535: FF            RST 38h
1536: FF            RST 38h
1537: FF            RST 38h
1538: FF            RST 38h
1539: FF            RST 38h
153A: FF            RST 38h
153B: FF            RST 38h
153C: FF            RST 38h
153D: FF            RST 38h
153E: FF            RST 38h
153F: FF            RST 38h
1540: FF            RST 38h
1541: FF            RST 38h
1542: FF            RST 38h
1543: FF            RST 38h
1544: FF            RST 38h
1545: FF            RST 38h
1546: FF            RST 38h
1547: FF            RST 38h
1548: FF            RST 38h
1549: FF            RST 38h
154A: FF            RST 38h
154B: FF            RST 38h
154C: FF            RST 38h
154D: FF            RST 38h
154E: FF            RST 38h
154F: FF            RST 38h
1550: FF            RST 38h
1551: FF            RST 38h
1552: FF            RST 38h
1553: FF            RST 38h
1554: FF            RST 38h
1555: FF            RST 38h
1556: FF            RST 38h
1557: FF            RST 38h
1558: FF            RST 38h
1559: FF            RST 38h
155A: FF            RST 38h
155B: FF            RST 38h
155C: FF            RST 38h
155D: FF            RST 38h
155E: FF            RST 38h
155F: FF            RST 38h
1560: FF            RST 38h
1561: FF            RST 38h
1562: FF            RST 38h
1563: FF            RST 38h
1564: FF            RST 38h
1565: FF            RST 38h
1566: FF            RST 38h
1567: FF            RST 38h
1568: FF            RST 38h
1569: FF            RST 38h
156A: FF            RST 38h
156B: FF            RST 38h
156C: FF            RST 38h
156D: FF            RST 38h
156E: FF            RST 38h
156F: FF            RST 38h
1570: FF            RST 38h
1571: FF            RST 38h
1572: FF            RST 38h
1573: FF            RST 38h
1574: FF            RST 38h
1575: FF            RST 38h
1576: FF            RST 38h
1577: FF            RST 38h
1578: FF            RST 38h
1579: FF            RST 38h
157A: FF            RST 38h
157B: FF            RST 38h
157C: FF            RST 38h
157D: FF            RST 38h
157E: FF            RST 38h
157F: FF            RST 38h
1580: FF            RST 38h
1581: FF            RST 38h
1582: FF            RST 38h
1583: FF            RST 38h
1584: FF            RST 38h
1585: FF            RST 38h
1586: FF            RST 38h
1587: FF            RST 38h
1588: FF            RST 38h
1589: FF            RST 38h
158A: FF            RST 38h
158B: FF            RST 38h
158C: FF            RST 38h
158D: FF            RST 38h
158E: FF            RST 38h
158F: FF            RST 38h
1590: FF            RST 38h
1591: FF            RST 38h
1592: FF            RST 38h
1593: FF            RST 38h
1594: FF            RST 38h
1595: FF            RST 38h
1596: FF            RST 38h
1597: FF            RST 38h
1598: FF            RST 38h
1599: FF            RST 38h
159A: FF            RST 38h
159B: FF            RST 38h
159C: FF            RST 38h
159D: FF            RST 38h
159E: FF            RST 38h
159F: FF            RST 38h
15A0: FF            RST 38h
15A1: FF            RST 38h
15A2: FF            RST 38h
15A3: FF            RST 38h
15A4: FF            RST 38h
15A5: FF            RST 38h
15A6: FF            RST 38h
15A7: FF            RST 38h
15A8: FF            RST 38h
15A9: FF            RST 38h
15AA: FF            RST 38h
15AB: FF            RST 38h
15AC: FF            RST 38h
15AD: FF            RST 38h
15AE: FF            RST 38h
15AF: FF            RST 38h
15B0: FF            RST 38h
15B1: FF            RST 38h
15B2: FF            RST 38h
15B3: FF            RST 38h
15B4: FF            RST 38h
15B5: FF            RST 38h
15B6: FF            RST 38h
15B7: FF            RST 38h
15B8: FF            RST 38h
15B9: FF            RST 38h
15BA: FF            RST 38h
15BB: FF            RST 38h
15BC: FF            RST 38h
15BD: FF            RST 38h
15BE: FF            RST 38h
15BF: FF            RST 38h
15C0: FF            RST 38h
15C1: FF            RST 38h
15C2: FF            RST 38h
15C3: FF            RST 38h
15C4: FF            RST 38h
15C5: FF            RST 38h
15C6: FF            RST 38h
15C7: FF            RST 38h
15C8: FF            RST 38h
15C9: FF            RST 38h
15CA: FF            RST 38h
15CB: FF            RST 38h
15CC: FF            RST 38h
15CD: FF            RST 38h
15CE: FF            RST 38h
15CF: FF            RST 38h
15D0: FF            RST 38h
15D1: FF            RST 38h
15D2: FF            RST 38h
15D3: FF            RST 38h
15D4: FF            RST 38h
15D5: FF            RST 38h
15D6: FF            RST 38h
15D7: FF            RST 38h
15D8: FF            RST 38h
15D9: FF            RST 38h
15DA: FF            RST 38h
15DB: FF            RST 38h
15DC: FF            RST 38h
15DD: FF            RST 38h
15DE: FF            RST 38h
15DF: FF            RST 38h
15E0: FF            RST 38h
15E1: FF            RST 38h
15E2: FF            RST 38h
15E3: FF            RST 38h
15E4: FF            RST 38h
15E5: FF            RST 38h
15E6: FF            RST 38h
15E7: FF            RST 38h
15E8: FF            RST 38h
15E9: FF            RST 38h
15EA: FF            RST 38h
15EB: FF            RST 38h
15EC: FF            RST 38h
15ED: FF            RST 38h
15EE: FF            RST 38h
15EF: FF            RST 38h
15F0: FF            RST 38h
15F1: FF            RST 38h
15F2: FF            RST 38h
15F3: FF            RST 38h
15F4: FF            RST 38h
15F5: FF            RST 38h
15F6: FF            RST 38h
15F7: FF            RST 38h
15F8: FF            RST 38h
15F9: FF            RST 38h
15FA: FF            RST 38h
15FB: FF            RST 38h
15FC: FF            RST 38h
15FD: FF            RST 38h
15FE: FF            RST 38h
15FF: FF            RST 38h
1600: FF            RST 38h
1601: FF            RST 38h
1602: FF            RST 38h
1603: FF            RST 38h
1604: FF            RST 38h
1605: FF            RST 38h
1606: FF            RST 38h
1607: FF            RST 38h
1608: FF            RST 38h
1609: FF            RST 38h
160A: FF            RST 38h
160B: FF            RST 38h

sub_160C:
160C: FF            RST 38h
160D: FF            RST 38h
160E: FF            RST 38h
160F: FF            RST 38h
1610: FF            RST 38h
1611: FF            RST 38h
1612: FF            RST 38h
1613: FF            RST 38h
1614: FF            RST 38h
1615: FF            RST 38h
1616: FF            RST 38h
1617: FF            RST 38h
1618: FF            RST 38h
1619: FF            RST 38h
161A: FF            RST 38h
161B: FF            RST 38h
161C: FF            RST 38h
161D: FF            RST 38h
161E: FF            RST 38h
161F: FF            RST 38h
1620: FF            RST 38h
1621: FF            RST 38h
1622: FF            RST 38h
1623: FF            RST 38h
1624: FF            RST 38h

sub_1625:
1625: FF            RST 38h
1626: FF            RST 38h
1627: FF            RST 38h
1628: FF            RST 38h
1629: FF            RST 38h
162A: FF            RST 38h
162B: FF            RST 38h
162C: FF            RST 38h
162D: FF            RST 38h
162E: FF            RST 38h
162F: FF            RST 38h
1630: FF            RST 38h
1631: FF            RST 38h
1632: FF            RST 38h
1633: FF            RST 38h
1634: FF            RST 38h
1635: FF            RST 38h
1636: FF            RST 38h
1637: FF            RST 38h
1638: FF            RST 38h
1639: FF            RST 38h
163A: FF            RST 38h
163B: FF            RST 38h
163C: FF            RST 38h
163D: FF            RST 38h
163E: FF            RST 38h
163F: FF            RST 38h
1640: FF            RST 38h
1641: FF            RST 38h
1642: FF            RST 38h
1643: FF            RST 38h
1644: FF            RST 38h
1645: FF            RST 38h
1646: FF            RST 38h
1647: FF            RST 38h
1648: FF            RST 38h
1649: FF            RST 38h
164A: FF            RST 38h
164B: FF            RST 38h
164C: FF            RST 38h
164D: FF            RST 38h
164E: FF            RST 38h
164F: FF            RST 38h
1650: FF            RST 38h
1651: FF            RST 38h
1652: FF            RST 38h
1653: FF            RST 38h
1654: FF            RST 38h
1655: FF            RST 38h
1656: FF            RST 38h
1657: FF            RST 38h
1658: FF            RST 38h
1659: FF            RST 38h
165A: FF            RST 38h
165B: FF            RST 38h
165C: FF            RST 38h
165D: FF            RST 38h
165E: FF            RST 38h
165F: FF            RST 38h
1660: FF            RST 38h
1661: FF            RST 38h
1662: FF            RST 38h
1663: FF            RST 38h
1664: FF            RST 38h
1665: FF            RST 38h
1666: FF            RST 38h
1667: FF            RST 38h
1668: FF            RST 38h
1669: FF            RST 38h
166A: FF            RST 38h
166B: FF            RST 38h
166C: FF            RST 38h
166D: FF            RST 38h
166E: FF            RST 38h
166F: FF            RST 38h
1670: FF            RST 38h
1671: FF            RST 38h
1672: FF            RST 38h
1673: FF            RST 38h
1674: FF            RST 38h
1675: FF            RST 38h
1676: FF            RST 38h
1677: FF            RST 38h
1678: FF            RST 38h
1679: FF            RST 38h
167A: FF            RST 38h
167B: FF            RST 38h
167C: FF            RST 38h
167D: FF            RST 38h
167E: FF            RST 38h
167F: FF            RST 38h
1680: FF            RST 38h
1681: FF            RST 38h
1682: FF            RST 38h
1683: FF            RST 38h
1684: FF            RST 38h
1685: FF            RST 38h
1686: FF            RST 38h
1687: FF            RST 38h
1688: FF            RST 38h
1689: FF            RST 38h
168A: FF            RST 38h
168B: FF            RST 38h
168C: FF            RST 38h
168D: FF            RST 38h
168E: FF            RST 38h
168F: FF            RST 38h
1690: FF            RST 38h
1691: FF            RST 38h
1692: FF            RST 38h
1693: FF            RST 38h
1694: FF            RST 38h
1695: FF            RST 38h
1696: FF            RST 38h
1697: FF            RST 38h
1698: FF            RST 38h
1699: FF            RST 38h
169A: FF            RST 38h
169B: FF            RST 38h
169C: FF            RST 38h
169D: FF            RST 38h
169E: FF            RST 38h
169F: FF            RST 38h
16A0: FF            RST 38h
16A1: FF            RST 38h
16A2: FF            RST 38h
16A3: FF            RST 38h
16A4: FF            RST 38h
16A5: FF            RST 38h
16A6: FF            RST 38h
16A7: FF            RST 38h
16A8: FF            RST 38h
16A9: FF            RST 38h
16AA: FF            RST 38h
16AB: FF            RST 38h
16AC: FF            RST 38h
16AD: FF            RST 38h
16AE: FF            RST 38h
16AF: FF            RST 38h
16B0: FF            RST 38h
16B1: FF            RST 38h
16B2: FF            RST 38h
16B3: FF            RST 38h
16B4: FF            RST 38h
16B5: FF            RST 38h
16B6: FF            RST 38h
16B7: FF            RST 38h
16B8: FF            RST 38h
16B9: FF            RST 38h
16BA: FF            RST 38h
16BB: FF            RST 38h
16BC: FF            RST 38h
16BD: FF            RST 38h
16BE: FF            RST 38h
16BF: FF            RST 38h
16C0: FF            RST 38h
16C1: FF            RST 38h
16C2: FF            RST 38h
16C3: FF            RST 38h
16C4: FF            RST 38h
16C5: FF            RST 38h
16C6: FF            RST 38h
16C7: FF            RST 38h
16C8: FF            RST 38h
16C9: FF            RST 38h
16CA: FF            RST 38h
16CB: FF            RST 38h
16CC: FF            RST 38h
16CD: FF            RST 38h
16CE: FF            RST 38h
16CF: FF            RST 38h
16D0: FF            RST 38h
16D1: FF            RST 38h
16D2: FF            RST 38h
16D3: FF            RST 38h
16D4: FF            RST 38h
16D5: FF            RST 38h
16D6: FF            RST 38h
16D7: FF            RST 38h
16D8: FF            RST 38h
16D9: FF            RST 38h
16DA: FF            RST 38h
16DB: FF            RST 38h
16DC: FF            RST 38h
16DD: FF            RST 38h
16DE: FF            RST 38h
16DF: FF            RST 38h
16E0: FF            RST 38h
16E1: FF            RST 38h
16E2: FF            RST 38h
16E3: FF            RST 38h
16E4: FF            RST 38h
16E5: FF            RST 38h
16E6: FF            RST 38h
16E7: FF            RST 38h
16E8: FF            RST 38h
16E9: FF            RST 38h
16EA: FF            RST 38h
16EB: FF            RST 38h
16EC: FF            RST 38h
16ED: FF            RST 38h
16EE: FF            RST 38h
16EF: FF            RST 38h
16F0: FF            RST 38h
16F1: FF            RST 38h
16F2: FF            RST 38h
16F3: FF            RST 38h
16F4: FF            RST 38h
16F5: FF            RST 38h
16F6: FF            RST 38h
16F7: FF            RST 38h
16F8: FF            RST 38h
16F9: FF            RST 38h
16FA: FF            RST 38h
16FB: FF            RST 38h
16FC: FF            RST 38h
16FD: FF            RST 38h
16FE: FF            RST 38h
16FF: FF            RST 38h
1700: FF            RST 38h
1701: FF            RST 38h
1702: FF            RST 38h
1703: FF            RST 38h
1704: FF            RST 38h
1705: FF            RST 38h
1706: FF            RST 38h
1707: FF            RST 38h
1708: FF            RST 38h
1709: FF            RST 38h
170A: FF            RST 38h
170B: FF            RST 38h
170C: FF            RST 38h
170D: FF            RST 38h
170E: FF            RST 38h
170F: FF            RST 38h
1710: FF            RST 38h
1711: FF            RST 38h
1712: FF            RST 38h
1713: FF            RST 38h
1714: FF            RST 38h
1715: FF            RST 38h
1716: FF            RST 38h
1717: FF            RST 38h
1718: FF            RST 38h
1719: FF            RST 38h
171A: FF            RST 38h
171B: FF            RST 38h
171C: FF            RST 38h
171D: FF            RST 38h
171E: FF            RST 38h
171F: FF            RST 38h
1720: FF            RST 38h
1721: FF            RST 38h
1722: FF            RST 38h
1723: FF            RST 38h
1724: FF            RST 38h
1725: FF            RST 38h
1726: FF            RST 38h
1727: FF            RST 38h
1728: FF            RST 38h
1729: FF            RST 38h
172A: FF            RST 38h
172B: FF            RST 38h
172C: FF            RST 38h
172D: FF            RST 38h
172E: FF            RST 38h
172F: FF            RST 38h
1730: FF            RST 38h
1731: FF            RST 38h
1732: FF            RST 38h
1733: FF            RST 38h
1734: FF            RST 38h
1735: FF            RST 38h
1736: FF            RST 38h
1737: FF            RST 38h
1738: FF            RST 38h
1739: FF            RST 38h
173A: FF            RST 38h
173B: FF            RST 38h
173C: FF            RST 38h
173D: FF            RST 38h
173E: FF            RST 38h
173F: FF            RST 38h
1740: FF            RST 38h
1741: FF            RST 38h
1742: FF            RST 38h
1743: FF            RST 38h
1744: FF            RST 38h
1745: FF            RST 38h
1746: FF            RST 38h
1747: FF            RST 38h
1748: FF            RST 38h
1749: FF            RST 38h
174A: FF            RST 38h
174B: FF            RST 38h
174C: FF            RST 38h
174D: FF            RST 38h
174E: FF            RST 38h
174F: FF            RST 38h
1750: FF            RST 38h
1751: FF            RST 38h
1752: FF            RST 38h
1753: FF            RST 38h
1754: FF            RST 38h
1755: FF            RST 38h
1756: FF            RST 38h
1757: FF            RST 38h
1758: FF            RST 38h
1759: FF            RST 38h
175A: FF            RST 38h
175B: FF            RST 38h
175C: FF            RST 38h
175D: FF            RST 38h
175E: FF            RST 38h
175F: FF            RST 38h
1760: FF            RST 38h
1761: FF            RST 38h
1762: FF            RST 38h
1763: FF            RST 38h
1764: FF            RST 38h
1765: FF            RST 38h
1766: FF            RST 38h
1767: FF            RST 38h
1768: FF            RST 38h
1769: FF            RST 38h
176A: FF            RST 38h
176B: FF            RST 38h
176C: FF            RST 38h
176D: FF            RST 38h
176E: FF            RST 38h
176F: FF            RST 38h
1770: FF            RST 38h
1771: FF            RST 38h
1772: FF            RST 38h
1773: FF            RST 38h
1774: FF            RST 38h
1775: FF            RST 38h
1776: FF            RST 38h
1777: FF            RST 38h
1778: FF            RST 38h
1779: FF            RST 38h
177A: FF            RST 38h
177B: FF            RST 38h
177C: FF            RST 38h
177D: FF            RST 38h
177E: FF            RST 38h
177F: FF            RST 38h
1780: FF            RST 38h
1781: FF            RST 38h
1782: FF            RST 38h
1783: FF            RST 38h
1784: FF            RST 38h
1785: FF            RST 38h
1786: FF            RST 38h
1787: FF            RST 38h
1788: FF            RST 38h
1789: FF            RST 38h
178A: FF            RST 38h
178B: FF            RST 38h
178C: FF            RST 38h
178D: FF            RST 38h
178E: FF            RST 38h
178F: FF            RST 38h
1790: FF            RST 38h
1791: FF            RST 38h
1792: FF            RST 38h
1793: FF            RST 38h
1794: FF            RST 38h
1795: FF            RST 38h
1796: FF            RST 38h
1797: FF            RST 38h
1798: FF            RST 38h
1799: FF            RST 38h
179A: FF            RST 38h
179B: FF            RST 38h
179C: FF            RST 38h
179D: FF            RST 38h
179E: FF            RST 38h
179F: FF            RST 38h
17A0: FF            RST 38h
17A1: FF            RST 38h
17A2: FF            RST 38h
17A3: FF            RST 38h
17A4: FF            RST 38h

loc_17A5:
17A5: FF            RST 38h
17A6: FF            RST 38h
17A7: FF            RST 38h
17A8: FF            RST 38h
17A9: FF            RST 38h
17AA: FF            RST 38h
17AB: FF            RST 38h

loc_17AC:
17AC: FF            RST 38h
17AD: FF            RST 38h
17AE: FF            RST 38h
17AF: FF            RST 38h
17B0: FF            RST 38h
17B1: FF            RST 38h
17B2: FF            RST 38h
17B3: FF            RST 38h
17B4: FF            RST 38h
17B5: FF            RST 38h
17B6: FF            RST 38h
17B7: FF            RST 38h
17B8: FF            RST 38h
17B9: FF            RST 38h
17BA: FF            RST 38h
17BB: FF            RST 38h
17BC: FF            RST 38h
17BD: FF            RST 38h
17BE: FF            RST 38h
17BF: FF            RST 38h
17C0: FF            RST 38h
17C1: FF            RST 38h
17C2: FF            RST 38h
17C3: FF            RST 38h
17C4: FF            RST 38h
17C5: FF            RST 38h
17C6: FF            RST 38h
17C7: FF            RST 38h
17C8: FF            RST 38h
17C9: FF            RST 38h
17CA: FF            RST 38h
17CB: FF            RST 38h
17CC: FF            RST 38h
17CD: FF            RST 38h
17CE: FF            RST 38h
17CF: FF            RST 38h
17D0: FF            RST 38h
17D1: FF            RST 38h
17D2: FF            RST 38h
17D3: FF            RST 38h
17D4: FF            RST 38h
17D5: FF            RST 38h
17D6: FF            RST 38h
17D7: FF            RST 38h
17D8: FF            RST 38h
17D9: FF            RST 38h
17DA: FF            RST 38h
17DB: FF            RST 38h
17DC: FF            RST 38h
17DD: FF            RST 38h
17DE: FF            RST 38h
17DF: FF            RST 38h
17E0: FF            RST 38h
17E1: FF            RST 38h
17E2: FF            RST 38h
17E3: FF            RST 38h

sub_17E4:
17E4: FF            RST 38h
17E5: FF            RST 38h
17E6: FF            RST 38h
17E7: FF            RST 38h
17E8: FF            RST 38h
17E9: FF            RST 38h
17EA: FF            RST 38h
17EB: FF            RST 38h
17EC: FF            RST 38h
17ED: FF            RST 38h
17EE: FF            RST 38h

loc_17EF:
17EF: FF            RST 38h
17F0: FF            RST 38h
17F1: FF            RST 38h
17F2: FF            RST 38h
17F3: FF            RST 38h
17F4: FF            RST 38h
17F5: FF            RST 38h
17F6: FF            RST 38h
17F7: FF            RST 38h
17F8: FF            RST 38h
17F9: FF            RST 38h
17FA: FF            RST 38h

loc_17FB:
17FB: FF            RST 38h
17FC: FF            RST 38h
17FD: FF            RST 38h
17FE: FF            RST 38h
17FF: FF            RST 38h
1800: 34            INC (HL)
1801: 3E 86         LD A,86h
1803: 03            INC BC
1804: B7            OR A
1805: 00            NOP
1806: 4D            LD C,L
1807: 86            ADD A,(HL)
1808: 12            LD (DE),A
1809: B7            OR A
180A: 00            NOP
180B: 4F            LD C,A

sub_180C:
180C: BD            CP L
180D: 4B            LD C,E
180E: 57            LD D,A
180F: BD            CP L
1810: 4B            LD C,E
1811: B3            OR E
1812: BD            CP L
1813: FD            DB FDh ; prefix (nop)
1814: F3            DI
1815: 10 8E         DJNZ loc_17A5
1817: 58            LD E,B
1818: 67            LD H,A
1819: BD            CP L
181A: 51            LD D,C
181B: 02            LD (BC),A
181C: 10 8E         DJNZ loc_17AC
181E: 58            LD E,B
181F: EF            RST 28h
1820: BD            CP L
1821: 58            LD E,B
1822: 3E 10         LD A,10h
1824: 8E            ADC A,(HL)
1825: 59            LD E,C
1826: 0B            DEC BC
1827: BD            CP L
1828: 58            LD E,B
1829: 3E 10         LD A,10h
182B: 8E            ADC A,(HL)
182C: 59            LD E,C
182D: 21 BD 58      LD HL,58BDh
1830: 3E 86         LD A,86h
1832: FF            RST 38h
1833: BD            CP L
1834: FE 23         CP 23h
1836: BD            CP L
1837: 4B            LD C,E
1838: 57            LD D,A
1839: BD            CP L
183A: 4B            LD C,E
183B: B3            OR E
183C: 35            DEC (HL)
183D: BE            CP (HL)
183E: 34            INC (HL)
183F: 30 AE         JR NC,loc_17EF
1841: A1            AND C

loc_1842:
1842: E6 A0         AND A0h
1844: C1            POP BC
1845: FF            RST 38h
1846: 27            DAA
1847: 1D            DEC E
1848: C1            POP BC
1849: 0E 27         LD C,27h
184B: 0D            DEC C
184C: C1            POP BC
184D: 20 27         JR NZ,loc_1876
184F: 0C            INC C
1850: 25            DEC H
1851: 0D            DEC C
1852: 4F            LD C,A
1853: C0            RET NZ
1854: 41            LD B,C
1855: CB 1B         RR E
1857: 20 08         JR NZ,loc_1861
1859: 4F            LD C,A
185A: 20 05         JR NZ,loc_1861
185C: 5F            LD E,A
185D: 20 02         JR NZ,loc_1861
185F: 86            ADD A,(HL)
1860: 24            INC H

loc_1861:
1861: ED 81         DB EDh,81h
1863: 20 DD         JR NZ,loc_1842
1865: 35            DEC (HL)
1866: B0            OR B
1867: 18 92         JR loc_17FB
1869: 10 16         DJNZ loc_1881
186B: E2 00 00      JP PO,sub_0000
186E: 00            NOP
186F: 00            NOP
1870: 00            NOP
1871: 00            NOP
1872: 00            NOP
1873: 01 02 00      LD BC,0002h

loc_1876:
1876: 00            NOP
1877: 00            NOP
1878: 00 00 00 00...DB 00h ; x9

loc_1881:
1881: 03            INC BC
1882: 08            EX AF,AF'
1883: 00 00 00 00...DB 00h ; x8
188B: 09            ADD HL,BC
188C: 12            LD (DE),A
188D: 00            NOP

sub_188E:
188E: 00            NOP
188F: 00            NOP
1890: 00            NOP
1891: 00            NOP
1892: 13            INC DE
1893: 1E 00         LD E,00h
1895: 00            NOP
1896: 00            NOP
1897: 00            NOP
1898: 1F            RRA
1899: 2A 00 00      LD HL,(0000h)
189C: 00            NOP
189D: 2B            DEC HL
189E: 38 00         JR C,loc_18A0

loc_18A0:
18A0: 00            NOP
18A1: 39            ADD HL,SP
18A2: 46            LD B,(HL)
18A3: 00            NOP
18A4: 47            LD B,A
18A5: 56            LD D,(HL)
18A6: 57            LD D,A
18A7: 66            LD H,(HL)
18A8: 67            LD H,A
18A9: 76            HALT
18AA: 77            LD (HL),A
18AB: 86            ADD A,(HL)
18AC: 87            ADD A,A
18AD: 96            SUB (HL)
18AE: 97            SUB A
18AF: A6            AND (HL)
18B0: A7            AND A
18B1: B6            OR (HL)
18B2: B7            OR A
18B3: C6 00         ADD A,00h
18B5: C7            RST 00h
18B6: D4 00 00      CALL NC,sub_0000
18B9: D5            PUSH DE
18BA: E2 00 00      JP PO,sub_0000
18BD: 00            NOP
18BE: E3            EX (SP),HL
18BF: EE 00         XOR 00h
18C1: 00            NOP
18C2: 00            NOP
18C3: 00            NOP
18C4: EF            RST 28h
18C5: FA 00 00      JP M,sub_0000
18C8: FF            RST 38h
18C9: FF            RST 38h
18CA: E4 00 00      CALL PO,sub_0000
18CD: 00            NOP
18CE: 01 0A 00      LD BC,000Ah
18D1: 00            NOP
18D2: 00            NOP
18D3: 00            NOP
18D4: 00            NOP
18D5: 00            NOP
18D6: 00            NOP
18D7: 00            NOP
18D8: 0B            DEC BC
18D9: 10 00         DJNZ loc_18DB

loc_18DB:
18DB: 00            NOP
18DC: 00            NOP
18DD: 00 00 00 00...DB 00h ; x9
18E6: 11 12 00      LD DE,0012h
18E9: 00            NOP
18EA: 00            NOP
18EB: 00            NOP
18EC: 00            NOP
18ED: 00            NOP
18EE: 00            NOP
18EF: 1E 06         LD E,06h
18F1: 13            INC DE
18F2: 57            LD D,A
18F3: 49            LD C,C
18F4: 4E            LD C,(HL)
18F5: 4E            LD C,(HL)
18F6: 45            LD B,L
18F7: 52            LD D,D
18F8: 53            LD D,E
18F9: 20 44         JR NZ,loc_193F
18FB: 4F            LD C,A
18FC: 4E            LD C,(HL)
18FD: 15            DEC D
18FE: 54            LD D,H
18FF: 20 55         JR NZ,loc_1956
1901: 53            LD D,E
1902: 45            LD B,L
1903: 20 44         JR NZ,loc_1949
1905: 52            LD D,D
1906: 55            LD D,L
1907: 47            LD B,A
1908: 53            LD D,E
1909: 14            INC D
190A: FF            RST 38h
190B: 1E 8A         LD E,8Ah
190D: 57            LD D,A
190E: 49            LD C,C
190F: 4C            LD C,H
1910: 4C            LD C,H
1911: 49            LD C,C
1912: 41            LD B,C
1913: 4D            LD C,L
1914: 20 53         JR NZ,loc_1969
1916: 0E 53         LD C,53h
1918: 45            LD B,L
1919: 53            LD D,E
191A: 53            LD D,E
191B: 49            LD C,C
191C: 4F            LD C,A
191D: 4E            LD C,(HL)
191E: 53            LD D,E
191F: 16 FF         LD D,FFh
1921: 1F            RRA
1922: 1C            INC E
1923: 44            LD B,H
1924: 49            LD C,C
1925: 52            LD D,D
1926: 45            LD B,L
1927: 43            LD B,E
1928: 54            LD D,H
1929: 4F            LD C,A
192A: 52            LD D,D
192B: 16 46         LD D,46h
192D: 42            LD B,D
192E: 49            LD C,C
192F: FF FF FF FF...DB FFh ; x16

loc_193F:
193F: FF            RST 38h
1940: FF            RST 38h
1941: FF FF FF FF...DB FFh ; x8

loc_1949:
1949: FF            RST 38h
194A: FF            RST 38h
194B: FF FF FF FF...DB FFh ; x11

loc_1956:
1956: FF            RST 38h
1957: FF            RST 38h
1958: FF FF FF FF...DB FFh ; x17

loc_1969:
1969: FF            RST 38h
196A: FF            RST 38h
196B: FF FF FF FF...DB FFh ; x34

loc_198D:
198D: FF            RST 38h
198E: FF            RST 38h
198F: FF FF FF FF...DB FFh ; x242

sub_1A81:
1A81: FF            RST 38h
1A82: FF            RST 38h
1A83: FF FF FF FF...DB FFh ; x392

sub_1C0B:
1C0B: FF            RST 38h
1C0C: FF            RST 38h
1C0D: FF FF FF FF...DB FFh ; x238

loc_1CFB:
1CFB: FF            RST 38h
1CFC: FF            RST 38h
1CFD: FF FF FF FF...DB FFh ; x139

sub_1D88:
1D88: FF            RST 38h
1D89: FF            RST 38h
1D8A: FF FF FF FF...DB FFh ; x385

sub_1F0B:
1F0B: FF            RST 38h
1F0C: FF            RST 38h
1F0D: FF            RST 38h
1F0E: FF            RST 38h

sub_1F0F:
1F0F: FF            RST 38h
1F10: FF            RST 38h
1F11: FF FF FF FF...DB FFh ; x133

loc_1F96:
1F96: FF            RST 38h
1F97: FF            RST 38h
1F98: FF            RST 38h
1F99: FF            RST 38h
1F9A: FF            RST 38h
1F9B: FF            RST 38h
1F9C: FF            RST 38h
1F9D: FF            RST 38h
1F9E: FF            RST 38h

loc_1F9F:
1F9F: FF            RST 38h
1FA0: FF            RST 38h
1FA1: FF            RST 38h
1FA2: FF            RST 38h
1FA3: FF            RST 38h
1FA4: FF            RST 38h
1FA5: FF            RST 38h
1FA6: FF            RST 38h
1FA7: FF            RST 38h

sub_1FA8:
1FA8: FF            RST 38h
1FA9: FF            RST 38h
1FAA: FF FF FF FF...DB FFh ; x17

loc_1FBB:
1FBB: FF            RST 38h
1FBC: FF            RST 38h
1FBD: FF            RST 38h
1FBE: FF            RST 38h
1FBF: FF            RST 38h
1FC0: FF            RST 38h
1FC1: FF            RST 38h
1FC2: FF            RST 38h
1FC3: FF            RST 38h

loc_1FC4:
1FC4: FF            RST 38h
1FC5: FF            RST 38h
1FC6: FF FF FF FF...DB FFh ; x58

loc_2000:
2000: 7E            LD A,(HL)

sub_2001:
2001: 60            LD H,B
2002: 06 7E         LD B,7Eh
2004: 60            LD H,B
2005: 2B            DEC HL
2006: 10 8E         DJNZ loc_1F96
2008: 60            LD H,B
2009: 4D            LD C,L
200A: 8C            ADC A,H
200B: 03            INC BC
200C: A2            AND D
200D: 27            DAA
200E: 04            INC B
200F: 10 8E         DJNZ loc_1F9F
2011: 64            LD H,H
2012: 4D            LD C,L
2013: E6 88         AND 88h
2015: 5D            LD E,L
2016: A6            AND (HL)
2017: 88            ADC A,B
2018: 33            INC SP
2019: 58            LD E,B
201A: 49            LD C,C
201B: 31 AB A6      LD SP,A6ABh
201E: A4            AND H
201F: A7            AND A
2020: 88            ADC A,B
2021: 5A            LD E,D
2022: A6            AND (HL)
2023: 21 A7 88      LD HL,88A7h
2026: 5C            LD E,H
2027: 6C            LD L,H
2028: 88            ADC A,B
2029: 5D            LD E,L
202A: 39            ADD HL,SP
202B: 10 8E         DJNZ loc_1FBB
202D: 70            LD (HL),B
202E: 00            NOP
202F: 8C            ADC A,H
2030: 03            INC BC
2031: A2            AND D
2032: 27            DAA
2033: 04            INC B
2034: 10 8E         DJNZ loc_1FC4
2036: 78            LD A,B
2037: 00            NOP
2038: E6 88         AND 88h
203A: 5D            LD E,L
203B: A6            AND (HL)
203C: 88            ADC A,B
203D: 33            INC SP
203E: 58            LD E,B
203F: 49            LD C,C
2040: 31 AB A6      LD SP,A6ABh
2043: 88            ADC A,B
2044: 5B            LD E,E
2045: A7            AND A
2046: A0            AND B
2047: A6            AND (HL)
2048: 88            ADC A,B
2049: 5C            LD E,H
204A: A7            AND A
204B: A4            AND H
204C: 39            ADD HL,SP
204D: 00            NOP
204E: 0E 08         LD C,08h
2050: 0D            DEC C
2051: 00            NOP
2052: 02            LD (BC),A
2053: 04            INC B
2054: 05            DEC B
2055: 00            NOP
2056: 01 10 06      LD BC,0610h
2059: 00            NOP
205A: 03            INC BC
205B: 10 05         DJNZ loc_2062
205D: 00            NOP
205E: 02            LD (BC),A
205F: 10 04         DJNZ loc_2065
2061: 00            NOP

loc_2062:
2062: 03            INC BC
2063: 10 04         DJNZ loc_2069

loc_2065:
2065: 00            NOP
2066: 03            INC BC
2067: 10 06         DJNZ loc_206F

loc_2069:
2069: 00            NOP
206A: 00            NOP
206B: 04            INC B
206C: 16 00         LD D,00h
206E: 04            INC B

loc_206F:
206F: 20 0D         JR NZ,loc_207E
2071: 30 19         JR NC,loc_208C
2073: 10 04         DJNZ loc_2079
2075: 00            NOP
2076: 0F            RRCA
2077: 08            EX AF,AF'
2078: 07            RLCA

loc_2079:
2079: 48            LD C,B
207A: 06 08         LD B,08h
207C: 03            INC BC
207D: 48            LD C,B

loc_207E:
207E: 00            NOP
207F: 40            LD B,B
2080: 04            INC B
2081: 00            NOP
2082: 02            LD (BC),A
2083: 40            LD B,B
2084: 05            DEC B
2085: 00            NOP

sub_2086:
2086: 03            INC BC
2087: 40            LD B,B
2088: 05            DEC B
2089: 00            NOP
208A: 32 02 07      LD (0702h),A

loc_208D:
208D: 42            LD B,D
208E: 02            LD (BC),A
208F: 48            LD C,B
2090: 07            RLCA
2091: 08            EX AF,AF'
2092: 01 48 07      LD BC,0748h
2095: 08            EX AF,AF'
2096: 03            INC BC
2097: 48            LD C,B
2098: 06 08         LD B,08h
209A: 01 48 06      LD BC,0648h
209D: 08            EX AF,AF'
209E: 02            LD (BC),A
209F: 48            LD C,B
20A0: 00            NOP
20A1: 40            LD B,B
20A2: 05            DEC B
20A3: 00            NOP
20A4: 01 40 06      LD BC,0640h
20A7: 00            NOP
20A8: 03            INC BC
20A9: 40            LD B,B
20AA: 13            INC DE
20AB: 00            NOP
20AC: 05            DEC B
20AD: 10 05         DJNZ loc_20B4
20AF: 00            NOP
20B0: 02            LD (BC),A
20B1: 10 05         DJNZ loc_20B8
20B3: 00            NOP

loc_20B4:
20B4: 03            INC BC
20B5: 10 04         DJNZ loc_20BB
20B7: 00            NOP

loc_20B8:
20B8: 07            RLCA
20B9: 20 06         JR NZ,loc_20C1

loc_20BB:
20BB: 00            NOP
20BC: 02            LD (BC),A
20BD: 20 06         JR NZ,loc_20C5
20BF: 00            NOP
20C0: 16 01         LD D,01h
20C2: 13            INC DE
20C3: 09            ADD HL,BC
20C4: 00            NOP

loc_20C5:
20C5: 08            EX AF,AF'
20C6: 02            LD (BC),A
20C7: 48            LD C,B
20C8: 05            DEC B
20C9: 00            NOP
20CA: 04            INC B
20CB: 40            LD B,B
20CC: 05            DEC B
20CD: 00            NOP
20CE: 03            INC BC
20CF: 40            LD B,B
20D0: 05            DEC B
20D1: 00            NOP
20D2: 02            LD (BC),A
20D3: 40            LD B,B
20D4: 05            DEC B
20D5: 00            NOP
20D6: 0C            INC C
20D7: 10 08         DJNZ loc_20E1
20D9: 00            NOP
20DA: 15            DEC D
20DB: 10 09         DJNZ loc_20E6
20DD: 00            NOP
20DE: 12            LD (DE),A
20DF: 20 0B         JR NZ,loc_20EC

loc_20E1:
20E1: 00            NOP
20E2: 11 40 10      LD DE,1040h
20E5: 00            NOP

loc_20E6:
20E6: 08            EX AF,AF'
20E7: 08            EX AF,AF'
20E8: 10 00         DJNZ loc_20EA

loc_20EA:
20EA: 05            DEC B
20EB: 10 07         DJNZ loc_20F4
20ED: 14            INC D
20EE: 00            NOP
20EF: 04            INC B
20F0: 0A            LD A,(BC)
20F1: 14            INC D
20F2: 06 04         LD B,04h

loc_20F4:
20F4: 0D            DEC C
20F5: 00            NOP
20F6: 00            NOP
20F7: 10 06         DJNZ loc_20FF
20F9: 00            NOP
20FA: 04            INC B
20FB: 10 06         DJNZ loc_2103
20FD: 00            NOP
20FE: 05            DEC B

loc_20FF:
20FF: 10 05         DJNZ loc_2106
2101: 00            NOP
2102: 04            INC B

loc_2103:
2103: 10 05         DJNZ loc_210A
2105: 00            NOP

loc_2106:
2106: 04            INC B
2107: 20 10         JR NZ,loc_2119
2109: 30 1E         JR NC,loc_2129
210B: 20 01         JR NZ,loc_210E
210D: 00            NOP

loc_210E:
210E: 09            ADD HL,BC
210F: 02            LD (BC),A
2110: 0E 20         LD C,20h
2112: 0D            DEC C
2113: 30 16         JR NC,loc_212B
2115: 10 00         DJNZ loc_2117

loc_2117:
2117: 00            NOP
2118: 0C            INC C

loc_2119:
2119: 08            EX AF,AF'
211A: 24            INC H
211B: 00            NOP
211C: 03            INC BC
211D: 40            LD B,B
211E: 00            NOP
211F: 60            LD H,B
2120: 1E 40         LD E,40h
2122: 07            RLCA
2123: 00            NOP
2124: 11 05 14      LD DE,1405h
2127: 00            NOP
2128: 0B            DEC BC

loc_2129:
2129: 08            EX AF,AF'
212A: 05            DEC B

loc_212B:
212B: 28 00         JR Z,loc_212D

loc_212D:
212D: 30 1D         JR NC,loc_214C
212F: 20 00         JR NZ,loc_2131

loc_2131:
2131: 00            NOP
2132: 0E 08         LD C,08h
2134: 05            DEC B
2135: 0A            LD A,(BC)
2136: 04            INC B
2137: 08            EX AF,AF'
2138: 01 00 20      LD BC,2000h
213B: 60            LD H,B
213C: 26 20         LD H,20h
213E: 00            NOP
213F: 00            NOP
2140: 09            ADD HL,BC
2141: 02            LD (BC),A
2142: 02            LD (BC),A
2143: 06 0C         LD B,0Ch
2145: 04            INC B
2146: 05            DEC B
2147: 14            INC D
2148: 06 04         LD B,04h
214A: 04            INC B
214B: 15            DEC D

loc_214C:
214C: 06 05         LD B,05h
214E: 03            INC BC
214F: 15            DEC D
2150: 05            DEC B
2151: 05            DEC B
2152: 03            INC BC
2153: 15            DEC D
2154: 03            INC BC
2155: 14            INC D
2156: 01 04 01      LD BC,0104h
2159: 00            NOP
215A: 02            LD (BC),A
215B: 10 05         DJNZ loc_2162
215D: 00            NOP
215E: 03            INC BC
215F: 10 06         DJNZ loc_2167
2161: 00            NOP

loc_2162:
2162: 02            LD (BC),A
2163: 10 06         DJNZ loc_216B
2165: 00            NOP
2166: 05            DEC B

loc_2167:
2167: 10 06         DJNZ loc_216F
2169: 00            NOP
216A: 15            DEC D

loc_216B:
216B: 20 0A         JR NZ,loc_2177
216D: 30 35         JR NC,loc_21A4

loc_216F:
216F: 10 03         DJNZ loc_2174
2171: 00            NOP
2172: 00            NOP
2173: 02            LD (BC),A

loc_2174:
2174: 01 40 07      LD BC,0740h

loc_2177:
2177: 00            NOP
2178: 02            LD (BC),A
2179: 40            LD B,B
217A: 06 00         LD B,00h
217C: 03            INC BC
217D: 40            LD B,B
217E: 07            RLCA
217F: 00            NOP
2180: 06 40         LD B,40h
2182: 06 00         LD B,00h
2184: 11 08 08      LD DE,0808h
2187: 28 01         JR Z,loc_218A
2189: 20 08         JR NZ,loc_2193
218B: 60            LD H,B
218C: 22 00 09      LD (0900h),HL
218F: 04            INC B
2190: 02            LD (BC),A
2191: 05            DEC B
2192: 15            DEC D

loc_2193:
2193: 04            INC B
2194: 00            NOP
2195: 00            NOP
2196: 09            ADD HL,BC
2197: 20 08         JR NZ,loc_21A1
2199: 00            NOP
219A: 0B            DEC BC
219B: 10 0A         DJNZ loc_21A7
219D: 30 0C         JR NC,loc_21AB
219F: 10 00         DJNZ loc_21A1

loc_21A1:
21A1: 00            NOP
21A2: 0D            DEC C
21A3: 08            EX AF,AF'

loc_21A4:
21A4: 05            DEC B
21A5: 48            LD C,B
21A6: 03            INC BC

loc_21A7:
21A7: 40            LD B,B
21A8: 02            LD (BC),A
21A9: 00            NOP
21AA: 01 40 05      LD BC,0540h
21AD: 00            NOP
21AE: 03            INC BC
21AF: 40            LD B,B
21B0: 05            DEC B
21B1: 00            NOP
21B2: 03            INC BC
21B3: 40            LD B,B
21B4: 06 00         LD B,00h
21B6: 02            LD (BC),A
21B7: 40            LD B,B
21B8: 08            EX AF,AF'
21B9: 00            NOP
21BA: 02            LD (BC),A
21BB: 04            INC B
21BC: 03            INC BC
21BD: 14            INC D
21BE: 05            DEC B
21BF: 00            NOP
21C0: 05            DEC B
21C1: 10 03         DJNZ loc_21C6
21C3: 00            NOP
21C4: 03            INC BC
21C5: 00            NOP

loc_21C6:
21C6: 00            NOP
21C7: 00            NOP
21C8: 00            NOP
21C9: 00            NOP
21CA: 00            NOP
21CB: 00            NOP
21CC: 00            NOP
21CD: 10 05         DJNZ loc_21D4
21CF: 00            NOP
21D0: 04            INC B
21D1: 10 05         DJNZ loc_21D8
21D3: 00            NOP

loc_21D4:
21D4: 02            LD (BC),A
21D5: 10 06         DJNZ loc_21DD
21D7: 00            NOP

loc_21D8:
21D8: 03            INC BC
21D9: 10 06         DJNZ loc_21E1
21DB: 00            NOP
21DC: 02            LD (BC),A

loc_21DD:
21DD: 10 06         DJNZ loc_21E5
21DF: 00            NOP
21E0: 04            INC B

loc_21E1:
21E1: 10 06         DJNZ loc_21E9
21E3: 00            NOP
21E4: 04            INC B

loc_21E5:
21E5: 10 0D         DJNZ loc_21F4
21E7: 00            NOP
21E8: 12            LD (DE),A

loc_21E9:
21E9: 04            INC B
21EA: 08            EX AF,AF'
21EB: 10 04         DJNZ loc_21F1
21ED: 00            NOP
21EE: 04            INC B
21EF: 10 06         DJNZ loc_21F7

loc_21F1:
21F1: 00            NOP
21F2: 07            RLCA
21F3: 08            EX AF,AF'

loc_21F4:
21F4: 12            LD (DE),A
21F5: 48            LD C,B
21F6: 01 00 0B      LD BC,0B00h
21F9: 00            NOP
21FA: 06 04         LD B,04h
21FC: 09            ADD HL,BC
21FD: 44            LD B,H
21FE: 03            INC BC
21FF: 40            LD B,B
2200: 07            RLCA
2201: 00            NOP
2202: 1A            LD A,(DE)
2203: 40            LD B,B
2204: 09            ADD HL,BC
2205: 00            NOP
2206: 17            RLA
2207: 20 0E         JR NZ,loc_2217
2209: 60            LD H,B
220A: 14            INC D
220B: 40            LD B,B

sub_220C:
220C: 00            NOP
220D: 00            NOP
220E: 11 08 17      LD DE,1708h
2211: 09            ADD HL,BC
2212: 01 01 02      LD BC,0201h
2215: 05            DEC B
2216: 04            INC B

loc_2217:
2217: 04            INC B
2218: 02            LD (BC),A
2219: 06 03         LD B,03h
221B: 12            LD (DE),A
221C: 00            NOP
221D: 10 05         DJNZ loc_2224
221F: 00            NOP
2220: 04            INC B
2221: 10 06         DJNZ loc_2229
2223: 00            NOP

loc_2224:
2224: 04            INC B
2225: 10 06         DJNZ loc_222D
2227: 00            NOP
2228: 08            EX AF,AF'

loc_2229:
2229: 08            EX AF,AF'
222A: 07            RLCA
222B: 48            LD C,B
222C: 05            DEC B

loc_222D:
222D: 40            LD B,B
222E: 02            LD (BC),A
222F: 00            NOP
2230: 02            LD (BC),A
2231: 40            LD B,B
2232: 07            RLCA
2233: 00            NOP
2234: 04            INC B
2235: 40            LD B,B
2236: 07            RLCA
2237: 00            NOP
2238: 06 40         LD B,40h
223A: 08            EX AF,AF'
223B: 00            NOP
223C: 03            INC BC
223D: 40            LD B,B
223E: 08            EX AF,AF'
223F: 00            NOP
2240: 04            INC B
2241: 40            LD B,B
2242: 07            RLCA
2243: 00            NOP
2244: 15            DEC D
2245: 08            EX AF,AF'
2246: 09            ADD HL,BC
2247: 48            LD C,B
2248: 00            NOP
2249: 42            LD B,D
224A: 0B            DEC BC
224B: 02            LD (BC),A
224C: 06 00         LD B,00h
224E: 12            LD (DE),A
224F: 08            EX AF,AF'
2250: 00            NOP
2251: 48            LD C,B
2252: 0D            DEC C
2253: 40            LD B,B
2254: 00            NOP
2255: 00            NOP
2256: 2E 08         LD L,08h
2258: 06 18         LD B,18h
225A: 01 10 0B      LD BC,0B10h
225D: 00            NOP
225E: 12            LD (DE),A
225F: 02            LD (BC),A
2260: 00            NOP
2261: 06 0A         LD B,0Ah
2263: 02            LD (BC),A
2264: 00            NOP
2265: 00            NOP
2266: 07            RLCA
2267: 40            LD B,B
2268: 0A            LD A,(BC)
2269: 00            NOP
226A: 0D            DEC C
226B: 04            INC B
226C: 00            NOP
226D: 05            DEC B
226E: 08            EX AF,AF'
226F: 45            LD B,L
2270: 07            RLCA
2271: 44            LD B,H
2272: 01 40 02      LD BC,0240h
2275: 00            NOP
2276: 04            INC B
2277: 08            EX AF,AF'
2278: 01 48 07      LD BC,0748h
227B: 08            EX AF,AF'
227C: 03            INC BC
227D: 40            LD B,B
227E: 07            RLCA
227F: 00            NOP
2280: 02            LD (BC),A
2281: 40            LD B,B
2282: 06 00         LD B,00h
2284: 02            LD (BC),A
2285: 40            LD B,B
2286: 09            ADD HL,BC
2287: 50            LD D,B
2288: 0B            DEC BC
2289: 10 05         DJNZ loc_2290
228B: 00            NOP
228C: 20 02         JR NZ,loc_2290
228E: 0D            DEC C
228F: 00            NOP

loc_2290:
2290: 02            LD (BC),A
2291: 20 0C         JR NZ,loc_229F
2293: 30 0C         JR NC,loc_22A1
2295: 20 0B         JR NZ,loc_22A2
2297: 00            NOP
2298: 13            INC DE
2299: 01 25 00      LD BC,0025h
229C: 02            LD (BC),A
229D: 20 0F         JR NZ,loc_22AE

loc_229F:
229F: 30 1E         JR NC,loc_22BF

loc_22A1:
22A1: 20 00         JR NZ,loc_22A3

loc_22A3:
22A3: 00            NOP
22A4: 05            DEC B
22A5: 06 17         LD B,17h
22A7: 12            LD (DE),A
22A8: 01 10 14      LD BC,1410h
22AB: 00            NOP
22AC: 27            DAA
22AD: 04            INC B

loc_22AE:
22AE: 17            RLA
22AF: 14            INC D
22B0: 06 10         LD B,10h
22B2: 09            ADD HL,BC
22B3: 00            NOP
22B4: 05            DEC B
22B5: 08            EX AF,AF'
22B6: 04            INC B
22B7: 48            LD C,B
22B8: 07            RLCA
22B9: 40            LD B,B
22BA: 07            RLCA
22BB: 00            NOP
22BC: 3E 08         LD A,08h
22BE: 03            INC BC

loc_22BF:
22BF: 0A            LD A,(BC)
22C0: 0B            DEC BC
22C1: 02            LD (BC),A
22C2: 02            LD (BC),A
22C3: 06 00         LD B,00h
22C5: 04            INC B
22C6: 07            RLCA
22C7: 05            DEC B
22C8: 0E 01         LD C,01h
22CA: 03            INC BC
22CB: 00            NOP
22CC: 1B            DEC DE
22CD: 02            LD (BC),A
22CE: 04            INC B
22CF: 22 04 20      LD (2004h),HL
22D2: 09            ADD HL,BC
22D3: 30 33         JR NC,loc_2308
22D5: 10 00         DJNZ loc_22D7

loc_22D7:
22D7: 00            NOP
22D8: 0F            RRCA
22D9: 08            EX AF,AF'
22DA: 14            INC D
22DB: 48            LD C,B
22DC: 07            RLCA
22DD: 40            LD B,B
22DE: 01 00 12      LD BC,1200h
22E1: 40            LD B,B
22E2: 0F            RRCA
22E3: 00            NOP
22E4: 27            DAA
22E5: 04            INC B
22E6: 01 05 26      LD BC,2605h
22E9: 01 0D 21      LD BC,210Dh
22EC: 0D            DEC C
22ED: 31 15 21      LD SP,2115h
22F0: 00            NOP
22F1: 00            NOP
22F2: 29            ADD HL,HL
22F3: 08            EX AF,AF'
22F4: 02            LD (BC),A
22F5: 0A            LD A,(BC)
22F6: 00            NOP
22F7: 2A 05 22      LD HL,(2205h)
22FA: 03            INC BC
22FB: 26 00         LD H,00h
22FD: 22 00 20      LD (2000h),HL
2300: 00            NOP
2301: 30 1E         JR NC,loc_2321
2303: 20 00         JR NZ,loc_2305

loc_2305:
2305: 00            NOP
2306: 0B            DEC BC
2307: 04            INC B

loc_2308:
2308: 01 06 05      LD BC,0506h
230B: 22 01 20      LD (2001h),HL
230E: 0B            DEC BC
230F: 30 35         JR NC,loc_2346
2311: 20 00         JR NZ,loc_2313

loc_2313:
2313: 00            NOP
2314: 24            INC H
2315: 20 0D         JR NZ,loc_2324
2317: 30 19         JR NC,loc_2332
2319: 20 02         JR NZ,loc_231D
231B: 00            NOP
231C: 36 20         LD (HL),20h
231E: 0F            RRCA
231F: 30 35         JR NC,loc_2356

loc_2321:
2321: 00            NOP
2322: 1A            LD A,(DE)
2323: 20 0F         JR NZ,loc_2334
2325: 30 14         JR NC,loc_233B
2327: 20 00         JR NZ,loc_2329

loc_2329:
2329: 00            NOP
232A: 19            ADD HL,DE
232B: 02            LD (BC),A
232C: 04            INC B
232D: 42            LD B,D
232E: 04            INC B
232F: 02            LD (BC),A
2330: 01 00 02      LD BC,0200h
2333: 40            LD B,B

loc_2334:
2334: 03            INC BC
2335: 00            NOP
2336: 04            INC B
2337: 40            LD B,B
2338: 04            INC B
2339: 00            NOP
233A: 03            INC BC

loc_233B:
233B: 40            LD B,B
233C: 04            INC B
233D: 00            NOP
233E: 02            LD (BC),A
233F: 40            LD B,B
2340: 05            DEC B
2341: 00            NOP
2342: 0A            LD A,(BC)
2343: 08            EX AF,AF'
2344: 06 28         LD B,28h

loc_2346:
2346: 04            INC B
2347: 08            EX AF,AF'
2348: 03            INC BC
2349: 28 05         JR Z,loc_2350
234B: 08            EX AF,AF'
234C: 12            LD (DE),A
234D: 00            NOP
234E: 0F            RRCA
234F: 10 04         DJNZ loc_2355
2351: 00            NOP
2352: 04            INC B
2353: 10 03         DJNZ loc_2358

loc_2355:
2355: 00            NOP

loc_2356:
2356: 04            INC B
2357: 10 03         DJNZ loc_235C
2359: 00            NOP
235A: 00            NOP
235B: 00            NOP

loc_235C:
235C: 00            NOP
235D: 00            NOP
235E: 00            NOP
235F: 00            NOP
2360: 00            NOP
2361: 00            NOP
2362: 00            NOP
2363: 00            NOP
2364: 00            NOP
2365: 00            NOP
2366: 00            NOP
2367: 00            NOP
2368: 00            NOP
2369: 00            NOP
236A: 00            NOP
236B: 00            NOP
236C: 00            NOP
236D: 00            NOP
236E: 00            NOP
236F: 00            NOP
2370: 00            NOP
2371: 00            NOP
2372: 00            NOP
2373: 00            NOP
2374: 00            NOP
2375: 00            NOP
2376: 00            NOP
2377: 00            NOP
2378: 00            NOP
2379: 00            NOP
237A: 00            NOP
237B: 00            NOP
237C: 00            NOP
237D: 00            NOP
237E: 00            NOP
237F: 00            NOP
2380: 00            NOP
2381: 00            NOP
2382: 00            NOP
2383: 00            NOP
2384: 00            NOP
2385: 00            NOP
2386: 00            NOP
2387: 00            NOP
2388: 00            NOP
2389: 00            NOP
238A: 00            NOP
238B: 00            NOP
238C: 00            NOP
238D: 00            NOP
238E: 00            NOP
238F: 00            NOP
2390: 00            NOP
2391: 00            NOP
2392: 00            NOP
2393: 00            NOP
2394: 00            NOP
2395: 00            NOP
2396: 00            NOP
2397: 00            NOP
2398: 00            NOP
2399: 00            NOP
239A: 00            NOP
239B: 00            NOP
239C: 00            NOP
239D: 00            NOP
239E: 00            NOP
239F: 00            NOP
23A0: 00            NOP
23A1: 00            NOP
23A2: 00            NOP
23A3: 00            NOP
23A4: 00            NOP
23A5: 00            NOP
23A6: 00            NOP
23A7: 00            NOP
23A8: 00            NOP
23A9: 00            NOP
23AA: 00            NOP
23AB: 00            NOP
23AC: 00            NOP
23AD: 00            NOP
23AE: 00            NOP
23AF: 00            NOP
23B0: 00            NOP
23B1: 00            NOP
23B2: 00            NOP
23B3: 00            NOP
23B4: 00            NOP
23B5: 00            NOP
23B6: 00            NOP
23B7: 00            NOP
23B8: 00            NOP
23B9: 00            NOP
23BA: 00            NOP
23BB: 00            NOP
23BC: 00            NOP
23BD: 00            NOP
23BE: 00            NOP
23BF: 00            NOP
23C0: 00            NOP
23C1: 00            NOP
23C2: 00            NOP
23C3: 00            NOP
23C4: 00            NOP
23C5: 00            NOP
23C6: 00            NOP
23C7: 00            NOP
23C8: 00            NOP
23C9: 00            NOP
23CA: 00            NOP
23CB: 00            NOP
23CC: 00            NOP
23CD: 00            NOP
23CE: 00            NOP
23CF: 00            NOP
23D0: 00            NOP
23D1: 00            NOP
23D2: 00            NOP
23D3: 00            NOP
23D4: 00            NOP
23D5: 00            NOP
23D6: 00            NOP
23D7: 00            NOP
23D8: 00            NOP
23D9: 00            NOP
23DA: 00            NOP
23DB: 00            NOP
23DC: 00            NOP
23DD: 00            NOP
23DE: 00            NOP
23DF: 00            NOP
23E0: 00            NOP
23E1: 00            NOP
23E2: 00            NOP
23E3: 00            NOP
23E4: 00            NOP
23E5: 00            NOP
23E6: 00            NOP
23E7: 00            NOP
23E8: 00            NOP
23E9: 00            NOP
23EA: 00            NOP
23EB: 00            NOP
23EC: 00            NOP
23ED: 00            NOP
23EE: 00            NOP
23EF: 00            NOP
23F0: 00            NOP
23F1: 00            NOP
23F2: 00            NOP
23F3: 00            NOP
23F4: 00            NOP
23F5: 00            NOP
23F6: 00            NOP
23F7: 00            NOP
23F8: 00            NOP
23F9: 00            NOP
23FA: 00            NOP
23FB: 00            NOP
23FC: 00            NOP
23FD: 00            NOP
23FE: 00            NOP
23FF: 00            NOP
2400: 00            NOP
2401: 00            NOP
2402: 00            NOP
2403: 00            NOP
2404: 00            NOP
2405: 00            NOP
2406: 00            NOP
2407: 00            NOP
2408: 00            NOP
2409: 00            NOP
240A: 00            NOP
240B: 00            NOP
240C: 00            NOP
240D: 00            NOP
240E: 00            NOP
240F: 00            NOP
2410: 00            NOP
2411: 00            NOP
2412: 00            NOP
2413: 00            NOP
2414: 00            NOP
2415: 00            NOP
2416: 00            NOP
2417: 00            NOP
2418: 00            NOP
2419: 00            NOP
241A: 00            NOP
241B: 00            NOP
241C: 00            NOP
241D: 00            NOP
241E: 00            NOP
241F: 00            NOP
2420: 00            NOP
2421: 00            NOP
2422: 00            NOP
2423: 00            NOP
2424: 00            NOP
2425: 00            NOP
2426: 00            NOP
2427: 00            NOP
2428: 00            NOP
2429: 00            NOP
242A: 00            NOP
242B: 00            NOP
242C: 00            NOP
242D: 00            NOP
242E: 00            NOP
242F: 00            NOP
2430: 00            NOP
2431: 00            NOP
2432: 00            NOP
2433: 00            NOP
2434: 00            NOP
2435: 00            NOP
2436: 00            NOP
2437: 00            NOP
2438: 00            NOP
2439: 00            NOP
243A: 00            NOP
243B: 00            NOP
243C: 00            NOP
243D: 00            NOP
243E: 00            NOP
243F: 00            NOP
2440: 00            NOP
2441: 00            NOP
2442: 00            NOP
2443: 00            NOP
2444: 00            NOP
2445: 00            NOP
2446: 00            NOP
2447: 00            NOP
2448: 00            NOP
2449: 00            NOP
244A: 00            NOP
244B: 00            NOP
244C: 00            NOP
244D: 00            NOP
244E: 0D            DEC C
244F: 08            EX AF,AF'
2450: 06 09         LD B,09h
2452: 0B            DEC BC
2453: 08            EX AF,AF'
2454: 0F            RRCA
2455: 0A            LD A,(BC)
2456: 02            LD (BC),A
2457: 02            LD (BC),A
2458: 0F            RRCA
2459: 0A            LD A,(BC)
245A: 01 4A 04      LD BC,044Ah
245D: 48            LD C,B
245E: 00            NOP
245F: 08            EX AF,AF'
2460: 02            LD (BC),A
2461: 48            LD C,B
2462: 04            INC B
2463: 08            EX AF,AF'
2464: 03            INC BC
2465: 48            LD C,B
2466: 04            INC B
2467: 08            EX AF,AF'
2468: 03            INC BC
2469: 48            LD C,B
246A: 0A            LD A,(BC)
246B: 40            LD B,B
246C: 05            DEC B
246D: 00            NOP
246E: 01 40 05      LD BC,0540h
2471: 00            NOP
2472: 00            NOP
2473: 40            LD B,B
2474: 04            INC B
2475: 00            NOP
2476: 02            LD (BC),A
2477: 40            LD B,B
2478: 03            INC BC
2479: 00            NOP
247A: 1D            DEC E
247B: 01 02 09      LD BC,0902h
247E: 1A            LD A,(DE)
247F: 01 0E 21      LD BC,210Eh
2482: 00            NOP
2483: 20 03         JR NZ,loc_2488
2485: 00            NOP
2486: 05            DEC B
2487: 20 03         JR NZ,loc_248C
2489: 00            NOP
248A: 02            LD (BC),A
248B: 10 05         DJNZ loc_2492
248D: 00            NOP
248E: 15            DEC D
248F: 02            LD (BC),A
2490: 00            NOP
2491: 06 02         LD B,02h
2493: 02            LD (BC),A
2494: 0D            DEC C
2495: 0A            LD A,(BC)
2496: 04            INC B
2497: 08            EX AF,AF'
2498: 02            LD (BC),A
2499: 48            LD C,B
249A: 04            INC B
249B: 08            EX AF,AF'
249C: 03            INC BC
249D: 48            LD C,B
249E: 04            INC B
249F: 08            EX AF,AF'
24A0: 02            LD (BC),A
24A1: 48            LD C,B
24A2: 03            INC BC
24A3: 08            EX AF,AF'
24A4: 03            INC BC
24A5: 48            LD C,B
24A6: 03            INC BC
24A7: 08            EX AF,AF'
24A8: 02            LD (BC),A
24A9: 48            LD C,B
24AA: 03            INC BC
24AB: 08            EX AF,AF'
24AC: 02            LD (BC),A
24AD: 48            LD C,B
24AE: 02            LD (BC),A
24AF: 40            LD B,B
24B0: 00            NOP
24B1: 00            NOP
24B2: 02            LD (BC),A
24B3: 40            LD B,B
24B4: 04            INC B
24B5: 00            NOP
24B6: 01 40 03      LD BC,0340h
24B9: 00            NOP
24BA: 02            LD (BC),A
24BB: 40            LD B,B
24BC: 05            DEC B
24BD: 00            NOP
24BE: 05            DEC B
24BF: 40            LD B,B
24C0: 05            DEC B
24C1: 00            NOP
24C2: 03            INC BC
24C3: 40            LD B,B
24C4: 04            INC B
24C5: 00            NOP
24C6: 0B            DEC BC
24C7: 09            ADD HL,BC
24C8: 12            LD (DE),A
24C9: 01 00 00      LD BC,0000h
24CC: 10 20         DJNZ loc_24EE
24CE: 03            INC BC
24CF: 00            NOP
24D0: 04            INC B
24D1: 40            LD B,B
24D2: 04            INC B
24D3: 00            NOP
24D4: 24            INC H
24D5: 02            LD (BC),A
24D6: 00            NOP
24D7: 06 08         LD B,08h
24D9: 02            LD (BC),A
24DA: 02            LD (BC),A
24DB: 20 01         JR NZ,loc_24DE
24DD: 00            NOP

loc_24DE:
24DE: 06 10         LD B,10h
24E0: 02            LD (BC),A
24E1: 00            NOP
24E2: 21 01 0C      LD HL,0C01h
24E5: 09            ADD HL,BC
24E6: 07            RLCA
24E7: 08            EX AF,AF'
24E8: 00            NOP
24E9: 20 03         JR NZ,loc_24EE
24EB: 00            NOP
24EC: 04            INC B
24ED: 40            LD B,B

loc_24EE:
24EE: 02            LD (BC),A
24EF: 00            NOP
24F0: 28 08         JR Z,loc_24FA
24F2: 01 0A 1B      LD BC,1B0Ah
24F5: 08            EX AF,AF'
24F6: 06 00         LD B,00h
24F8: 05            DEC B
24F9: 20 03         JR NZ,loc_24FE
24FB: 00            NOP
24FC: 05            DEC B
24FD: 10 02         DJNZ loc_2501
24FF: 00            NOP
2500: 1A            LD A,(DE)

loc_2501:
2501: 01 17 00      LD BC,0017h
2504: 16 02         LD D,02h
2506: 07            RLCA
2507: 46            LD B,(HL)
2508: 01 44 01      LD BC,0144h
250B: 40            LD B,B
250C: 00            NOP
250D: 00            NOP
250E: 03            INC BC
250F: 40            LD B,B
2510: 04            INC B
2511: 00            NOP
2512: 03            INC BC
2513: 40            LD B,B
2514: 03            INC BC
2515: 00            NOP
2516: 03            INC BC
2517: 40            LD B,B
2518: 04            INC B
2519: 00            NOP
251A: 01 40 03      LD BC,0340h
251D: 00            NOP
251E: 03            INC BC
251F: 40            LD B,B
2520: 03            INC BC
2521: 00            NOP
2522: 02            LD (BC),A
2523: 40            LD B,B
2524: 04            INC B
2525: 00            NOP
2526: 2D            DEC L
2527: 01 0F 00      LD BC,000Fh
252A: 05            DEC B
252B: 02            LD (BC),A
252C: 00            NOP
252D: 06 0D         LD B,0Dh
252F: 00            NOP
2530: 1F            RRA
2531: 08            EX AF,AF'
2532: 16 00         LD D,00h
2534: 08            EX AF,AF'
2535: 04            INC B
2536: 17            RLA
2537: 00            NOP
2538: 05            DEC B
2539: 04            INC B
253A: 03            INC BC
253B: 00            NOP
253C: 18 04         JR loc_2542
253E: 01 06 0C      LD BC,0C06h
2541: 36 01         LD (HL),01h
2543: 34            INC (HL)
2544: 02            LD (BC),A
2545: 30 2B         JR NC,loc_2572
2547: 10 00         DJNZ loc_2549

loc_2549:
2549: 00            NOP
254A: 09            ADD HL,BC
254B: 01 00 09      LD BC,0900h
254E: 03            INC BC
254F: 01 06 05      LD BC,0506h
2552: 00            NOP
2553: 04            INC B
2554: 01 00 03      LD BC,0300h
2557: 30 2A         JR NC,loc_2583
2559: 39            ADD HL,SP
255A: 02            LD (BC),A
255B: 19            ADD HL,DE
255C: 00            NOP
255D: 09            ADD HL,BC
255E: 06 01         LD B,01h
2560: 02            LD (BC),A
2561: 11 01 10      LD DE,1001h
2564: 02            LD (BC),A
2565: 00            NOP
2566: 03            INC BC
2567: 10 04         DJNZ loc_256D
2569: 00            NOP
256A: 03            INC BC
256B: 10 03         DJNZ loc_2570

loc_256D:
256D: 00            NOP
256E: 0A            LD A,(BC)
256F: 40            LD B,B

loc_2570:
2570: 06 00         LD B,00h

loc_2572:
2572: 03            INC BC
2573: 40            LD B,B
2574: 04            INC B
2575: 00            NOP
2576: 02            LD (BC),A
2577: 40            LD B,B
2578: 05            DEC B
2579: 00            NOP
257A: 01 40 05      LD BC,0540h
257D: 00            NOP
257E: 02            LD (BC),A
257F: 40            LD B,B
2580: 04            INC B
2581: 00            NOP
2582: 02            LD (BC),A

loc_2583:
2583: 40            LD B,B
2584: 04            INC B
2585: 00            NOP
2586: 02            LD (BC),A
2587: 40            LD B,B
2588: 04            INC B
2589: 00            NOP
258A: 02            LD (BC),A
258B: 40            LD B,B
258C: 03            INC BC
258D: 00            NOP
258E: 03            INC BC
258F: 40            LD B,B
2590: 04            INC B
2591: 00            NOP
2592: 03            INC BC
2593: 40            LD B,B
2594: 02            LD (BC),A
2595: 00            NOP
2596: 37            SCF
2597: 08            EX AF,AF'
2598: 0B            DEC BC
2599: 00            NOP
259A: 09            ADD HL,BC
259B: 20 04         JR NZ,loc_25A1
259D: 00            NOP
259E: 06 40         LD B,40h
25A0: 03            INC BC

loc_25A1:
25A1: 00            NOP
25A2: 47            LD B,A
25A3: 08            EX AF,AF'
25A4: 36 08         LD (HL),08h
25A6: 09            ADD HL,BC
25A7: 02            LD (BC),A
25A8: 03            INC BC
25A9: 00            NOP
25AA: 1A            LD A,(DE)
25AB: 04            INC B
25AC: 0B            DEC BC
25AD: 00            NOP
25AE: 04            INC B
25AF: 20 04         JR NZ,loc_25B5
25B1: 00            NOP
25B2: 06 10         LD B,10h
25B4: 03            INC BC

loc_25B5:
25B5: 00            NOP
25B6: 2E 08         LD L,08h
25B8: 00            NOP
25B9: 09            ADD HL,BC
25BA: 19            ADD HL,DE
25BB: 08            EX AF,AF'
25BC: 4F            LD C,A
25BD: 0A            LD A,(BC)
25BE: 0D            DEC C
25BF: 08            EX AF,AF'
25C0: 04            INC B
25C1: 48            LD C,B
25C2: 05            DEC B
25C3: 00            NOP
25C4: 04            INC B
25C5: 40            LD B,B
25C6: 04            INC B
25C7: 00            NOP
25C8: 04            INC B
25C9: 40            LD B,B
25CA: 05            DEC B
25CB: 00            NOP
25CC: 04            INC B
25CD: 40            LD B,B
25CE: 05            DEC B
25CF: 00            NOP
25D0: 3C            INC A
25D1: 08            EX AF,AF'
25D2: D2 00 01      JP NC,loc_0100
25D5: 04            INC B
25D6: 20 00         JR NZ,loc_25D8

loc_25D8:
25D8: 10 40         DJNZ loc_261A
25DA: 05            DEC B
25DB: 00            NOP
25DC: 04            INC B
25DD: 40            LD B,B
25DE: 05            DEC B
25DF: 00            NOP
25E0: 04            INC B
25E1: 40            LD B,B
25E2: 05            DEC B
25E3: 00            NOP
25E4: 34            INC (HL)
25E5: 40            LD B,B
25E6: 06 00         LD B,00h
25E8: 09            ADD HL,BC
25E9: 40            LD B,B
25EA: 05            DEC B
25EB: 00            NOP
25EC: 41            LD B,C
25ED: 01 0A 05      LD BC,050Ah
25F0: 01 04 01      LD BC,0104h
25F3: 64            LD H,H
25F4: 00            NOP
25F5: 60            LD H,B
25F6: 19            ADD HL,DE
25F7: 40            LD B,B
25F8: 00            NOP
25F9: 00            NOP
25FA: 06 40         LD B,40h
25FC: 00            NOP
25FD: 60            LD H,B
25FE: 16 40         LD D,40h
2600: 00            NOP
2601: 00            NOP
2602: 04            INC B
2603: 02            LD (BC),A
2604: 0C            INC C
2605: 10 05         DJNZ loc_260C

sub_2607:
2607: 00            NOP
2608: 03            INC BC
2609: 10 04         DJNZ loc_260F
260B: 00            NOP

loc_260C:
260C: 03            INC BC
260D: 10 04         DJNZ loc_2613

loc_260F:
260F: 00            NOP
2610: 04            INC B
2611: 10 03         DJNZ loc_2616

loc_2613:
2613: 00            NOP
2614: 2A 04 12      LD HL,(1204h)
2617: 14            INC D
2618: 04            INC B
2619: 10 00         DJNZ loc_261B

loc_261B:
261B: 00            NOP
261C: 04            INC B
261D: 10 03         DJNZ loc_2622
261F: 00            NOP
2620: 05            DEC B
2621: 10 02         DJNZ loc_2625
2623: 00            NOP
2624: 05            DEC B

loc_2625:
2625: 10 03         DJNZ loc_262A
2627: 00            NOP
2628: 0C            INC C
2629: 08            EX AF,AF'

loc_262A:
262A: 15            DEC D
262B: 48            LD C,B
262C: 02            LD (BC),A
262D: 40            LD B,B
262E: 05            DEC B
262F: 00            NOP
2630: 0E 04         LD C,04h
2632: 0D            DEC C
2633: 00            NOP
2634: 16 10         LD D,10h
2636: 05            DEC B
2637: 00            NOP
2638: 40            LD B,B
2639: 20 03         JR NZ,loc_263E
263B: 00            NOP
263C: 06 10         LD B,10h

loc_263E:
263E: 02            LD (BC),A
263F: 00            NOP
2640: 53            LD D,E
2641: 01 00 09      LD BC,0900h
2644: 06 01         LD B,01h
2646: 01 00 05      LD BC,0500h
2649: 10 03         DJNZ loc_264E
264B: 00            NOP
264C: 05            DEC B
264D: 10 03         DJNZ loc_2652
264F: 00            NOP
2650: 05            DEC B
2651: 10 03         DJNZ loc_2656
2653: 00            NOP
2654: 05            DEC B
2655: 10 03         DJNZ loc_265A
2657: 00            NOP
2658: 04            INC B
2659: 10 03         DJNZ loc_265E
265B: 00            NOP
265C: 03            INC BC
265D: 10 04         DJNZ loc_2663
265F: 00            NOP
2660: 20 04         JR NZ,loc_2666
2662: 10 00         DJNZ loc_2664

loc_2664:
2664: 02            LD (BC),A
2665: 08            EX AF,AF'

loc_2666:
2666: 03            INC BC
2667: 0A            LD A,(BC)
2668: 03            INC BC
2669: 4A            LD C,D
266A: 43            LD B,E
266B: 48            LD C,B
266C: 04            INC B
266D: 08            EX AF,AF'
266E: 0A            LD A,(BC)
266F: 00            NOP
2670: 06 08         LD B,08h
2672: 07            RLCA
2673: 48            LD C,B
2674: 08            EX AF,AF'
2675: 08            EX AF,AF'
2676: 54            LD D,H
2677: 48            LD C,B
2678: 07            RLCA
2679: 00            NOP
267A: 0D            DEC C
267B: 04            INC B
267C: 0E 10         LD C,10h
267E: 05            DEC B
267F: 00            NOP
2680: 1C            INC E
2681: 08            EX AF,AF'
2682: 07            RLCA
2683: 48            LD C,B
2684: 08            EX AF,AF'
2685: 40            LD B,B
2686: 04            INC B
2687: 00            NOP
2688: 09            ADD HL,BC
2689: 08            EX AF,AF'
268A: 0C            INC C
268B: 00            NOP
268C: 00            NOP
268D: 04            INC B
268E: 01 06 00      LD BC,0006h
2691: 16 05         LD D,05h
2693: 04            INC B
2694: 05            DEC B
2695: 14            INC D
2696: 03            INC BC
2697: 04            INC B
2698: 06 14         LD B,14h
269A: 03            INC BC
269B: 00            NOP
269C: 07            RLCA
269D: 10 03         DJNZ loc_26A2
269F: 00            NOP
26A0: 12            LD (DE),A
26A1: 10 05         DJNZ loc_26A8
26A3: 00            NOP
26A4: 06 10         LD B,10h
26A6: 04            INC B
26A7: 00            NOP

loc_26A8:
26A8: 05            DEC B
26A9: 10 04         DJNZ loc_26AF
26AB: 00            NOP
26AC: 10 04         DJNZ loc_26B2
26AE: 02            LD (BC),A

loc_26AF:
26AF: 06 07         LD B,07h
26B1: 16 06         LD D,06h
26B3: 06 05         LD B,05h
26B5: 04            INC B
26B6: 01 00 08      LD BC,0800h
26B9: 04            INC B
26BA: 04            INC B
26BB: 00            NOP
26BC: 07            RLCA
26BD: 02            LD (BC),A
26BE: 00            NOP
26BF: 06 05         LD B,05h
26C1: 16 06         LD D,06h
26C3: 04            INC B
26C4: 01 00 14      LD BC,1400h
26C7: 04            INC B
26C8: 0F            RRCA
26C9: 14            INC D
26CA: 04            INC B
26CB: 04            INC B
26CC: 00            NOP
26CD: 00            NOP
26CE: 1D            DEC E
26CF: 01 0E 05      LD BC,050Eh
26D2: 09            ADD HL,BC
26D3: 01 13 00      LD BC,0013h
26D6: 33            INC SP
26D7: 08            EX AF,AF'
26D8: 0A            LD A,(BC)
26D9: 00            NOP
26DA: 21 04 1D      LD HL,1D04h
26DD: 24            INC H
26DE: 05            DEC B
26DF: 04            INC B
26E0: 01 00 05      LD BC,0500h
26E3: 10 02         DJNZ loc_26E7
26E5: 00            NOP
26E6: 2F            CPL

loc_26E7:
26E7: 08            EX AF,AF'
26E8: 74            LD (HL),H
26E9: 0A            LD A,(BC)
26EA: 06 02         LD B,02h
26EC: 0A            LD A,(BC)
26ED: 06 05         LD B,05h
26EF: 04            INC B
26F0: 15            DEC D
26F1: 24            INC H
26F2: 05            DEC B
26F3: 04            INC B
26F4: 05            DEC B
26F5: 00            NOP
26F6: 01 10 02      LD BC,0210h
26F9: 00            NOP
26FA: 31 20 04      LD SP,0420h
26FD: 00            NOP
26FE: 07            RLCA
26FF: 40            LD B,B

sub_2700:
2700: 04            INC B
2701: 00            NOP
2702: 4A            LD C,D
2703: 01 01 09      LD BC,0901h
2706: 06 00         LD B,00h
2708: 00 00 00 00...DB 00h ; x291

sub_282B:
282B: 00            NOP
282C: 00            NOP
282D: 00 00 00 00...DB 00h ; x32
284D: FF FF FF FF...DB FFh ; x159

sub_28EC:
28EC: FF            RST 38h
28ED: FF            RST 38h
28EE: FF FF FF FF...DB FFh ; x21

sub_2903:
2903: FF            RST 38h
2904: FF            RST 38h
2905: FF FF FF FF...DB FFh ; x145

sub_2996:
2996: FF            RST 38h
2997: FF            RST 38h
2998: FF FF FF FF...DB FFh ; x116

sub_2A0C:
2A0C: FF            RST 38h
2A0D: FF            RST 38h
2A0E: FF            RST 38h
2A0F: FF            RST 38h
2A10: FF            RST 38h
2A11: FF            RST 38h
2A12: FF            RST 38h
2A13: FF            RST 38h
2A14: FF            RST 38h
2A15: FF            RST 38h
2A16: FF            RST 38h
2A17: FF            RST 38h
2A18: FF            RST 38h
2A19: FF            RST 38h
2A1A: FF            RST 38h
2A1B: FF            RST 38h
2A1C: FF            RST 38h
2A1D: FF            RST 38h
2A1E: FF            RST 38h
2A1F: FF            RST 38h
2A20: FF            RST 38h
2A21: FF            RST 38h
2A22: FF            RST 38h
2A23: FF            RST 38h
2A24: FF            RST 38h
2A25: FF            RST 38h
2A26: FF            RST 38h
2A27: FF            RST 38h
2A28: FF            RST 38h
2A29: FF            RST 38h
2A2A: FF            RST 38h
2A2B: FF            RST 38h
2A2C: FF            RST 38h
2A2D: FF            RST 38h
2A2E: FF            RST 38h
2A2F: FF            RST 38h
2A30: FF            RST 38h
2A31: FF            RST 38h
2A32: FF            RST 38h
2A33: FF            RST 38h
2A34: FF            RST 38h
2A35: FF            RST 38h
2A36: FF            RST 38h
2A37: FF            RST 38h
2A38: FF            RST 38h
2A39: FF            RST 38h
2A3A: FF            RST 38h
2A3B: FF            RST 38h
2A3C: FF            RST 38h
2A3D: FF            RST 38h
2A3E: FF            RST 38h
2A3F: FF            RST 38h
2A40: FF            RST 38h
2A41: FF            RST 38h
2A42: FF            RST 38h
2A43: FF            RST 38h
2A44: FF            RST 38h
2A45: FF            RST 38h
2A46: FF            RST 38h
2A47: FF            RST 38h
2A48: FF            RST 38h
2A49: FF            RST 38h
2A4A: FF            RST 38h
2A4B: FF            RST 38h
2A4C: FF            RST 38h
2A4D: FF            RST 38h
2A4E: FF            RST 38h
2A4F: FF            RST 38h
2A50: FF            RST 38h
2A51: FF            RST 38h
2A52: FF            RST 38h
2A53: FF            RST 38h
2A54: FF            RST 38h
2A55: FF            RST 38h
2A56: FF            RST 38h
2A57: FF            RST 38h
2A58: FF            RST 38h
2A59: FF            RST 38h
2A5A: FF            RST 38h
2A5B: FF            RST 38h
2A5C: FF            RST 38h
2A5D: FF            RST 38h
2A5E: FF            RST 38h
2A5F: FF            RST 38h
2A60: FF            RST 38h
2A61: FF            RST 38h
2A62: FF            RST 38h
2A63: FF            RST 38h
2A64: FF            RST 38h
2A65: FF            RST 38h
2A66: FF            RST 38h
2A67: FF            RST 38h
2A68: FF            RST 38h
2A69: FF            RST 38h
2A6A: FF            RST 38h
2A6B: FF            RST 38h
2A6C: FF            RST 38h
2A6D: FF            RST 38h
2A6E: FF            RST 38h
2A6F: FF            RST 38h
2A70: FF            RST 38h
2A71: FF            RST 38h
2A72: FF            RST 38h
2A73: FF            RST 38h
2A74: FF            RST 38h
2A75: FF            RST 38h
2A76: FF            RST 38h
2A77: FF            RST 38h
2A78: FF            RST 38h
2A79: FF            RST 38h
2A7A: FF            RST 38h
2A7B: FF            RST 38h
2A7C: FF            RST 38h
2A7D: FF            RST 38h
2A7E: FF            RST 38h
2A7F: FF            RST 38h
2A80: FF            RST 38h
2A81: FF            RST 38h
2A82: FF            RST 38h
2A83: FF            RST 38h
2A84: FF            RST 38h
2A85: FF            RST 38h
2A86: FF            RST 38h
2A87: FF            RST 38h
2A88: FF            RST 38h
2A89: FF            RST 38h
2A8A: FF            RST 38h
2A8B: FF            RST 38h
2A8C: FF            RST 38h
2A8D: FF            RST 38h
2A8E: FF            RST 38h
2A8F: FF            RST 38h
2A90: FF            RST 38h
2A91: FF            RST 38h
2A92: FF            RST 38h
2A93: FF            RST 38h
2A94: FF            RST 38h
2A95: FF            RST 38h
2A96: FF            RST 38h
2A97: FF            RST 38h
2A98: FF            RST 38h
2A99: FF            RST 38h
2A9A: FF            RST 38h
2A9B: FF            RST 38h
2A9C: FF            RST 38h
2A9D: FF            RST 38h
2A9E: FF            RST 38h
2A9F: FF            RST 38h
2AA0: FF            RST 38h
2AA1: FF            RST 38h
2AA2: FF            RST 38h
2AA3: FF            RST 38h
2AA4: FF            RST 38h
2AA5: FF            RST 38h

loc_2AA6:
2AA6: FF            RST 38h
2AA7: FF            RST 38h
2AA8: FF            RST 38h
2AA9: FF            RST 38h
2AAA: FF            RST 38h
2AAB: FF            RST 38h
2AAC: FF            RST 38h
2AAD: FF            RST 38h
2AAE: FF            RST 38h
2AAF: FF            RST 38h
2AB0: FF            RST 38h
2AB1: FF            RST 38h
2AB2: FF            RST 38h
2AB3: FF            RST 38h
2AB4: FF            RST 38h
2AB5: FF            RST 38h
2AB6: FF            RST 38h
2AB7: FF            RST 38h
2AB8: FF            RST 38h
2AB9: FF            RST 38h
2ABA: FF            RST 38h
2ABB: FF            RST 38h
2ABC: FF            RST 38h
2ABD: FF            RST 38h
2ABE: FF            RST 38h
2ABF: FF            RST 38h
2AC0: FF            RST 38h
2AC1: FF            RST 38h
2AC2: FF            RST 38h
2AC3: FF            RST 38h
2AC4: FF            RST 38h
2AC5: FF            RST 38h
2AC6: FF            RST 38h
2AC7: FF            RST 38h
2AC8: FF            RST 38h
2AC9: FF            RST 38h
2ACA: FF            RST 38h
2ACB: FF            RST 38h
2ACC: FF            RST 38h
2ACD: FF            RST 38h
2ACE: FF            RST 38h
2ACF: FF            RST 38h
2AD0: FF            RST 38h
2AD1: FF            RST 38h
2AD2: FF            RST 38h
2AD3: FF            RST 38h
2AD4: FF            RST 38h
2AD5: FF            RST 38h
2AD6: FF            RST 38h
2AD7: FF            RST 38h
2AD8: FF            RST 38h
2AD9: FF            RST 38h
2ADA: FF            RST 38h
2ADB: FF            RST 38h
2ADC: FF            RST 38h
2ADD: FF            RST 38h
2ADE: FF            RST 38h
2ADF: FF            RST 38h
2AE0: FF            RST 38h
2AE1: FF            RST 38h
2AE2: FF            RST 38h
2AE3: FF            RST 38h
2AE4: FF            RST 38h
2AE5: FF            RST 38h
2AE6: FF            RST 38h
2AE7: FF            RST 38h
2AE8: FF            RST 38h
2AE9: FF            RST 38h
2AEA: FF            RST 38h
2AEB: FF            RST 38h
2AEC: FF            RST 38h
2AED: FF            RST 38h
2AEE: FF            RST 38h
2AEF: FF            RST 38h
2AF0: FF            RST 38h
2AF1: FF            RST 38h
2AF2: FF            RST 38h
2AF3: FF            RST 38h
2AF4: FF            RST 38h
2AF5: FF            RST 38h
2AF6: FF            RST 38h
2AF7: FF            RST 38h
2AF8: FF            RST 38h
2AF9: FF            RST 38h
2AFA: FF            RST 38h
2AFB: FF            RST 38h
2AFC: FF            RST 38h
2AFD: FF            RST 38h
2AFE: FF            RST 38h
2AFF: FF            RST 38h
2B00: FF            RST 38h
2B01: FF            RST 38h
2B02: FF            RST 38h
2B03: FF            RST 38h
2B04: FF            RST 38h
2B05: FF            RST 38h
2B06: FF            RST 38h
2B07: FF            RST 38h
2B08: FF            RST 38h
2B09: FF            RST 38h
2B0A: FF            RST 38h
2B0B: FF            RST 38h
2B0C: FF            RST 38h
2B0D: FF            RST 38h
2B0E: FF            RST 38h
2B0F: FF            RST 38h
2B10: FF            RST 38h
2B11: FF            RST 38h
2B12: FF            RST 38h
2B13: FF            RST 38h
2B14: FF            RST 38h
2B15: FF            RST 38h
2B16: FF            RST 38h
2B17: FF            RST 38h
2B18: FF            RST 38h
2B19: FF            RST 38h
2B1A: FF            RST 38h
2B1B: FF            RST 38h
2B1C: FF            RST 38h
2B1D: FF            RST 38h
2B1E: FF            RST 38h
2B1F: FF            RST 38h
2B20: FF            RST 38h
2B21: FF            RST 38h
2B22: FF            RST 38h
2B23: FF            RST 38h
2B24: FF            RST 38h
2B25: FF            RST 38h
2B26: FF            RST 38h
2B27: FF            RST 38h
2B28: FF            RST 38h
2B29: FF            RST 38h
2B2A: FF            RST 38h
2B2B: FF            RST 38h
2B2C: FF            RST 38h
2B2D: FF            RST 38h
2B2E: FF            RST 38h
2B2F: FF            RST 38h
2B30: FF            RST 38h
2B31: FF            RST 38h
2B32: FF            RST 38h
2B33: FF            RST 38h
2B34: FF            RST 38h
2B35: FF            RST 38h
2B36: FF            RST 38h
2B37: FF            RST 38h
2B38: FF            RST 38h
2B39: FF            RST 38h
2B3A: FF            RST 38h
2B3B: FF            RST 38h
2B3C: FF            RST 38h
2B3D: FF            RST 38h
2B3E: FF            RST 38h
2B3F: FF            RST 38h
2B40: FF            RST 38h
2B41: FF            RST 38h
2B42: FF            RST 38h
2B43: FF            RST 38h
2B44: FF            RST 38h
2B45: FF            RST 38h
2B46: FF            RST 38h
2B47: FF            RST 38h
2B48: FF            RST 38h
2B49: FF            RST 38h
2B4A: FF            RST 38h
2B4B: FF            RST 38h
2B4C: FF            RST 38h
2B4D: FF            RST 38h
2B4E: FF            RST 38h
2B4F: FF            RST 38h
2B50: FF            RST 38h
2B51: FF            RST 38h
2B52: FF            RST 38h
2B53: FF            RST 38h
2B54: FF            RST 38h
2B55: FF            RST 38h
2B56: FF            RST 38h
2B57: FF            RST 38h
2B58: FF            RST 38h
2B59: FF            RST 38h
2B5A: FF            RST 38h
2B5B: FF            RST 38h
2B5C: FF            RST 38h
2B5D: FF            RST 38h
2B5E: FF            RST 38h
2B5F: FF            RST 38h
2B60: FF            RST 38h
2B61: FF            RST 38h
2B62: FF            RST 38h
2B63: FF            RST 38h
2B64: FF            RST 38h
2B65: FF            RST 38h
2B66: FF            RST 38h
2B67: FF            RST 38h
2B68: FF            RST 38h
2B69: FF            RST 38h
2B6A: FF            RST 38h
2B6B: FF            RST 38h
2B6C: FF            RST 38h
2B6D: FF            RST 38h
2B6E: FF            RST 38h
2B6F: FF            RST 38h
2B70: FF            RST 38h
2B71: FF            RST 38h
2B72: FF            RST 38h
2B73: FF            RST 38h
2B74: FF            RST 38h
2B75: FF            RST 38h
2B76: FF            RST 38h
2B77: FF            RST 38h
2B78: FF            RST 38h
2B79: FF            RST 38h
2B7A: FF            RST 38h
2B7B: FF            RST 38h
2B7C: FF            RST 38h
2B7D: FF            RST 38h
2B7E: FF            RST 38h
2B7F: FF            RST 38h
2B80: FF            RST 38h
2B81: FF            RST 38h
2B82: FF            RST 38h
2B83: FF            RST 38h
2B84: FF            RST 38h
2B85: FF            RST 38h
2B86: FF            RST 38h
2B87: FF            RST 38h
2B88: FF            RST 38h
2B89: FF            RST 38h
2B8A: FF            RST 38h
2B8B: FF            RST 38h
2B8C: FF            RST 38h
2B8D: FF            RST 38h
2B8E: FF            RST 38h
2B8F: FF            RST 38h
2B90: FF            RST 38h
2B91: FF            RST 38h
2B92: FF            RST 38h
2B93: FF            RST 38h
2B94: FF            RST 38h
2B95: FF            RST 38h
2B96: FF            RST 38h
2B97: FF            RST 38h
2B98: FF            RST 38h
2B99: FF            RST 38h
2B9A: FF            RST 38h
2B9B: FF            RST 38h
2B9C: FF            RST 38h
2B9D: FF            RST 38h
2B9E: FF            RST 38h
2B9F: FF            RST 38h
2BA0: FF            RST 38h
2BA1: FF            RST 38h
2BA2: FF            RST 38h
2BA3: FF            RST 38h

sub_2BA4:
2BA4: FF            RST 38h
2BA5: FF            RST 38h
2BA6: FF            RST 38h
2BA7: FF            RST 38h
2BA8: FF            RST 38h
2BA9: FF            RST 38h
2BAA: FF            RST 38h
2BAB: FF            RST 38h
2BAC: FF            RST 38h
2BAD: FF            RST 38h
2BAE: FF            RST 38h
2BAF: FF            RST 38h
2BB0: FF            RST 38h
2BB1: FF            RST 38h
2BB2: FF            RST 38h
2BB3: FF            RST 38h
2BB4: FF            RST 38h
2BB5: FF            RST 38h
2BB6: FF            RST 38h
2BB7: FF            RST 38h
2BB8: FF            RST 38h
2BB9: FF            RST 38h
2BBA: FF            RST 38h
2BBB: FF            RST 38h
2BBC: FF            RST 38h
2BBD: FF            RST 38h
2BBE: FF            RST 38h
2BBF: FF            RST 38h
2BC0: FF            RST 38h
2BC1: FF            RST 38h
2BC2: FF            RST 38h
2BC3: FF            RST 38h
2BC4: FF            RST 38h
2BC5: FF            RST 38h
2BC6: FF            RST 38h
2BC7: FF            RST 38h
2BC8: FF            RST 38h
2BC9: FF            RST 38h
2BCA: FF            RST 38h
2BCB: FF            RST 38h
2BCC: FF            RST 38h
2BCD: FF            RST 38h
2BCE: FF            RST 38h
2BCF: FF            RST 38h
2BD0: FF            RST 38h
2BD1: FF            RST 38h
2BD2: FF            RST 38h
2BD3: FF            RST 38h
2BD4: FF            RST 38h
2BD5: FF            RST 38h
2BD6: FF            RST 38h
2BD7: FF            RST 38h
2BD8: FF            RST 38h
2BD9: FF            RST 38h
2BDA: FF            RST 38h
2BDB: FF            RST 38h
2BDC: FF            RST 38h
2BDD: FF            RST 38h
2BDE: FF            RST 38h
2BDF: FF            RST 38h
2BE0: FF            RST 38h
2BE1: FF            RST 38h
2BE2: FF            RST 38h
2BE3: FF            RST 38h
2BE4: FF            RST 38h
2BE5: FF            RST 38h
2BE6: FF            RST 38h
2BE7: FF            RST 38h
2BE8: FF            RST 38h
2BE9: FF            RST 38h
2BEA: FF            RST 38h
2BEB: FF            RST 38h
2BEC: FF            RST 38h
2BED: FF            RST 38h
2BEE: FF            RST 38h
2BEF: FF            RST 38h
2BF0: FF            RST 38h
2BF1: FF            RST 38h
2BF2: FF            RST 38h
2BF3: FF            RST 38h
2BF4: FF            RST 38h
2BF5: FF            RST 38h
2BF6: FF            RST 38h
2BF7: FF            RST 38h
2BF8: FF            RST 38h
2BF9: FF            RST 38h
2BFA: FF            RST 38h
2BFB: FF            RST 38h
2BFC: FF            RST 38h
2BFD: FF            RST 38h
2BFE: FF            RST 38h
2BFF: FF            RST 38h
2C00: FF            RST 38h
2C01: FF            RST 38h
2C02: FF            RST 38h
2C03: FF            RST 38h
2C04: FF            RST 38h
2C05: FF            RST 38h
2C06: FF            RST 38h
2C07: FF            RST 38h
2C08: FF            RST 38h
2C09: FF            RST 38h
2C0A: FF            RST 38h
2C0B: FF            RST 38h
2C0C: FF            RST 38h
2C0D: FF            RST 38h
2C0E: FF            RST 38h
2C0F: FF            RST 38h
2C10: FF            RST 38h
2C11: FF            RST 38h
2C12: FF            RST 38h
2C13: FF            RST 38h
2C14: FF            RST 38h
2C15: FF            RST 38h
2C16: FF            RST 38h
2C17: FF            RST 38h
2C18: FF            RST 38h
2C19: FF            RST 38h
2C1A: FF            RST 38h
2C1B: FF            RST 38h
2C1C: FF            RST 38h
2C1D: FF            RST 38h
2C1E: FF            RST 38h
2C1F: FF            RST 38h
2C20: FF            RST 38h
2C21: FF            RST 38h
2C22: FF            RST 38h
2C23: FF            RST 38h
2C24: FF            RST 38h
2C25: FF            RST 38h
2C26: FF            RST 38h
2C27: FF            RST 38h
2C28: FF            RST 38h
2C29: FF            RST 38h
2C2A: FF            RST 38h
2C2B: FF            RST 38h
2C2C: FF            RST 38h
2C2D: FF            RST 38h
2C2E: FF            RST 38h
2C2F: FF            RST 38h
2C30: FF            RST 38h
2C31: FF            RST 38h
2C32: FF            RST 38h
2C33: FF            RST 38h
2C34: FF            RST 38h
2C35: FF            RST 38h
2C36: FF            RST 38h
2C37: FF            RST 38h
2C38: FF            RST 38h
2C39: FF            RST 38h
2C3A: FF            RST 38h
2C3B: FF            RST 38h
2C3C: FF            RST 38h
2C3D: FF            RST 38h
2C3E: FF            RST 38h
2C3F: FF            RST 38h
2C40: FF            RST 38h
2C41: FF            RST 38h
2C42: FF            RST 38h
2C43: FF            RST 38h
2C44: FF            RST 38h
2C45: FF            RST 38h
2C46: FF            RST 38h
2C47: FF            RST 38h
2C48: FF            RST 38h
2C49: FF            RST 38h
2C4A: FF            RST 38h
2C4B: FF            RST 38h
2C4C: FF            RST 38h
2C4D: FF            RST 38h
2C4E: FF            RST 38h
2C4F: FF            RST 38h
2C50: FF            RST 38h
2C51: FF            RST 38h
2C52: FF            RST 38h
2C53: FF            RST 38h
2C54: FF            RST 38h
2C55: FF            RST 38h
2C56: FF            RST 38h
2C57: FF            RST 38h
2C58: FF            RST 38h
2C59: FF            RST 38h
2C5A: FF            RST 38h
2C5B: FF            RST 38h
2C5C: FF            RST 38h
2C5D: FF            RST 38h
2C5E: FF            RST 38h
2C5F: FF            RST 38h
2C60: FF            RST 38h
2C61: FF            RST 38h
2C62: FF            RST 38h
2C63: FF            RST 38h
2C64: FF            RST 38h
2C65: FF            RST 38h
2C66: FF            RST 38h
2C67: FF            RST 38h
2C68: FF            RST 38h
2C69: FF            RST 38h
2C6A: FF            RST 38h
2C6B: FF            RST 38h
2C6C: FF            RST 38h
2C6D: FF            RST 38h
2C6E: FF            RST 38h
2C6F: FF            RST 38h
2C70: FF            RST 38h
2C71: FF            RST 38h
2C72: FF            RST 38h
2C73: FF            RST 38h
2C74: FF            RST 38h
2C75: FF            RST 38h
2C76: FF            RST 38h
2C77: FF            RST 38h
2C78: FF            RST 38h
2C79: FF            RST 38h
2C7A: FF            RST 38h
2C7B: FF            RST 38h
2C7C: FF            RST 38h
2C7D: FF            RST 38h
2C7E: FF            RST 38h
2C7F: FF            RST 38h
2C80: FF            RST 38h
2C81: FF            RST 38h
2C82: FF            RST 38h
2C83: FF            RST 38h
2C84: FF            RST 38h
2C85: FF            RST 38h
2C86: FF            RST 38h
2C87: FF            RST 38h
2C88: FF            RST 38h
2C89: FF            RST 38h
2C8A: FF            RST 38h
2C8B: FF            RST 38h
2C8C: FF            RST 38h
2C8D: FF            RST 38h
2C8E: FF            RST 38h
2C8F: FF            RST 38h
2C90: FF            RST 38h
2C91: FF            RST 38h
2C92: FF            RST 38h
2C93: FF            RST 38h
2C94: FF            RST 38h
2C95: FF            RST 38h
2C96: FF            RST 38h
2C97: FF            RST 38h
2C98: FF            RST 38h
2C99: FF            RST 38h
2C9A: FF            RST 38h
2C9B: FF            RST 38h
2C9C: FF            RST 38h
2C9D: FF            RST 38h
2C9E: FF            RST 38h
2C9F: FF            RST 38h
2CA0: FF            RST 38h
2CA1: FF            RST 38h
2CA2: FF            RST 38h
2CA3: FF            RST 38h
2CA4: FF            RST 38h
2CA5: FF            RST 38h
2CA6: FF            RST 38h
2CA7: FF            RST 38h
2CA8: FF            RST 38h
2CA9: FF            RST 38h
2CAA: FF            RST 38h
2CAB: FF            RST 38h
2CAC: FF            RST 38h
2CAD: FF            RST 38h
2CAE: FF            RST 38h
2CAF: FF            RST 38h
2CB0: FF            RST 38h
2CB1: FF            RST 38h
2CB2: FF            RST 38h
2CB3: FF            RST 38h
2CB4: FF            RST 38h
2CB5: FF            RST 38h
2CB6: FF            RST 38h
2CB7: FF            RST 38h
2CB8: FF            RST 38h
2CB9: FF            RST 38h
2CBA: FF            RST 38h
2CBB: FF            RST 38h
2CBC: FF            RST 38h
2CBD: FF            RST 38h
2CBE: FF            RST 38h
2CBF: FF            RST 38h
2CC0: FF            RST 38h
2CC1: FF            RST 38h
2CC2: FF            RST 38h
2CC3: FF            RST 38h
2CC4: FF            RST 38h
2CC5: FF            RST 38h
2CC6: FF            RST 38h
2CC7: FF            RST 38h
2CC8: FF            RST 38h
2CC9: FF            RST 38h
2CCA: FF            RST 38h
2CCB: FF            RST 38h
2CCC: FF            RST 38h
2CCD: FF            RST 38h
2CCE: FF            RST 38h
2CCF: FF            RST 38h
2CD0: FF            RST 38h
2CD1: FF            RST 38h
2CD2: FF            RST 38h
2CD3: FF            RST 38h
2CD4: FF            RST 38h
2CD5: FF            RST 38h
2CD6: FF            RST 38h
2CD7: FF            RST 38h
2CD8: FF            RST 38h
2CD9: FF            RST 38h
2CDA: FF            RST 38h
2CDB: FF            RST 38h
2CDC: FF            RST 38h
2CDD: FF            RST 38h
2CDE: FF            RST 38h
2CDF: FF            RST 38h
2CE0: FF            RST 38h
2CE1: FF            RST 38h
2CE2: FF            RST 38h
2CE3: FF            RST 38h
2CE4: FF            RST 38h
2CE5: FF            RST 38h
2CE6: FF            RST 38h
2CE7: FF            RST 38h
2CE8: FF            RST 38h
2CE9: FF            RST 38h
2CEA: FF            RST 38h
2CEB: FF            RST 38h
2CEC: FF            RST 38h
2CED: FF            RST 38h
2CEE: FF            RST 38h
2CEF: FF            RST 38h
2CF0: FF            RST 38h
2CF1: FF            RST 38h
2CF2: FF            RST 38h
2CF3: FF            RST 38h
2CF4: FF            RST 38h
2CF5: FF            RST 38h
2CF6: FF            RST 38h
2CF7: FF            RST 38h
2CF8: FF            RST 38h
2CF9: FF            RST 38h
2CFA: FF            RST 38h
2CFB: FF            RST 38h
2CFC: FF            RST 38h
2CFD: FF            RST 38h
2CFE: FF            RST 38h
2CFF: FF            RST 38h
2D00: FF            RST 38h
2D01: FF            RST 38h
2D02: FF            RST 38h
2D03: FF            RST 38h
2D04: FF            RST 38h
2D05: FF            RST 38h
2D06: FF            RST 38h
2D07: FF            RST 38h
2D08: FF            RST 38h
2D09: FF            RST 38h
2D0A: FF            RST 38h
2D0B: FF            RST 38h
2D0C: FF            RST 38h
2D0D: FF            RST 38h
2D0E: FF            RST 38h
2D0F: FF            RST 38h
2D10: FF            RST 38h
2D11: FF            RST 38h
2D12: FF            RST 38h
2D13: FF            RST 38h
2D14: FF            RST 38h
2D15: FF            RST 38h
2D16: FF            RST 38h
2D17: FF            RST 38h
2D18: FF            RST 38h
2D19: FF            RST 38h
2D1A: FF            RST 38h
2D1B: FF            RST 38h
2D1C: FF            RST 38h
2D1D: FF            RST 38h
2D1E: FF            RST 38h
2D1F: FF            RST 38h
2D20: FF            RST 38h
2D21: FF            RST 38h
2D22: FF            RST 38h
2D23: FF            RST 38h
2D24: FF            RST 38h
2D25: FF            RST 38h
2D26: FF            RST 38h
2D27: FF            RST 38h
2D28: FF            RST 38h
2D29: FF            RST 38h
2D2A: FF            RST 38h
2D2B: FF            RST 38h
2D2C: FF            RST 38h
2D2D: FF            RST 38h
2D2E: FF            RST 38h
2D2F: FF            RST 38h
2D30: FF            RST 38h
2D31: FF            RST 38h
2D32: FF            RST 38h
2D33: FF            RST 38h
2D34: FF            RST 38h
2D35: FF            RST 38h
2D36: FF            RST 38h
2D37: FF            RST 38h
2D38: FF            RST 38h
2D39: FF            RST 38h
2D3A: FF            RST 38h
2D3B: FF            RST 38h
2D3C: FF            RST 38h
2D3D: FF            RST 38h
2D3E: FF            RST 38h
2D3F: FF            RST 38h
2D40: FF            RST 38h
2D41: FF            RST 38h
2D42: FF            RST 38h
2D43: FF            RST 38h
2D44: FF            RST 38h
2D45: FF            RST 38h
2D46: FF            RST 38h
2D47: FF            RST 38h
2D48: FF            RST 38h
2D49: FF            RST 38h
2D4A: FF            RST 38h
2D4B: FF            RST 38h
2D4C: FF            RST 38h
2D4D: FF            RST 38h
2D4E: FF            RST 38h
2D4F: FF            RST 38h
2D50: FF            RST 38h
2D51: FF            RST 38h
2D52: FF            RST 38h
2D53: FF            RST 38h
2D54: FF            RST 38h
2D55: FF            RST 38h
2D56: FF            RST 38h
2D57: FF            RST 38h
2D58: FF            RST 38h
2D59: FF            RST 38h
2D5A: FF            RST 38h
2D5B: FF            RST 38h
2D5C: FF            RST 38h
2D5D: FF            RST 38h
2D5E: FF            RST 38h
2D5F: FF            RST 38h
2D60: FF            RST 38h
2D61: FF            RST 38h
2D62: FF            RST 38h
2D63: FF            RST 38h
2D64: FF            RST 38h
2D65: FF            RST 38h
2D66: FF            RST 38h
2D67: FF            RST 38h
2D68: FF            RST 38h
2D69: FF            RST 38h
2D6A: FF            RST 38h
2D6B: FF            RST 38h
2D6C: FF            RST 38h
2D6D: FF            RST 38h
2D6E: FF            RST 38h
2D6F: FF            RST 38h
2D70: FF            RST 38h
2D71: FF            RST 38h
2D72: FF            RST 38h
2D73: FF            RST 38h
2D74: FF            RST 38h
2D75: FF            RST 38h
2D76: FF            RST 38h
2D77: FF            RST 38h
2D78: FF            RST 38h
2D79: FF            RST 38h
2D7A: FF            RST 38h
2D7B: FF            RST 38h
2D7C: FF            RST 38h
2D7D: FF            RST 38h
2D7E: FF            RST 38h
2D7F: FF            RST 38h
2D80: FF            RST 38h
2D81: FF            RST 38h
2D82: FF            RST 38h
2D83: FF            RST 38h
2D84: FF            RST 38h
2D85: FF            RST 38h
2D86: FF            RST 38h
2D87: FF            RST 38h
2D88: FF            RST 38h
2D89: FF            RST 38h
2D8A: FF            RST 38h
2D8B: FF            RST 38h
2D8C: FF            RST 38h
2D8D: FF            RST 38h
2D8E: FF            RST 38h
2D8F: FF            RST 38h
2D90: FF            RST 38h
2D91: FF            RST 38h
2D92: FF            RST 38h
2D93: FF            RST 38h
2D94: FF            RST 38h
2D95: FF            RST 38h
2D96: FF            RST 38h
2D97: FF            RST 38h
2D98: FF            RST 38h
2D99: FF            RST 38h
2D9A: FF            RST 38h
2D9B: FF            RST 38h
2D9C: FF            RST 38h
2D9D: FF            RST 38h
2D9E: FF            RST 38h
2D9F: FF            RST 38h
2DA0: FF            RST 38h
2DA1: FF            RST 38h
2DA2: FF            RST 38h
2DA3: FF            RST 38h
2DA4: FF            RST 38h
2DA5: FF            RST 38h
2DA6: FF            RST 38h
2DA7: FF            RST 38h
2DA8: FF            RST 38h
2DA9: FF            RST 38h
2DAA: FF            RST 38h
2DAB: FF            RST 38h
2DAC: FF            RST 38h
2DAD: FF            RST 38h
2DAE: FF            RST 38h
2DAF: FF            RST 38h
2DB0: FF            RST 38h
2DB1: FF            RST 38h
2DB2: FF            RST 38h
2DB3: FF            RST 38h
2DB4: FF            RST 38h
2DB5: FF            RST 38h
2DB6: FF            RST 38h
2DB7: FF            RST 38h
2DB8: FF            RST 38h
2DB9: FF            RST 38h
2DBA: FF            RST 38h
2DBB: FF            RST 38h
2DBC: FF            RST 38h
2DBD: FF            RST 38h
2DBE: FF            RST 38h
2DBF: FF            RST 38h
2DC0: FF            RST 38h
2DC1: FF            RST 38h
2DC2: FF            RST 38h
2DC3: FF            RST 38h
2DC4: FF            RST 38h
2DC5: FF            RST 38h
2DC6: FF            RST 38h
2DC7: FF            RST 38h
2DC8: FF            RST 38h
2DC9: FF            RST 38h
2DCA: FF            RST 38h
2DCB: FF            RST 38h
2DCC: FF            RST 38h
2DCD: FF            RST 38h
2DCE: FF            RST 38h
2DCF: FF            RST 38h
2DD0: FF            RST 38h
2DD1: FF            RST 38h
2DD2: FF            RST 38h
2DD3: FF            RST 38h
2DD4: FF            RST 38h
2DD5: FF            RST 38h
2DD6: FF            RST 38h
2DD7: FF            RST 38h
2DD8: FF            RST 38h
2DD9: FF            RST 38h
2DDA: FF            RST 38h
2DDB: FF            RST 38h
2DDC: FF            RST 38h
2DDD: FF            RST 38h
2DDE: FF            RST 38h
2DDF: FF            RST 38h
2DE0: FF            RST 38h
2DE1: FF            RST 38h
2DE2: FF            RST 38h
2DE3: FF            RST 38h
2DE4: FF            RST 38h
2DE5: FF            RST 38h
2DE6: FF            RST 38h
2DE7: FF            RST 38h
2DE8: FF            RST 38h
2DE9: FF            RST 38h
2DEA: FF            RST 38h
2DEB: FF            RST 38h
2DEC: FF            RST 38h
2DED: FF            RST 38h
2DEE: FF            RST 38h
2DEF: FF            RST 38h
2DF0: FF            RST 38h
2DF1: FF            RST 38h
2DF2: FF            RST 38h
2DF3: FF            RST 38h
2DF4: FF            RST 38h
2DF5: FF            RST 38h
2DF6: FF            RST 38h
2DF7: FF            RST 38h
2DF8: FF            RST 38h
2DF9: FF            RST 38h
2DFA: FF            RST 38h
2DFB: FF            RST 38h
2DFC: FF            RST 38h
2DFD: FF            RST 38h
2DFE: FF            RST 38h
2DFF: FF            RST 38h

sub_2E00:
2E00: FF            RST 38h
2E01: FF            RST 38h
2E02: FF            RST 38h
2E03: FF            RST 38h
2E04: FF            RST 38h
2E05: FF            RST 38h
2E06: FF            RST 38h
2E07: FF            RST 38h
2E08: FF            RST 38h
2E09: FF            RST 38h
2E0A: FF            RST 38h
2E0B: FF            RST 38h
2E0C: FF            RST 38h
2E0D: FF            RST 38h
2E0E: FF            RST 38h
2E0F: FF            RST 38h
2E10: FF            RST 38h
2E11: FF            RST 38h
2E12: FF            RST 38h
2E13: FF            RST 38h
2E14: FF            RST 38h
2E15: FF            RST 38h
2E16: FF            RST 38h
2E17: FF            RST 38h
2E18: FF            RST 38h
2E19: FF            RST 38h
2E1A: FF            RST 38h
2E1B: FF            RST 38h
2E1C: FF            RST 38h
2E1D: FF            RST 38h
2E1E: FF            RST 38h
2E1F: FF            RST 38h
2E20: FF            RST 38h
2E21: FF            RST 38h
2E22: FF            RST 38h
2E23: FF            RST 38h
2E24: FF            RST 38h
2E25: FF            RST 38h
2E26: FF            RST 38h
2E27: FF            RST 38h
2E28: FF            RST 38h
2E29: FF            RST 38h
2E2A: FF            RST 38h

sub_2E2B:
2E2B: FF            RST 38h
2E2C: FF            RST 38h
2E2D: FF            RST 38h
2E2E: FF            RST 38h
2E2F: FF            RST 38h
2E30: FF            RST 38h
2E31: FF            RST 38h
2E32: FF            RST 38h
2E33: FF            RST 38h
2E34: FF            RST 38h
2E35: FF            RST 38h
2E36: FF            RST 38h
2E37: FF            RST 38h
2E38: FF            RST 38h
2E39: FF            RST 38h
2E3A: FF            RST 38h
2E3B: FF            RST 38h
2E3C: FF            RST 38h
2E3D: FF            RST 38h
2E3E: FF            RST 38h
2E3F: FF            RST 38h
2E40: FF            RST 38h
2E41: FF            RST 38h
2E42: FF            RST 38h
2E43: FF            RST 38h
2E44: FF            RST 38h
2E45: FF            RST 38h
2E46: FF            RST 38h
2E47: FF            RST 38h
2E48: FF            RST 38h
2E49: FF            RST 38h
2E4A: FF            RST 38h
2E4B: FF            RST 38h
2E4C: FF            RST 38h
2E4D: FF            RST 38h
2E4E: FF            RST 38h
2E4F: FF            RST 38h
2E50: FF            RST 38h
2E51: FF            RST 38h
2E52: FF            RST 38h
2E53: FF            RST 38h
2E54: FF            RST 38h
2E55: FF            RST 38h
2E56: FF            RST 38h
2E57: FF            RST 38h
2E58: FF            RST 38h
2E59: FF            RST 38h
2E5A: FF            RST 38h
2E5B: FF            RST 38h
2E5C: FF            RST 38h
2E5D: FF            RST 38h
2E5E: FF            RST 38h
2E5F: FF            RST 38h
2E60: FF            RST 38h
2E61: FF            RST 38h
2E62: FF            RST 38h
2E63: FF            RST 38h
2E64: FF            RST 38h
2E65: FF            RST 38h
2E66: FF            RST 38h
2E67: FF            RST 38h
2E68: FF            RST 38h
2E69: FF            RST 38h
2E6A: FF            RST 38h
2E6B: FF            RST 38h
2E6C: FF            RST 38h
2E6D: FF            RST 38h
2E6E: FF            RST 38h
2E6F: FF            RST 38h
2E70: FF            RST 38h
2E71: FF            RST 38h
2E72: FF            RST 38h
2E73: FF            RST 38h
2E74: FF            RST 38h
2E75: FF            RST 38h
2E76: FF            RST 38h
2E77: FF            RST 38h
2E78: FF            RST 38h
2E79: FF            RST 38h
2E7A: FF            RST 38h
2E7B: FF            RST 38h
2E7C: FF            RST 38h
2E7D: FF            RST 38h
2E7E: FF            RST 38h
2E7F: FF            RST 38h
2E80: FF            RST 38h
2E81: FF            RST 38h
2E82: FF            RST 38h
2E83: FF            RST 38h
2E84: FF            RST 38h
2E85: FF            RST 38h
2E86: FF            RST 38h
2E87: FF            RST 38h
2E88: FF            RST 38h
2E89: FF            RST 38h
2E8A: FF            RST 38h
2E8B: FF            RST 38h
2E8C: FF            RST 38h
2E8D: FF            RST 38h
2E8E: FF            RST 38h
2E8F: FF            RST 38h
2E90: FF            RST 38h
2E91: FF            RST 38h
2E92: FF            RST 38h
2E93: FF            RST 38h
2E94: FF            RST 38h
2E95: FF            RST 38h
2E96: FF            RST 38h
2E97: FF            RST 38h
2E98: FF            RST 38h
2E99: FF            RST 38h
2E9A: FF            RST 38h
2E9B: FF            RST 38h
2E9C: FF            RST 38h
2E9D: FF            RST 38h
2E9E: FF            RST 38h
2E9F: FF            RST 38h
2EA0: FF            RST 38h
2EA1: FF            RST 38h
2EA2: FF            RST 38h
2EA3: FF            RST 38h
2EA4: FF            RST 38h
2EA5: FF            RST 38h
2EA6: FF            RST 38h
2EA7: FF            RST 38h
2EA8: FF            RST 38h
2EA9: FF            RST 38h
2EAA: FF            RST 38h
2EAB: FF            RST 38h
2EAC: FF            RST 38h
2EAD: FF            RST 38h
2EAE: FF            RST 38h
2EAF: FF            RST 38h
2EB0: FF            RST 38h
2EB1: FF            RST 38h
2EB2: FF            RST 38h
2EB3: FF            RST 38h
2EB4: FF            RST 38h
2EB5: FF            RST 38h
2EB6: FF            RST 38h
2EB7: FF            RST 38h
2EB8: FF            RST 38h
2EB9: FF            RST 38h
2EBA: FF            RST 38h
2EBB: FF            RST 38h
2EBC: FF            RST 38h
2EBD: FF            RST 38h
2EBE: FF            RST 38h
2EBF: FF            RST 38h
2EC0: FF            RST 38h
2EC1: FF            RST 38h
2EC2: FF            RST 38h
2EC3: FF            RST 38h
2EC4: FF            RST 38h
2EC5: FF            RST 38h
2EC6: FF            RST 38h
2EC7: FF            RST 38h
2EC8: FF            RST 38h
2EC9: FF            RST 38h
2ECA: FF            RST 38h
2ECB: FF            RST 38h
2ECC: FF            RST 38h
2ECD: FF            RST 38h
2ECE: FF            RST 38h
2ECF: FF            RST 38h
2ED0: FF            RST 38h
2ED1: FF            RST 38h
2ED2: FF            RST 38h
2ED3: FF            RST 38h
2ED4: FF            RST 38h
2ED5: FF            RST 38h
2ED6: FF            RST 38h
2ED7: FF            RST 38h
2ED8: FF            RST 38h
2ED9: FF            RST 38h
2EDA: FF            RST 38h
2EDB: FF            RST 38h
2EDC: FF            RST 38h
2EDD: FF            RST 38h
2EDE: FF            RST 38h
2EDF: FF            RST 38h
2EE0: FF            RST 38h
2EE1: FF            RST 38h
2EE2: FF            RST 38h
2EE3: FF            RST 38h
2EE4: FF            RST 38h
2EE5: FF            RST 38h
2EE6: FF            RST 38h
2EE7: FF            RST 38h
2EE8: FF            RST 38h
2EE9: FF            RST 38h
2EEA: FF            RST 38h
2EEB: FF            RST 38h
2EEC: FF            RST 38h
2EED: FF            RST 38h
2EEE: FF            RST 38h
2EEF: FF            RST 38h
2EF0: FF            RST 38h
2EF1: FF            RST 38h
2EF2: FF            RST 38h
2EF3: FF            RST 38h
2EF4: FF            RST 38h
2EF5: FF            RST 38h
2EF6: FF            RST 38h
2EF7: FF            RST 38h
2EF8: FF            RST 38h
2EF9: FF            RST 38h
2EFA: FF            RST 38h
2EFB: FF            RST 38h
2EFC: FF            RST 38h
2EFD: FF            RST 38h
2EFE: FF            RST 38h
2EFF: FF            RST 38h
2F00: FF            RST 38h
2F01: FF            RST 38h
2F02: FF            RST 38h
2F03: FF            RST 38h
2F04: FF            RST 38h
2F05: FF            RST 38h
2F06: FF            RST 38h
2F07: FF            RST 38h
2F08: FF            RST 38h
2F09: FF            RST 38h
2F0A: FF            RST 38h
2F0B: FF            RST 38h
2F0C: FF            RST 38h
2F0D: FF            RST 38h
2F0E: FF            RST 38h
2F0F: FF            RST 38h
2F10: FF            RST 38h
2F11: FF            RST 38h
2F12: FF            RST 38h
2F13: FF            RST 38h
2F14: FF            RST 38h
2F15: FF            RST 38h
2F16: FF            RST 38h
2F17: FF            RST 38h
2F18: FF            RST 38h
2F19: FF            RST 38h
2F1A: FF            RST 38h
2F1B: FF            RST 38h
2F1C: FF            RST 38h
2F1D: FF            RST 38h
2F1E: FF            RST 38h
2F1F: FF            RST 38h
2F20: FF            RST 38h
2F21: FF            RST 38h
2F22: FF            RST 38h
2F23: FF            RST 38h
2F24: FF            RST 38h
2F25: FF            RST 38h
2F26: FF            RST 38h
2F27: FF            RST 38h
2F28: FF            RST 38h
2F29: FF            RST 38h
2F2A: FF            RST 38h
2F2B: FF            RST 38h
2F2C: FF            RST 38h
2F2D: FF            RST 38h
2F2E: FF            RST 38h
2F2F: FF            RST 38h
2F30: FF            RST 38h
2F31: FF            RST 38h
2F32: FF            RST 38h
2F33: FF            RST 38h
2F34: FF            RST 38h
2F35: FF            RST 38h
2F36: FF            RST 38h
2F37: FF            RST 38h
2F38: FF            RST 38h
2F39: FF            RST 38h
2F3A: FF            RST 38h
2F3B: FF            RST 38h
2F3C: FF            RST 38h
2F3D: FF            RST 38h
2F3E: FF            RST 38h
2F3F: FF            RST 38h
2F40: FF            RST 38h
2F41: FF            RST 38h
2F42: FF            RST 38h
2F43: FF            RST 38h
2F44: FF            RST 38h
2F45: FF            RST 38h
2F46: FF            RST 38h
2F47: FF            RST 38h
2F48: FF            RST 38h
2F49: FF            RST 38h
2F4A: FF            RST 38h
2F4B: FF            RST 38h
2F4C: FF            RST 38h
2F4D: FF            RST 38h
2F4E: FF            RST 38h
2F4F: FF            RST 38h
2F50: FF            RST 38h
2F51: FF            RST 38h
2F52: FF            RST 38h
2F53: FF            RST 38h
2F54: FF            RST 38h
2F55: FF            RST 38h
2F56: FF            RST 38h
2F57: FF            RST 38h
2F58: FF            RST 38h
2F59: FF            RST 38h
2F5A: FF            RST 38h
2F5B: FF            RST 38h
2F5C: FF            RST 38h
2F5D: FF            RST 38h
2F5E: FF            RST 38h
2F5F: FF            RST 38h
2F60: FF            RST 38h
2F61: FF            RST 38h
2F62: FF            RST 38h
2F63: FF            RST 38h
2F64: FF            RST 38h
2F65: FF            RST 38h
2F66: FF            RST 38h
2F67: FF            RST 38h
2F68: FF            RST 38h
2F69: FF            RST 38h
2F6A: FF            RST 38h
2F6B: FF            RST 38h
2F6C: FF            RST 38h
2F6D: FF            RST 38h
2F6E: FF            RST 38h
2F6F: FF            RST 38h
2F70: FF            RST 38h
2F71: FF            RST 38h
2F72: FF            RST 38h
2F73: FF            RST 38h
2F74: FF            RST 38h
2F75: FF            RST 38h
2F76: FF            RST 38h
2F77: FF            RST 38h
2F78: FF            RST 38h
2F79: FF            RST 38h
2F7A: FF            RST 38h
2F7B: FF            RST 38h
2F7C: FF            RST 38h
2F7D: FF            RST 38h
2F7E: FF            RST 38h
2F7F: FF            RST 38h
2F80: FF            RST 38h
2F81: FF            RST 38h
2F82: FF            RST 38h
2F83: FF            RST 38h
2F84: FF            RST 38h
2F85: FF            RST 38h
2F86: FF            RST 38h
2F87: FF            RST 38h
2F88: FF            RST 38h
2F89: FF            RST 38h
2F8A: FF            RST 38h
2F8B: FF            RST 38h
2F8C: FF            RST 38h
2F8D: FF            RST 38h
2F8E: FF            RST 38h
2F8F: FF            RST 38h
2F90: FF            RST 38h
2F91: FF            RST 38h
2F92: FF            RST 38h
2F93: FF            RST 38h
2F94: FF            RST 38h
2F95: FF            RST 38h
2F96: FF            RST 38h
2F97: FF            RST 38h
2F98: FF            RST 38h
2F99: FF            RST 38h
2F9A: FF            RST 38h
2F9B: FF            RST 38h
2F9C: FF            RST 38h
2F9D: FF            RST 38h
2F9E: FF            RST 38h
2F9F: FF            RST 38h
2FA0: FF            RST 38h
2FA1: FF            RST 38h
2FA2: FF            RST 38h
2FA3: FF            RST 38h
2FA4: FF            RST 38h
2FA5: FF            RST 38h
2FA6: FF            RST 38h
2FA7: FF            RST 38h
2FA8: FF            RST 38h
2FA9: FF            RST 38h
2FAA: FF            RST 38h
2FAB: FF            RST 38h
2FAC: FF            RST 38h
2FAD: FF            RST 38h
2FAE: FF            RST 38h
2FAF: FF            RST 38h
2FB0: FF            RST 38h
2FB1: FF            RST 38h
2FB2: FF            RST 38h
2FB3: FF            RST 38h
2FB4: FF            RST 38h
2FB5: FF            RST 38h
2FB6: FF            RST 38h
2FB7: FF            RST 38h
2FB8: FF            RST 38h
2FB9: FF            RST 38h
2FBA: FF            RST 38h
2FBB: FF            RST 38h
2FBC: FF            RST 38h
2FBD: FF            RST 38h
2FBE: FF            RST 38h
2FBF: FF            RST 38h
2FC0: FF            RST 38h
2FC1: FF            RST 38h
2FC2: FF            RST 38h
2FC3: FF            RST 38h
2FC4: FF            RST 38h
2FC5: FF            RST 38h
2FC6: FF            RST 38h
2FC7: FF            RST 38h
2FC8: FF            RST 38h
2FC9: FF            RST 38h
2FCA: FF            RST 38h
2FCB: FF            RST 38h
2FCC: FF            RST 38h
2FCD: FF            RST 38h
2FCE: FF            RST 38h
2FCF: FF            RST 38h
2FD0: FF            RST 38h
2FD1: FF            RST 38h
2FD2: FF            RST 38h
2FD3: FF            RST 38h
2FD4: FF            RST 38h
2FD5: FF            RST 38h
2FD6: FF            RST 38h
2FD7: FF            RST 38h
2FD8: FF            RST 38h
2FD9: FF            RST 38h
2FDA: FF            RST 38h
2FDB: FF            RST 38h
2FDC: FF            RST 38h
2FDD: FF            RST 38h
2FDE: FF            RST 38h
2FDF: FF            RST 38h
2FE0: FF            RST 38h
2FE1: FF            RST 38h
2FE2: FF            RST 38h
2FE3: FF            RST 38h
2FE4: FF            RST 38h
2FE5: FF            RST 38h
2FE6: FF            RST 38h
2FE7: FF            RST 38h
2FE8: FF            RST 38h
2FE9: FF            RST 38h
2FEA: FF            RST 38h
2FEB: FF            RST 38h
2FEC: FF            RST 38h
2FED: FF            RST 38h
2FEE: FF            RST 38h
2FEF: FF            RST 38h
2FF0: FF            RST 38h
2FF1: FF            RST 38h
2FF2: FF            RST 38h
2FF3: FF            RST 38h
2FF4: FF            RST 38h
2FF5: FF            RST 38h
2FF6: FF            RST 38h
2FF7: FF            RST 38h
2FF8: FF            RST 38h
2FF9: FF            RST 38h
2FFA: FF            RST 38h
2FFB: FF            RST 38h
2FFC: FF            RST 38h
2FFD: FF            RST 38h
2FFE: FF            RST 38h
2FFF: FF            RST 38h
3000: FF            RST 38h

sub_3001:
3001: FF            RST 38h
3002: FF            RST 38h
3003: FF            RST 38h
3004: FF            RST 38h
3005: FF            RST 38h
3006: FF            RST 38h
3007: FF            RST 38h
3008: FF            RST 38h
3009: FF            RST 38h
300A: FF            RST 38h
300B: FF            RST 38h
300C: FF            RST 38h
300D: FF            RST 38h
300E: FF            RST 38h
300F: FF            RST 38h
3010: FF            RST 38h
3011: FF            RST 38h
3012: FF            RST 38h
3013: FF            RST 38h
3014: FF            RST 38h
3015: FF            RST 38h
3016: FF            RST 38h
3017: FF            RST 38h
3018: FF            RST 38h
3019: FF            RST 38h
301A: FF            RST 38h
301B: FF            RST 38h
301C: FF            RST 38h
301D: FF            RST 38h
301E: FF            RST 38h
301F: FF            RST 38h
3020: FF            RST 38h
3021: FF            RST 38h
3022: FF            RST 38h
3023: FF            RST 38h
3024: FF            RST 38h
3025: FF            RST 38h
3026: FF            RST 38h
3027: FF            RST 38h
3028: FF            RST 38h
3029: FF            RST 38h
302A: FF            RST 38h

sub_302B:
302B: FF            RST 38h
302C: FF            RST 38h
302D: FF            RST 38h
302E: FF            RST 38h
302F: FF            RST 38h
3030: FF            RST 38h
3031: FF            RST 38h
3032: FF            RST 38h
3033: FF            RST 38h
3034: FF            RST 38h
3035: FF            RST 38h
3036: FF            RST 38h
3037: FF            RST 38h
3038: FF            RST 38h
3039: FF            RST 38h
303A: FF            RST 38h
303B: FF            RST 38h
303C: FF            RST 38h
303D: FF            RST 38h
303E: FF            RST 38h
303F: FF            RST 38h
3040: FF            RST 38h
3041: FF            RST 38h
3042: FF            RST 38h
3043: FF            RST 38h
3044: FF            RST 38h
3045: FF            RST 38h
3046: FF            RST 38h
3047: FF            RST 38h
3048: FF            RST 38h
3049: FF            RST 38h
304A: FF            RST 38h
304B: FF            RST 38h
304C: FF            RST 38h
304D: FF            RST 38h
304E: FF            RST 38h
304F: FF            RST 38h
3050: FF            RST 38h
3051: FF            RST 38h
3052: FF            RST 38h
3053: FF            RST 38h
3054: FF            RST 38h
3055: FF            RST 38h
3056: FF            RST 38h
3057: FF            RST 38h
3058: FF            RST 38h
3059: FF            RST 38h
305A: FF            RST 38h
305B: FF            RST 38h
305C: FF            RST 38h
305D: FF            RST 38h
305E: FF            RST 38h
305F: FF            RST 38h
3060: FF            RST 38h
3061: FF            RST 38h
3062: FF            RST 38h
3063: FF            RST 38h
3064: FF            RST 38h
3065: FF            RST 38h
3066: FF            RST 38h
3067: FF            RST 38h
3068: FF            RST 38h
3069: FF            RST 38h
306A: FF            RST 38h
306B: FF            RST 38h
306C: FF            RST 38h
306D: FF            RST 38h
306E: FF            RST 38h
306F: FF            RST 38h
3070: FF            RST 38h
3071: FF            RST 38h
3072: FF            RST 38h
3073: FF            RST 38h
3074: FF            RST 38h
3075: FF            RST 38h
3076: FF            RST 38h
3077: FF            RST 38h
3078: FF            RST 38h
3079: FF            RST 38h
307A: FF            RST 38h
307B: FF            RST 38h
307C: FF            RST 38h
307D: FF            RST 38h
307E: FF            RST 38h
307F: FF            RST 38h
3080: FF            RST 38h
3081: FF            RST 38h
3082: FF            RST 38h
3083: FF            RST 38h
3084: FF            RST 38h
3085: FF            RST 38h
3086: FF            RST 38h
3087: FF            RST 38h
3088: FF            RST 38h
3089: FF            RST 38h
308A: FF            RST 38h
308B: FF            RST 38h
308C: FF            RST 38h
308D: FF            RST 38h
308E: FF            RST 38h
308F: FF            RST 38h
3090: FF            RST 38h
3091: FF            RST 38h
3092: FF            RST 38h
3093: FF            RST 38h
3094: FF            RST 38h
3095: FF            RST 38h
3096: FF            RST 38h
3097: FF            RST 38h
3098: FF            RST 38h
3099: FF            RST 38h
309A: FF            RST 38h
309B: FF            RST 38h
309C: FF            RST 38h
309D: FF            RST 38h
309E: FF            RST 38h
309F: FF            RST 38h
30A0: FF            RST 38h
30A1: FF            RST 38h
30A2: FF            RST 38h
30A3: FF            RST 38h
30A4: FF            RST 38h
30A5: FF            RST 38h
30A6: FF            RST 38h
30A7: FF            RST 38h
30A8: FF            RST 38h
30A9: FF            RST 38h
30AA: FF            RST 38h
30AB: FF            RST 38h
30AC: FF            RST 38h
30AD: FF            RST 38h
30AE: FF            RST 38h
30AF: FF            RST 38h
30B0: FF            RST 38h
30B1: FF            RST 38h
30B2: FF            RST 38h
30B3: FF            RST 38h
30B4: FF            RST 38h
30B5: FF            RST 38h
30B6: FF            RST 38h
30B7: FF            RST 38h
30B8: FF            RST 38h
30B9: FF            RST 38h
30BA: FF            RST 38h
30BB: FF            RST 38h
30BC: FF            RST 38h
30BD: FF            RST 38h
30BE: FF            RST 38h
30BF: FF            RST 38h
30C0: FF            RST 38h
30C1: FF            RST 38h
30C2: FF            RST 38h
30C3: FF            RST 38h
30C4: FF            RST 38h
30C5: FF            RST 38h
30C6: FF            RST 38h
30C7: FF            RST 38h
30C8: FF            RST 38h
30C9: FF            RST 38h
30CA: FF            RST 38h
30CB: FF            RST 38h
30CC: FF            RST 38h
30CD: FF            RST 38h
30CE: FF            RST 38h
30CF: FF            RST 38h
30D0: FF            RST 38h
30D1: FF            RST 38h
30D2: FF            RST 38h
30D3: FF            RST 38h
30D4: FF            RST 38h
30D5: FF            RST 38h
30D6: FF            RST 38h
30D7: FF            RST 38h
30D8: FF            RST 38h
30D9: FF            RST 38h
30DA: FF            RST 38h
30DB: FF            RST 38h
30DC: FF            RST 38h
30DD: FF            RST 38h
30DE: FF            RST 38h
30DF: FF            RST 38h
30E0: FF            RST 38h
30E1: FF            RST 38h
30E2: FF            RST 38h
30E3: FF            RST 38h
30E4: FF            RST 38h
30E5: FF            RST 38h
30E6: FF            RST 38h
30E7: FF            RST 38h
30E8: FF            RST 38h
30E9: FF            RST 38h
30EA: FF            RST 38h
30EB: FF            RST 38h
30EC: FF            RST 38h
30ED: FF            RST 38h
30EE: FF            RST 38h
30EF: FF            RST 38h
30F0: FF            RST 38h
30F1: FF            RST 38h
30F2: FF            RST 38h
30F3: FF            RST 38h
30F4: FF            RST 38h
30F5: FF            RST 38h
30F6: FF            RST 38h
30F7: FF            RST 38h
30F8: FF            RST 38h
30F9: FF            RST 38h
30FA: FF            RST 38h
30FB: FF            RST 38h
30FC: FF            RST 38h
30FD: FF            RST 38h
30FE: FF            RST 38h
30FF: FF            RST 38h
3100: FF            RST 38h
3101: FF            RST 38h
3102: FF            RST 38h
3103: FF            RST 38h
3104: FF            RST 38h
3105: FF            RST 38h
3106: FF            RST 38h
3107: FF            RST 38h
3108: FF            RST 38h
3109: FF            RST 38h
310A: FF            RST 38h
310B: FF            RST 38h
310C: FF            RST 38h
310D: FF            RST 38h
310E: FF            RST 38h
310F: FF            RST 38h
3110: FF            RST 38h
3111: FF            RST 38h
3112: FF            RST 38h
3113: FF            RST 38h
3114: FF            RST 38h
3115: FF            RST 38h
3116: FF            RST 38h
3117: FF            RST 38h
3118: FF            RST 38h
3119: FF            RST 38h
311A: FF            RST 38h
311B: FF            RST 38h
311C: FF            RST 38h
311D: FF            RST 38h
311E: FF            RST 38h
311F: FF            RST 38h
3120: FF            RST 38h
3121: FF            RST 38h
3122: FF            RST 38h
3123: FF            RST 38h
3124: FF            RST 38h
3125: FF            RST 38h
3126: FF            RST 38h
3127: FF            RST 38h
3128: FF            RST 38h
3129: FF            RST 38h
312A: FF            RST 38h
312B: FF            RST 38h
312C: FF            RST 38h
312D: FF            RST 38h
312E: FF            RST 38h
312F: FF            RST 38h
3130: FF            RST 38h
3131: FF            RST 38h
3132: FF            RST 38h
3133: FF            RST 38h
3134: FF            RST 38h
3135: FF            RST 38h
3136: FF            RST 38h
3137: FF            RST 38h
3138: FF            RST 38h
3139: FF            RST 38h
313A: FF            RST 38h
313B: FF            RST 38h
313C: FF            RST 38h
313D: FF            RST 38h
313E: FF            RST 38h
313F: FF            RST 38h
3140: FF            RST 38h
3141: FF            RST 38h
3142: FF            RST 38h
3143: FF            RST 38h
3144: FF            RST 38h
3145: FF            RST 38h
3146: FF            RST 38h
3147: FF            RST 38h

sub_3148:
3148: FF            RST 38h
3149: FF            RST 38h
314A: FF            RST 38h
314B: FF            RST 38h
314C: FF            RST 38h
314D: FF            RST 38h
314E: FF            RST 38h
314F: FF            RST 38h
3150: FF            RST 38h
3151: FF            RST 38h
3152: FF            RST 38h
3153: FF            RST 38h
3154: FF            RST 38h
3155: FF            RST 38h
3156: FF            RST 38h
3157: FF            RST 38h
3158: FF            RST 38h
3159: FF            RST 38h
315A: FF            RST 38h
315B: FF            RST 38h
315C: FF            RST 38h
315D: FF            RST 38h
315E: FF            RST 38h
315F: FF            RST 38h
3160: FF            RST 38h
3161: FF            RST 38h
3162: FF            RST 38h
3163: FF            RST 38h
3164: FF            RST 38h
3165: FF            RST 38h
3166: FF            RST 38h
3167: FF            RST 38h
3168: FF            RST 38h
3169: FF            RST 38h
316A: FF            RST 38h
316B: FF            RST 38h
316C: FF            RST 38h
316D: FF            RST 38h
316E: FF            RST 38h
316F: FF            RST 38h
3170: FF            RST 38h
3171: FF            RST 38h
3172: FF            RST 38h
3173: FF            RST 38h
3174: FF            RST 38h
3175: FF            RST 38h
3176: FF            RST 38h
3177: FF            RST 38h
3178: FF            RST 38h
3179: FF            RST 38h
317A: FF            RST 38h
317B: FF            RST 38h
317C: FF            RST 38h
317D: FF            RST 38h
317E: FF            RST 38h
317F: FF            RST 38h
3180: FF            RST 38h
3181: FF            RST 38h
3182: FF            RST 38h
3183: FF            RST 38h
3184: FF            RST 38h
3185: FF            RST 38h
3186: FF            RST 38h
3187: FF            RST 38h
3188: FF            RST 38h
3189: FF            RST 38h
318A: FF            RST 38h
318B: FF            RST 38h
318C: FF            RST 38h
318D: FF            RST 38h
318E: FF            RST 38h
318F: FF            RST 38h
3190: FF            RST 38h
3191: FF            RST 38h
3192: FF            RST 38h
3193: FF            RST 38h
3194: FF            RST 38h
3195: FF            RST 38h
3196: FF            RST 38h
3197: FF            RST 38h
3198: FF            RST 38h
3199: FF            RST 38h
319A: FF            RST 38h
319B: FF            RST 38h
319C: FF            RST 38h
319D: FF            RST 38h
319E: FF            RST 38h
319F: FF            RST 38h
31A0: FF            RST 38h
31A1: FF            RST 38h
31A2: FF            RST 38h
31A3: FF            RST 38h
31A4: FF            RST 38h
31A5: FF            RST 38h
31A6: FF            RST 38h
31A7: FF            RST 38h
31A8: FF            RST 38h
31A9: FF            RST 38h
31AA: FF            RST 38h
31AB: FF            RST 38h
31AC: FF            RST 38h
31AD: FF            RST 38h
31AE: FF            RST 38h
31AF: FF            RST 38h
31B0: FF            RST 38h
31B1: FF            RST 38h
31B2: FF            RST 38h
31B3: FF            RST 38h
31B4: FF            RST 38h
31B5: FF            RST 38h
31B6: FF            RST 38h
31B7: FF            RST 38h
31B8: FF            RST 38h
31B9: FF            RST 38h
31BA: FF            RST 38h
31BB: FF            RST 38h
31BC: FF            RST 38h
31BD: FF            RST 38h
31BE: FF            RST 38h
31BF: FF            RST 38h
31C0: FF            RST 38h
31C1: FF            RST 38h
31C2: FF            RST 38h
31C3: FF            RST 38h
31C4: FF            RST 38h
31C5: FF            RST 38h
31C6: FF            RST 38h
31C7: FF            RST 38h
31C8: FF            RST 38h
31C9: FF            RST 38h
31CA: FF            RST 38h
31CB: FF            RST 38h
31CC: FF            RST 38h
31CD: FF            RST 38h
31CE: FF            RST 38h
31CF: FF            RST 38h
31D0: FF            RST 38h
31D1: FF            RST 38h
31D2: FF            RST 38h
31D3: FF            RST 38h
31D4: FF            RST 38h
31D5: FF            RST 38h
31D6: FF            RST 38h
31D7: FF            RST 38h
31D8: FF            RST 38h
31D9: FF            RST 38h
31DA: FF            RST 38h
31DB: FF            RST 38h
31DC: FF            RST 38h
31DD: FF            RST 38h
31DE: FF            RST 38h
31DF: FF            RST 38h
31E0: FF            RST 38h
31E1: FF            RST 38h
31E2: FF            RST 38h
31E3: FF            RST 38h
31E4: FF            RST 38h
31E5: FF            RST 38h
31E6: FF            RST 38h
31E7: FF            RST 38h
31E8: FF            RST 38h
31E9: FF            RST 38h
31EA: FF            RST 38h
31EB: FF            RST 38h
31EC: FF            RST 38h
31ED: FF            RST 38h
31EE: FF            RST 38h
31EF: FF            RST 38h
31F0: FF            RST 38h
31F1: FF            RST 38h
31F2: FF            RST 38h
31F3: FF            RST 38h
31F4: FF            RST 38h
31F5: FF            RST 38h
31F6: FF            RST 38h
31F7: FF            RST 38h
31F8: FF            RST 38h
31F9: FF            RST 38h
31FA: FF            RST 38h
31FB: FF            RST 38h
31FC: FF            RST 38h
31FD: FF            RST 38h
31FE: FF            RST 38h
31FF: FF            RST 38h
3200: FF            RST 38h
3201: FF            RST 38h
3202: FF            RST 38h
3203: FF            RST 38h
3204: FF            RST 38h
3205: FF            RST 38h
3206: FF            RST 38h
3207: FF            RST 38h
3208: FF            RST 38h
3209: FF            RST 38h
320A: FF            RST 38h
320B: FF            RST 38h
320C: FF            RST 38h
320D: FF            RST 38h
320E: FF            RST 38h
320F: FF            RST 38h
3210: FF            RST 38h
3211: FF            RST 38h
3212: FF            RST 38h
3213: FF            RST 38h
3214: FF            RST 38h
3215: FF            RST 38h
3216: FF            RST 38h
3217: FF            RST 38h
3218: FF            RST 38h
3219: FF            RST 38h
321A: FF            RST 38h
321B: FF            RST 38h
321C: FF            RST 38h
321D: FF            RST 38h
321E: FF            RST 38h
321F: FF            RST 38h
3220: FF            RST 38h
3221: FF            RST 38h
3222: FF            RST 38h
3223: FF            RST 38h
3224: FF            RST 38h
3225: FF            RST 38h
3226: FF            RST 38h
3227: FF            RST 38h
3228: FF            RST 38h
3229: FF            RST 38h
322A: FF            RST 38h
322B: FF            RST 38h
322C: FF            RST 38h
322D: FF            RST 38h
322E: FF            RST 38h
322F: FF            RST 38h
3230: FF            RST 38h
3231: FF            RST 38h
3232: FF            RST 38h
3233: FF            RST 38h
3234: FF            RST 38h
3235: FF            RST 38h
3236: FF            RST 38h
3237: FF            RST 38h
3238: FF            RST 38h
3239: FF            RST 38h
323A: FF            RST 38h
323B: FF            RST 38h
323C: FF            RST 38h
323D: FF            RST 38h
323E: FF            RST 38h
323F: FF            RST 38h
3240: FF            RST 38h
3241: FF            RST 38h
3242: FF            RST 38h
3243: FF            RST 38h
3244: FF            RST 38h
3245: FF            RST 38h
3246: FF            RST 38h
3247: FF            RST 38h
3248: FF            RST 38h
3249: FF            RST 38h
324A: FF            RST 38h
324B: FF            RST 38h
324C: FF            RST 38h
324D: FF            RST 38h
324E: FF            RST 38h
324F: FF            RST 38h
3250: FF            RST 38h
3251: FF            RST 38h
3252: FF            RST 38h
3253: FF            RST 38h
3254: FF            RST 38h
3255: FF            RST 38h
3256: FF            RST 38h
3257: FF            RST 38h
3258: FF            RST 38h
3259: FF            RST 38h
325A: FF            RST 38h
325B: FF            RST 38h
325C: FF            RST 38h
325D: FF            RST 38h
325E: FF            RST 38h
325F: FF            RST 38h
3260: FF            RST 38h
3261: FF            RST 38h
3262: FF            RST 38h
3263: FF            RST 38h
3264: FF            RST 38h
3265: FF            RST 38h
3266: FF            RST 38h
3267: FF            RST 38h
3268: FF            RST 38h
3269: FF            RST 38h
326A: FF            RST 38h
326B: FF            RST 38h
326C: FF            RST 38h
326D: FF            RST 38h
326E: FF            RST 38h
326F: FF            RST 38h
3270: FF            RST 38h
3271: FF            RST 38h
3272: FF            RST 38h
3273: FF            RST 38h
3274: FF            RST 38h
3275: FF            RST 38h
3276: FF            RST 38h
3277: FF            RST 38h
3278: FF            RST 38h
3279: FF            RST 38h
327A: FF            RST 38h
327B: FF            RST 38h
327C: FF            RST 38h
327D: FF            RST 38h
327E: FF            RST 38h
327F: FF            RST 38h
3280: FF            RST 38h
3281: FF            RST 38h
3282: FF            RST 38h
3283: FF            RST 38h
3284: FF            RST 38h
3285: FF            RST 38h
3286: FF            RST 38h
3287: FF            RST 38h
3288: FF            RST 38h
3289: FF            RST 38h
328A: FF            RST 38h
328B: FF            RST 38h
328C: FF            RST 38h
328D: FF            RST 38h
328E: FF            RST 38h
328F: FF            RST 38h
3290: FF            RST 38h
3291: FF            RST 38h
3292: FF            RST 38h
3293: FF            RST 38h
3294: FF            RST 38h
3295: FF            RST 38h
3296: FF            RST 38h
3297: FF            RST 38h
3298: FF            RST 38h
3299: FF            RST 38h
329A: FF            RST 38h
329B: FF            RST 38h
329C: FF            RST 38h
329D: FF            RST 38h
329E: FF            RST 38h
329F: FF            RST 38h
32A0: FF            RST 38h
32A1: FF            RST 38h
32A2: FF            RST 38h
32A3: FF            RST 38h
32A4: FF            RST 38h
32A5: FF            RST 38h
32A6: FF            RST 38h
32A7: FF            RST 38h
32A8: FF            RST 38h
32A9: FF            RST 38h
32AA: FF            RST 38h
32AB: FF            RST 38h
32AC: FF            RST 38h
32AD: FF            RST 38h
32AE: FF            RST 38h
32AF: FF            RST 38h
32B0: FF            RST 38h
32B1: FF            RST 38h
32B2: FF            RST 38h
32B3: FF            RST 38h
32B4: FF            RST 38h
32B5: FF            RST 38h
32B6: FF            RST 38h
32B7: FF            RST 38h
32B8: FF            RST 38h
32B9: FF            RST 38h
32BA: FF            RST 38h
32BB: FF            RST 38h
32BC: FF            RST 38h
32BD: FF            RST 38h
32BE: FF            RST 38h
32BF: FF            RST 38h
32C0: FF            RST 38h
32C1: FF            RST 38h
32C2: FF            RST 38h
32C3: FF            RST 38h
32C4: FF            RST 38h
32C5: FF            RST 38h
32C6: FF            RST 38h
32C7: FF            RST 38h
32C8: FF            RST 38h
32C9: FF            RST 38h
32CA: FF            RST 38h
32CB: FF            RST 38h
32CC: FF            RST 38h
32CD: FF            RST 38h
32CE: FF            RST 38h
32CF: FF            RST 38h
32D0: FF            RST 38h
32D1: FF            RST 38h
32D2: FF            RST 38h
32D3: FF            RST 38h
32D4: FF            RST 38h
32D5: FF            RST 38h
32D6: FF            RST 38h
32D7: FF            RST 38h
32D8: FF            RST 38h
32D9: FF            RST 38h
32DA: FF            RST 38h
32DB: FF            RST 38h
32DC: FF            RST 38h
32DD: FF            RST 38h
32DE: FF            RST 38h
32DF: FF            RST 38h
32E0: FF            RST 38h
32E1: FF            RST 38h
32E2: FF            RST 38h
32E3: FF            RST 38h
32E4: FF            RST 38h
32E5: FF            RST 38h
32E6: FF            RST 38h
32E7: FF            RST 38h
32E8: FF            RST 38h
32E9: FF            RST 38h
32EA: FF            RST 38h
32EB: FF            RST 38h
32EC: FF            RST 38h
32ED: FF            RST 38h
32EE: FF            RST 38h
32EF: FF            RST 38h
32F0: FF            RST 38h
32F1: FF            RST 38h
32F2: FF            RST 38h
32F3: FF            RST 38h
32F4: FF            RST 38h
32F5: FF            RST 38h
32F6: FF            RST 38h
32F7: FF            RST 38h
32F8: FF            RST 38h
32F9: FF            RST 38h
32FA: FF            RST 38h
32FB: FF            RST 38h
32FC: FF            RST 38h
32FD: FF            RST 38h
32FE: FF            RST 38h
32FF: FF            RST 38h
3300: FF            RST 38h
3301: FF            RST 38h
3302: FF            RST 38h
3303: FF            RST 38h
3304: FF            RST 38h
3305: FF            RST 38h
3306: FF            RST 38h
3307: FF            RST 38h
3308: FF            RST 38h
3309: FF            RST 38h
330A: FF            RST 38h
330B: FF            RST 38h
330C: FF            RST 38h
330D: FF            RST 38h
330E: FF            RST 38h
330F: FF            RST 38h
3310: FF            RST 38h
3311: FF            RST 38h
3312: FF            RST 38h
3313: FF            RST 38h
3314: FF            RST 38h
3315: FF            RST 38h
3316: FF            RST 38h
3317: FF            RST 38h
3318: FF            RST 38h
3319: FF            RST 38h
331A: FF            RST 38h
331B: FF            RST 38h
331C: FF            RST 38h
331D: FF            RST 38h
331E: FF            RST 38h
331F: FF            RST 38h
3320: FF            RST 38h
3321: FF            RST 38h
3322: FF            RST 38h
3323: FF            RST 38h
3324: FF            RST 38h
3325: FF            RST 38h
3326: FF            RST 38h
3327: FF            RST 38h
3328: FF            RST 38h
3329: FF            RST 38h
332A: FF            RST 38h
332B: FF            RST 38h
332C: FF            RST 38h
332D: FF            RST 38h
332E: FF            RST 38h
332F: FF            RST 38h
3330: FF            RST 38h
3331: FF            RST 38h
3332: FF            RST 38h
3333: FF            RST 38h
3334: FF            RST 38h
3335: FF            RST 38h
3336: FF            RST 38h
3337: FF            RST 38h
3338: FF            RST 38h
3339: FF            RST 38h
333A: FF            RST 38h
333B: FF            RST 38h
333C: FF            RST 38h
333D: FF            RST 38h
333E: FF            RST 38h
333F: FF            RST 38h
3340: FF            RST 38h
3341: FF            RST 38h
3342: FF            RST 38h
3343: FF            RST 38h
3344: FF            RST 38h
3345: FF            RST 38h
3346: FF            RST 38h
3347: FF            RST 38h
3348: FF            RST 38h
3349: FF            RST 38h
334A: FF            RST 38h
334B: FF            RST 38h
334C: FF            RST 38h
334D: FF            RST 38h
334E: FF            RST 38h
334F: FF            RST 38h
3350: FF            RST 38h
3351: FF            RST 38h
3352: FF            RST 38h
3353: FF            RST 38h
3354: FF            RST 38h
3355: FF            RST 38h
3356: FF            RST 38h
3357: FF            RST 38h
3358: FF            RST 38h
3359: FF            RST 38h
335A: FF            RST 38h
335B: FF            RST 38h
335C: FF            RST 38h
335D: FF            RST 38h
335E: FF            RST 38h
335F: FF            RST 38h
3360: FF            RST 38h
3361: FF            RST 38h
3362: FF            RST 38h
3363: FF            RST 38h
3364: FF            RST 38h
3365: FF            RST 38h
3366: FF            RST 38h
3367: FF            RST 38h
3368: FF            RST 38h
3369: FF            RST 38h
336A: FF            RST 38h
336B: FF            RST 38h
336C: FF            RST 38h
336D: FF            RST 38h
336E: FF            RST 38h
336F: FF            RST 38h
3370: FF            RST 38h
3371: FF            RST 38h
3372: FF            RST 38h
3373: FF            RST 38h
3374: FF            RST 38h
3375: FF            RST 38h
3376: FF            RST 38h
3377: FF            RST 38h
3378: FF            RST 38h
3379: FF            RST 38h
337A: FF            RST 38h
337B: FF            RST 38h
337C: FF            RST 38h
337D: FF            RST 38h
337E: FF            RST 38h
337F: FF            RST 38h
3380: FF            RST 38h
3381: FF            RST 38h
3382: FF            RST 38h
3383: FF            RST 38h
3384: FF            RST 38h
3385: FF            RST 38h
3386: FF            RST 38h
3387: FF            RST 38h
3388: FF            RST 38h
3389: FF            RST 38h
338A: FF            RST 38h
338B: FF            RST 38h
338C: FF            RST 38h
338D: FF            RST 38h

sub_338E:
338E: FF            RST 38h
338F: FF            RST 38h
3390: FF            RST 38h
3391: FF            RST 38h
3392: FF            RST 38h
3393: FF            RST 38h
3394: FF            RST 38h
3395: FF            RST 38h
3396: FF            RST 38h
3397: FF            RST 38h
3398: FF            RST 38h
3399: FF            RST 38h
339A: FF            RST 38h
339B: FF            RST 38h
339C: FF            RST 38h
339D: FF            RST 38h
339E: FF            RST 38h
339F: FF            RST 38h
33A0: FF            RST 38h
33A1: FF            RST 38h
33A2: FF            RST 38h
33A3: FF            RST 38h
33A4: FF            RST 38h
33A5: FF            RST 38h
33A6: FF            RST 38h
33A7: FF            RST 38h
33A8: FF            RST 38h
33A9: FF            RST 38h
33AA: FF            RST 38h
33AB: FF            RST 38h
33AC: FF            RST 38h
33AD: FF            RST 38h
33AE: FF            RST 38h
33AF: FF            RST 38h
33B0: FF            RST 38h
33B1: FF            RST 38h
33B2: FF            RST 38h
33B3: FF            RST 38h
33B4: FF            RST 38h
33B5: FF            RST 38h
33B6: FF            RST 38h
33B7: FF            RST 38h
33B8: FF            RST 38h
33B9: FF            RST 38h
33BA: FF            RST 38h
33BB: FF            RST 38h
33BC: FF            RST 38h
33BD: FF            RST 38h
33BE: FF            RST 38h
33BF: FF            RST 38h
33C0: FF            RST 38h
33C1: FF            RST 38h
33C2: FF            RST 38h
33C3: FF            RST 38h
33C4: FF            RST 38h
33C5: FF            RST 38h
33C6: FF            RST 38h
33C7: FF            RST 38h
33C8: FF            RST 38h
33C9: FF            RST 38h
33CA: FF            RST 38h
33CB: FF            RST 38h
33CC: FF            RST 38h
33CD: FF            RST 38h
33CE: FF            RST 38h
33CF: FF            RST 38h
33D0: FF            RST 38h
33D1: FF            RST 38h
33D2: FF            RST 38h
33D3: FF            RST 38h
33D4: FF            RST 38h
33D5: FF            RST 38h
33D6: FF            RST 38h
33D7: FF            RST 38h
33D8: FF            RST 38h
33D9: FF            RST 38h
33DA: FF            RST 38h
33DB: FF            RST 38h
33DC: FF            RST 38h
33DD: FF            RST 38h
33DE: FF            RST 38h
33DF: FF            RST 38h
33E0: FF            RST 38h
33E1: FF            RST 38h
33E2: FF            RST 38h
33E3: FF            RST 38h
33E4: FF            RST 38h
33E5: FF            RST 38h
33E6: FF            RST 38h
33E7: FF            RST 38h
33E8: FF            RST 38h
33E9: FF            RST 38h
33EA: FF            RST 38h
33EB: FF            RST 38h
33EC: FF            RST 38h
33ED: FF            RST 38h
33EE: FF            RST 38h
33EF: FF            RST 38h
33F0: FF            RST 38h
33F1: FF            RST 38h
33F2: FF            RST 38h
33F3: FF            RST 38h
33F4: FF            RST 38h
33F5: FF            RST 38h
33F6: FF            RST 38h
33F7: FF            RST 38h
33F8: FF            RST 38h
33F9: FF            RST 38h
33FA: FF            RST 38h
33FB: FF            RST 38h
33FC: FF            RST 38h
33FD: FF            RST 38h
33FE: FF            RST 38h
33FF: FF            RST 38h
3400: FF            RST 38h
3401: FF            RST 38h
3402: FF            RST 38h
3403: FF            RST 38h
3404: FF            RST 38h
3405: FF            RST 38h
3406: FF            RST 38h

sub_3407:
3407: FF            RST 38h
3408: FF            RST 38h
3409: FF            RST 38h
340A: FF            RST 38h
340B: FF            RST 38h
340C: FF            RST 38h
340D: FF            RST 38h
340E: FF            RST 38h
340F: FF            RST 38h
3410: FF            RST 38h
3411: FF            RST 38h
3412: FF            RST 38h
3413: FF            RST 38h
3414: FF            RST 38h
3415: FF            RST 38h
3416: FF            RST 38h
3417: FF            RST 38h
3418: FF            RST 38h
3419: FF            RST 38h
341A: FF            RST 38h
341B: FF            RST 38h
341C: FF            RST 38h
341D: FF            RST 38h
341E: FF            RST 38h
341F: FF            RST 38h
3420: FF            RST 38h
3421: FF            RST 38h
3422: FF            RST 38h
3423: FF            RST 38h
3424: FF            RST 38h
3425: FF            RST 38h
3426: FF            RST 38h
3427: FF            RST 38h
3428: FF            RST 38h
3429: FF            RST 38h
342A: FF            RST 38h
342B: FF            RST 38h
342C: FF            RST 38h
342D: FF            RST 38h
342E: FF            RST 38h

sub_342F:
342F: FF            RST 38h
3430: FF            RST 38h
3431: FF            RST 38h
3432: FF            RST 38h
3433: FF            RST 38h
3434: FF            RST 38h
3435: FF            RST 38h
3436: FF            RST 38h
3437: FF            RST 38h
3438: FF            RST 38h

sub_3439:
3439: FF            RST 38h
343A: FF            RST 38h
343B: FF            RST 38h
343C: FF            RST 38h
343D: FF            RST 38h
343E: FF            RST 38h
343F: FF            RST 38h
3440: FF            RST 38h
3441: FF            RST 38h
3442: FF            RST 38h
3443: FF            RST 38h
3444: FF            RST 38h
3445: FF            RST 38h
3446: FF            RST 38h
3447: FF            RST 38h
3448: FF            RST 38h
3449: FF            RST 38h
344A: FF            RST 38h
344B: FF            RST 38h
344C: FF            RST 38h
344D: FF            RST 38h
344E: FF            RST 38h
344F: FF            RST 38h
3450: FF            RST 38h
3451: FF            RST 38h
3452: FF            RST 38h
3453: FF            RST 38h
3454: FF            RST 38h
3455: FF            RST 38h
3456: FF            RST 38h
3457: FF            RST 38h
3458: FF            RST 38h
3459: FF            RST 38h
345A: FF            RST 38h
345B: FF            RST 38h
345C: FF            RST 38h
345D: FF            RST 38h
345E: FF            RST 38h
345F: FF            RST 38h
3460: FF            RST 38h
3461: FF            RST 38h
3462: FF            RST 38h
3463: FF            RST 38h
3464: FF            RST 38h
3465: FF            RST 38h
3466: FF            RST 38h
3467: FF            RST 38h
3468: FF            RST 38h
3469: FF            RST 38h
346A: FF            RST 38h
346B: FF            RST 38h
346C: FF            RST 38h
346D: FF            RST 38h
346E: FF            RST 38h
346F: FF            RST 38h
3470: FF            RST 38h
3471: FF            RST 38h
3472: FF            RST 38h
3473: FF            RST 38h
3474: FF            RST 38h
3475: FF            RST 38h
3476: FF            RST 38h
3477: FF            RST 38h
3478: FF            RST 38h
3479: FF            RST 38h
347A: FF            RST 38h
347B: FF            RST 38h
347C: FF            RST 38h
347D: FF            RST 38h
347E: FF            RST 38h
347F: FF            RST 38h
3480: FF            RST 38h

sub_3481:
3481: FF            RST 38h
3482: FF            RST 38h
3483: FF            RST 38h
3484: FF            RST 38h
3485: FF            RST 38h
3486: FF            RST 38h
3487: FF            RST 38h
3488: FF            RST 38h
3489: FF            RST 38h
348A: FF            RST 38h
348B: FF            RST 38h
348C: FF            RST 38h
348D: FF            RST 38h
348E: FF            RST 38h
348F: FF            RST 38h
3490: FF            RST 38h
3491: FF            RST 38h
3492: FF            RST 38h
3493: FF            RST 38h
3494: FF            RST 38h
3495: FF            RST 38h
3496: FF            RST 38h
3497: FF            RST 38h
3498: FF            RST 38h
3499: FF            RST 38h
349A: FF            RST 38h
349B: FF            RST 38h
349C: FF            RST 38h
349D: FF            RST 38h
349E: FF            RST 38h
349F: FF            RST 38h
34A0: FF            RST 38h

sub_34A1:
34A1: FF            RST 38h
34A2: FF            RST 38h
34A3: FF            RST 38h
34A4: FF            RST 38h
34A5: FF            RST 38h
34A6: FF            RST 38h
34A7: FF            RST 38h
34A8: FF            RST 38h
34A9: FF            RST 38h
34AA: FF            RST 38h
34AB: FF            RST 38h
34AC: FF            RST 38h
34AD: FF            RST 38h
34AE: FF            RST 38h
34AF: FF            RST 38h
34B0: FF            RST 38h
34B1: FF            RST 38h
34B2: FF            RST 38h
34B3: FF            RST 38h
34B4: FF            RST 38h
34B5: FF            RST 38h
34B6: FF            RST 38h
34B7: FF            RST 38h
34B8: FF            RST 38h
34B9: FF            RST 38h
34BA: FF            RST 38h
34BB: FF            RST 38h
34BC: FF            RST 38h
34BD: FF            RST 38h
34BE: FF            RST 38h
34BF: FF            RST 38h
34C0: FF            RST 38h
34C1: FF            RST 38h
34C2: FF            RST 38h
34C3: FF            RST 38h
34C4: FF            RST 38h
34C5: FF            RST 38h
34C6: FF            RST 38h
34C7: FF            RST 38h
34C8: FF            RST 38h
34C9: FF            RST 38h
34CA: FF            RST 38h
34CB: FF            RST 38h
34CC: FF            RST 38h
34CD: FF            RST 38h
34CE: FF            RST 38h
34CF: FF            RST 38h
34D0: FF            RST 38h
34D1: FF            RST 38h
34D2: FF            RST 38h
34D3: FF            RST 38h
34D4: FF            RST 38h
34D5: FF            RST 38h
34D6: FF            RST 38h
34D7: FF            RST 38h
34D8: FF            RST 38h
34D9: FF            RST 38h
34DA: FF            RST 38h
34DB: FF            RST 38h
34DC: FF            RST 38h
34DD: FF            RST 38h
34DE: FF            RST 38h
34DF: FF            RST 38h
34E0: FF            RST 38h
34E1: FF            RST 38h
34E2: FF            RST 38h
34E3: FF            RST 38h
34E4: FF            RST 38h
34E5: FF            RST 38h
34E6: FF            RST 38h
34E7: FF            RST 38h
34E8: FF            RST 38h
34E9: FF            RST 38h
34EA: FF            RST 38h
34EB: FF            RST 38h
34EC: FF            RST 38h
34ED: FF            RST 38h
34EE: FF            RST 38h
34EF: FF            RST 38h
34F0: FF            RST 38h
34F1: FF            RST 38h
34F2: FF            RST 38h
34F3: FF            RST 38h
34F4: FF            RST 38h
34F5: FF            RST 38h
34F6: FF            RST 38h
34F7: FF            RST 38h
34F8: FF            RST 38h
34F9: FF            RST 38h
34FA: FF            RST 38h
34FB: FF            RST 38h
34FC: FF            RST 38h
34FD: FF            RST 38h
34FE: FF            RST 38h
34FF: FF            RST 38h
3500: FF            RST 38h
3501: FF            RST 38h
3502: FF            RST 38h
3503: FF            RST 38h
3504: FF            RST 38h
3505: FF            RST 38h
3506: FF            RST 38h
3507: FF            RST 38h
3508: FF            RST 38h
3509: FF            RST 38h
350A: FF            RST 38h
350B: FF            RST 38h
350C: FF            RST 38h
350D: FF            RST 38h
350E: FF            RST 38h
350F: FF            RST 38h
3510: FF            RST 38h
3511: FF            RST 38h
3512: FF            RST 38h
3513: FF            RST 38h
3514: FF            RST 38h
3515: FF            RST 38h
3516: FF            RST 38h
3517: FF            RST 38h
3518: FF            RST 38h
3519: FF            RST 38h
351A: FF            RST 38h
351B: FF            RST 38h
351C: FF            RST 38h
351D: FF            RST 38h
351E: FF            RST 38h
351F: FF            RST 38h
3520: FF            RST 38h
3521: FF            RST 38h
3522: FF            RST 38h
3523: FF            RST 38h
3524: FF            RST 38h
3525: FF            RST 38h
3526: FF            RST 38h
3527: FF            RST 38h
3528: FF            RST 38h
3529: FF            RST 38h
352A: FF            RST 38h
352B: FF            RST 38h
352C: FF            RST 38h
352D: FF            RST 38h
352E: FF            RST 38h
352F: FF            RST 38h
3530: FF            RST 38h
3531: FF            RST 38h
3532: FF            RST 38h
3533: FF            RST 38h
3534: FF            RST 38h
3535: FF            RST 38h
3536: FF            RST 38h
3537: FF            RST 38h
3538: FF            RST 38h
3539: FF            RST 38h
353A: FF            RST 38h
353B: FF            RST 38h
353C: FF            RST 38h
353D: FF            RST 38h
353E: FF            RST 38h
353F: FF            RST 38h
3540: FF            RST 38h
3541: FF            RST 38h
3542: FF            RST 38h
3543: FF            RST 38h
3544: FF            RST 38h
3545: FF            RST 38h
3546: FF            RST 38h
3547: FF            RST 38h
3548: FF            RST 38h
3549: FF            RST 38h
354A: FF            RST 38h
354B: FF            RST 38h
354C: FF            RST 38h
354D: FF            RST 38h
354E: FF            RST 38h
354F: FF            RST 38h
3550: FF            RST 38h
3551: FF            RST 38h
3552: FF            RST 38h
3553: FF            RST 38h
3554: FF            RST 38h
3555: FF            RST 38h
3556: FF            RST 38h
3557: FF            RST 38h
3558: FF            RST 38h
3559: FF            RST 38h
355A: FF            RST 38h
355B: FF            RST 38h
355C: FF            RST 38h
355D: FF            RST 38h
355E: FF            RST 38h
355F: FF            RST 38h
3560: FF            RST 38h
3561: FF            RST 38h
3562: FF            RST 38h
3563: FF            RST 38h
3564: FF            RST 38h
3565: FF            RST 38h
3566: FF            RST 38h
3567: FF            RST 38h
3568: FF            RST 38h
3569: FF            RST 38h
356A: FF            RST 38h
356B: FF            RST 38h
356C: FF            RST 38h
356D: FF            RST 38h
356E: FF            RST 38h
356F: FF            RST 38h
3570: FF            RST 38h
3571: FF            RST 38h
3572: FF            RST 38h
3573: FF            RST 38h
3574: FF            RST 38h
3575: FF            RST 38h
3576: FF            RST 38h
3577: FF            RST 38h
3578: FF            RST 38h
3579: FF            RST 38h
357A: FF            RST 38h
357B: FF            RST 38h
357C: FF            RST 38h
357D: FF            RST 38h
357E: FF            RST 38h
357F: FF            RST 38h
3580: FF            RST 38h
3581: FF            RST 38h
3582: FF            RST 38h
3583: FF            RST 38h
3584: FF            RST 38h
3585: FF            RST 38h
3586: FF            RST 38h
3587: FF            RST 38h
3588: FF            RST 38h
3589: FF            RST 38h
358A: FF            RST 38h
358B: FF            RST 38h
358C: FF            RST 38h
358D: FF            RST 38h
358E: FF            RST 38h
358F: FF            RST 38h
3590: FF            RST 38h
3591: FF            RST 38h
3592: FF            RST 38h
3593: FF            RST 38h
3594: FF            RST 38h
3595: FF            RST 38h
3596: FF            RST 38h
3597: FF            RST 38h
3598: FF            RST 38h
3599: FF            RST 38h
359A: FF            RST 38h
359B: FF            RST 38h
359C: FF            RST 38h
359D: FF            RST 38h
359E: FF            RST 38h
359F: FF            RST 38h
35A0: FF            RST 38h
35A1: FF            RST 38h
35A2: FF            RST 38h
35A3: FF            RST 38h
35A4: FF            RST 38h
35A5: FF            RST 38h
35A6: FF            RST 38h
35A7: FF            RST 38h
35A8: FF            RST 38h
35A9: FF            RST 38h
35AA: FF            RST 38h
35AB: FF            RST 38h
35AC: FF            RST 38h
35AD: FF            RST 38h
35AE: FF            RST 38h
35AF: FF            RST 38h
35B0: FF            RST 38h
35B1: FF            RST 38h
35B2: FF            RST 38h
35B3: FF            RST 38h
35B4: FF            RST 38h
35B5: FF            RST 38h
35B6: FF            RST 38h
35B7: FF            RST 38h
35B8: FF            RST 38h
35B9: FF            RST 38h
35BA: FF            RST 38h
35BB: FF            RST 38h
35BC: FF            RST 38h
35BD: FF            RST 38h
35BE: FF            RST 38h
35BF: FF            RST 38h
35C0: FF            RST 38h
35C1: FF            RST 38h
35C2: FF            RST 38h
35C3: FF            RST 38h
35C4: FF            RST 38h
35C5: FF            RST 38h
35C6: FF            RST 38h
35C7: FF            RST 38h
35C8: FF            RST 38h
35C9: FF            RST 38h
35CA: FF            RST 38h
35CB: FF            RST 38h
35CC: FF            RST 38h
35CD: FF            RST 38h
35CE: FF            RST 38h
35CF: FF            RST 38h
35D0: FF            RST 38h
35D1: FF            RST 38h
35D2: FF            RST 38h
35D3: FF            RST 38h
35D4: FF            RST 38h
35D5: FF            RST 38h
35D6: FF            RST 38h
35D7: FF            RST 38h
35D8: FF            RST 38h
35D9: FF            RST 38h
35DA: FF            RST 38h
35DB: FF            RST 38h
35DC: FF            RST 38h
35DD: FF            RST 38h
35DE: FF            RST 38h
35DF: FF            RST 38h
35E0: FF            RST 38h
35E1: FF            RST 38h
35E2: FF            RST 38h
35E3: FF            RST 38h
35E4: FF            RST 38h
35E5: FF            RST 38h
35E6: FF            RST 38h
35E7: FF            RST 38h
35E8: FF            RST 38h
35E9: FF            RST 38h
35EA: FF            RST 38h
35EB: FF            RST 38h
35EC: FF            RST 38h
35ED: FF            RST 38h
35EE: FF            RST 38h
35EF: FF            RST 38h
35F0: FF            RST 38h
35F1: FF            RST 38h
35F2: FF            RST 38h
35F3: FF            RST 38h
35F4: FF            RST 38h
35F5: FF            RST 38h
35F6: FF            RST 38h
35F7: FF            RST 38h
35F8: FF            RST 38h
35F9: FF            RST 38h
35FA: FF            RST 38h
35FB: FF            RST 38h
35FC: FF            RST 38h
35FD: FF            RST 38h
35FE: FF            RST 38h
35FF: FF            RST 38h
3600: FF            RST 38h
3601: FF            RST 38h
3602: FF            RST 38h
3603: FF            RST 38h
3604: FF            RST 38h
3605: FF            RST 38h
3606: FF            RST 38h
3607: FF            RST 38h
3608: FF            RST 38h
3609: FF            RST 38h
360A: FF            RST 38h
360B: FF            RST 38h
360C: FF            RST 38h
360D: FF            RST 38h
360E: FF            RST 38h

sub_360F:
360F: FF            RST 38h
3610: FF            RST 38h
3611: FF            RST 38h
3612: FF            RST 38h
3613: FF            RST 38h
3614: FF            RST 38h
3615: FF            RST 38h
3616: FF            RST 38h
3617: FF            RST 38h
3618: FF            RST 38h
3619: FF            RST 38h
361A: FF            RST 38h
361B: FF            RST 38h
361C: FF            RST 38h
361D: FF            RST 38h
361E: FF            RST 38h
361F: FF            RST 38h
3620: FF            RST 38h
3621: FF            RST 38h
3622: FF            RST 38h
3623: FF            RST 38h
3624: FF            RST 38h
3625: FF            RST 38h
3626: FF            RST 38h
3627: FF            RST 38h
3628: FF            RST 38h
3629: FF            RST 38h
362A: FF            RST 38h
362B: FF            RST 38h
362C: FF            RST 38h
362D: FF            RST 38h
362E: FF            RST 38h
362F: FF            RST 38h
3630: FF            RST 38h
3631: FF            RST 38h
3632: FF            RST 38h
3633: FF            RST 38h
3634: FF            RST 38h
3635: FF            RST 38h
3636: FF            RST 38h
3637: FF            RST 38h
3638: FF            RST 38h
3639: FF            RST 38h
363A: FF            RST 38h
363B: FF            RST 38h
363C: FF            RST 38h
363D: FF            RST 38h
363E: FF            RST 38h
363F: FF            RST 38h
3640: FF            RST 38h
3641: FF            RST 38h
3642: FF            RST 38h
3643: FF            RST 38h
3644: FF            RST 38h
3645: FF            RST 38h
3646: FF            RST 38h
3647: FF            RST 38h
3648: FF            RST 38h
3649: FF            RST 38h
364A: FF            RST 38h
364B: FF            RST 38h
364C: FF            RST 38h
364D: FF            RST 38h
364E: FF            RST 38h
364F: FF            RST 38h
3650: FF            RST 38h
3651: FF            RST 38h
3652: FF            RST 38h
3653: FF            RST 38h
3654: FF            RST 38h
3655: FF            RST 38h
3656: FF            RST 38h
3657: FF            RST 38h
3658: FF            RST 38h
3659: FF            RST 38h
365A: FF            RST 38h
365B: FF            RST 38h
365C: FF            RST 38h
365D: FF            RST 38h
365E: FF            RST 38h
365F: FF            RST 38h
3660: FF            RST 38h
3661: FF            RST 38h
3662: FF            RST 38h
3663: FF            RST 38h
3664: FF            RST 38h
3665: FF            RST 38h
3666: FF            RST 38h
3667: FF            RST 38h
3668: FF            RST 38h
3669: FF            RST 38h
366A: FF            RST 38h
366B: FF            RST 38h
366C: FF            RST 38h
366D: FF            RST 38h
366E: FF            RST 38h
366F: FF            RST 38h
3670: FF            RST 38h
3671: FF            RST 38h
3672: FF            RST 38h
3673: FF            RST 38h
3674: FF            RST 38h
3675: FF            RST 38h
3676: FF            RST 38h
3677: FF            RST 38h
3678: FF            RST 38h
3679: FF            RST 38h
367A: FF            RST 38h
367B: FF            RST 38h
367C: FF            RST 38h
367D: FF            RST 38h
367E: FF            RST 38h
367F: FF            RST 38h
3680: FF            RST 38h
3681: FF            RST 38h
3682: FF            RST 38h
3683: FF            RST 38h
3684: FF            RST 38h
3685: FF            RST 38h
3686: FF            RST 38h
3687: FF            RST 38h
3688: FF            RST 38h
3689: FF            RST 38h
368A: FF            RST 38h
368B: FF            RST 38h
368C: FF            RST 38h
368D: FF            RST 38h
368E: FF            RST 38h
368F: FF            RST 38h
3690: FF            RST 38h
3691: FF            RST 38h
3692: FF            RST 38h
3693: FF            RST 38h
3694: FF            RST 38h
3695: FF            RST 38h

sub_3696:
3696: FF            RST 38h
3697: FF            RST 38h
3698: FF            RST 38h
3699: FF            RST 38h
369A: FF            RST 38h
369B: FF            RST 38h
369C: FF            RST 38h
369D: FF            RST 38h
369E: FF            RST 38h
369F: FF            RST 38h
36A0: FF            RST 38h
36A1: FF            RST 38h
36A2: FF            RST 38h
36A3: FF            RST 38h
36A4: FF            RST 38h
36A5: FF            RST 38h
36A6: FF            RST 38h
36A7: FF            RST 38h
36A8: FF            RST 38h
36A9: FF            RST 38h
36AA: FF            RST 38h
36AB: FF            RST 38h
36AC: FF            RST 38h
36AD: FF            RST 38h
36AE: FF            RST 38h
36AF: FF            RST 38h
36B0: FF            RST 38h
36B1: FF            RST 38h
36B2: FF            RST 38h
36B3: FF            RST 38h
36B4: FF            RST 38h
36B5: FF            RST 38h
36B6: FF            RST 38h
36B7: FF            RST 38h
36B8: FF            RST 38h
36B9: FF            RST 38h
36BA: FF            RST 38h
36BB: FF            RST 38h
36BC: FF            RST 38h
36BD: FF            RST 38h
36BE: FF            RST 38h
36BF: FF            RST 38h
36C0: FF            RST 38h
36C1: FF            RST 38h
36C2: FF            RST 38h
36C3: FF            RST 38h
36C4: FF            RST 38h
36C5: FF            RST 38h
36C6: FF            RST 38h
36C7: FF            RST 38h
36C8: FF            RST 38h
36C9: FF            RST 38h
36CA: FF            RST 38h
36CB: FF            RST 38h
36CC: FF            RST 38h
36CD: FF            RST 38h
36CE: FF            RST 38h
36CF: FF            RST 38h
36D0: FF            RST 38h
36D1: FF            RST 38h
36D2: FF            RST 38h
36D3: FF            RST 38h
36D4: FF            RST 38h
36D5: FF            RST 38h
36D6: FF            RST 38h
36D7: FF            RST 38h
36D8: FF            RST 38h
36D9: FF            RST 38h
36DA: FF            RST 38h
36DB: FF            RST 38h
36DC: FF            RST 38h
36DD: FF            RST 38h
36DE: FF            RST 38h
36DF: FF            RST 38h
36E0: FF            RST 38h
36E1: FF            RST 38h
36E2: FF            RST 38h
36E3: FF            RST 38h
36E4: FF            RST 38h
36E5: FF            RST 38h
36E6: FF            RST 38h
36E7: FF            RST 38h
36E8: FF            RST 38h
36E9: FF            RST 38h
36EA: FF            RST 38h
36EB: FF            RST 38h
36EC: FF            RST 38h
36ED: FF            RST 38h
36EE: FF            RST 38h
36EF: FF            RST 38h
36F0: FF            RST 38h
36F1: FF            RST 38h
36F2: FF            RST 38h
36F3: FF            RST 38h
36F4: FF            RST 38h
36F5: FF            RST 38h
36F6: FF            RST 38h
36F7: FF            RST 38h
36F8: FF            RST 38h
36F9: FF            RST 38h
36FA: FF            RST 38h
36FB: FF            RST 38h
36FC: FF            RST 38h
36FD: FF            RST 38h
36FE: FF            RST 38h
36FF: FF            RST 38h
3700: FF            RST 38h
3701: FF            RST 38h
3702: FF            RST 38h
3703: FF            RST 38h
3704: FF            RST 38h
3705: FF            RST 38h
3706: FF            RST 38h
3707: FF            RST 38h
3708: FF            RST 38h
3709: FF            RST 38h
370A: FF            RST 38h
370B: FF            RST 38h
370C: FF            RST 38h
370D: FF            RST 38h
370E: FF            RST 38h
370F: FF            RST 38h
3710: FF            RST 38h
3711: FF            RST 38h
3712: FF            RST 38h
3713: FF            RST 38h
3714: FF            RST 38h
3715: FF            RST 38h
3716: FF            RST 38h
3717: FF            RST 38h
3718: FF            RST 38h
3719: FF            RST 38h
371A: FF            RST 38h
371B: FF            RST 38h
371C: FF            RST 38h
371D: FF            RST 38h
371E: FF            RST 38h
371F: FF            RST 38h
3720: FF            RST 38h
3721: FF            RST 38h
3722: FF            RST 38h
3723: FF            RST 38h
3724: FF            RST 38h
3725: FF            RST 38h
3726: FF            RST 38h
3727: FF            RST 38h
3728: FF            RST 38h
3729: FF            RST 38h
372A: FF            RST 38h
372B: FF            RST 38h
372C: FF            RST 38h
372D: FF            RST 38h
372E: FF            RST 38h
372F: FF            RST 38h
3730: FF            RST 38h
3731: FF            RST 38h
3732: FF            RST 38h
3733: FF            RST 38h
3734: FF            RST 38h
3735: FF            RST 38h
3736: FF            RST 38h
3737: FF            RST 38h
3738: FF            RST 38h
3739: FF            RST 38h
373A: FF            RST 38h
373B: FF            RST 38h
373C: FF            RST 38h
373D: FF            RST 38h
373E: FF            RST 38h
373F: FF            RST 38h
3740: FF            RST 38h
3741: FF            RST 38h
3742: FF            RST 38h
3743: FF            RST 38h
3744: FF            RST 38h
3745: FF            RST 38h
3746: FF            RST 38h
3747: FF            RST 38h
3748: FF            RST 38h
3749: FF            RST 38h
374A: FF            RST 38h
374B: FF            RST 38h
374C: FF            RST 38h
374D: FF            RST 38h
374E: FF            RST 38h
374F: FF            RST 38h
3750: FF            RST 38h
3751: FF            RST 38h
3752: FF            RST 38h
3753: FF            RST 38h
3754: FF            RST 38h
3755: FF            RST 38h
3756: FF            RST 38h
3757: FF            RST 38h
3758: FF            RST 38h
3759: FF            RST 38h
375A: FF            RST 38h
375B: FF            RST 38h
375C: FF            RST 38h
375D: FF            RST 38h
375E: FF            RST 38h
375F: FF            RST 38h
3760: FF            RST 38h
3761: FF            RST 38h
3762: FF            RST 38h
3763: FF            RST 38h
3764: FF            RST 38h
3765: FF            RST 38h
3766: FF            RST 38h
3767: FF            RST 38h
3768: FF            RST 38h
3769: FF            RST 38h
376A: FF            RST 38h
376B: FF            RST 38h
376C: FF            RST 38h
376D: FF            RST 38h
376E: FF            RST 38h
376F: FF            RST 38h
3770: FF            RST 38h
3771: FF            RST 38h
3772: FF            RST 38h
3773: FF            RST 38h
3774: FF            RST 38h
3775: FF            RST 38h
3776: FF            RST 38h
3777: FF            RST 38h
3778: FF            RST 38h
3779: FF            RST 38h
377A: FF            RST 38h
377B: FF            RST 38h
377C: FF            RST 38h
377D: FF            RST 38h
377E: FF            RST 38h
377F: FF            RST 38h
3780: FF            RST 38h
3781: FF            RST 38h
3782: FF            RST 38h
3783: FF            RST 38h
3784: FF            RST 38h
3785: FF            RST 38h
3786: FF            RST 38h
3787: FF            RST 38h
3788: FF            RST 38h
3789: FF            RST 38h
378A: FF            RST 38h
378B: FF            RST 38h
378C: FF            RST 38h
378D: FF            RST 38h
378E: FF            RST 38h
378F: FF            RST 38h
3790: FF            RST 38h
3791: FF            RST 38h
3792: FF            RST 38h
3793: FF            RST 38h
3794: FF            RST 38h
3795: FF            RST 38h
3796: FF            RST 38h
3797: FF            RST 38h
3798: FF            RST 38h
3799: FF            RST 38h
379A: FF            RST 38h
379B: FF            RST 38h
379C: FF            RST 38h
379D: FF            RST 38h
379E: FF            RST 38h
379F: FF            RST 38h
37A0: FF            RST 38h
37A1: FF            RST 38h
37A2: FF            RST 38h
37A3: FF            RST 38h
37A4: FF            RST 38h
37A5: FF            RST 38h
37A6: FF            RST 38h
37A7: FF            RST 38h
37A8: FF            RST 38h
37A9: FF            RST 38h
37AA: FF            RST 38h
37AB: FF            RST 38h
37AC: FF            RST 38h
37AD: FF            RST 38h
37AE: FF            RST 38h
37AF: FF            RST 38h
37B0: FF            RST 38h
37B1: FF            RST 38h
37B2: FF            RST 38h
37B3: FF            RST 38h
37B4: FF            RST 38h
37B5: FF            RST 38h
37B6: FF            RST 38h
37B7: FF            RST 38h
37B8: FF            RST 38h
37B9: FF            RST 38h
37BA: FF            RST 38h
37BB: FF            RST 38h
37BC: FF            RST 38h
37BD: FF            RST 38h
37BE: FF            RST 38h
37BF: FF            RST 38h
37C0: FF            RST 38h
37C1: FF            RST 38h
37C2: FF            RST 38h
37C3: FF            RST 38h
37C4: FF            RST 38h
37C5: FF            RST 38h
37C6: FF            RST 38h
37C7: FF            RST 38h
37C8: FF            RST 38h
37C9: FF            RST 38h
37CA: FF            RST 38h
37CB: FF            RST 38h
37CC: FF            RST 38h
37CD: FF            RST 38h
37CE: FF            RST 38h
37CF: FF            RST 38h
37D0: FF            RST 38h
37D1: FF            RST 38h
37D2: FF            RST 38h
37D3: FF            RST 38h
37D4: FF            RST 38h
37D5: FF            RST 38h
37D6: FF            RST 38h
37D7: FF            RST 38h
37D8: FF            RST 38h
37D9: FF            RST 38h
37DA: FF            RST 38h
37DB: FF            RST 38h
37DC: FF            RST 38h
37DD: FF            RST 38h
37DE: FF            RST 38h
37DF: FF            RST 38h
37E0: FF            RST 38h
37E1: FF            RST 38h

loc_37E2:
37E2: FF            RST 38h
37E3: FF            RST 38h
37E4: FF            RST 38h
37E5: FF            RST 38h
37E6: FF            RST 38h
37E7: FF            RST 38h
37E8: FF            RST 38h
37E9: FF            RST 38h
37EA: FF            RST 38h
37EB: FF            RST 38h
37EC: FF            RST 38h
37ED: FF            RST 38h
37EE: FF            RST 38h
37EF: FF            RST 38h
37F0: FF            RST 38h
37F1: FF            RST 38h
37F2: FF            RST 38h
37F3: FF            RST 38h
37F4: FF            RST 38h
37F5: FF            RST 38h
37F6: FF            RST 38h
37F7: FF            RST 38h
37F8: FF            RST 38h
37F9: FF            RST 38h
37FA: FF            RST 38h
37FB: FF            RST 38h
37FC: FF            RST 38h
37FD: FF            RST 38h
37FE: FF            RST 38h
37FF: FF            RST 38h
3800: 7E            LD A,(HL)
3801: 78            LD A,B
3802: 0C            INC C
3803: 7E            LD A,(HL)
3804: 7B            LD A,E
3805: B2            OR D
3806: 7E            LD A,(HL)
3807: 7B            LD A,E
3808: B2            OR D
3809: 7E            LD A,(HL)
380A: 78            LD A,B
380B: 09            ADD HL,BC
380C: 96            SUB (HL)
380D: C0            RET NZ
380E: 85            ADD A,L
380F: 80            ADD A,B
3810: 2A 17 96      LD HL,(9617h)
3813: CE 85         ADC A,85h
3815: 01 26 11      LD BC,1126h
3818: 85            ADD A,L
3819: 80            ADD A,B
381A: 26 0A         LD H,0Ah
381C: 0F            RRCA
381D: CF            RST 08h
381E: 0F            RRCA
381F: D0            RET NC
3820: 96            SUB (HL)
3821: CE 8A         ADC A,8Ah
3823: 80            ADD A,B
3824: 97            SUB A
3825: CE BD         ADC A,BDh
3827: 78            LD A,B
3828: 2A 39 0C      LD HL,(0C39h)
382B: CF            RST 08h
382C: 96            SUB (HL)
382D: CF            RST 08h
382E: 81            ADD A,C
382F: 20 26         JR NZ,loc_3857
3831: 48            LD C,B
3832: 0F            RRCA
3833: CF            RST 08h
3834: 0C            INC C
3835: D0            RET NC
3836: 96            SUB (HL)
3837: D0            RET NC
3838: 81            ADD A,C
3839: 06 25         LD B,25h
383B: 0E 96         LD C,96h
383D: CE 8A         ADC A,8Ah
383F: 01 97 CE      LD BC,CE97h
3842: 96            SUB (HL)
3843: C0            RET NZ
3844: 8A            ADC A,D
3845: 40            LD B,B
3846: 97            SUB A

loc_3847:
3847: C0            RET NZ
3848: 20 30         JR NZ,loc_387A
384A: 8E            ADC A,(HL)
384B: 78            LD A,B
384C: 86            ADD A,(HL)
384D: D6 D0         SUB D0h
384F: 58            LD E,B
3850: AE            XOR (HL)
3851: 85            ADD A,L
3852: 10 8E         DJNZ loc_37E2
3854: 78            LD A,B
3855: 7B            LD A,E
3856: A6            AND (HL)

loc_3857:
3857: A0            AND B
3858: B7            OR A
3859: 00            NOP
385A: 00            NOP
385B: EC A1 34      CALL PE,sub_34A1
385E: 20 1F         JR NZ,loc_387F
3860: 02            LD (BC),A
3861: 86            ADD A,(HL)
3862: 10 B7         DJNZ loc_381B
3864: 00            NOP
3865: 01 EC 81      LD BC,81ECh
3868: E7            RST 20h
3869: A9            XOR C
386A: 02            LD (BC),A
386B: 00            NOP
386C: A7            AND A
386D: A0            AND B
386E: 7A            LD A,D
386F: 00            NOP
3870: 01 26 F3      LD BC,F326h
3873: 35            DEC (HL)
3874: 20 7A         JR NZ,loc_38F0
3876: 00            NOP
3877: 00            NOP
3878: 26 E1         LD H,E1h

loc_387A:
387A: 39            ADD HL,SP
387B: 05            DEC B
387C: 3D            DEC A
387D: 00            NOP
387E: 3D            DEC A

loc_387F:
387F: 20 3D         JR NZ,loc_38BE
3881: 50            LD D,B
3882: 3D            DEC A
3883: 60            LD H,B
3884: 3D            DEC A
3885: 70            LD (HL),B

sub_3886:
3886: 78            LD A,B
3887: 92            SUB D
3888: 78            LD A,B
3889: 92            SUB D
388A: 79            LD A,C
388B: 32 79 D2      LD (D279h),A
388E: 7A            LD A,D
388F: 72            LD (HL),D
3890: 7B            LD A,E
3891: 12            LD (DE),A
3892: 00            NOP
3893: 00            NOP
3894: 00            NOP
3895: 00            NOP
3896: AC            XOR H
3897: 06 8B         LD B,8Bh
3899: 04            INC B
389A: 6A            LD L,D
389B: 03            INC BC
389C: 58            LD E,B
389D: 02            LD (BC),A
389E: 47            LD B,A
389F: 02            LD (BC),A
38A0: 36 02         LD (HL),02h
38A2: 25            DEC H
38A3: 01 14 00      LD BC,0014h
38A6: 13            INC DE
38A7: 00            NOP
38A8: 02            LD (BC),A
38A9: 00            NOP
38AA: 01 00 BB      LD BC,BB00h
38AD: 0C            INC C
38AE: 55            LD D,L
38AF: 06 88         LD B,88h
38B1: 09            ADD HL,BC
38B2: 00            NOP
38B3: 00            NOP
38B4: 00            NOP
38B5: 00            NOP
38B6: 11 00 22      LD DE,2200h
38B9: 01 33 02      LD BC,0233h
38BC: 44            LD B,H
38BD: 03            INC BC

loc_38BE:
38BE: 55            LD D,L
38BF: 04            INC B
38C0: 66            LD H,(HL)
38C1: 05            DEC B
38C2: 77            LD (HL),A
38C3: 06 88         LD B,88h
38C5: 07            RLCA
38C6: BB            CP E
38C7: 0A            LD A,(BC)
38C8: 99            SBC A,C
38C9: 08            EX AF,AF'
38CA: BB            CP E
38CB: 0D            DEC C
38CC: DB 0D         IN A,(0Dh)
38CE: 09            ADD HL,BC
38CF: 02            LD (BC),A
38D0: 4D            LD C,L
38D1: 06 00         LD B,00h
38D3: 00            NOP
38D4: 06 00         LD B,00h
38D6: 07            RLCA
38D7: 00            NOP
38D8: 08            EX AF,AF'
38D9: 00            NOP
38DA: 09            ADD HL,BC
38DB: 00            NOP
38DC: 0A            LD A,(BC)
38DD: 00            NOP
38DE: 0B            DEC BC
38DF: 00            NOP
38E0: 8B            ADC A,E
38E1: 04            INC B
38E2: 6A            LD L,D
38E3: 03            INC BC
38E4: 58            LD E,B
38E5: 02            LD (BC),A
38E6: 47            LD B,A
38E7: 02            LD (BC),A
38E8: 36 02         LD (HL),02h
38EA: 25            DEC H
38EB: 01 14 00      LD BC,0014h
38EE: 13            INC DE
38EF: 00            NOP

loc_38F0:
38F0: 01 00 00      LD BC,0000h
38F3: 00            NOP
38F4: 00            NOP
38F5: 00            NOP
38F6: DD            DB DDh ; prefix (nop)
38F7: 0B            DEC BC
38F8: DD            DB DDh ; prefix (nop)
38F9: 01 9C 00      LD BC,009Ch
38FC: 6B            LD L,E
38FD: 02            LD (BC),A
38FE: 79            LD A,C
38FF: 03            INC BC
3900: 69            LD L,C
3901: 03            INC BC
3902: 57            LD D,A
3903: 03            INC BC
3904: 46            LD B,(HL)
3905: 02            LD (BC),A
3906: 35            DEC (HL)
3907: 01 24 01      LD BC,0124h
390A: 13            INC DE
390B: 00            NOP
390C: 01 00 DD      LD BC,DD00h
390F: 07            RLCA
3910: 0D            DEC C
3911: 00            NOP
3912: 00            NOP
3913: 00            NOP
3914: 00            NOP
3915: 00            NOP
3916: DD            DB DDh ; prefix (nop)
3917: 0B            DEC BC
3918: DD            DB DDh ; prefix (nop)
3919: 01 9C 00      LD BC,009Ch
391C: 6B            LD L,E
391D: 02            LD (BC),A
391E: 79            LD A,C
391F: 03            INC BC
3920: D6 0C         SUB 0Ch
3922: 57            LD D,A
3923: 03            INC BC
3924: 46            LD B,(HL)
3925: 02            LD (BC),A
3926: 35            DEC (HL)
3927: 01 24 01      LD BC,0124h
392A: 13            INC DE
392B: 00            NOP
392C: 01 00 DD      LD BC,DD00h
392F: 07            RLCA
3930: 0D            DEC C
3931: 00            NOP
3932: 00            NOP
3933: 00            NOP
3934: 00            NOP
3935: 00            NOP
3936: 8A            ADC A,D
3937: 03            INC BC
3938: 69            LD L,C
3939: 02            LD (BC),A
393A: 48            LD C,B
393B: 01 36 00      LD BC,0036h
393E: 25            DEC H
393F: 00            NOP
3940: 14            INC D
3941: 00            NOP
3942: 03            INC BC
3943: 00            NOP
3944: 02            LD (BC),A
3945: 00            NOP
3946: 01 00 00      LD BC,0000h
3949: 00            NOP
394A: 00            NOP
394B: 00            NOP
394C: 99            SBC A,C
394D: 0A            LD A,(BC)
394E: 33            INC SP
394F: 04            INC B
3950: 66            LD H,(HL)
3951: 07            RLCA
3952: 00            NOP
3953: 00            NOP
3954: 00            NOP
3955: 00            NOP
3956: 00            NOP
3957: 00            NOP
3958: 00            NOP
3959: 00            NOP
395A: 11 00 22      LD DE,2200h
395D: 01 33 02      LD BC,0233h
3960: 44            LD B,H
3961: 03            INC BC
3962: 55            LD D,L
3963: 04            INC B
3964: 66            LD H,(HL)
3965: 05            DEC B
3966: 99            SBC A,C
3967: 08            EX AF,AF'
3968: 77            LD (HL),A
3969: 06 99         LD B,99h
396B: 0B            DEC BC
396C: B9            CP C
396D: 0B            DEC BC
396E: 07            RLCA
396F: 00            NOP
3970: 2B            DEC HL
3971: 04            INC B
3972: 00            NOP
3973: 00            NOP
3974: 04            INC B
3975: 00            NOP
3976: 05            DEC B
3977: 00            NOP
3978: 06 00         LD B,00h
397A: 07            RLCA
397B: 00            NOP
397C: 08            EX AF,AF'
397D: 00            NOP
397E: 09            ADD HL,BC
397F: 00            NOP
3980: 69            LD L,C
3981: 02            LD (BC),A
3982: 48            LD C,B
3983: 01 36 00      LD BC,0036h
3986: 25            DEC H
3987: 00            NOP
3988: 14            INC D
3989: 00            NOP
398A: 03            INC BC
398B: 00            NOP
398C: 02            LD (BC),A
398D: 00            NOP
398E: 01 00 00      LD BC,0000h
3991: 00            NOP
3992: 00            NOP
3993: 00            NOP
3994: 00            NOP
3995: 00            NOP
3996: BB            CP E
3997: 09            ADD HL,BC
3998: BB            CP E
3999: 00            NOP
399A: 7A            LD A,D
399B: 00            NOP
399C: 49            LD C,C
399D: 00            NOP
399E: 57            LD D,A
399F: 01 47 01      LD BC,0147h
39A2: 35            DEC (HL)
39A3: 01 24 00      LD BC,0024h
39A6: 13            INC DE
39A7: 00            NOP
39A8: 02            LD (BC),A
39A9: 00            NOP
39AA: 01 00 00      LD BC,0000h
39AD: 00            NOP
39AE: BB            CP E
39AF: 05            DEC B
39B0: 0B            DEC BC
39B1: 00            NOP
39B2: 00            NOP
39B3: 00            NOP
39B4: 00            NOP
39B5: 00            NOP
39B6: BB            CP E
39B7: 09            ADD HL,BC
39B8: BB            CP E
39B9: 00            NOP
39BA: 7A            LD A,D
39BB: 00            NOP
39BC: 49            LD C,C
39BD: 00            NOP
39BE: 57            LD D,A
39BF: 01 B4 0A      LD BC,0AB4h
39C2: 35            DEC (HL)
39C3: 01 24 00      LD BC,0024h
39C6: 13            INC DE
39C7: 00            NOP
39C8: 02            LD (BC),A
39C9: 00            NOP
39CA: 01 00 00      LD BC,0000h
39CD: 00            NOP
39CE: BB            CP E
39CF: 05            DEC B
39D0: 0B            DEC BC
39D1: 00            NOP
39D2: 00            NOP
39D3: 00            NOP
39D4: 00            NOP
39D5: 00            NOP
39D6: 68            LD L,B
39D7: 01 47 00      LD BC,0047h
39DA: 26 00         LD H,00h
39DC: 14            INC D
39DD: 00            NOP
39DE: 03            INC BC
39DF: 00            NOP
39E0: 02            LD (BC),A
39E1: 00            NOP
39E2: 01 00 00      LD BC,0000h
39E5: 00            NOP
39E6: 00            NOP
39E7: 00            NOP
39E8: 00            NOP
39E9: 00            NOP
39EA: 00            NOP
39EB: 00            NOP
39EC: 77            LD (HL),A
39ED: 08            EX AF,AF'
39EE: 11 02 44      LD DE,4402h
39F1: 05            DEC B
39F2: 00            NOP
39F3: 00            NOP
39F4: 00            NOP
39F5: 00            NOP
39F6: 00            NOP
39F7: 00            NOP
39F8: 00            NOP
39F9: 00            NOP
39FA: 00            NOP
39FB: 00            NOP
39FC: 00            NOP
39FD: 00            NOP
39FE: 11 00 22      LD DE,2200h
3A01: 01 33 02      LD BC,0233h
3A04: 44            LD B,H
3A05: 03            INC BC
3A06: 77            LD (HL),A
3A07: 06 55         LD B,55h
3A09: 04            INC B
3A0A: 77            LD (HL),A
3A0B: 09            ADD HL,BC
3A0C: 97            SUB A
3A0D: 09            ADD HL,BC
3A0E: 05            DEC B
3A0F: 00            NOP
3A10: 09            ADD HL,BC
3A11: 02            LD (BC),A
3A12: 00            NOP
3A13: 00            NOP
3A14: 02            LD (BC),A
3A15: 00            NOP
3A16: 03            INC BC
3A17: 00            NOP
3A18: 04            INC B
3A19: 00            NOP
3A1A: 05            DEC B
3A1B: 00            NOP
3A1C: 06 00         LD B,00h
3A1E: 07            RLCA
3A1F: 00            NOP
3A20: 47            LD B,A
3A21: 00            NOP
3A22: 26 00         LD H,00h
3A24: 14            INC D
3A25: 00            NOP
3A26: 03            INC BC
3A27: 00            NOP
3A28: 02            LD (BC),A
3A29: 00            NOP
3A2A: 01 00 00      LD BC,0000h
3A2D: 00            NOP
3A2E: 00            NOP
3A2F: 00            NOP
3A30: 00            NOP
3A31: 00            NOP
3A32: 00            NOP
3A33: 00            NOP
3A34: 00            NOP
3A35: 00            NOP
3A36: 99            SBC A,C
3A37: 07            RLCA
3A38: 99            SBC A,C
3A39: 00            NOP
3A3A: 58            LD E,B
3A3B: 00            NOP
3A3C: 27            DAA
3A3D: 00            NOP
3A3E: 35            DEC (HL)
3A3F: 00            NOP
3A40: 25            DEC H
3A41: 00            NOP
3A42: 13            INC DE
3A43: 00            NOP
3A44: 02            LD (BC),A
3A45: 00            NOP
3A46: 01 00 00      LD BC,0000h
3A49: 00            NOP
3A4A: 00            NOP
3A4B: 00            NOP
3A4C: 00            NOP
3A4D: 00            NOP
3A4E: 99            SBC A,C
3A4F: 03            INC BC
3A50: 09            ADD HL,BC
3A51: 00            NOP
3A52: 00            NOP
3A53: 00            NOP
3A54: 00            NOP
3A55: 00            NOP
3A56: 99            SBC A,C
3A57: 07            RLCA
3A58: 99            SBC A,C
3A59: 00            NOP
3A5A: 58            LD E,B
3A5B: 00            NOP
3A5C: 27            DAA
3A5D: 00            NOP
3A5E: 35            DEC (HL)
3A5F: 00            NOP
3A60: 92            SUB D
3A61: 08            EX AF,AF'
3A62: 13            INC DE
3A63: 00            NOP
3A64: 02            LD (BC),A
3A65: 00            NOP
3A66: 01 00 00      LD BC,0000h
3A69: 00            NOP
3A6A: 00            NOP
3A6B: 00            NOP
3A6C: 00            NOP
3A6D: 00            NOP
3A6E: 99            SBC A,C
3A6F: 03            INC BC
3A70: 09            ADD HL,BC
3A71: 00            NOP
3A72: 00            NOP
3A73: 00            NOP
3A74: 00            NOP
3A75: 00            NOP
3A76: 46            LD B,(HL)
3A77: 00            NOP
3A78: 25            DEC H
3A79: 00            NOP
3A7A: 04            INC B
3A7B: 00            NOP
3A7C: 02            LD (BC),A
3A7D: 00            NOP
3A7E: 01 00 00      LD BC,0000h
3A81: 00            NOP
3A82: 00            NOP
3A83: 00            NOP
3A84: 00            NOP
3A85: 00            NOP
3A86: 00            NOP
3A87: 00            NOP
3A88: 00            NOP
3A89: 00            NOP
3A8A: 00            NOP
3A8B: 00            NOP
3A8C: 55            LD D,L
3A8D: 06 00         LD B,00h
3A8F: 00            NOP
3A90: 22 03 00      LD (0003h),HL
3A93: 00            NOP
3A94: 00            NOP
3A95: 00            NOP
3A96: 00            NOP
3A97: 00            NOP
3A98: 00            NOP
3A99: 00            NOP
3A9A: 00            NOP
3A9B: 00            NOP
3A9C: 00            NOP
3A9D: 00            NOP
3A9E: 00            NOP
3A9F: 00            NOP
3AA0: 00            NOP
3AA1: 00            NOP
3AA2: 11 00 22      LD DE,2200h
3AA5: 01 55 04      LD BC,0455h
3AA8: 33            INC SP
3AA9: 02            LD (BC),A
3AAA: 55            LD D,L
3AAB: 07            RLCA
3AAC: 75            LD (HL),L
3AAD: 07            RLCA
3AAE: 03            INC BC
3AAF: 00            NOP
3AB0: 07            RLCA
3AB1: 00            NOP
3AB2: 00            NOP
3AB3: 00            NOP
3AB4: 00            NOP
3AB5: 00            NOP
3AB6: 01 00 02      LD BC,0200h
3AB9: 00            NOP
3ABA: 03            INC BC
3ABB: 00            NOP
3ABC: 04            INC B
3ABD: 00            NOP
3ABE: 05            DEC B
3ABF: 00            NOP
3AC0: 25            DEC H
3AC1: 00            NOP
3AC2: 04            INC B
3AC3: 00            NOP
3AC4: 02            LD (BC),A
3AC5: 00            NOP
3AC6: 01 00 00      LD BC,0000h
3AC9: 00            NOP
3ACA: 00            NOP
3ACB: 00            NOP
3ACC: 00            NOP
3ACD: 00            NOP
3ACE: 00            NOP
3ACF: 00            NOP
3AD0: 00            NOP
3AD1: 00            NOP
3AD2: 00            NOP
3AD3: 00            NOP
3AD4: 00            NOP
3AD5: 00            NOP
3AD6: 77            LD (HL),A
3AD7: 05            DEC B
3AD8: 77            LD (HL),A
3AD9: 00            NOP
3ADA: 36 00         LD (HL),00h
3ADC: 05            DEC B
3ADD: 00            NOP
3ADE: 13            INC DE
3ADF: 00            NOP
3AE0: 03            INC BC
3AE1: 00            NOP
3AE2: 01 00 00      LD BC,0000h
3AE5: 00            NOP
3AE6: 00            NOP
3AE7: 00            NOP
3AE8: 00            NOP
3AE9: 00            NOP
3AEA: 00            NOP
3AEB: 00            NOP
3AEC: 00            NOP
3AED: 00            NOP
3AEE: 77            LD (HL),A
3AEF: 01 07 00      LD BC,0007h
3AF2: 00            NOP
3AF3: 00            NOP
3AF4: 00            NOP
3AF5: 00            NOP
3AF6: 77            LD (HL),A
3AF7: 05            DEC B
3AF8: 77            LD (HL),A
3AF9: 00            NOP
3AFA: 36 00         LD (HL),00h
3AFC: 05            DEC B
3AFD: 00            NOP
3AFE: 13            INC DE
3AFF: 00            NOP
3B00: 70            LD (HL),B
3B01: 06 01         LD B,01h
3B03: 00            NOP
3B04: 00            NOP
3B05: 00            NOP
3B06: 00            NOP
3B07: 00            NOP
3B08: 00            NOP
3B09: 00            NOP
3B0A: 00            NOP
3B0B: 00            NOP
3B0C: 00            NOP
3B0D: 00            NOP
3B0E: 77            LD (HL),A
3B0F: 01 07 00      LD BC,0007h
3B12: 00            NOP
3B13: 00            NOP
3B14: 00            NOP
3B15: 00            NOP
3B16: 24            INC H
3B17: 00            NOP
3B18: 03            INC BC
3B19: 00            NOP
3B1A: 02            LD (BC),A
3B1B: 00            NOP
3B1C: 00            NOP
3B1D: 00            NOP
3B1E: 00            NOP
3B1F: 00            NOP
3B20: 00            NOP
3B21: 00            NOP
3B22: 00            NOP
3B23: 00            NOP
3B24: 00            NOP
3B25: 00            NOP
3B26: 00            NOP
3B27: 00            NOP
3B28: 00            NOP
3B29: 00            NOP
3B2A: 00            NOP
3B2B: 00            NOP
3B2C: 33            INC SP
3B2D: 04            INC B
3B2E: 00            NOP
3B2F: 00            NOP
3B30: 00            NOP
3B31: 01 00 00      LD BC,0000h
3B34: 00            NOP
3B35: 00            NOP
3B36: 00            NOP
3B37: 00            NOP
3B38: 00            NOP
3B39: 00            NOP
3B3A: 00            NOP
3B3B: 00            NOP
3B3C: 00            NOP
3B3D: 00            NOP
3B3E: 00            NOP
3B3F: 00            NOP
3B40: 00            NOP
3B41: 00            NOP
3B42: 00            NOP
3B43: 00            NOP
3B44: 00            NOP
3B45: 00            NOP
3B46: 33            INC SP
3B47: 02            LD (BC),A
3B48: 11 00 33      LD DE,3300h
3B4B: 05            DEC B
3B4C: 53            LD D,E
3B4D: 05            DEC B
3B4E: 01 00 05      LD BC,0500h
3B51: 00            NOP
3B52: 00            NOP
3B53: 00            NOP
3B54: 00            NOP
3B55: 00            NOP
3B56: 00            NOP
3B57: 00            NOP
3B58: 00            NOP
3B59: 00            NOP
3B5A: 01 00 02      LD BC,0200h
3B5D: 00            NOP
3B5E: 03            INC BC
3B5F: 00            NOP
3B60: 03            INC BC
3B61: 00            NOP
3B62: 02            LD (BC),A
3B63: 00            NOP
3B64: 00            NOP
3B65: 00            NOP
3B66: 00            NOP
3B67: 00            NOP
3B68: 00            NOP
3B69: 00            NOP
3B6A: 00            NOP
3B6B: 00            NOP

loc_3B6C:
3B6C: 00            NOP
3B6D: 00            NOP
3B6E: 00            NOP
3B6F: 00            NOP
3B70: 00            NOP
3B71: 00            NOP
3B72: 00            NOP
3B73: 00            NOP

loc_3B74:
3B74: 00            NOP
3B75: 00            NOP
3B76: 55            LD D,L
3B77: 03            INC BC
3B78: 55            LD D,L
3B79: 00            NOP
3B7A: 14            INC D
3B7B: 00            NOP
3B7C: 03            INC BC
3B7D: 00            NOP

loc_3B7E:
3B7E: 01 00 50      LD BC,5000h
3B81: 04            INC B
3B82: 00            NOP
3B83: 00            NOP
3B84: 00            NOP
3B85: 00            NOP
3B86: 00            NOP
3B87: 00            NOP
3B88: 00            NOP
3B89: 00            NOP
3B8A: 00            NOP
3B8B: 00            NOP
3B8C: 00            NOP
3B8D: 00            NOP
3B8E: 55            LD D,L
3B8F: 00            NOP
3B90: 05            DEC B
3B91: 00            NOP
3B92: 00            NOP
3B93: 00            NOP
3B94: 00            NOP
3B95: 00            NOP
3B96: 55            LD D,L
3B97: 03            INC BC
3B98: 55            LD D,L
3B99: 00            NOP
3B9A: 14            INC D
3B9B: 00            NOP
3B9C: 03            INC BC
3B9D: 00            NOP
3B9E: 01 00 50      LD BC,5000h
3BA1: 04            INC B
3BA2: 00            NOP
3BA3: 00            NOP
3BA4: 00            NOP
3BA5: 00            NOP
3BA6: 00            NOP
3BA7: 00            NOP
3BA8: 00            NOP
3BA9: 00            NOP
3BAA: 00            NOP
3BAB: 00            NOP
3BAC: 00            NOP
3BAD: 00            NOP
3BAE: 55            LD D,L
3BAF: 00            NOP
3BB0: 05            DEC B
3BB1: 00            NOP
3BB2: 8E            ADC A,(HL)
3BB3: 7B            LD A,E
3BB4: F7            RST 30h
3BB5: D6 B5         SUB B5h
3BB7: 58            LD E,B
3BB8: AE            XOR (HL)
3BB9: 85            ADD A,L
3BBA: 10 8E         DJNZ loc_3B4A
3BBC: 10 10         DJNZ loc_3BCE
3BBE: EC 81 E7      CALL PE,E781h
3BC1: A9            XOR C
3BC2: 02            LD (BC),A
3BC3: 00            NOP
3BC4: 58            LD E,B
3BC5: 49            LD C,C
3BC6: 58            LD E,B
3BC7: 49            LD C,C
3BC8: 58            LD E,B
3BC9: 49            LD C,C
3BCA: 58            LD E,B
3BCB: 49            LD C,C
3BCC: A7            AND A
3BCD: A0            AND B

loc_3BCE:
3BCE: 10 8C         DJNZ loc_3B5C
3BD0: 10 20         DJNZ loc_3BF2
3BD2: 26 EA         LD H,EAh
3BD4: 8E            ADC A,(HL)
3BD5: 7C            LD A,H
3BD6: 03            INC BC
3BD7: D6 B5         SUB B5h
3BD9: 58            LD E,B
3BDA: AE            XOR (HL)
3BDB: 85            ADD A,L
3BDC: 10 8E         DJNZ loc_3B6C
3BDE: 10 70         DJNZ loc_3C50
3BE0: EC 81 E7      CALL PE,E781h
3BE3: A9            XOR C
3BE4: 02            LD (BC),A
3BE5: 00            NOP
3BE6: 58            LD E,B
3BE7: 49            LD C,C
3BE8: 58            LD E,B
3BE9: 49            LD C,C
3BEA: 58            LD E,B
3BEB: 49            LD C,C
3BEC: 58            LD E,B
3BED: 49            LD C,C
3BEE: A7            AND A
3BEF: A0            AND B
3BF0: 10 8C         DJNZ loc_3B7E

loc_3BF2:
3BF2: 10 80         DJNZ loc_3B74
3BF4: 26 EA         LD H,EAh
3BF6: 39            ADD HL,SP
3BF7: 7C            LD A,H
3BF8: 0F            RRCA
3BF9: 7C            LD A,H
3BFA: 2F            CPL
3BFB: 7C            LD A,H
3BFC: 4F            LD C,A
3BFD: 7C            LD A,H
3BFE: 6F            LD L,A
3BFF: 7C            LD A,H
3C00: 8F            ADC A,A
3C01: 7C            LD A,H
3C02: AF            XOR A
3C03: 7C            LD A,H
3C04: 0F            RRCA
3C05: 7C            LD A,H
3C06: 2F            CPL
3C07: 7C            LD A,H
3C08: 4F            LD C,A
3C09: 7C            LD A,H
3C0A: 6F            LD L,A
3C0B: 7C            LD A,H
3C0C: 8F            ADC A,A
3C0D: 7C            LD A,H
3C0E: AF            XOR A
3C0F: 03            INC BC
3C10: 41            LD B,C
3C11: 04            INC B
3C12: 42            LD B,D
3C13: 04            INC B
3C14: 43            LD B,E
3C15: 00            NOP
3C16: 00            NOP
3C17: 00            NOP
3C18: 00            NOP
3C19: 00            NOP
3C1A: 00            NOP
3C1B: 00            NOP
3C1C: 00            NOP
3C1D: 00            NOP
3C1E: 00            NOP
3C1F: 00            NOP
3C20: 00            NOP
3C21: 00            NOP
3C22: 00            NOP
3C23: 00            NOP
3C24: 10 00         DJNZ loc_3C26

loc_3C26:
3C26: 10 01         DJNZ loc_3C29
3C28: 10 01         DJNZ loc_3C2B
3C2A: 30 02         JR NC,loc_3C2E
3C2C: 40            LD B,B
3C2D: 00            NOP

loc_3C2E:
3C2E: 00            NOP
3C2F: 00            NOP
3C30: 00            NOP
3C31: 05            DEC B
3C32: 53            LD D,E
3C33: 05            DEC B
3C34: 53            LD D,E
3C35: 05            DEC B
3C36: 53            LD D,E
3C37: 00            NOP
3C38: 00            NOP
3C39: 00            NOP
3C3A: 00            NOP
3C3B: 00            NOP
3C3C: 00            NOP
3C3D: 00            NOP
3C3E: 00            NOP
3C3F: 01 00 00      LD BC,0000h
3C42: 10 00         DJNZ loc_3C44

loc_3C44:
3C44: 20 00         JR NZ,loc_3C46

loc_3C46:
3C46: 20 01         JR NZ,loc_3C49
3C48: 20 02         JR NZ,loc_3C4C
3C4A: 40            LD B,B
3C4B: 03            INC BC

loc_3C4C:
3C4C: 51            LD D,C
3C4D: 00            NOP
3C4E: 00            NOP
3C4F: 00            NOP

loc_3C50:
3C50: 00            NOP
3C51: 07            RLCA
3C52: 75            LD (HL),L
3C53: 07            RLCA
3C54: 75            LD (HL),L
3C55: 07            RLCA
3C56: 75            LD (HL),L
3C57: 00            NOP
3C58: 00            NOP
3C59: 00            NOP
3C5A: 00            NOP
3C5B: 00            NOP
3C5C: 00            NOP
3C5D: 00            NOP
3C5E: 10 00         DJNZ loc_3C60

loc_3C60:
3C60: 10 00         DJNZ loc_3C62

loc_3C62:
3C62: 20 01         JR NZ,loc_3C65
3C64: 30 01         JR NC,loc_3C67
3C66: 30 02         JR NC,loc_3C6A
3C68: 30 03         JR NC,loc_3C6D

loc_3C6A:
3C6A: 51            LD D,C
3C6B: 04            INC B
3C6C: 62            LD H,D

loc_3C6D:
3C6D: 00            NOP
3C6E: 00            NOP
3C6F: 00            NOP
3C70: 00            NOP
3C71: 09            ADD HL,BC
3C72: 98            SBC A,B
3C73: 09            ADD HL,BC
3C74: 98            SBC A,B
3C75: 09            ADD HL,BC
3C76: 98            SBC A,B
3C77: 00            NOP
3C78: 00            NOP
3C79: 00            NOP
3C7A: 10 00         DJNZ loc_3C7C

loc_3C7C:
3C7C: 10 01         DJNZ loc_3C7F
3C7E: 20 01         JR NZ,loc_3C81
3C80: 20 01         JR NZ,loc_3C83
3C82: 30 02         JR NC,loc_3C86
3C84: 41            LD B,C
3C85: 02            LD (BC),A

loc_3C86:
3C86: 41            LD B,C
3C87: 03            INC BC
3C88: 51            LD D,C
3C89: 04            INC B
3C8A: 62            LD H,D
3C8B: 05            DEC B
3C8C: 72            LD (HL),D
3C8D: 00            NOP
3C8E: 00            NOP
3C8F: 00            NOP
3C90: 00            NOP
3C91: 0B            DEC BC
3C92: B7            OR A
3C93: 0B            DEC BC
3C94: B9            CP C
3C95: 0C            INC C
3C96: CA 00 10      JP Z,loc_1000
3C99: 01 20 01      LD BC,0120h
3C9C: 20 01         JR NZ,loc_3C9F
3C9E: 30 02         JR NC,loc_3CA2
3CA0: 41            LD B,C
3CA1: 02            LD (BC),A

loc_3CA2:
3CA2: 51            LD D,C
3CA3: 03            INC BC
3CA4: 62            LD H,D
3CA5: 03            INC BC
3CA6: 62            LD H,D
3CA7: 05            DEC B
3CA8: 83            ADD A,E
3CA9: 07            RLCA
3CAA: 94            SUB H
3CAB: 09            ADD HL,BC
3CAC: B4            OR H
3CAD: 00            NOP
3CAE: 00            NOP
3CAF: 00            NOP
3CB0: 00            NOP
3CB1: 0E FA         LD C,FAh
3CB3: 0F            RRCA
3CB4: FD            DB FDh ; prefix (nop)
3CB5: 0F            RRCA
3CB6: FF            RST 38h
3CB7: 01 30 02      LD BC,0230h
3CBA: 41            LD B,C
3CBB: 03            INC BC
3CBC: 52            LD D,D
3CBD: 03            INC BC
3CBE: 62            LD H,D
3CBF: 04            INC B
3CC0: 73            LD (HL),E
3CC1: 05            DEC B
3CC2: 84            ADD A,H
3CC3: 06 94         LD B,94h
3CC5: 07            RLCA
3CC6: A4            AND H
3CC7: 08            EX AF,AF'
3CC8: C5            PUSH BC
3CC9: 0A            LD A,(BC)
3CCA: D6 0C         SUB 0Ch
3CCC: E8            RET PE
3CCD: 00            NOP
3CCE: 00            NOP
3CCF: 00            NOP
3CD0: 00            NOP
3CD1: 02            LD (BC),A
3CD2: 12            LD (DE),A
3CD3: 02            LD (BC),A
3CD4: 22 02 22      LD (2202h),HL
3CD7: 00            NOP
3CD8: 00            NOP
3CD9: 00            NOP
3CDA: 00            NOP
3CDB: 00            NOP

sub_3CDC:
3CDC: 00            NOP
3CDD: 00            NOP
3CDE: 00            NOP
3CDF: 00            NOP
3CE0: 00            NOP
3CE1: 01 02 01      LD BC,0102h
3CE4: 02            LD (BC),A
3CE5: 02            LD (BC),A
3CE6: 13            INC DE
3CE7: 02            LD (BC),A
3CE8: 13            INC DE
3CE9: 00            NOP
3CEA: 00            NOP
3CEB: 01 12 00      LD BC,0012h
3CEE: 00            NOP
3CEF: 00            NOP
3CF0: 00            NOP
3CF1: 04            INC B
3CF2: 35            DEC (HL)
3CF3: 04            INC B
3CF4: 45            LD B,L
3CF5: 04            INC B
3CF6: 45            LD B,L
3CF7: 00            NOP
3CF8: 00            NOP
3CF9: 00            NOP
3CFA: 00            NOP
3CFB: 00            NOP
3CFC: 00            NOP
3CFD: 00            NOP
3CFE: 00            NOP
3CFF: 01 02 02      LD BC,0202h
3D02: 13            INC DE
3D03: 02            LD (BC),A
3D04: 13            INC DE
3D05: 03            INC BC
3D06: 24            INC H
3D07: 03            INC BC
3D08: 24            INC H
3D09: 01 12 03      LD BC,0312h
3D0C: 24            INC H
3D0D: 00            NOP
3D0E: 00            NOP
3D0F: 00            NOP
3D10: 00            NOP
3D11: 05            DEC B
3D12: 46            LD B,(HL)
3D13: 06 67         LD B,67h
3D15: 06 67         LD B,67h
3D17: 01 02 01      LD BC,0102h
3D1A: 02            LD (BC),A
3D1B: 01 02 01      LD BC,0102h
3D1E: 02            LD (BC),A
3D1F: 02            LD (BC),A
3D20: 13            INC DE
3D21: 03            INC BC
3D22: 24            INC H
3D23: 03            INC BC
3D24: 24            INC H
3D25: 04            INC B
3D26: 35            DEC (HL)
3D27: 04            INC B
3D28: 35            DEC (HL)
3D29: 04            INC B
3D2A: 35            DEC (HL)
3D2B: 04            INC B
3D2C: 35            DEC (HL)
3D2D: 00            NOP
3D2E: 00            NOP
3D2F: 00            NOP
3D30: 00            NOP
3D31: 07            RLCA
3D32: 68            LD L,B
3D33: 09            ADD HL,BC
3D34: 9A            SBC A,D
3D35: 09            ADD HL,BC
3D36: 9A            SBC A,D
3D37: 02            LD (BC),A
3D38: 13            INC DE
3D39: 02            LD (BC),A
3D3A: 13            INC DE
3D3B: 02            LD (BC),A
3D3C: 13            INC DE
3D3D: 02            LD (BC),A
3D3E: 13            INC DE
3D3F: 03            INC BC
3D40: 24            INC H
3D41: 04            INC B
3D42: 35            DEC (HL)
3D43: 04            INC B
3D44: 35            DEC (HL)
3D45: 05            DEC B
3D46: 46            LD B,(HL)
3D47: 05            DEC B
3D48: 46            LD B,(HL)
3D49: 05            DEC B
3D4A: 46            LD B,(HL)
3D4B: 06 57         LD B,57h
3D4D: 00            NOP
3D4E: 00            NOP
3D4F: 00            NOP
3D50: 00            NOP
3D51: 09            ADD HL,BC
3D52: 8A            ADC A,D
3D53: 0C            INC C
3D54: CD 0C CD      CALL CD0Ch
3D57: 03            INC BC
3D58: 24            INC H
3D59: 03            INC BC
3D5A: 24            INC H
3D5B: 03            INC BC
3D5C: 24            INC H
3D5D: 03            INC BC
3D5E: 24            INC H
3D5F: 04            INC B
3D60: 35            DEC (HL)
3D61: 05            DEC B
3D62: 46            LD B,(HL)
3D63: 05            DEC B
3D64: 46            LD B,(HL)
3D65: 06 57         LD B,57h
3D67: 07            RLCA
3D68: 68            LD L,B
3D69: 07            RLCA
3D6A: 68            LD L,B
3D6B: 08            EX AF,AF'
3D6C: 79            LD A,C
3D6D: 00            NOP
3D6E: 00            NOP
3D6F: 00            NOP
3D70: 00            NOP
3D71: 0C            INC C
3D72: BD            CP L
3D73: 0F            RRCA
3D74: EF            RST 28h
3D75: 0F            RRCA
3D76: FF            RST 38h
3D77: 03            INC BC
3D78: 24            INC H
3D79: 09            ADD HL,BC
3D7A: 14            INC D
3D7B: 03            INC BC
3D7C: 24            INC H
3D7D: 04            INC B
3D7E: 35            DEC (HL)
3D7F: 05            DEC B
3D80: 46            LD B,(HL)
3D81: 06 57         LD B,57h
3D83: 07            RLCA
3D84: 68            LD L,B
3D85: 08            EX AF,AF'
3D86: 79            LD A,C
3D87: 09            ADD HL,BC
3D88: 8A            ADC A,D
3D89: 0A            LD A,(BC)
3D8A: 9B            SBC A,E
3D8B: 0B            DEC BC
3D8C: AC            XOR H
3D8D: 0C            INC C
3D8E: BD            CP L
3D8F: 00            NOP
3D90: FF            RST 38h
3D91: FF            RST 38h
3D92: FF            RST 38h
3D93: FF            RST 38h
3D94: FF            RST 38h
3D95: FF            RST 38h
3D96: FF            RST 38h
3D97: FF            RST 38h
3D98: FF            RST 38h
3D99: FF            RST 38h
3D9A: FF            RST 38h
3D9B: FF            RST 38h
3D9C: FF            RST 38h
3D9D: FF            RST 38h
3D9E: FF            RST 38h
3D9F: FF            RST 38h
3DA0: FF            RST 38h
3DA1: FF            RST 38h
3DA2: FF            RST 38h
3DA3: FF            RST 38h
3DA4: FF            RST 38h
3DA5: FF            RST 38h
3DA6: FF            RST 38h
3DA7: FF            RST 38h
3DA8: FF            RST 38h
3DA9: FF            RST 38h
3DAA: FF            RST 38h
3DAB: FF            RST 38h
3DAC: FF            RST 38h
3DAD: FF            RST 38h
3DAE: FF            RST 38h
3DAF: FF            RST 38h
3DB0: FF            RST 38h
3DB1: FF            RST 38h
3DB2: FF            RST 38h
3DB3: FF            RST 38h
3DB4: FF            RST 38h
3DB5: FF            RST 38h
3DB6: FF            RST 38h
3DB7: FF            RST 38h
3DB8: FF            RST 38h
3DB9: FF            RST 38h
3DBA: FF            RST 38h
3DBB: FF            RST 38h
3DBC: FF            RST 38h
3DBD: FF            RST 38h
3DBE: FF            RST 38h
3DBF: FF            RST 38h
3DC0: FF            RST 38h
3DC1: FF            RST 38h
3DC2: FF            RST 38h
3DC3: FF            RST 38h
3DC4: FF            RST 38h
3DC5: FF            RST 38h
3DC6: FF            RST 38h
3DC7: FF            RST 38h
3DC8: FF            RST 38h
3DC9: FF            RST 38h
3DCA: FF            RST 38h
3DCB: FF            RST 38h
3DCC: FF            RST 38h
3DCD: FF            RST 38h
3DCE: FF            RST 38h
3DCF: FF            RST 38h
3DD0: FF            RST 38h
3DD1: FF            RST 38h
3DD2: FF            RST 38h
3DD3: FF            RST 38h
3DD4: FF            RST 38h
3DD5: FF            RST 38h
3DD6: FF            RST 38h
3DD7: FF            RST 38h
3DD8: FF            RST 38h
3DD9: FF            RST 38h
3DDA: FF            RST 38h
3DDB: FF            RST 38h
3DDC: FF            RST 38h
3DDD: FF            RST 38h
3DDE: FF            RST 38h
3DDF: FF            RST 38h
3DE0: FF            RST 38h
3DE1: FF            RST 38h
3DE2: FF            RST 38h
3DE3: FF            RST 38h
3DE4: FF            RST 38h
3DE5: FF            RST 38h
3DE6: FF            RST 38h
3DE7: FF            RST 38h
3DE8: FF            RST 38h
3DE9: FF            RST 38h
3DEA: FF            RST 38h
3DEB: FF            RST 38h
3DEC: FF            RST 38h
3DED: FF            RST 38h
3DEE: FF            RST 38h
3DEF: FF            RST 38h
3DF0: FF            RST 38h
3DF1: FF            RST 38h
3DF2: FF            RST 38h
3DF3: FF            RST 38h
3DF4: FF            RST 38h
3DF5: FF            RST 38h
3DF6: FF            RST 38h
3DF7: FF            RST 38h
3DF8: FF            RST 38h
3DF9: FF            RST 38h
3DFA: FF            RST 38h
3DFB: FF            RST 38h
3DFC: FF            RST 38h
3DFD: FF            RST 38h
3DFE: FF            RST 38h
3DFF: FF            RST 38h

sub_3E00:
3E00: FF            RST 38h
3E01: FF            RST 38h
3E02: FF            RST 38h
3E03: FF            RST 38h
3E04: FF            RST 38h
3E05: FF            RST 38h
3E06: FF            RST 38h
3E07: FF            RST 38h
3E08: FF            RST 38h
3E09: FF            RST 38h
3E0A: FF            RST 38h
3E0B: FF            RST 38h
3E0C: FF            RST 38h
3E0D: FF            RST 38h
3E0E: FF            RST 38h
3E0F: FF            RST 38h
3E10: FF            RST 38h
3E11: FF            RST 38h
3E12: FF            RST 38h
3E13: FF            RST 38h
3E14: FF            RST 38h
3E15: FF            RST 38h
3E16: FF            RST 38h
3E17: FF            RST 38h
3E18: FF            RST 38h
3E19: FF            RST 38h
3E1A: FF            RST 38h
3E1B: FF            RST 38h
3E1C: FF            RST 38h
3E1D: FF            RST 38h
3E1E: FF            RST 38h
3E1F: FF            RST 38h
3E20: FF            RST 38h
3E21: FF            RST 38h
3E22: FF            RST 38h
3E23: FF            RST 38h
3E24: FF            RST 38h
3E25: FF            RST 38h
3E26: FF            RST 38h
3E27: FF            RST 38h
3E28: FF            RST 38h
3E29: FF            RST 38h
3E2A: FF            RST 38h
3E2B: FF            RST 38h
3E2C: FF            RST 38h
3E2D: FF            RST 38h
3E2E: FF            RST 38h
3E2F: FF            RST 38h
3E30: FF            RST 38h
3E31: FF            RST 38h
3E32: FF            RST 38h
3E33: FF            RST 38h
3E34: FF            RST 38h
3E35: FF            RST 38h
3E36: FF            RST 38h
3E37: FF            RST 38h
3E38: FF            RST 38h
3E39: FF            RST 38h
3E3A: FF            RST 38h
3E3B: FF            RST 38h
3E3C: FF            RST 38h
3E3D: FF            RST 38h
3E3E: FF            RST 38h
3E3F: FF            RST 38h
3E40: FF            RST 38h
3E41: FF            RST 38h
3E42: FF            RST 38h
3E43: FF            RST 38h
3E44: FF            RST 38h
3E45: FF            RST 38h
3E46: FF            RST 38h
3E47: FF            RST 38h
3E48: FF            RST 38h
3E49: FF            RST 38h
3E4A: FF            RST 38h
3E4B: FF            RST 38h
3E4C: FF            RST 38h
3E4D: FF            RST 38h
3E4E: FF            RST 38h
3E4F: FF            RST 38h
3E50: FF            RST 38h
3E51: FF            RST 38h
3E52: FF            RST 38h
3E53: FF            RST 38h
3E54: FF            RST 38h
3E55: FF            RST 38h
3E56: FF            RST 38h
3E57: FF            RST 38h
3E58: FF            RST 38h
3E59: FF            RST 38h
3E5A: FF            RST 38h
3E5B: FF            RST 38h
3E5C: FF            RST 38h
3E5D: FF            RST 38h
3E5E: FF            RST 38h
3E5F: FF            RST 38h
3E60: FF            RST 38h
3E61: FF            RST 38h
3E62: FF            RST 38h
3E63: FF            RST 38h
3E64: FF            RST 38h
3E65: FF            RST 38h
3E66: FF            RST 38h
3E67: FF            RST 38h
3E68: FF            RST 38h
3E69: FF            RST 38h
3E6A: FF            RST 38h
3E6B: FF            RST 38h
3E6C: FF            RST 38h
3E6D: FF            RST 38h
3E6E: FF            RST 38h
3E6F: FF            RST 38h
3E70: FF            RST 38h
3E71: FF            RST 38h
3E72: FF            RST 38h
3E73: FF            RST 38h
3E74: FF            RST 38h
3E75: FF            RST 38h
3E76: FF            RST 38h
3E77: FF            RST 38h
3E78: FF            RST 38h
3E79: FF            RST 38h
3E7A: FF            RST 38h
3E7B: FF            RST 38h
3E7C: FF            RST 38h
3E7D: FF            RST 38h
3E7E: FF            RST 38h
3E7F: FF            RST 38h
3E80: FF            RST 38h
3E81: FF            RST 38h
3E82: FF            RST 38h
3E83: FF            RST 38h
3E84: FF            RST 38h
3E85: FF            RST 38h
3E86: FF            RST 38h
3E87: FF            RST 38h
3E88: FF            RST 38h
3E89: FF            RST 38h
3E8A: FF            RST 38h
3E8B: FF            RST 38h
3E8C: FF            RST 38h
3E8D: FF            RST 38h
3E8E: FF            RST 38h
3E8F: FF            RST 38h
3E90: FF            RST 38h
3E91: FF            RST 38h
3E92: FF            RST 38h
3E93: FF            RST 38h
3E94: FF            RST 38h
3E95: FF            RST 38h
3E96: FF            RST 38h
3E97: FF            RST 38h
3E98: FF            RST 38h
3E99: FF            RST 38h
3E9A: FF            RST 38h
3E9B: FF            RST 38h
3E9C: FF            RST 38h
3E9D: FF            RST 38h
3E9E: FF            RST 38h
3E9F: FF            RST 38h
3EA0: FF            RST 38h
3EA1: FF            RST 38h
3EA2: FF            RST 38h
3EA3: FF            RST 38h
3EA4: FF            RST 38h
3EA5: FF            RST 38h
3EA6: FF            RST 38h
3EA7: FF            RST 38h
3EA8: FF            RST 38h
3EA9: FF            RST 38h
3EAA: FF            RST 38h
3EAB: FF            RST 38h
3EAC: FF            RST 38h
3EAD: FF            RST 38h
3EAE: FF            RST 38h
3EAF: FF            RST 38h
3EB0: FF            RST 38h
3EB1: FF            RST 38h
3EB2: FF            RST 38h
3EB3: FF            RST 38h
3EB4: FF            RST 38h
3EB5: FF            RST 38h
3EB6: FF            RST 38h
3EB7: FF            RST 38h
3EB8: FF            RST 38h
3EB9: FF            RST 38h
3EBA: FF            RST 38h
3EBB: FF            RST 38h
3EBC: FF            RST 38h
3EBD: FF            RST 38h
3EBE: FF            RST 38h
3EBF: FF            RST 38h
3EC0: FF            RST 38h
3EC1: FF            RST 38h
3EC2: FF            RST 38h
3EC3: FF            RST 38h
3EC4: FF            RST 38h
3EC5: FF            RST 38h
3EC6: FF            RST 38h
3EC7: FF            RST 38h
3EC8: FF            RST 38h
3EC9: FF            RST 38h
3ECA: FF            RST 38h
3ECB: FF            RST 38h
3ECC: FF            RST 38h
3ECD: FF            RST 38h
3ECE: FF            RST 38h
3ECF: FF            RST 38h
3ED0: FF            RST 38h
3ED1: FF            RST 38h
3ED2: FF            RST 38h
3ED3: FF            RST 38h
3ED4: FF            RST 38h
3ED5: FF            RST 38h
3ED6: FF            RST 38h
3ED7: FF            RST 38h
3ED8: FF            RST 38h
3ED9: FF            RST 38h
3EDA: FF            RST 38h
3EDB: FF            RST 38h
3EDC: FF            RST 38h
3EDD: FF            RST 38h
3EDE: FF            RST 38h
3EDF: FF            RST 38h
3EE0: FF            RST 38h
3EE1: FF            RST 38h
3EE2: FF            RST 38h
3EE3: FF            RST 38h
3EE4: FF            RST 38h
3EE5: FF            RST 38h
3EE6: FF            RST 38h
3EE7: FF            RST 38h
3EE8: FF            RST 38h
3EE9: FF            RST 38h
3EEA: FF            RST 38h
3EEB: FF            RST 38h
3EEC: FF            RST 38h
3EED: FF            RST 38h
3EEE: FF            RST 38h
3EEF: FF            RST 38h
3EF0: FF            RST 38h
3EF1: FF            RST 38h
3EF2: FF            RST 38h
3EF3: FF            RST 38h
3EF4: FF            RST 38h
3EF5: FF            RST 38h
3EF6: FF            RST 38h
3EF7: FF            RST 38h
3EF8: FF            RST 38h
3EF9: FF            RST 38h
3EFA: FF            RST 38h
3EFB: FF            RST 38h
3EFC: FF            RST 38h
3EFD: FF            RST 38h
3EFE: FF            RST 38h
3EFF: FF            RST 38h
3F00: FF            RST 38h
3F01: FF            RST 38h
3F02: FF            RST 38h
3F03: FF            RST 38h
3F04: FF            RST 38h
3F05: FF            RST 38h
3F06: FF            RST 38h
3F07: FF            RST 38h
3F08: FF            RST 38h
3F09: FF            RST 38h
3F0A: FF            RST 38h
3F0B: FF            RST 38h
3F0C: FF            RST 38h
3F0D: FF            RST 38h
3F0E: FF            RST 38h
3F0F: FF            RST 38h
3F10: FF            RST 38h
3F11: FF            RST 38h
3F12: FF            RST 38h
3F13: FF            RST 38h
3F14: FF            RST 38h
3F15: FF            RST 38h
3F16: FF            RST 38h
3F17: FF            RST 38h
3F18: FF            RST 38h
3F19: FF            RST 38h
3F1A: FF            RST 38h
3F1B: FF            RST 38h
3F1C: FF            RST 38h
3F1D: FF            RST 38h
3F1E: FF            RST 38h
3F1F: FF            RST 38h
3F20: FF            RST 38h
3F21: FF            RST 38h
3F22: FF            RST 38h
3F23: FF            RST 38h
3F24: FF            RST 38h
3F25: FF            RST 38h
3F26: FF            RST 38h
3F27: FF            RST 38h
3F28: FF            RST 38h
3F29: FF            RST 38h
3F2A: FF            RST 38h
3F2B: FF            RST 38h
3F2C: FF            RST 38h
3F2D: FF            RST 38h
3F2E: FF            RST 38h
3F2F: FF            RST 38h
3F30: FF            RST 38h
3F31: FF            RST 38h
3F32: FF            RST 38h
3F33: FF            RST 38h
3F34: FF            RST 38h
3F35: FF            RST 38h
3F36: FF            RST 38h
3F37: FF            RST 38h
3F38: FF            RST 38h
3F39: FF            RST 38h
3F3A: FF            RST 38h
3F3B: FF            RST 38h
3F3C: FF            RST 38h
3F3D: FF            RST 38h
3F3E: FF            RST 38h
3F3F: FF            RST 38h
3F40: FF            RST 38h
3F41: FF            RST 38h
3F42: FF            RST 38h
3F43: FF            RST 38h
3F44: FF            RST 38h
3F45: FF            RST 38h
3F46: FF            RST 38h
3F47: FF            RST 38h
3F48: FF            RST 38h
3F49: FF            RST 38h
3F4A: FF            RST 38h
3F4B: FF            RST 38h
3F4C: FF            RST 38h
3F4D: FF            RST 38h
3F4E: FF            RST 38h
3F4F: FF            RST 38h
3F50: FF            RST 38h
3F51: FF            RST 38h
3F52: FF            RST 38h
3F53: FF            RST 38h
3F54: FF            RST 38h
3F55: FF            RST 38h
3F56: FF            RST 38h
3F57: FF            RST 38h
3F58: FF            RST 38h
3F59: FF            RST 38h
3F5A: FF            RST 38h
3F5B: FF            RST 38h
3F5C: FF            RST 38h
3F5D: FF            RST 38h
3F5E: FF            RST 38h
3F5F: FF            RST 38h
3F60: FF            RST 38h
3F61: FF            RST 38h
3F62: FF            RST 38h
3F63: FF            RST 38h
3F64: FF            RST 38h
3F65: FF            RST 38h
3F66: FF            RST 38h
3F67: FF            RST 38h
3F68: FF            RST 38h
3F69: FF            RST 38h
3F6A: FF            RST 38h
3F6B: FF            RST 38h
3F6C: FF            RST 38h
3F6D: FF            RST 38h
3F6E: FF            RST 38h
3F6F: FF            RST 38h
3F70: FF            RST 38h
3F71: FF            RST 38h
3F72: FF            RST 38h
3F73: FF            RST 38h
3F74: FF            RST 38h
3F75: FF            RST 38h
3F76: FF            RST 38h
3F77: FF            RST 38h
3F78: FF            RST 38h
3F79: FF            RST 38h
3F7A: FF            RST 38h
3F7B: FF            RST 38h
3F7C: FF            RST 38h
3F7D: FF            RST 38h
3F7E: FF            RST 38h
3F7F: FF            RST 38h
3F80: FF            RST 38h
3F81: FF            RST 38h
3F82: FF            RST 38h
3F83: FF            RST 38h
3F84: FF            RST 38h
3F85: FF            RST 38h
3F86: FF            RST 38h
3F87: FF            RST 38h
3F88: FF            RST 38h
3F89: FF            RST 38h
3F8A: FF            RST 38h
3F8B: FF            RST 38h
3F8C: FF            RST 38h
3F8D: FF            RST 38h
3F8E: FF            RST 38h
3F8F: FF            RST 38h
3F90: FF            RST 38h
3F91: FF            RST 38h
3F92: FF            RST 38h
3F93: FF            RST 38h
3F94: FF            RST 38h
3F95: FF            RST 38h
3F96: FF            RST 38h
3F97: FF            RST 38h
3F98: FF            RST 38h
3F99: FF            RST 38h
3F9A: FF            RST 38h
3F9B: FF            RST 38h
3F9C: FF            RST 38h
3F9D: FF            RST 38h
3F9E: FF            RST 38h
3F9F: FF            RST 38h
3FA0: FF            RST 38h
3FA1: FF            RST 38h
3FA2: FF            RST 38h
3FA3: FF            RST 38h
3FA4: FF            RST 38h
3FA5: FF            RST 38h
3FA6: FF            RST 38h
3FA7: FF            RST 38h
3FA8: FF            RST 38h
3FA9: FF            RST 38h
3FAA: FF            RST 38h
3FAB: FF            RST 38h
3FAC: FF            RST 38h
3FAD: FF            RST 38h
3FAE: FF            RST 38h
3FAF: FF            RST 38h
3FB0: FF            RST 38h
3FB1: FF            RST 38h
3FB2: FF            RST 38h
3FB3: FF            RST 38h
3FB4: FF            RST 38h
3FB5: FF            RST 38h
3FB6: FF            RST 38h
3FB7: FF            RST 38h
3FB8: FF            RST 38h
3FB9: FF            RST 38h
3FBA: FF            RST 38h
3FBB: FF            RST 38h
3FBC: FF            RST 38h
3FBD: FF            RST 38h
3FBE: FF            RST 38h
3FBF: FF            RST 38h
3FC0: FF            RST 38h
3FC1: FF            RST 38h
3FC2: FF            RST 38h
3FC3: FF            RST 38h
3FC4: FF            RST 38h
3FC5: FF            RST 38h
3FC6: FF            RST 38h
3FC7: FF            RST 38h
3FC8: FF            RST 38h
3FC9: FF            RST 38h
3FCA: FF            RST 38h
3FCB: FF            RST 38h
3FCC: FF            RST 38h
3FCD: FF            RST 38h
3FCE: FF            RST 38h
3FCF: FF            RST 38h
3FD0: FF            RST 38h
3FD1: FF            RST 38h
3FD2: FF            RST 38h
3FD3: FF            RST 38h
3FD4: FF            RST 38h
3FD5: FF            RST 38h
3FD6: FF            RST 38h
3FD7: FF            RST 38h
3FD8: FF            RST 38h
3FD9: FF            RST 38h
3FDA: FF            RST 38h
3FDB: FF            RST 38h

sub_3FDC:
3FDC: FF            RST 38h
3FDD: FF            RST 38h
3FDE: FF            RST 38h
3FDF: FF            RST 38h
3FE0: FF            RST 38h
3FE1: FF            RST 38h
3FE2: FF            RST 38h
3FE3: FF            RST 38h
3FE4: FF            RST 38h
3FE5: FF            RST 38h
3FE6: FF            RST 38h
3FE7: FF            RST 38h
3FE8: FF            RST 38h
3FE9: FF            RST 38h
3FEA: FF            RST 38h
3FEB: FF            RST 38h
3FEC: FF            RST 38h
3FED: FF            RST 38h
3FEE: FF            RST 38h
3FEF: FF            RST 38h
3FF0: FF            RST 38h
3FF1: FF            RST 38h
3FF2: FF            RST 38h
3FF3: FF            RST 38h
3FF4: FF            RST 38h
3FF5: FF            RST 38h
3FF6: FF            RST 38h
3FF7: FF            RST 38h
3FF8: FF            RST 38h
3FF9: FF            RST 38h
3FFA: FF            RST 38h
3FFB: FF            RST 38h
3FFC: FF            RST 38h
3FFD: FF            RST 38h
3FFE: FF            RST 38h
3FFF: FF            RST 38h

loc_4000:
4000: 7E            LD A,(HL)

loc_4001:
4001: 40            LD B,B
4002: 00            NOP
4003: 7E            LD A,(HL)
4004: 41            LD B,C
4005: 20 7E         JR NZ,loc_4085
4007: 49            LD C,C
4008: FA 7E 41      JP M,loc_417E
400B: 00            NOP
400C: 7E            LD A,(HL)
400D: 4C            LD C,H
400E: 81            ADD A,C
400F: 7E            LD A,(HL)
4010: 66            LD H,(HL)
4011: 51            LD D,C
4012: 7E            LD A,(HL)
4013: 4C            LD C,H
4014: E1            POP HL
4015: 7E            LD A,(HL)
4016: 4D            LD C,L
4017: 51            LD D,C
4018: 7E            LD A,(HL)
4019: 4D            LD C,L
401A: 96            SUB (HL)
401B: 7E            LD A,(HL)
401C: 50            LD D,B
401D: 8A            ADC A,D
401E: 7E            LD A,(HL)
401F: 55            LD D,L
4020: 55            LD D,L
4021: 7E            LD A,(HL)
4022: 55            LD D,L
4023: 54            LD D,H
4024: 7E            LD A,(HL)
4025: 57            LD D,A
4026: 7D            LD A,L
4027: 7E            LD A,(HL)
4028: 57            LD D,A
4029: 7D            LD A,L
402A: 7E            LD A,(HL)
402B: 57            LD D,A
402C: 7E            LD A,(HL)
402D: 7E            LD A,(HL)
402E: 57            LD D,A
402F: AA            XOR D
4030: 7E            LD A,(HL)
4031: 57            LD D,A
4032: E4 7E 58      CALL PO,sub_587E
4035: 27            DAA
4036: 7E            LD A,(HL)
4037: 59            LD E,C
4038: 01 7E 4F      LD BC,4F7Eh
403B: 00            NOP
403C: 7E            LD A,(HL)
403D: 4F            LD C,A
403E: 01 7E 57      LD BC,577Eh
4041: 7D            LD A,L
4042: 7E            LD A,(HL)
4043: 57            LD D,A
4044: 7D            LD A,L
4045: 7E            LD A,(HL)
4046: 5D            LD E,L
4047: 19            ADD HL,DE
4048: 7E            LD A,(HL)
4049: 5D            LD E,L
404A: F5            PUSH AF
404B: 7E            LD A,(HL)
404C: 5D            LD E,L
404D: D6 7E         SUB 7Eh
404F: 5D            LD E,L
4050: FD 7E 62      LD A,(IY+62h)
4053: 3D            DEC A
4054: 7E            LD A,(HL)
4055: 62            LD H,D
4056: B5            OR L
4057: 7E            LD A,(HL)
4058: 61            LD H,C
4059: 59            LD E,C
405A: 7E            LD A,(HL)
405B: 63            LD H,E
405C: 55            LD D,L
405D: 7E            LD A,(HL)
405E: 63            LD H,E
405F: B1            OR C
4060: 7E            LD A,(HL)
4061: 64            LD H,H
4062: 91            SUB C
4063: 7E            LD A,(HL)
4064: 64            LD H,H
4065: 5C            LD E,H
4066: 7E            LD A,(HL)
4067: 5B            LD E,E
4068: 68            LD L,B
4069: 7E            LD A,(HL)
406A: 7E            LD A,(HL)
406B: CA 7E 69      JP Z,loc_697E
406E: 64            LD H,H
406F: 7E            LD A,(HL)
4070: 40            LD B,B
4071: 6F            LD L,A
4072: 7E            LD A,(HL)
4073: 57            LD D,A
4074: 7D            LD A,L
4075: 7E            LD A,(HL)
4076: 57            LD D,A
4077: 7D            LD A,L
4078: 7E            LD A,(HL)
4079: 50            LD D,B
407A: 01 7E 6C      LD BC,6C7Eh
407D: 05            DEC B
407E: 7E            LD A,(HL)
407F: 6C            LD L,H
4080: 05            DEC B
4081: 7E            LD A,(HL)
4082: 67            LD H,A
4083: 3B            DEC SP
4084: 7E            LD A,(HL)

loc_4085:
4085: 6C            LD L,H
4086: 03            INC BC
4087: 7E            LD A,(HL)
4088: 6C            LD L,H
4089: 04            INC B

sub_408A:
408A: 7E            LD A,(HL)
408B: 68            LD L,B
408C: 3B            DEC SP
408D: 7E            LD A,(HL)
408E: 40            LD B,B
408F: 8D            ADC A,L
4090: 7E            LD A,(HL)
4091: 69            LD L,C
4092: 21 7E 6C      LD HL,6C7Eh
4095: 6D            LD L,L
4096: 7E            LD A,(HL)
4097: 6B            LD L,E
4098: 56            LD D,(HL)
4099: 7E            LD A,(HL)
409A: 6B            LD L,E
409B: 9D            SBC A,L
409C: 7E            LD A,(HL)
409D: 6B            LD L,E
409E: E4 7E 6C      CALL PO,sub_6C7E
40A1: 02            LD (BC),A
40A2: 7E            LD A,(HL)
40A3: 40            LD B,B
40A4: A2            AND D
40A5: 7E            LD A,(HL)
40A6: 6C            LD L,H
40A7: 16 7E         LD D,7Eh
40A9: 6C            LD L,H
40AA: AD            XOR L
40AB: 7E            LD A,(HL)
40AC: 66            LD H,(HL)
40AD: 23            INC HL
40AE: 7E            LD A,(HL)
40AF: 57            LD D,A
40B0: 7D            LD A,L
40B1: 7E            LD A,(HL)
40B2: 6C            LD L,H
40B3: AD            XOR L
40B4: 7E            LD A,(HL)
40B5: 6C            LD L,H
40B6: AE            XOR (HL)
40B7: 7E            LD A,(HL)
40B8: 6A            LD L,D
40B9: 5C            LD E,H
40BA: 7E            LD A,(HL)
40BB: 6A            LD L,D
40BC: CB 7E         BIT 7,(HL)
40BE: 7E            LD A,(HL)
40BF: 3B            DEC SP
40C0: 7E            LD A,(HL)
40C1: 42            LD B,D

loc_40C2:
40C2: 8F            ADC A,A
40C3: 7E            LD A,(HL)
40C4: 6D            LD L,L
40C5: 6F            LD L,A
40C6: 7E            LD A,(HL)
40C7: 6D            LD L,L

loc_40C8:
40C8: 73            LD (HL),E
40C9: 7E            LD A,(HL)
40CA: 6D            LD L,L
40CB: 99            SBC A,C
40CC: 7E            LD A,(HL)
40CD: 6D            LD L,L
40CE: D8            RET C
40CF: 7E            LD A,(HL)
40D0: 64            LD H,H
40D1: 35            DEC (HL)
40D2: 7E            LD A,(HL)
40D3: 59            LD E,C
40D4: 46            LD B,(HL)
40D5: 7E            LD A,(HL)
40D6: 59            LD E,C
40D7: FC 7E 5A      CALL M,sub_5A7E
40DA: E0            RET PO
40DB: 7E            LD A,(HL)
40DC: 5B            LD E,E
40DD: 48            LD C,B
40DE: 7E            LD A,(HL)
40DF: 5B            LD E,E
40E0: 18 7E         JR loc_4160
40E2: 75            LD (HL),L
40E3: 6E            LD L,(HL)
40E4: 7E            LD A,(HL)
40E5: 5B            LD E,E
40E6: 72            LD (HL),D
40E7: 7E            LD A,(HL)
40E8: 78            LD A,B
40E9: 87            ADD A,A
40EA: 7E            LD A,(HL)
40EB: 40            LD B,B
40EC: EA 7E 5B      JP PE,loc_5B7E
40EF: EF            RST 28h
40F0: 7E            LD A,(HL)
40F1: 7C            LD A,H
40F2: 7C            LD A,H
40F3: 7E            LD A,(HL)
40F4: 7D            LD A,L
40F5: 60            LD H,B
40F6: 7E            LD A,(HL)
40F7: 7E            LD A,(HL)
40F8: 2A FF FF      LD HL,(FFFFh)
40FB: FF            RST 38h
40FC: FF            RST 38h
40FD: FF            RST 38h
40FE: FF            RST 38h
40FF: FF            RST 38h
4100: 34            INC (HL)
4101: 70            LD (HL),B

loc_4102:
4102: 10 BE         DJNZ loc_40C2
4104: 0F            RRCA
4105: 36 A6         LD (HL),A6h
4107: 88            ADC A,B
4108: 13            INC DE
4109: 84            ADD A,H
410A: 20 26         JR NZ,loc_4132
410C: 11 B6 0F      LD DE,0FB6h
410F: 34            INC (HL)
4110: 81            ADD A,C
4111: 1C            INC E
4112: 24            INC H
4113: 0A            LD A,(BC)
4114: B6            OR (HL)
4115: 0F            RRCA
4116: 33            INC SP
4117: 81            ADD A,C

loc_4118:
4118: 44            LD B,H
4119: 24            INC H
411A: 03            INC BC
411B: BD            CP L
411C: 41            LD B,C
411D: 20 35         JR NZ,loc_4154
411F: F0            RET P
4120: 34            INC (HL)
4121: 40            LD B,B
4122: 32 7D E6      LD (E67Dh),A
4125: 88            ADC A,B
4126: 17            RLA
4127: C4 0F C1      CALL NZ,C10Fh
412A: 0B            DEC BC
412B: 24            INC H
412C: FE 10         CP 10h
412E: 8E            ADC A,(HL)
412F: 44            LD B,H
4130: 28 A6         JR Z,loc_40D8

loc_4132:
4132: 88            ADC A,B
4133: 39            ADD HL,SP

loc_4134:
4134: 84            ADD A,H
4135: 7F            LD A,A
4136: 27            DAA
4137: 04            INC B
4138: 10 8E         DJNZ loc_40C8
413A: 44            LD B,H
413B: 3E 58         LD A,58h
413D: 10 AE         DJNZ loc_40ED
413F: A5            AND L
4140: 10 9F         DJNZ loc_40E1
4142: 00            NOP
4143: 10 BE         DJNZ loc_4103
4145: 0F            RRCA
4146: 36 E6         LD (HL),E6h
4148: A8            XOR B
4149: 1B            DEC DE
414A: C4 3F CE      CALL NZ,CE3Fh
414D: 44            LD B,H
414E: 0F            RRCA
414F: A6            AND (HL)
4150: C5            PUSH BC
4151: 26 07         LD H,07h
4153: BD            CP L

loc_4154:
4154: FC 00 27      CALL M,sub_2700
4157: 02            LD (BC),A
4158: 86            ADD A,(HL)
4159: 10 A7         DJNZ loc_4102
415B: 61            LD H,C
415C: BD            CP L
415D: 49            LD C,C
415E: D4 84 0F      CALL NC,sub_0F84
4161: AA            XOR D
4162: 61            LD H,C
4163: 10 9E         DJNZ loc_4103
4165: 00            NOP
4166: E6 A6         AND A6h
4168: E7            RST 20h
4169: 88            ADC A,B
416A: 1C            INC E
416B: BD            CP L
416C: 42            LD B,D
416D: 5A            LD E,D
416E: BD            CP L
416F: 41            LD B,C
4170: 83            ADD A,E
4171: BD            CP L
4172: 42            LD B,D
4173: 8F            ADC A,A
4174: BD            CP L
4175: 43            LD B,E
4176: AE            XOR (HL)
4177: A6            AND (HL)
4178: 88            ADC A,B
4179: 13            INC DE
417A: 8A            ADC A,D
417B: 20 A7         JR NZ,loc_4124
417D: 88            ADC A,B

loc_417E:
417E: 13            INC DE
417F: 32 63 35      LD (3563h),A
4182: C0            RET NZ
4183: A6            AND (HL)
4184: 88            ADC A,B
4185: 21 27 08      LD HL,0827h
4188: 10 8E         DJNZ loc_4118
418A: 41            LD B,C
418B: 91            SUB C
418C: 4A            LD C,D
418D: 48            LD C,B
418E: 6E            LD L,(HL)
418F: B6            OR (HL)
4190: 39            ADD HL,SP
4191: 41            LD B,C
4192: A3            AND E
4193: 41            LD B,C
4194: A4            AND H
4195: 42            LD B,D
4196: 3C            INC A
4197: 41            LD B,C
4198: A3            AND E
4199: 42            LD B,D
419A: 3C            INC A
419B: 42            LD B,D
419C: 3C            INC A
419D: 41            LD B,C
419E: A4            AND H
419F: 41            LD B,C
41A0: A3            AND E
41A1: 41            LD B,C
41A2: A3            AND E
41A3: 39            ADD HL,SP
41A4: 10 8E         DJNZ loc_4134
41A6: 42            LD B,D
41A7: 22 A6 01      LD (01A6h),HL
41AA: 81            ADD A,C
41AB: 22 25 02      LD (0225h),HL
41AE: 80            ADD A,B
41AF: 17            RLA
41B0: 48            LD C,B
41B1: E6 A6         AND A6h
41B3: E1            POP HL
41B4: 88            ADC A,B
41B5: 1C            INC E
41B6: 26 06         LD H,06h
41B8: 4C            LD C,H
41B9: A6            AND (HL)
41BA: A6            AND (HL)
41BB: A7            AND A
41BC: 88            ADC A,B
41BD: 1C            INC E
41BE: A6            AND (HL)
41BF: 01 81 03      LD BC,0381h
41C2: 26 0C         LD H,0Ch
41C4: A6            AND (HL)
41C5: 88            ADC A,B
41C6: 1C            INC E
41C7: 81            ADD A,C
41C8: 0A            LD A,(BC)
41C9: 26 05         LD H,05h
41CB: 86            ADD A,(HL)
41CC: 03            INC BC
41CD: A7            AND A
41CE: 88            ADC A,B
41CF: 1C            INC E
41D0: 10 8E         DJNZ loc_4160
41D2: 41            LD B,C
41D3: FE 5F         CP 5Fh
41D5: A6            AND (HL)
41D6: 88            ADC A,B
41D7: 17            RLA
41D8: 84            ADD A,H
41D9: 0F            RRCA
41DA: 27            DAA
41DB: 21 81 01      LD HL,0181h
41DE: 27            DAA
41DF: 08            EX AF,AF'
41E0: 81            ADD A,C
41E1: 06 25         LD B,25h
41E3: 19            ADD HL,DE
41E4: 80            ADD A,B
41E5: 05            DEC B
41E6: 1F            RRA
41E7: 89            ADC A,C
41E8: 86            ADD A,(HL)
41E9: 06 3D         LD B,3Dh
41EB: 31 AB A6      LD SP,A6ABh
41EE: A0            AND B
41EF: 81            ADD A,C
41F0: FF            RST 38h
41F1: 27            DAA
41F2: 0A            LD A,(BC)
41F3: A1            AND C
41F4: 88            ADC A,B
41F5: 1C            INC E
41F6: 26 F5         LD H,F5h
41F8: A6            AND (HL)
41F9: 22 A7 88      LD (88A7h),HL
41FC: 1C            INC E
41FD: 39            ADD HL,SP
41FE: 00            NOP
41FF: 0F            RRCA
4200: FF            RST 38h
4201: 04            INC B
4202: 04            INC B
4203: FF            RST 38h
4204: 00            NOP
4205: 04            INC B
4206: FF            RST 38h
4207: 02            LD (BC),A
4208: 02            LD (BC),A
4209: FF            RST 38h
420A: 00            NOP
420B: FF            RST 38h
420C: FF            RST 38h

loc_420D:
420D: 01 FF FF      LD BC,FFFFh
4210: 00            NOP
4211: FF            RST 38h
4212: FF            RST 38h
4213: 01 FF FF      LD BC,FFFFh
4216: 00            NOP
4217: FF            RST 38h
4218: FF            RST 38h
4219: 02            LD (BC),A
421A: FF            RST 38h
421B: FF            RST 38h
421C: 00            NOP
421D: FF            RST 38h
421E: FF            RST 38h
421F: 01 FF FF      LD BC,FFFFh
4222: FF            RST 38h
4223: 00            NOP
4224: FF            RST 38h
4225: 00            NOP
4226: FF            RST 38h
4227: 00            NOP
4228: 0B            DEC BC
4229: 00            NOP
422A: FF            RST 38h
422B: 00            NOP
422C: FF            RST 38h
422D: 00            NOP
422E: FF            RST 38h
422F: 00            NOP
4230: FF            RST 38h
4231: 00            NOP
4232: 05            DEC B
4233: 00            NOP
4234: 04            INC B
4235: 00            NOP
4236: FF            RST 38h
4237: 00            NOP
4238: 05            DEC B
4239: 00            NOP
423A: 04            INC B
423B: 00            NOP
423C: A6            AND (HL)
423D: 88            ADC A,B
423E: 17            RLA
423F: 84            ADD A,H
4240: 0F            RRCA
4241: 10 8E         DJNZ loc_41D1
4243: 42            LD B,D
4244: 4F            LD C,A
4245: A6            AND (HL)
4246: A6            AND (HL)
4247: 81            ADD A,C
4248: FF            RST 38h
4249: 27            DAA
424A: 03            INC BC
424B: A7            AND A
424C: 88            ADC A,B
424D: 1C            INC E
424E: 39            ADD HL,SP
424F: FF            RST 38h
4250: 0C            INC C
4251: 03            INC BC
4252: 03            INC BC
4253: 04            INC B
4254: 04            INC B
4255: FF            RST 38h
4256: 03            INC BC
4257: FF            RST 38h
4258: FF            RST 38h
4259: 03            INC BC
425A: A6            AND (HL)
425B: 88            ADC A,B
425C: 21 26 2B      LD HL,2B26h
425F: A6            AND (HL)
4260: 01 81 04      LD BC,0481h
4263: 25            DEC H
4264: 25            DEC H

loc_4265:
4265: 81            ADD A,C
4266: 08            EX AF,AF'
4267: 24            INC H
4268: 21 10 BE      LD HL,BE10h
426B: 0F            RRCA
426C: 36 EC         LD (HL),ECh
426E: 08            EX AF,AF'
426F: 10 A3         DJNZ loc_4214
4271: 28 26         JR Z,loc_4299
4273: 11 A6 A8      LD DE,A8A6h
4276: 1B            DEC DE
4277: 84            ADD A,H
4278: 3F            CCF
4279: 81            ADD A,C
427A: 04            INC B
427B: 24            INC H
427C: 08            EX AF,AF'
427D: 10 8E         DJNZ loc_420D
427F: 42            LD B,D
4280: 8B            ADC A,E
4281: A6            AND (HL)
4282: A6            AND (HL)
4283: 27            DAA
4284: 05            DEC B
4285: 86            ADD A,(HL)
4286: 00            NOP
4287: A7            AND A
4288: 88            ADC A,B
4289: 1C            INC E
428A: 39            ADD HL,SP
428B: 00            NOP
428C: FF            RST 38h
428D: 00            NOP
428E: 00            NOP
428F: A6            AND (HL)
4290: 01 81 02      LD BC,0281h
4293: 26 57         LD H,57h
4295: A6            AND (HL)
4296: 88            ADC A,B
4297: 15            DEC D
4298: 85            ADD A,L

loc_4299:
4299: 40            LD B,B
429A: 26 50         LD H,50h
429C: A6            AND (HL)
429D: 88            ADC A,B
429E: 1B            DEC DE
429F: 84            ADD A,H
42A0: 3F            CCF
42A1: 81            ADD A,C
42A2: 00            NOP
42A3: 26 47         LD H,47h
42A5: 10 BE         DJNZ loc_4265
42A7: 0F            RRCA
42A8: 36 A6         LD (HL),A6h
42AA: A8            XOR B
42AB: 1B            DEC DE
42AC: 84            ADD A,H
42AD: 3F            CCF
42AE: 81            ADD A,C
42AF: 07            RLCA
42B0: 26 3A         LD H,3Ah
42B2: A6            AND (HL)
42B3: A8            XOR B
42B4: 1E 81         LD E,81h
42B6: 08            EX AF,AF'
42B7: 26 33         LD H,33h
42B9: A6            AND (HL)
42BA: 88            ADC A,B
42BB: 15            DEC D
42BC: 85            ADD A,L
42BD: 40            LD B,B
42BE: 26 2C         LD H,2Ch
42C0: BD            CP L
42C1: 49            LD C,C
42C2: D4 84 03      CALL NC,sub_0384
42C5: 27            DAA
42C6: 25            DEC H
42C7: A6            AND (HL)
42C8: 88            ADC A,B
42C9: 1B            DEC DE
42CA: 84            ADD A,H
42CB: 3F            CCF
42CC: 81            ADD A,C
42CD: 07            RLCA
42CE: 26 07         LD H,07h
42D0: A6            AND (HL)
42D1: 88            ADC A,B
42D2: 1E 81         LD E,81h
42D4: 03            INC BC
42D5: 27            DAA
42D6: 15            DEC D
42D7: 86            ADD A,(HL)
42D8: 07            RLCA
42D9: A7            AND A
42DA: 88            ADC A,B
42DB: 1B            DEC DE
42DC: 86            ADD A,(HL)
42DD: 03            INC BC
42DE: A7            AND A
42DF: 88            ADC A,B
42E0: 1E BD         LD E,BDh
42E2: FC 00 27      CALL M,sub_2700
42E5: 06 A6         LD B,A6h
42E7: 03            INC BC
42E8: 8A            ADC A,D
42E9: 80            ADD A,B
42EA: A7            AND A

loc_42EB:
42EB: 03            INC BC
42EC: 39            ADD HL,SP
42ED: A6            AND (HL)
42EE: 88            ADC A,B
42EF: 1B            DEC DE
42F0: 84            ADD A,H
42F1: 3F            CCF
42F2: 81            ADD A,C
42F3: 00            NOP
42F4: 26 2D         LD H,2Dh
42F6: A6            AND (HL)
42F7: 88            ADC A,B
42F8: 15            DEC D
42F9: 85            ADD A,L
42FA: 40            LD B,B
42FB: 26 26         LD H,26h
42FD: A6            AND (HL)
42FE: 01 81 03      LD BC,0381h
4301: 27            DAA
4302: 04            INC B
4303: 81            ADD A,C
4304: 0A            LD A,(BC)
4305: 26 1C         LD H,1Ch
4307: 86            ADD A,(HL)
4308: 00            NOP
4309: BD            CP L
430A: 43            LD B,E
430B: 57            LD D,A
430C: 24            INC H
430D: 15            DEC D
430E: 96            SUB (HL)
430F: 51            LD D,C
4310: 84            ADD A,H
4311: 0E 26         LD C,26h
4313: 0F            RRCA
4314: 86            ADD A,(HL)
4315: 04            INC B
4316: A7            AND A
4317: 88            ADC A,B
4318: 1E 86         LD E,86h
431A: 00            NOP
431B: A7            AND A
431C: 88            ADC A,B
431D: 1D            DEC E
431E: 86            ADD A,(HL)
431F: 07            RLCA
4320: A7            AND A
4321: 88            ADC A,B
4322: 1B            DEC DE
4323: 39            ADD HL,SP
4324: A6            AND (HL)
4325: 88            ADC A,B
4326: 1B            DEC DE
4327: 84            ADD A,H
4328: 3F            CCF
4329: 81            ADD A,C
432A: 00            NOP
432B: 26 29         LD H,29h
432D: A6            AND (HL)
432E: 88            ADC A,B
432F: 15            DEC D
4330: 85            ADD A,L
4331: 40            LD B,B
4332: 26 22         LD H,22h
4334: A6            AND (HL)
4335: 01 81 03      LD BC,0381h
4338: 26 1C         LD H,1Ch
433A: 86            ADD A,(HL)
433B: 01 BD 43      LD BC,43BDh
433E: 57            LD D,A
433F: 24            INC H
4340: E2 96 51      JP PO,loc_5196
4343: 84            ADD A,H
4344: 0E 26         LD C,26h
4346: 0F            RRCA
4347: 86            ADD A,(HL)
4348: 13            INC DE
4349: A7            AND A
434A: 88            ADC A,B
434B: 1E 86         LD E,86h
434D: 00            NOP
434E: A7            AND A
434F: 88            ADC A,B
4350: 1D            DEC E
4351: 86            ADD A,(HL)
4352: 07            RLCA
4353: A7            AND A
4354: 88            ADC A,B
4355: 1B            DEC DE
4356: 39            ADD HL,SP
4357: 32 7E A7      LD (A77Eh),A
435A: 61            LD H,C
435B: 10 8E         DJNZ loc_42EB
435D: 43            LD B,E
435E: AC            XOR H
435F: 6F            LD L,A
4360: E4 B6 03      CALL PO,sub_03B6
4363: A2            AND D
4364: 2A 0B A6      LD HL,(A60Bh)
4367: 88            ADC A,B
4368: 13            INC DE
4369: 84            ADD A,H

loc_436A:
436A: 01 E6 03      LD BC,03E6h
436D: E1            POP HL
436E: A6            AND (HL)
436F: 27            DAA
4370: 12            LD (DE),A
4371: 6C            LD L,H
4372: E4 B6 04      CALL PO,sub_04B6
4375: 01 2A 2F      LD BC,2F2Ah
4378: A6            AND (HL)
4379: 88            ADC A,B
437A: 14            INC D
437B: 84            ADD A,H
437C: 01 E6 03      LD BC,03E6h
437F: E1            POP HL
4380: A6            AND (HL)
4381: 26 24         LD H,24h
4383: 31 88 3A      LD SP,3A88h
4386: A6            AND (HL)
4387: E4 48 31      CALL PO,sub_3148
438A: A6            AND (HL)
438B: A6            AND (HL)

loc_438C:
438C: 21 81 04      LD HL,0481h
438F: 24            INC H
4390: 16 6D         LD D,6Dh
4392: 61            LD H,C
4393: 26 08         LD H,08h
4395: A6            AND (HL)
4396: A4            AND H
4397: 81            ADD A,C
4398: 20 24         JR NZ,loc_43BE
439A: 0C            INC C
439B: 25            DEC H
439C: 06 A6         LD B,A6h
439E: A4            AND H
439F: 81            ADD A,C
43A0: 14            INC D
43A1: 24            INC H
43A2: 04            INC B
43A3: 1A            LD A,(DE)
43A4: 01 20 02      LD BC,0220h
43A7: 1C            INC E
43A8: FE 32         CP 32h
43AA: 62            LD H,D
43AB: 39            ADD HL,SP
43AC: 80            ADD A,B
43AD: 00            NOP
43AE: 34            INC (HL)
43AF: 40            LD B,B
43B0: A6            AND (HL)
43B1: 01 81 0B      LD BC,0B81h
43B4: 26 57         LD H,57h
43B6: A6            AND (HL)
43B7: 88            ADC A,B
43B8: 1E 81         LD E,81h
43BA: 01 27 50      LD BC,5027h
43BD: FE 0F         CP 0Fh
43BF: 36 EC         LD (HL),ECh
43C1: 08            EX AF,AF'
43C2: 5D            LD E,L
43C3: 26 48         LD H,48h
43C5: 10 A3         DJNZ loc_436A
43C7: 48            LD C,B
43C8: 26 43         LD H,43h
43CA: B6            OR (HL)
43CB: 0F            RRCA
43CC: 33            INC SP
43CD: 81            ADD A,C
43CE: 10 25         DJNZ loc_43F5
43D0: 3C            INC A
43D1: 81            ADD A,C
43D2: 38 24         JR C,loc_43F8
43D4: 38 B6         JR C,loc_438C
43D6: 0F            RRCA
43D7: 34            INC (HL)
43D8: 81            ADD A,C
43D9: 08            EX AF,AF'
43DA: 24            INC H
43DB: 31 A6 C8      LD SP,C8A6h
43DE: 1B            DEC DE
43DF: 84            ADD A,H
43E0: 3F            CCF
43E1: 81            ADD A,C
43E2: 03            INC BC
43E3: 26 28         LD H,28h
43E5: 86            ADD A,(HL)
43E6: 07            RLCA
43E7: A7            AND A
43E8: 88            ADC A,B
43E9: 1B            DEC DE
43EA: 86            ADD A,(HL)
43EB: 01 A7 88      LD BC,88A7h
43EE: 1E 5F         LD E,5Fh
43F0: E7            RST 20h
43F1: 88            ADC A,B
43F2: 1D            DEC E
43F3: A6            AND (HL)
43F4: C8            RET Z

loc_43F5:
43F5: 1B            DEC DE
43F6: 84            ADD A,H
43F7: 3F            CCF

loc_43F8:
43F8: 81            ADD A,C
43F9: 0C            INC C
43FA: 26 06         LD H,06h
43FC: 4F            LD C,A
43FD: A7            AND A
43FE: 88            ADC A,B
43FF: 1E 20         LD E,20h
4401: 0B            DEC BC
4402: 86            ADD A,(HL)
4403: 0C            INC C
4404: A7            AND A
4405: C8            RET Z
4406: 1B            DEC DE
4407: EF            RST 28h
4408: 88            ADC A,B
4409: 2D            DEC L
440A: AF            XOR A
440B: C8            RET Z
440C: 2D            DEC L
440D: 35            DEC (HL)
440E: C0            RET NZ
440F: 00            NOP
4410: 00            NOP
4411: 00            NOP
4412: 30 00         JR NC,loc_4414

loc_4414:
4414: 00            NOP
4415: 00            NOP
4416: 00            NOP
4417: 00            NOP
4418: 00            NOP
4419: 00            NOP
441A: 00            NOP
441B: 00            NOP
441C: 00            NOP
441D: 00            NOP
441E: 00            NOP
441F: 00            NOP
4420: 20 00         JR NZ,loc_4422

loc_4422:
4422: 00            NOP
4423: 00            NOP
4424: 00            NOP
4425: 00            NOP
4426: 00            NOP
4427: 00            NOP
4428: 44            LD B,H
4429: 54            LD D,H
442A: 44            LD B,H
442B: D4 45 54      CALL NC,sub_5445
442E: 45            LD B,L
442F: D4 46 54      CALL NC,sub_5446
4432: 46            LD B,(HL)
4433: D4 47 54      CALL NC,sub_5447
4436: 47            LD B,A
4437: D4 48 54      CALL NC,sub_5448
443A: 48            LD C,B
443B: D4 49 54      CALL NC,sub_5449
443E: 44            LD B,H
443F: 94            SUB H
4440: 45            LD B,L
4441: 14            INC D
4442: 45            LD B,L
4443: 94            SUB H
4444: 46            LD B,(HL)
4445: 14            INC D
4446: 46            LD B,(HL)
4447: 94            SUB H
4448: 47            LD B,A
4449: 14            INC D
444A: 47            LD B,A
444B: 94            SUB H
444C: 48            LD C,B
444D: 14            INC D
444E: 48            LD C,B
444F: 94            SUB H
4450: 49            LD C,C
4451: 14            INC D
4452: 49            LD C,C
4453: 94            SUB H
4454: 01 01 01      LD BC,0101h
4457: 01 00 00      LD BC,0000h
445A: 00            NOP
445B: 00            NOP
445C: 00            NOP
445D: 00            NOP
445E: 00            NOP
445F: 00            NOP
4460: 01 01 01      LD BC,0101h
4463: 01 02 02      LD BC,0202h
4466: 02            LD (BC),A
4467: 02            LD (BC),A
4468: 02            LD (BC),A
4469: 02            LD (BC),A
446A: 02            LD (BC),A
446B: 02            LD (BC),A
446C: 00            NOP
446D: 00            NOP
446E: 00            NOP
446F: 00            NOP
4470: 00            NOP
4471: 00            NOP
4472: 00            NOP
4473: 00            NOP
4474: 00            NOP
4475: 00            NOP
4476: 00            NOP
4477: 00            NOP
4478: 00            NOP
4479: 00            NOP
447A: 00            NOP
447B: 00            NOP
447C: 00            NOP
447D: 00            NOP
447E: 00            NOP
447F: 00            NOP
4480: 00            NOP
4481: 00            NOP
4482: 00            NOP
4483: 00            NOP
4484: 01 01 01      LD BC,0101h
4487: 01 01 01      LD BC,0101h
448A: 01 01 01      LD BC,0101h
448D: 01 01 01      LD BC,0101h
4490: 01 01 01      LD BC,0101h
4493: 01 00 00      LD BC,0000h
4496: 01 02 02      LD BC,0202h
4499: 02            LD (BC),A
449A: 02            LD (BC),A
449B: 00            NOP
449C: 00            NOP
449D: 00            NOP
449E: 01 01 01      LD BC,0101h
44A1: 01 01 00      LD BC,0001h
44A4: 02            LD (BC),A
44A5: 02            LD (BC),A
44A6: 02            LD (BC),A
44A7: 02            LD (BC),A
44A8: 02            LD (BC),A
44A9: 02            LD (BC),A
44AA: 02            LD (BC),A
44AB: 02            LD (BC),A
44AC: 00            NOP
44AD: 00            NOP
44AE: 00            NOP
44AF: 00            NOP
44B0: 00            NOP
44B1: 00            NOP
44B2: 00            NOP
44B3: 00            NOP
44B4: 00            NOP
44B5: 00            NOP
44B6: 00            NOP
44B7: 00            NOP
44B8: 00            NOP
44B9: 00            NOP
44BA: 00            NOP
44BB: 00            NOP
44BC: 00            NOP
44BD: 00            NOP
44BE: 00            NOP
44BF: 00            NOP
44C0: 00            NOP
44C1: 00            NOP
44C2: 00            NOP
44C3: 00            NOP
44C4: 01 01 01      LD BC,0101h
44C7: 01 01 01      LD BC,0101h
44CA: 01 01 01      LD BC,0101h
44CD: 01 01 01      LD BC,0101h
44D0: 01 01 01      LD BC,0101h
44D3: 01 00 00      LD BC,0000h
44D6: 13            INC DE
44D7: 13            INC DE
44D8: 13            INC DE
44D9: 0F            RRCA
44DA: 07            RLCA
44DB: 03            INC BC
44DC: 00            NOP
44DD: 00            NOP
44DE: 13            INC DE
44DF: 13            INC DE
44E0: 0F            RRCA
44E1: 0F            RRCA
44E2: 07            RLCA
44E3: 03            INC BC
44E4: 00            NOP
44E5: 00            NOP
44E6: 13            INC DE
44E7: 13            INC DE
44E8: 13            INC DE
44E9: 0F            RRCA
44EA: 07            RLCA
44EB: 03            INC BC
44EC: 00            NOP
44ED: 00            NOP
44EE: 13            INC DE
44EF: 13            INC DE
44F0: 0F            RRCA
44F1: 0F            RRCA
44F2: 07            RLCA
44F3: 03            INC BC
44F4: 13            INC DE
44F5: 13            INC DE
44F6: 13            INC DE
44F7: 13            INC DE
44F8: 13            INC DE
44F9: 03            INC BC
44FA: 03            INC BC
44FB: 03            INC BC
44FC: 13            INC DE
44FD: 13            INC DE
44FE: 13            INC DE
44FF: 13            INC DE
4500: 13            INC DE
4501: 03            INC BC
4502: 03            INC BC
4503: 03            INC BC
4504: 0F            RRCA
4505: 0F            RRCA
4506: 0F            RRCA
4507: 0F            RRCA
4508: 0F            RRCA
4509: 0F            RRCA
450A: 0F            RRCA
450B: 0F            RRCA
450C: 0F            RRCA
450D: 0F            RRCA
450E: 0F            RRCA
450F: 0F            RRCA
4510: 0F            RRCA
4511: 0F            RRCA
4512: 0F            RRCA
4513: 0F            RRCA
4514: 13            INC DE
4515: 13            INC DE
4516: 13            INC DE
4517: 13            INC DE
4518: 13            INC DE
4519: 13            INC DE
451A: 13            INC DE
451B: 13            INC DE
451C: 13            INC DE
451D: 13            INC DE
451E: 13            INC DE
451F: 13            INC DE
4520: 0F            RRCA
4521: 0F            RRCA
4522: 0F            RRCA
4523: 0F            RRCA
4524: 0B            DEC BC
4525: 0B            DEC BC
4526: 0B            DEC BC
4527: 0F            RRCA
4528: 0F            RRCA
4529: 0B            DEC BC
452A: 0B            DEC BC
452B: 0B            DEC BC
452C: 0B            DEC BC
452D: 0B            DEC BC
452E: 0B            DEC BC
452F: 0B            DEC BC
4530: 0B            DEC BC
4531: 0B            DEC BC
4532: 0B            DEC BC
4533: 0B            DEC BC
4534: 13            INC DE
4535: 13            INC DE
4536: 13            INC DE
4537: 13            INC DE
4538: 0F            RRCA
4539: 13            INC DE
453A: 13            INC DE
453B: 13            INC DE
453C: 13            INC DE
453D: 13            INC DE
453E: 13            INC DE
453F: 13            INC DE
4540: 0F            RRCA
4541: 13            INC DE
4542: 13            INC DE
4543: 13            INC DE
4544: 0F            RRCA
4545: 0F            RRCA
4546: 0F            RRCA
4547: 0F            RRCA
4548: 0F            RRCA
4549: 0F            RRCA
454A: 0F            RRCA
454B: 0F            RRCA
454C: 0F            RRCA
454D: 0F            RRCA
454E: 0F            RRCA
454F: 0F            RRCA
4550: 0F            RRCA
4551: 0F            RRCA
4552: 0F            RRCA
4553: 0F            RRCA
4554: 00            NOP
4555: 00            NOP
4556: 00            NOP
4557: 02            LD (BC),A
4558: 02            LD (BC),A
4559: 02            LD (BC),A
455A: 00            NOP
455B: 00            NOP
455C: 00            NOP
455D: 00            NOP
455E: 00            NOP
455F: 02            LD (BC),A
4560: 02            LD (BC),A
4561: 00            NOP
4562: 00            NOP
4563: 00            NOP
4564: 00            NOP
4565: 00            NOP
4566: 02            LD (BC),A
4567: 02            LD (BC),A
4568: 02            LD (BC),A
4569: 00            NOP
456A: 00            NOP
456B: 00            NOP
456C: 00            NOP
456D: 00            NOP
456E: 02            LD (BC),A
456F: 02            LD (BC),A
4570: 00            NOP
4571: 00            NOP
4572: 00            NOP
4573: 00            NOP
4574: 00            NOP
4575: 00            NOP
4576: 00            NOP
4577: 00            NOP
4578: 00            NOP
4579: 00            NOP
457A: 00            NOP
457B: 00            NOP
457C: 00            NOP
457D: 00            NOP
457E: 00            NOP
457F: 00            NOP
4580: 00            NOP
4581: 00            NOP
4582: 00            NOP
4583: 00            NOP
4584: 00            NOP
4585: 00            NOP
4586: 00            NOP
4587: 00            NOP
4588: 00            NOP
4589: 00            NOP
458A: 00            NOP
458B: 00            NOP
458C: 00            NOP
458D: 00            NOP
458E: 00            NOP
458F: 00            NOP
4590: 00            NOP
4591: 00            NOP
4592: 00            NOP
4593: 00            NOP
4594: 00            NOP
4595: 00            NOP
4596: 02            LD (BC),A
4597: 00            NOP
4598: 00            NOP
4599: 02            LD (BC),A
459A: 00            NOP
459B: 00            NOP
459C: 00            NOP
459D: 00            NOP
459E: 00            NOP
459F: 00            NOP
45A0: 00            NOP
45A1: 00            NOP
45A2: 00            NOP
45A3: 00            NOP
45A4: 00            NOP
45A5: 00            NOP
45A6: 00            NOP
45A7: 02            LD (BC),A
45A8: 02            LD (BC),A
45A9: 00            NOP
45AA: 00            NOP
45AB: 00            NOP
45AC: 00            NOP
45AD: 00            NOP
45AE: 00            NOP
45AF: 02            LD (BC),A
45B0: 00            NOP
45B1: 00            NOP
45B2: 00            NOP
45B3: 00            NOP
45B4: 00            NOP
45B5: 00            NOP
45B6: 00            NOP
45B7: 00            NOP
45B8: 00            NOP
45B9: 00            NOP
45BA: 00            NOP
45BB: 00            NOP
45BC: 00            NOP
45BD: 00            NOP
45BE: 00            NOP
45BF: 00            NOP
45C0: 00            NOP
45C1: 00            NOP
45C2: 00            NOP
45C3: 00            NOP
45C4: 00            NOP
45C5: 00            NOP
45C6: 00            NOP
45C7: 00            NOP
45C8: 00            NOP
45C9: 00            NOP
45CA: 00            NOP
45CB: 00            NOP
45CC: 00            NOP
45CD: 00            NOP
45CE: 00            NOP
45CF: 00            NOP
45D0: 00            NOP
45D1: 00            NOP
45D2: 00            NOP
45D3: 00            NOP
45D4: 00            NOP
45D5: 01 02 03      LD BC,0302h
45D8: 00            NOP
45D9: 01 02 03      LD BC,0302h
45DC: 00            NOP
45DD: 01 02 03      LD BC,0302h
45E0: 00            NOP
45E1: 01 02 03      LD BC,0302h
45E4: 00            NOP
45E5: 01 02 03      LD BC,0302h
45E8: 00            NOP
45E9: 01 02 03      LD BC,0302h
45EC: 00            NOP
45ED: 01 02 03      LD BC,0302h
45F0: 00            NOP
45F1: 01 02 03      LD BC,0302h
45F4: 03            INC BC
45F5: 03            INC BC
45F6: 03            INC BC
45F7: 03            INC BC
45F8: 03            INC BC
45F9: 03            INC BC
45FA: 03            INC BC
45FB: 03            INC BC
45FC: 03            INC BC
45FD: 03            INC BC
45FE: 03            INC BC
45FF: 03            INC BC
4600: 03            INC BC
4601: 03            INC BC
4602: 03            INC BC
4603: 03            INC BC
4604: 01 01 01      LD BC,0101h
4607: 01 01 01      LD BC,0101h
460A: 01 01 01      LD BC,0101h
460D: 01 01 01      LD BC,0101h
4610: 01 01 01      LD BC,0101h
4613: 01 01 03      LD BC,0301h
4616: 01 03 01      LD BC,0103h
4619: 03            INC BC
461A: 01 03 01      LD BC,0103h
461D: 03            INC BC
461E: 01 03 01      LD BC,0103h
4621: 03            INC BC
4622: 01 03 02      LD BC,0203h
4625: 02            LD (BC),A
4626: 02            LD (BC),A
4627: 02            LD (BC),A
4628: 02            LD (BC),A
4629: 02            LD (BC),A
462A: 02            LD (BC),A
462B: 02            LD (BC),A
462C: 02            LD (BC),A
462D: 02            LD (BC),A
462E: 02            LD (BC),A
462F: 02            LD (BC),A
4630: 02            LD (BC),A
4631: 02            LD (BC),A
4632: 02            LD (BC),A
4633: 02            LD (BC),A
4634: 02            LD (BC),A
4635: 03            INC BC
4636: 02            LD (BC),A
4637: 03            INC BC
4638: 02            LD (BC),A
4639: 03            INC BC
463A: 02            LD (BC),A
463B: 03            INC BC
463C: 02            LD (BC),A
463D: 03            INC BC
463E: 02            LD (BC),A
463F: 03            INC BC
4640: 02            LD (BC),A
4641: 03            INC BC
4642: 02            LD (BC),A
4643: 03            INC BC
4644: 01 01 01      LD BC,0101h
4647: 01 01 01      LD BC,0101h
464A: 01 01 01      LD BC,0101h
464D: 01 01 01      LD BC,0101h
4650: 01 01 01      LD BC,0101h
4653: 01 00 00      LD BC,0000h
4656: 02            LD (BC),A
4657: 02            LD (BC),A
4658: 03            INC BC
4659: 03            INC BC
465A: 00            NOP
465B: 00            NOP
465C: 00            NOP
465D: 00            NOP
465E: 02            LD (BC),A
465F: 02            LD (BC),A
4660: 03            INC BC
4661: 03            INC BC
4662: 00            NOP
4663: 00            NOP
4664: 02            LD (BC),A
4665: 02            LD (BC),A
4666: 02            LD (BC),A
4667: 02            LD (BC),A
4668: 02            LD (BC),A
4669: 02            LD (BC),A
466A: 02            LD (BC),A
466B: 02            LD (BC),A
466C: 02            LD (BC),A
466D: 02            LD (BC),A
466E: 02            LD (BC),A
466F: 02            LD (BC),A
4670: 02            LD (BC),A
4671: 02            LD (BC),A
4672: 02            LD (BC),A
4673: 02            LD (BC),A
4674: 00            NOP
4675: 00            NOP
4676: 03            INC BC
4677: 03            INC BC
4678: 03            INC BC
4679: 03            INC BC
467A: 03            INC BC
467B: 03            INC BC
467C: 00            NOP
467D: 00            NOP
467E: 03            INC BC
467F: 03            INC BC
4680: 03            INC BC
4681: 03            INC BC
4682: 03            INC BC
4683: 03            INC BC
4684: 00            NOP
4685: 00            NOP
4686: 02            LD (BC),A
4687: 02            LD (BC),A
4688: 03            INC BC
4689: 03            INC BC
468A: 00            NOP
468B: 00            NOP
468C: 00            NOP
468D: 00            NOP
468E: 02            LD (BC),A
468F: 02            LD (BC),A
4690: 03            INC BC
4691: 03            INC BC
4692: 00            NOP
4693: 00            NOP
4694: 00            NOP
4695: 00            NOP
4696: 02            LD (BC),A
4697: 02            LD (BC),A
4698: 03            INC BC
4699: 03            INC BC
469A: 00            NOP
469B: 00            NOP
469C: 00            NOP
469D: 00            NOP
469E: 02            LD (BC),A
469F: 02            LD (BC),A
46A0: 03            INC BC
46A1: 03            INC BC
46A2: 00            NOP
46A3: 00            NOP
46A4: 02            LD (BC),A
46A5: 02            LD (BC),A
46A6: 02            LD (BC),A
46A7: 02            LD (BC),A
46A8: 02            LD (BC),A
46A9: 02            LD (BC),A
46AA: 02            LD (BC),A
46AB: 02            LD (BC),A
46AC: 02            LD (BC),A
46AD: 02            LD (BC),A
46AE: 02            LD (BC),A
46AF: 02            LD (BC),A
46B0: 02            LD (BC),A
46B1: 02            LD (BC),A
46B2: 02            LD (BC),A
46B3: 02            LD (BC),A
46B4: 00            NOP
46B5: 00            NOP
46B6: 00            NOP
46B7: 00            NOP
46B8: 00            NOP
46B9: 02            LD (BC),A
46BA: 02            LD (BC),A
46BB: 03            INC BC
46BC: 00            NOP
46BD: 00            NOP
46BE: 00            NOP
46BF: 00            NOP
46C0: 00            NOP
46C1: 02            LD (BC),A
46C2: 03            INC BC
46C3: 03            INC BC
46C4: 00            NOP
46C5: 00            NOP
46C6: 00            NOP
46C7: 02            LD (BC),A
46C8: 02            LD (BC),A
46C9: 02            LD (BC),A
46CA: 03            INC BC
46CB: 03            INC BC
46CC: 00            NOP
46CD: 00            NOP
46CE: 00            NOP
46CF: 02            LD (BC),A
46D0: 02            LD (BC),A
46D1: 03            INC BC
46D2: 03            INC BC
46D3: 03            INC BC
46D4: 01 01 01      LD BC,0101h
46D7: 01 01 01      LD BC,0101h
46DA: 01 01 00      LD BC,0001h
46DD: 00            NOP
46DE: 00            NOP
46DF: 00            NOP
46E0: 00            NOP
46E1: 02            LD (BC),A
46E2: 02            LD (BC),A
46E3: 02            LD (BC),A
46E4: 00            NOP
46E5: 01 01 00      LD BC,0001h
46E8: 01 01 00      LD BC,0001h
46EB: 01 00 01      LD BC,0100h
46EE: 01 00 01      LD BC,0100h
46F1: 01 00 01      LD BC,0100h
46F4: 01 02 02      LD BC,0202h
46F7: 02            LD (BC),A
46F8: 02            LD (BC),A
46F9: 02            LD (BC),A
46FA: 02            LD (BC),A
46FB: 02            LD (BC),A
46FC: 02            LD (BC),A
46FD: 02            LD (BC),A
46FE: 02            LD (BC),A
46FF: 02            LD (BC),A
4700: 02            LD (BC),A
4701: 02            LD (BC),A
4702: 02            LD (BC),A
4703: 01 03 03      LD BC,0303h
4706: 03            INC BC
4707: 03            INC BC
4708: 03            INC BC
4709: 03            INC BC
470A: 03            INC BC
470B: 03            INC BC
470C: 03            INC BC
470D: 03            INC BC
470E: 03            INC BC
470F: 03            INC BC
4710: 03            INC BC
4711: 03            INC BC
4712: 03            INC BC
4713: 03            INC BC
4714: 01 01 01      LD BC,0101h
4717: 01 01 01      LD BC,0101h
471A: 01 01 00      LD BC,0001h
471D: 00            NOP
471E: 00            NOP
471F: 00            NOP
4720: 02            LD (BC),A
4721: 02            LD (BC),A
4722: 00            NOP
4723: 02            LD (BC),A
4724: 01 01 01      LD BC,0101h
4727: 01 01 01      LD BC,0101h
472A: 01 01 00      LD BC,0001h
472D: 00            NOP
472E: 00            NOP
472F: 00            NOP
4730: 02            LD (BC),A
4731: 02            LD (BC),A
4732: 00            NOP
4733: 02            LD (BC),A
4734: 01 02 02      LD BC,0202h
4737: 02            LD (BC),A
4738: 02            LD (BC),A
4739: 02            LD (BC),A
473A: 02            LD (BC),A
473B: 02            LD (BC),A
473C: 02            LD (BC),A
473D: 02            LD (BC),A
473E: 02            LD (BC),A
473F: 02            LD (BC),A
4740: 02            LD (BC),A
4741: 02            LD (BC),A
4742: 02            LD (BC),A
4743: 01 03 03      LD BC,0303h
4746: 03            INC BC
4747: 03            INC BC
4748: 03            INC BC
4749: 03            INC BC
474A: 03            INC BC
474B: 03            INC BC
474C: 03            INC BC
474D: 03            INC BC
474E: 03            INC BC
474F: 03            INC BC
4750: 03            INC BC
4751: 03            INC BC
4752: 03            INC BC
4753: 03            INC BC
4754: 00            NOP
4755: 00            NOP
4756: 00            NOP
4757: 00            NOP
4758: 00            NOP
4759: 00            NOP
475A: 00            NOP
475B: 00            NOP
475C: 01 01 01      LD BC,0101h
475F: 01 04 04      LD BC,0404h
4762: 04            INC B
4763: 04            INC B
4764: 01 01 01      LD BC,0101h
4767: 01 04 04      LD BC,0404h
476A: 04            INC B
476B: 04            INC B
476C: 00            NOP
476D: 00            NOP
476E: 00            NOP
476F: 00            NOP
4770: 00            NOP
4771: 00            NOP
4772: 00            NOP
4773: 00            NOP
4774: 01 01 01      LD BC,0101h
4777: 01 01 01      LD BC,0101h
477A: 01 01 01      LD BC,0101h
477D: 01 04 04      LD BC,0404h
4780: 04            INC B
4781: 00            NOP
4782: 00            NOP
4783: 00            NOP
4784: 04            INC B
4785: 04            INC B
4786: 04            INC B
4787: 04            INC B
4788: 04            INC B
4789: 04            INC B
478A: 04            INC B
478B: 04            INC B
478C: 04            INC B
478D: 04            INC B
478E: 04            INC B
478F: 04            INC B
4790: 04            INC B
4791: 04            INC B
4792: 04            INC B
4793: 04            INC B
4794: 01 00 00      LD BC,0000h
4797: 00            NOP
4798: 01 00 00      LD BC,0000h
479B: 01 01 00      LD BC,0001h
479E: 00            NOP
479F: 00            NOP
47A0: 01 00 00      LD BC,0000h
47A3: 01 05 05      LD BC,0505h
47A6: 05            DEC B
47A7: 05            DEC B
47A8: 05            DEC B
47A9: 05            DEC B
47AA: 05            DEC B
47AB: 05            DEC B
47AC: 05            DEC B
47AD: 05            DEC B
47AE: 05            DEC B
47AF: 05            DEC B
47B0: 05            DEC B
47B1: 05            DEC B
47B2: 05            DEC B
47B3: 05            DEC B
47B4: 01 01 01      LD BC,0101h
47B7: 01 01 01      LD BC,0101h
47BA: 01 01 01      LD BC,0101h
47BD: 01 01 01      LD BC,0101h
47C0: 00            NOP
47C1: 00            NOP
47C2: 00            NOP
47C3: 00            NOP
47C4: 04            INC B
47C5: 04            INC B
47C6: 04            INC B
47C7: 04            INC B
47C8: 04            INC B
47C9: 04            INC B
47CA: 04            INC B
47CB: 04            INC B
47CC: 04            INC B
47CD: 04            INC B
47CE: 04            INC B
47CF: 04            INC B
47D0: 04            INC B
47D1: 04            INC B
47D2: 04            INC B
47D3: 04            INC B
47D4: 00            NOP
47D5: 00            NOP
47D6: 00            NOP
47D7: 00            NOP
47D8: 00            NOP
47D9: 00            NOP
47DA: 00            NOP
47DB: 00            NOP
47DC: 00            NOP
47DD: 00            NOP
47DE: 05            DEC B
47DF: 05            DEC B
47E0: 05            DEC B
47E1: 06 06         LD B,06h
47E3: 06 00         LD B,00h
47E5: 00            NOP
47E6: 00            NOP
47E7: 00            NOP
47E8: 00            NOP
47E9: 00            NOP
47EA: 00            NOP
47EB: 00            NOP
47EC: 00            NOP
47ED: 00            NOP
47EE: 05            DEC B
47EF: 05            DEC B
47F0: 05            DEC B
47F1: 06 06         LD B,06h
47F3: 06 00         LD B,00h
47F5: 00            NOP
47F6: 00            NOP
47F7: 05            DEC B
47F8: 05            DEC B
47F9: 05            DEC B
47FA: 05            DEC B
47FB: 05            DEC B
47FC: 00            NOP
47FD: 00            NOP
47FE: 00            NOP
47FF: 05            DEC B
4800: 05            DEC B

sub_4801:
4801: 05            DEC B
4802: 05            DEC B
4803: 05            DEC B
4804: 06 06         LD B,06h
4806: 06 06         LD B,06h
4808: 06 06         LD B,06h
480A: 06 06         LD B,06h
480C: 06 06         LD B,06h
480E: 06 06         LD B,06h
4810: 06 06         LD B,06h
4812: 06 06         LD B,06h
4814: 05            DEC B
4815: 00            NOP
4816: 06 06         LD B,06h
4818: 06 00         LD B,00h
481A: 00            NOP
481B: 05            DEC B
481C: 05            DEC B
481D: 00            NOP
481E: 06 06         LD B,06h
4820: 06 00         LD B,00h
4822: 00            NOP
4823: 05            DEC B
4824: 04            INC B
4825: 04            INC B
4826: 04            INC B
4827: 04            INC B
4828: 04            INC B
4829: 04            INC B
482A: 04            INC B
482B: 04            INC B
482C: 04            INC B
482D: 04            INC B
482E: 04            INC B
482F: 04            INC B
4830: 00            NOP
4831: 00            NOP
4832: 06 06         LD B,06h
4834: 00            NOP
4835: 00            NOP
4836: 00            NOP
4837: 00            NOP
4838: 00            NOP
4839: 00            NOP
483A: 00            NOP
483B: 00            NOP
483C: 00            NOP
483D: 00            NOP
483E: 06 06         LD B,06h
4840: 06 06         LD B,06h
4842: 06 06         LD B,06h
4844: 06 00         LD B,00h
4846: 06 00         LD B,00h
4848: 06 00         LD B,00h
484A: 06 00         LD B,00h
484C: 06 00         LD B,00h
484E: 06 00         LD B,00h
4850: 06 00         LD B,00h
4852: 06 00         LD B,00h
4854: 00            NOP
4855: 00            NOP
4856: 00            NOP
4857: 00            NOP
4858: 00            NOP
4859: 00            NOP
485A: 00            NOP
485B: 00            NOP
485C: 00            NOP
485D: 00            NOP
485E: 00            NOP
485F: 00            NOP
4860: 00            NOP
4861: 00            NOP
4862: 00            NOP
4863: 00            NOP
4864: 00            NOP
4865: 00            NOP
4866: 00            NOP
4867: 00            NOP
4868: 00            NOP
4869: 00            NOP
486A: 00            NOP
486B: 00            NOP
486C: 00            NOP
486D: 00            NOP
486E: 00            NOP
486F: 00            NOP
4870: 00            NOP
4871: 00            NOP
4872: 00            NOP
4873: 00            NOP
4874: 00            NOP
4875: 00            NOP
4876: 00            NOP
4877: 00            NOP
4878: 00            NOP
4879: 00            NOP
487A: 00            NOP
487B: 00            NOP
487C: 00            NOP
487D: 00            NOP
487E: 00            NOP
487F: 00            NOP
4880: 00            NOP
4881: 00            NOP
4882: 00            NOP
4883: 00            NOP
4884: 00            NOP
4885: 00            NOP
4886: 00            NOP
4887: 00            NOP
4888: 00            NOP
4889: 00            NOP
488A: 00            NOP
488B: 00            NOP
488C: 00            NOP
488D: 00            NOP
488E: 00            NOP
488F: 00            NOP
4890: 00            NOP
4891: 00            NOP
4892: 00            NOP
4893: 00            NOP
4894: 00            NOP
4895: 00            NOP
4896: 00            NOP
4897: 00            NOP
4898: 00            NOP
4899: 00            NOP
489A: 00            NOP
489B: 00            NOP
489C: 00            NOP
489D: 00            NOP
489E: 00            NOP
489F: 00            NOP
48A0: 00            NOP
48A1: 00            NOP
48A2: 00            NOP
48A3: 00            NOP
48A4: 00            NOP
48A5: 00            NOP
48A6: 00            NOP
48A7: 00            NOP
48A8: 00            NOP
48A9: 00            NOP
48AA: 00            NOP
48AB: 00            NOP
48AC: 00            NOP
48AD: 00            NOP
48AE: 00            NOP
48AF: 00            NOP
48B0: 00            NOP
48B1: 00            NOP
48B2: 00            NOP
48B3: 00            NOP
48B4: 00            NOP
48B5: 00            NOP
48B6: 00            NOP
48B7: 00            NOP
48B8: 00            NOP
48B9: 00            NOP
48BA: 00            NOP
48BB: 00            NOP
48BC: 00            NOP
48BD: 00            NOP
48BE: 00            NOP
48BF: 00            NOP
48C0: 00            NOP
48C1: 00            NOP
48C2: 00            NOP
48C3: 00            NOP
48C4: 00            NOP
48C5: 00            NOP
48C6: 00            NOP
48C7: 00            NOP
48C8: 00            NOP
48C9: 00            NOP
48CA: 00            NOP
48CB: 00            NOP
48CC: 00            NOP
48CD: 00            NOP
48CE: 00            NOP
48CF: 00            NOP
48D0: 00            NOP
48D1: 00            NOP
48D2: 00            NOP
48D3: 00            NOP
48D4: 00            NOP
48D5: 00            NOP
48D6: 00            NOP
48D7: 00            NOP
48D8: 02            LD (BC),A
48D9: 02            LD (BC),A
48DA: 02            LD (BC),A
48DB: 02            LD (BC),A
48DC: 00            NOP
48DD: 00            NOP
48DE: 00            NOP
48DF: 00            NOP
48E0: 02            LD (BC),A
48E1: 02            LD (BC),A
48E2: 02            LD (BC),A
48E3: 02            LD (BC),A
48E4: 02            LD (BC),A
48E5: 02            LD (BC),A
48E6: 02            LD (BC),A
48E7: 02            LD (BC),A
48E8: 02            LD (BC),A
48E9: 02            LD (BC),A
48EA: 02            LD (BC),A
48EB: 02            LD (BC),A
48EC: 00            NOP
48ED: 00            NOP
48EE: 00            NOP
48EF: 00            NOP
48F0: 00            NOP
48F1: 00            NOP
48F2: 00            NOP
48F3: 00            NOP
48F4: 00            NOP
48F5: 00            NOP
48F6: 00            NOP
48F7: 00            NOP
48F8: 00            NOP
48F9: 00            NOP
48FA: 00            NOP
48FB: 00            NOP
48FC: 00            NOP
48FD: 00            NOP
48FE: 00            NOP
48FF: 00            NOP
4900: 00            NOP
4901: 00            NOP
4902: 00            NOP
4903: 00            NOP
4904: 00            NOP
4905: 00            NOP
4906: 00            NOP
4907: 00            NOP
4908: 00            NOP
4909: 00            NOP
490A: 00            NOP
490B: 00            NOP
490C: 02            LD (BC),A
490D: 02            LD (BC),A
490E: 02            LD (BC),A
490F: 02            LD (BC),A
4910: 02            LD (BC),A
4911: 02            LD (BC),A
4912: 02            LD (BC),A
4913: 02            LD (BC),A
4914: 00            NOP
4915: 00            NOP
4916: 02            LD (BC),A
4917: 00            NOP
4918: 00            NOP
4919: 02            LD (BC),A
491A: 00            NOP
491B: 00            NOP
491C: 02            LD (BC),A
491D: 00            NOP
491E: 00            NOP
491F: 02            LD (BC),A
4920: 00            NOP
4921: 00            NOP
4922: 02            LD (BC),A
4923: 00            NOP
4924: 00            NOP
4925: 00            NOP
4926: 02            LD (BC),A
4927: 00            NOP
4928: 00            NOP
4929: 00            NOP
492A: 02            LD (BC),A
492B: 00            NOP
492C: 00            NOP
492D: 00            NOP
492E: 02            LD (BC),A
492F: 00            NOP
4930: 00            NOP
4931: 02            LD (BC),A
4932: 00            NOP
4933: 00            NOP
4934: 00            NOP
4935: 00            NOP
4936: 00            NOP
4937: 00            NOP
4938: 00            NOP
4939: 00            NOP
493A: 00            NOP
493B: 00            NOP
493C: 00            NOP
493D: 00            NOP
493E: 00            NOP
493F: 00            NOP
4940: 00            NOP
4941: 00            NOP
4942: 00            NOP
4943: 00            NOP
4944: 00            NOP
4945: 00            NOP
4946: 00            NOP
4947: 00            NOP
4948: 00            NOP
4949: 00            NOP
494A: 00            NOP
494B: 00            NOP
494C: 02            LD (BC),A
494D: 02            LD (BC),A
494E: 02            LD (BC),A
494F: 02            LD (BC),A
4950: 02            LD (BC),A
4951: 02            LD (BC),A
4952: 02            LD (BC),A
4953: 02            LD (BC),A
4954: 00            NOP
4955: 07            RLCA
4956: 15            DEC D
4957: 15            DEC D
4958: 03            INC BC
4959: 07            RLCA
495A: 0F            RRCA
495B: 03            INC BC
495C: 00            NOP
495D: 03            INC BC
495E: 15            DEC D
495F: 15            DEC D
4960: 07            RLCA
4961: 07            RLCA
4962: 15            DEC D
4963: 03            INC BC
4964: 00            NOP
4965: 07            RLCA
4966: 15            DEC D
4967: 15            DEC D
4968: 03            INC BC
4969: 07            RLCA
496A: 0F            RRCA
496B: 03            INC BC
496C: 00            NOP
496D: 03            INC BC
496E: 15            DEC D
496F: 15            DEC D
4970: 07            RLCA
4971: 07            RLCA
4972: 15            DEC D
4973: 03            INC BC
4974: 07            RLCA
4975: 07            RLCA
4976: 15            DEC D
4977: 15            DEC D
4978: 15            DEC D
4979: 15            DEC D
497A: 15            DEC D
497B: 15            DEC D
497C: 03            INC BC
497D: 03            INC BC
497E: 03            INC BC
497F: 03            INC BC
4980: 03            INC BC
4981: 03            INC BC
4982: 0F            RRCA
4983: 0F            RRCA
4984: 0F            RRCA
4985: 0F            RRCA
4986: 0F            RRCA
4987: 0F            RRCA
4988: 0F            RRCA
4989: 0F            RRCA
498A: 0F            RRCA
498B: 0F            RRCA
498C: 07            RLCA
498D: 07            RLCA
498E: 07            RLCA
498F: 07            RLCA
4990: 07            RLCA
4991: 07            RLCA
4992: 07            RLCA
4993: 07            RLCA
4994: 00            NOP
4995: 07            RLCA

loc_4996:
4996: 15            DEC D
4997: 15            DEC D
4998: 03            INC BC
4999: 07            RLCA
499A: 0F            RRCA
499B: 03            INC BC

loc_499C:
499C: 00            NOP
499D: 03            INC BC
499E: 15            DEC D
499F: 15            DEC D
49A0: 07            RLCA
49A1: 07            RLCA
49A2: 15            DEC D
49A3: 03            INC BC
49A4: 00            NOP
49A5: 07            RLCA
49A6: 15            DEC D
49A7: 15            DEC D
49A8: 03            INC BC
49A9: 07            RLCA
49AA: 0F            RRCA
49AB: 03            INC BC
49AC: 00            NOP
49AD: 03            INC BC
49AE: 15            DEC D
49AF: 15            DEC D
49B0: 07            RLCA
49B1: 07            RLCA
49B2: 15            DEC D
49B3: 03            INC BC
49B4: 07            RLCA
49B5: 07            RLCA
49B6: 15            DEC D
49B7: 15            DEC D
49B8: 15            DEC D
49B9: 15            DEC D
49BA: 15            DEC D
49BB: 15            DEC D
49BC: 03            INC BC
49BD: 03            INC BC
49BE: 03            INC BC
49BF: 03            INC BC
49C0: 03            INC BC
49C1: 03            INC BC
49C2: 0F            RRCA
49C3: 0F            RRCA
49C4: 07            RLCA
49C5: 07            RLCA
49C6: 07            RLCA
49C7: 07            RLCA
49C8: 07            RLCA
49C9: 07            RLCA
49CA: 07            RLCA
49CB: 07            RLCA
49CC: 0F            RRCA
49CD: 0F            RRCA
49CE: 0F            RRCA
49CF: 0F            RRCA
49D0: 0F            RRCA
49D1: 0F            RRCA
49D2: 0F            RRCA
49D3: 0F            RRCA
49D4: 34            INC (HL)
49D5: 0C            INC C

loc_49D6:
49D6: 4F            LD C,A
49D7: 1F            RRA
49D8: 8B            ADC A,E
49D9: C6 04         ADD A,04h
49DB: 0C            INC C
49DC: 43            LD B,E
49DD: 0C            INC C
49DE: 45            LD B,L
49DF: 06 44         LD B,44h
49E1: 06 45         LD B,45h
49E3: 06 46         LD B,46h
49E5: 25            DEC H
49E6: 06 96         LD B,96h
49E8: 45            LD B,L
49E9: 99            SBC A,C
49EA: 43            LD B,E
49EB: 97            SUB A
49EC: 45            LD B,L
49ED: 5A            LD E,D
49EE: 26 EF         LD H,EFh
49F0: 96            SUB (HL)
49F1: 44            LD B,H
49F2: 99            SBC A,C
49F3: 46            LD B,(HL)
49F4: 97            SUB A
49F5: 46            LD B,(HL)
49F6: 99            SBC A,C
49F7: 45            LD B,L
49F8: 35            DEC (HL)
49F9: 8C            ADC A,H
49FA: 34            INC (HL)

loc_49FB:
49FB: 40            LD B,B

loc_49FC:
49FC: 32 7A A6      LD (A67Ah),A
49FF: 88            ADC A,B
4A00: 13            INC DE
4A01: 84            ADD A,H
4A02: 20 10         JR NZ,loc_4A14
4A04: 27            DAA
4A05: 01 1A EC      LD BC,EC1Ah
4A08: 06 10         LD B,10h
4A0A: 83            ADD A,E

loc_4A0B:
4A0B: 00            NOP
4A0C: 60            LD H,B
4A0D: 25            DEC H

loc_4A0E:
4A0E: 10 EC         DJNZ loc_49FC
4A10: 04            INC B
4A11: 10 83         DJNZ loc_4996
4A13: 17            RLA

loc_4A14:
4A14: 60            LD H,B
4A15: 25            DEC H
4A16: 08            EX AF,AF'
4A17: 10 83         DJNZ loc_499C
4A19: 18 F0         JR loc_4A0B
4A1B: 10 25         DJNZ loc_4A42
4A1D: 01 02 FE      LD BC,FE02h
4A20: 0F            RRCA
4A21: 36 B6         LD (HL),B6h
4A23: 0F            RRCA
4A24: 34            INC (HL)
4A25: 81            ADD A,C
4A26: 04            INC B
4A27: 25            DEC H
4A28: 0F            RRCA
4A29: E6 C8         AND C8h
4A2B: 31 C5 18      LD SP,18C5h

loc_4A2E:
4A2E: 10 27         DJNZ loc_4A57

sub_4A30:
4A30: 00            NOP
4A31: EF            RST 28h
4A32: 81            ADD A,C
4A33: 08            EX AF,AF'
4A34: 10 24         DJNZ loc_4A5A
4A36: 00            NOP
4A37: E9            JP (HL)
4A38: B6            OR (HL)
4A39: 0F            RRCA
4A3A: 33            INC SP
4A3B: 81            ADD A,C
4A3C: 10 10         DJNZ loc_4A4E
4A3E: 25            DEC H
4A3F: 00            NOP
4A40: E0            RET PO
4A41: A6            AND (HL)

loc_4A42:
4A42: C8            RET Z
4A43: 1B            DEC DE
4A44: 84            ADD A,H
4A45: 3F            CCF
4A46: 10 8E         DJNZ loc_49D6
4A48: 4B            LD C,E

loc_4A49:
4A49: 27            DAA
4A4A: A6            AND (HL)
4A4B: A6            AND (HL)
4A4C: 10 2B         DJNZ loc_4A79

loc_4A4E:
4A4E: 00            NOP
4A4F: C9            RET
4A50: EC 48 A3      CALL PE,A348h
4A53: 08            EX AF,AF'
4A54: 10 2B         DJNZ loc_4A81
4A56: 00            NOP

loc_4A57:
4A57: C9            RET

loc_4A58:
4A58: ED 62         SBC HL,HL

loc_4A5A:
4A5A: A6            AND (HL)
4A5B: 88            ADC A,B
4A5C: 31 84 18      LD SP,1884h
4A5F: 10 26         DJNZ loc_4A87
4A61: 00            NOP
4A62: B6            OR (HL)
4A63: A6            AND (HL)
4A64: C8            RET Z
4A65: 31 84 18      LD SP,1884h
4A68: 27            DAA
4A69: 31 6F 64      LD SP,646Fh
4A6C: EC 62 10      CALL PE,sub_1062
4A6F: 83            ADD A,E
4A70: 00            NOP
4A71: 70            LD (HL),B
4A72: 10 24         DJNZ loc_4A98
4A74: 00            NOP
4A75: AB            XOR E
4A76: 10 83         DJNZ loc_49FB
4A78: 00            NOP

loc_4A79:
4A79: 10 25         DJNZ loc_4AA0
4A7B: 02            LD (BC),A
4A7C: 6C            LD L,H
4A7D: 64            LD H,H
4A7E: 10 8E         DJNZ loc_4A0E
4A80: 4B            LD C,E

loc_4A81:
4A81: 3C            INC A
4A82: A6            AND (HL)
4A83: 88            ADC A,B
4A84: 17            RLA
4A85: 84            ADD A,H
4A86: 0F            RRCA

loc_4A87:
4A87: C6 14         ADD A,14h
4A89: 3D            DEC A
4A8A: 31 AB A6      LD SP,A6ABh
4A8D: 64            LD H,H
4A8E: C6 0A         ADD A,0Ah
4A90: 3D            DEC A
4A91: 31 AB A6      LD SP,A6ABh
4A94: 88            ADC A,B
4A95: 21 A6 A6      LD HL,A6A6h

loc_4A98:
4A98: A7            AND A
4A99: 88            ADC A,B
4A9A: 1C            INC E
4A9B: E6 88         AND 88h
4A9D: 1C            INC E
4A9E: 10 8E         DJNZ loc_4A2E

loc_4AA0:
4AA0: 4C            LD C,H
4AA1: 18 A6         JR loc_4A49
4AA3: 88            ADC A,B
4AA4: 17            RLA
4AA5: 84            ADD A,H
4AA6: 0F            RRCA
4AA7: 48            LD C,B
4AA8: 10 AE         DJNZ loc_4A58
4AAA: A6            AND (HL)
4AAB: E6 88         AND 88h
4AAD: 3A A6 88      LD A,(88A6h)
4AB0: 14            INC D
4AB1: 84            ADD A,H
4AB2: 40            LD B,B
4AB3: 27            DAA
4AB4: 03            INC BC
4AB5: E6 88         AND 88h
4AB7: 3C            INC A
4AB8: A6            AND (HL)
4AB9: 88            ADC A,B
4ABA: 1C            INC E
4ABB: E1            POP HL
4ABC: A6            AND (HL)
4ABD: 24            INC H
4ABE: 62            LD H,D
4ABF: A7            AND A
4AC0: 88            ADC A,B
4AC1: 1E 81         LD E,81h
4AC3: 01 26 19      LD BC,1926h
4AC6: A6            AND (HL)
4AC7: 01 81 04      LD BC,0481h
4ACA: 27            DAA
4ACB: 08            EX AF,AF'
4ACC: 81            ADD A,C
4ACD: 06 27         LD B,27h
4ACF: 04            INC B
4AD0: 81            ADD A,C
4AD1: 0B            DEC BC
4AD2: 26 0B         LD H,0Bh
4AD4: 86            ADD A,(HL)
4AD5: 0C            INC C
4AD6: A7            AND A
4AD7: C8            RET Z
4AD8: 1B            DEC DE
4AD9: AF            XOR A
4ADA: C8            RET Z
4ADB: 2D            DEC L
4ADC: EF            RST 28h
4ADD: 88            ADC A,B
4ADE: 2D            DEC L
4ADF: 86            ADD A,(HL)
4AE0: 07            RLCA
4AE1: A7            AND A
4AE2: 88            ADC A,B
4AE3: 1B            DEC DE
4AE4: A6            AND (HL)
4AE5: 88            ADC A,B
4AE6: 13            INC DE
4AE7: 84            ADD A,H
4AE8: DF            RST 18h
4AE9: A7            AND A
4AEA: 88            ADC A,B
4AEB: 13            INC DE
4AEC: A6            AND (HL)
4AED: 88            ADC A,B
4AEE: 17            RLA
4AEF: 84            ADD A,H
4AF0: 0F            RRCA
4AF1: 81            ADD A,C
4AF2: 01 27 04      LD BC,0427h
4AF5: 81            ADD A,C
4AF6: 0A            LD A,(BC)
4AF7: 26 1A         LD H,1Ah
4AF9: A6            AND (HL)
4AFA: 88            ADC A,B
4AFB: 1E 81         LD E,81h
4AFD: 13            INC DE
4AFE: 27            DAA
4AFF: 0D            DEC C
4B00: 81            ADD A,C
4B01: 07            RLCA
4B02: 27            DAA
4B03: 04            INC B
4B04: 81            ADD A,C
4B05: 04            INC B
4B06: 26 0B         LD H,0Bh
4B08: A6            AND (HL)
4B09: 88            ADC A,B
4B0A: 61            LD H,C
4B0B: 26 06         LD H,06h
4B0D: A6            AND (HL)
4B0E: 03            INC BC
4B0F: 88            ADC A,B
4B10: 80            ADD A,B
4B11: A7            AND A
4B12: 03            INC BC
4B13: 32 66 1A      LD (1A66h),A
4B16: 01 35 C0      LD BC,C035h
4B19: A6            AND (HL)
4B1A: 88            ADC A,B
4B1B: 13            INC DE
4B1C: 84            ADD A,H
4B1D: DF            RST 18h
4B1E: A7            AND A
4B1F: 88            ADC A,B
4B20: 13            INC DE
4B21: 32 66 1C      LD (1C66h),A
4B24: FE 35         CP 35h
4B26: C0            RET NZ
4B27: 00            NOP
4B28: FF            RST 38h
4B29: 00            NOP
4B2A: 02            LD (BC),A
4B2B: FF            RST 38h
4B2C: FF            RST 38h
4B2D: 03            INC BC
4B2E: 00            NOP
4B2F: 03            INC BC
4B30: 03            INC BC
4B31: 04            INC B
4B32: FF            RST 38h
4B33: FF            RST 38h
4B34: 00            NOP
4B35: FF            RST 38h
4B36: FF            RST 38h
4B37: FF            RST 38h
4B38: FF            RST 38h
4B39: FF            RST 38h
4B3A: 05            DEC B
4B3B: 05            DEC B
4B3C: 01 01 01      LD BC,0101h
4B3F: 01 01 01      LD BC,0101h
4B42: 01 01 01      LD BC,0101h
4B45: 01 01 01      LD BC,0101h
4B48: 01 01 01      LD BC,0101h
4B4B: 01 01 01      LD BC,0101h
4B4E: 01 01 00      LD BC,0001h
4B51: 00            NOP
4B52: 0E 0C         LD C,0Ch
4B54: 00            NOP
4B55: 0C            INC C
4B56: 0C            INC C
4B57: 00            NOP
4B58: 00            NOP
4B59: 00            NOP
4B5A: 03            INC BC
4B5B: 03            INC BC
4B5C: 03            INC BC
4B5D: 0C            INC C
4B5E: 03            INC BC
4B5F: 0C            INC C
4B60: 0C            INC C
4B61: 00            NOP
4B62: 00            NOP
4B63: 00            NOP
4B64: 00            NOP
4B65: 00            NOP
4B66: 00            NOP
4B67: 03            INC BC
4B68: 00            NOP
4B69: 03            INC BC
4B6A: 03            INC BC
4B6B: 00            NOP
4B6C: 00            NOP
4B6D: 00            NOP
4B6E: 00            NOP
4B6F: 00            NOP
4B70: 00            NOP
4B71: 03            INC BC
4B72: 00            NOP
4B73: 03            INC BC
4B74: 03            INC BC
4B75: 00 00 00 00...DB 00h ; x26
4B8F: 04            INC B
4B90: 00            NOP
4B91: 04            INC B
4B92: 04            INC B
4B93: 00            NOP
4B94: 00            NOP
4B95: 00            NOP
4B96: 00            NOP
4B97: 00            NOP
4B98: 00            NOP
4B99: 04            INC B
4B9A: 00            NOP
4B9B: 04            INC B
4B9C: 04            INC B
4B9D: 00 00 00 00...DB 00h ; x25
4BB6: 02            LD (BC),A
4BB7: 00            NOP
4BB8: 00            NOP
4BB9: 00            NOP
4BBA: 00            NOP
4BBB: 00            NOP
4BBC: 00            NOP
4BBD: 00            NOP
4BBE: 01 01 01      LD BC,0101h
4BC1: 01 01 01      LD BC,0101h
4BC4: 01 01 01      LD BC,0101h
4BC7: 01 00 00      LD BC,0000h
4BCA: 01 03 00      LD BC,0003h
4BCD: 03            INC BC
4BCE: 03            INC BC
4BCF: 00            NOP
4BD0: 00            NOP
4BD1: 00            NOP
4BD2: 05            DEC B
4BD3: 05            DEC B
4BD4: 01 03 05      LD BC,0503h
4BD7: 03            INC BC
4BD8: 03            INC BC
4BD9: 05            DEC B
4BDA: 05            DEC B
4BDB: 05            DEC B
4BDC: 00            NOP
4BDD: 00            NOP
4BDE: 01 02 00      LD BC,0002h
4BE1: 02            LD (BC),A
4BE2: 00            NOP
4BE3: 01 00 00      LD BC,0000h
4BE6: 00            NOP
4BE7: 00            NOP
4BE8: 01 02 00      LD BC,0002h
4BEB: 02            LD (BC),A
4BEC: 00            NOP
4BED: 01 00 00      LD BC,0000h
4BF0: 00 00 00 00...DB 00h ; x40
4C18: 4C            LD C,H
4C19: 2E 4C         LD L,4Ch
4C1B: 32 4C 46      LD (464Ch),A
4C1E: 4C            LD C,H

sub_4C1F:
4C1F: 4A            LD C,D
4C20: 4C            LD C,H
4C21: 4E            LD C,(HL)
4C22: 4C            LD C,H
4C23: 53            LD D,E
4C24: 4C            LD C,H
4C25: 56            LD D,(HL)
4C26: 4C            LD C,H
4C27: 5B            LD E,E
4C28: 4C            LD C,H

loc_4C29:
4C29: 62            LD H,D
4C2A: 4C            LD C,H
4C2B: 68            LD L,B
4C2C: 4C            LD C,H
4C2D: 6B            LD L,E
4C2E: 20 20         JR NZ,loc_4C50
4C30: 24            INC H
4C31: 20 20         JR NZ,loc_4C53
4C33: 20 20         JR NZ,loc_4C55
4C35: 20 20         JR NZ,loc_4C57
4C37: 20 20         JR NZ,loc_4C59
4C39: 20 20         JR NZ,loc_4C5B
4C3B: 20 20         JR NZ,loc_4C5D
4C3D: 20 20         JR NZ,loc_4C5F
4C3F: 20 20         JR NZ,loc_4C61
4C41: 20 20         JR NZ,loc_4C63
4C43: 20 20         JR NZ,loc_4C65
4C45: 20 24         JR NZ,loc_4C6B
4C47: 20 24         JR NZ,loc_4C6D
4C49: 38 38         JR C,loc_4C83
4C4B: 38 38         JR C,loc_4C85
4C4D: 38 24         JR C,loc_4C73
4C4F: 20 24         JR NZ,loc_4C75
4C51: 20 38         JR NZ,loc_4C8B

loc_4C53:
4C53: 34            INC (HL)
4C54: 34            INC (HL)

loc_4C55:
4C55: 40            LD B,B
4C56: 20 20         JR NZ,loc_4C78
4C58: 20 20         JR NZ,loc_4C7A
4C5A: 20 20         JR NZ,loc_4C7C
4C5C: 20 20         JR NZ,loc_4C7E
4C5E: 40            LD B,B

loc_4C5F:
4C5F: 30 30         JR NC,loc_4C91

loc_4C61:
4C61: 30 20         JR NC,loc_4C83

loc_4C63:
4C63: 20 20         JR NZ,loc_4C85

loc_4C65:
4C65: 20 28         JR NZ,loc_4C8F
4C67: 24            INC H
4C68: 38 38         JR C,loc_4CA2
4C6A: 34            INC (HL)

loc_4C6B:
4C6B: 24            INC H
4C6C: 20 24         JR NZ,loc_4C92
4C6E: 24            INC H
4C6F: 24            INC H
4C70: 20 20         JR NZ,loc_4C92
4C72: 20 20         JR NZ,loc_4C94
4C74: 20 20         JR NZ,loc_4C96
4C76: 20 20         JR NZ,loc_4C98

loc_4C78:
4C78: 20 20         JR NZ,loc_4C9A

loc_4C7A:
4C7A: 20 20         JR NZ,loc_4C9C

loc_4C7C:
4C7C: 20 20         JR NZ,loc_4C9E

loc_4C7E:
4C7E: 20 20         JR NZ,loc_4CA0
4C80: 28 34         JR Z,loc_4CB6
4C82: 3C            INC A

loc_4C83:
4C83: 96            SUB (HL)
4C84: 01 9B 55      LD BC,559Bh
4C87: 91            SUB C
4C88: 00            NOP
4C89: 25            DEC H
4C8A: 02            LD (BC),A

loc_4C8B:
4C8B: 96            SUB (HL)
4C8C: 00            NOP
4C8D: 48            LD C,B
4C8E: 48            LD C,B

loc_4C8F:
4C8F: 48            LD C,B
4C90: 97            SUB A

loc_4C91:
4C91: 00            NOP

loc_4C92:
4C92: BD            CP L
4C93: 49            LD C,C

loc_4C94:
4C94: D4 84 07      CALL NC,sub_0784
4C97: 9A            SBC A,D

loc_4C98:
4C98: 00            NOP
4C99: 10 8E         DJNZ loc_4C29
4C9B: 4C            LD C,H

loc_4C9C:
4C9C: A1            AND C
4C9D: A6            AND (HL)

loc_4C9E:
4C9E: A6            AND (HL)
4C9F: 35            DEC (HL)

loc_4CA0:
4CA0: BC            CP H
4CA1: 00            NOP

loc_4CA2:
4CA2: 00            NOP
4CA3: 00            NOP
4CA4: 00            NOP
4CA5: 00            NOP
4CA6: 00            NOP
4CA7: 00            NOP
4CA8: FF            RST 38h
4CA9: 00            NOP
4CAA: 00            NOP
4CAB: 00            NOP
4CAC: 00            NOP
4CAD: 00            NOP
4CAE: 00            NOP
4CAF: FF            RST 38h
4CB0: FF            RST 38h
4CB1: 00            NOP
4CB2: 00            NOP
4CB3: 00            NOP
4CB4: 00            NOP
4CB5: 00            NOP

loc_4CB6:
4CB6: FF            RST 38h
4CB7: FF            RST 38h
4CB8: FF            RST 38h
4CB9: 00            NOP
4CBA: 00            NOP
4CBB: 00            NOP
4CBC: 00            NOP
4CBD: FF            RST 38h
4CBE: FF            RST 38h
4CBF: FF            RST 38h
4CC0: FF            RST 38h
4CC1: 00            NOP
4CC2: 00            NOP
4CC3: 00            NOP
4CC4: FF            RST 38h
4CC5: FF            RST 38h
4CC6: FF            RST 38h
4CC7: FF            RST 38h
4CC8: FF            RST 38h
4CC9: 00            NOP
4CCA: 00            NOP
4CCB: FF            RST 38h
4CCC: FF            RST 38h
4CCD: FF            RST 38h
4CCE: FF            RST 38h
4CCF: FF            RST 38h
4CD0: FF            RST 38h
4CD1: 00            NOP
4CD2: FF FF FF FF...DB FFh ; x15
4CE1: 34            INC (HL)
4CE2: 7E            LD A,(HL)
4CE3: D6 36         SUB 36h
4CE5: 27            DAA
4CE6: 04            INC B
4CE7: C1            POP BC
4CE8: 03            INC BC
4CE9: 26 18         LD H,18h
4CEB: 96            SUB (HL)
4CEC: 29            ADD HL,HL
4CED: 85            ADD A,L
4CEE: 01 27 06      LD BC,0627h
4CF1: 8E            ADC A,(HL)
4CF2: 03            INC BC
4CF3: A2            AND D
4CF4: BD            CP L
4CF5: 4D            LD C,L
4CF6: 05            DEC B
4CF7: 96            SUB (HL)
4CF8: 29            ADD HL,HL
4CF9: 85            ADD A,L
4CFA: 02            LD (BC),A
4CFB: 27            DAA
4CFC: 06 30         LD B,30h
4CFE: 88            ADC A,B
4CFF: 5F            LD E,A
4D00: BD            CP L
4D01: 4D            LD C,L
4D02: 05            DEC B

loc_4D03:
4D03: 35            DEC (HL)
4D04: FE 10         CP 10h
4D06: 8E            ADC A,(HL)
4D07: 4D            LD C,L
4D08: 39            ADD HL,SP
4D09: C4 01 86      CALL NZ,8601h
4D0C: 0C            INC C
4D0D: 3D            DEC A
4D0E: 31 AB 8C      LD SP,8CABh
4D11: 03            INC BC
4D12: A2            AND D

loc_4D13:
4D13: 27            DAA
4D14: 02            LD (BC),A
4D15: 31 26 EC      LD SP,EC26h
4D18: A1            AND C
4D19: ED 04         DB EDh,04h

loc_4D1B:
4D1B: EC A1 ED      CALL PE,EDA1h
4D1E: 06 EC         LD B,ECh
4D20: A1            AND C
4D21: ED 08         DB EDh,08h
4D23: A6            AND (HL)
4D24: 84            ADD A,H
4D25: 8A            ADC A,D
4D26: C0            RET NZ
4D27: A7            AND A
4D28: 84            ADD A,H
4D29: 86            ADD A,(HL)
4D2A: 35            DEC (HL)
4D2B: A7            AND A
4D2C: 88            ADC A,B
4D2D: 1F            RRA
4D2E: 86            ADD A,(HL)
4D2F: 00            NOP
4D30: A7            AND A
4D31: 88            ADC A,B
4D32: 1B            DEC DE
4D33: 86            ADD A,(HL)
4D34: 01 A7 88      LD BC,88A7h
4D37: 37            SCF
4D38: 39            ADD HL,SP
4D39: 00            NOP
4D3A: 70            LD (HL),B
4D3B: 01 20 01      LD BC,0120h
4D3E: 00            NOP
4D3F: 00            NOP
4D40: 90            SUB B
4D41: 01 20 01      LD BC,0120h
4D44: 00            NOP
4D45: 01 10 01      LD BC,0110h
4D48: 20 01         JR NZ,loc_4D4B
4D4A: 00            NOP

loc_4D4B:
4D4B: 01 08 01      LD BC,0108h
4D4E: 20 01         JR NZ,loc_4D51
4D50: 00            NOP

loc_4D51:
4D51: 32 7C EC      LD (EC7Ch),A
4D54: 08            EX AF,AF'
4D55: E3            EX (SP),HL
4D56: 06 ED         LD B,EDh
4D58: E4 DC 3F      CALL PO,sub_3FDC
4D5B: C3 00 FF      JP FF00h
4D5E: 10 A3         DJNZ loc_4D03
4D60: E4 24 04      CALL PO,sub_0424
4D63: A3            AND E
4D64: 06 ED         LD B,EDh
4D66: 08            EX AF,AF'
4D67: DC 3C C3      CALL C,C33Ch
4D6A: FF            RST 38h
4D6B: E0            RET PO
4D6C: 2B            DEC HL
4D6D: 19            ADD HL,DE
4D6E: 10 A3         DJNZ loc_4D13
4D70: 04            INC B
4D71: 24            INC H
4D72: 17            RLA
4D73: C3 01 40      JP loc_4001
4D76: 10 A3         DJNZ loc_4D1B
4D78: 04            INC B
4D79: 25            DEC H
4D7A: 0F            RRCA
4D7B: EC 08 E3      CALL PE,E308h

loc_4D7E:
4D7E: 06 C3         LD B,C3h
4D80: 00            NOP
4D81: 28 10         JR Z,loc_4D93
4D83: 93            SUB E
4D84: 3F            CCF
4D85: 25            DEC H
4D86: 03            INC BC

loc_4D87:
4D87: 32 64 39      LD (3964h),A
4D8A: 6F            LD L,A
4D8B: 84            ADD A,H
4D8C: A6            AND (HL)
4D8D: 88            ADC A,B
4D8E: 4C            LD C,H
4D8F: 8A            ADC A,D
4D90: 80            ADD A,B
4D91: A7            AND A
4D92: 88            ADC A,B

loc_4D93:
4D93: 4C            LD C,H
4D94: 20 F1         JR NZ,loc_4D87
4D96: BD            CP L
4D97: 63            LD H,E
4D98: 55            LD D,L
4D99: A6            AND (HL)

loc_4D9A:
4D9A: 84            ADD A,H
4D9B: 8A            ADC A,D
4D9C: 81            ADD A,C
4D9D: A7            AND A
4D9E: 84            ADD A,H
4D9F: 86            ADD A,(HL)
4DA0: 04            INC B
4DA1: A7            AND A
4DA2: 88            ADC A,B
4DA3: 1B            DEC DE
4DA4: 86            ADD A,(HL)
4DA5: 40            LD B,B
4DA6: A7            AND A
4DA7: 88            ADC A,B
4DA8: 2C            INC L
4DA9: 86            ADD A,(HL)
4DAA: 35            DEC (HL)
4DAB: A7            AND A
4DAC: 88            ADC A,B
4DAD: 1F            RRA
4DAE: 6F            LD L,A
4DAF: 88            ADC A,B
4DB0: 13            INC DE
4DB1: 6F            LD L,A
4DB2: 88            ADC A,B
4DB3: 14            INC D
4DB4: 6F            LD L,A
4DB5: 88            ADC A,B
4DB6: 15            DEC D
4DB7: 6F            LD L,A
4DB8: 88            ADC A,B
4DB9: 16 A6         LD D,A6h
4DBB: 88            ADC A,B
4DBC: 21 27 15      LD HL,1527h
4DBF: 10 AE         DJNZ loc_4D6F
4DC1: 88            ADC A,B
4DC2: 41            LD B,C
4DC3: CC 00 00      CALL Z,sub_0000
4DC6: A7            AND A
4DC7: A4            AND H
4DC8: ED A8         LDD
4DCA: 1F            RRA
4DCB: A7            AND A
4DCC: 88            ADC A,B
4DCD: 16 A7         LD D,A7h
4DCF: 88            ADC A,B
4DD0: 21 ED 88      LD HL,88EDh
4DD3: 41            LD B,C
4DD4: 86            ADD A,(HL)
4DD5: 80            ADD A,B
4DD6: 8C            ADC A,H
4DD7: 03            INC BC
4DD8: A2            AND D
4DD9: 27            DAA
4DDA: 09            ADD HL,BC

loc_4DDB:
4DDB: B7            OR A
4DDC: 0A            LD A,(BC)

loc_4DDD:
4DDD: 87            ADD A,A
4DDE: 86            ADD A,(HL)
4DDF: 01 A7 01      LD BC,01A7h
4DE2: 20 07         JR NZ,loc_4DEB
4DE4: B7            OR A
4DE5: 0A            LD A,(BC)
4DE6: 63            LD H,E
4DE7: 86            ADD A,(HL)
4DE8: 00            NOP
4DE9: A7            AND A
4DEA: 01 96 36      LD BC,3696h
4DED: 48            LD C,B
4DEE: 10 8E         DJNZ loc_4D7E

loc_4DF0:
4DF0: 4D            LD C,L
4DF1: F5            PUSH AF
4DF2: 6E            LD L,(HL)
4DF3: B6            OR (HL)
4DF4: 39            ADD HL,SP
4DF5: 4D            LD C,L
4DF6: FD 4E 0F      LD C,(IY+0Fh)
4DF9: 4E            LD C,(HL)
4DFA: 9D            SBC A,L
4DFB: 4E            LD C,(HL)
4DFC: C1            POP BC
4DFD: DC 3C C3      CALL C,C33Ch
4E00: 00            NOP
4E01: 80            ADD A,B
4E02: ED 04         DB EDh,04h
4E04: CC 03 00      CALL Z,sub_0003
4E07: ED 08         DB EDh,08h
4E09: CC 01 20      CALL Z,sub_2001
4E0C: ED 06         DB EDh,06h
4E0E: 39            ADD HL,SP
4E0F: 32 7F 6F      LD (6F7Fh),A
4E12: E4 DC 3C      CALL PO,sub_3CDC
4E15: 10 83         DJNZ loc_4D9A
4E17: 05            DEC B
4E18: 40            LD B,B
4E19: 25            DEC H
4E1A: 2C            INC L
4E1B: 6C            LD L,H
4E1C: E4 10 83      CALL PO,8310h
4E1F: 05            DEC B
4E20: AC            XOR H
4E21: 25            DEC H
4E22: 24            INC H
4E23: 6C            LD L,H
4E24: E4 10 83      CALL PO,8310h
4E27: 06 09         LD B,09h
4E29: 25            DEC H
4E2A: 1C            INC E
4E2B: 6C            LD L,H
4E2C: E4 10 83      CALL PO,8310h
4E2F: 06 58         LD B,58h
4E31: 25            DEC H
4E32: 14            INC D
4E33: 6C            LD L,H
4E34: E4 10 83      CALL PO,8310h
4E37: 06 84         LD B,84h
4E39: 25            DEC H
4E3A: 0C            INC C
4E3B: 6C            LD L,H
4E3C: E4 DC 3F      CALL PO,sub_3FDC
4E3F: 10 83         DJNZ loc_4DC4
4E41: 02            LD (BC),A
4E42: F0            RET P
4E43: 25            DEC H
4E44: 02            LD (BC),A
4E45: 6C            LD L,H
4E46: E4 A6 E4      CALL PO,E4A6h
4E49: 48            LD C,B
4E4A: 48            LD C,B
4E4B: 10 8E         DJNZ loc_4DDB
4E4D: 4E            LD C,(HL)
4E4E: 81            ADD A,C
4E4F: 31 A6 DC      LD SP,DCA6h
4E52: 3C            INC A
4E53: C3 00 80      JP 8000h
4E56: ED 04         DB EDh,04h
4E58: 10 83         DJNZ loc_4DDD
4E5A: 07            RLCA
4E5B: 05            DEC B
4E5C: 25            DEC H
4E5D: 18 10         JR loc_4E6F
4E5F: 83            ADD A,E
4E60: 07            RLCA
4E61: 26 24         LD H,24h
4E63: 07            RLCA
4E64: CC 07 26      CALL Z,sub_2607
4E67: ED 04         DB EDh,04h
4E69: 20 0B         JR NZ,loc_4E76
4E6B: 10 83         DJNZ loc_4DF0
4E6D: 07            RLCA
4E6E: 95            SUB L

loc_4E6F:
4E6F: 25            DEC H
4E70: 05            DEC B
4E71: CC 08 15      CALL Z,sub_1508
4E74: ED 04         DB EDh,04h

loc_4E76:
4E76: EC A1 ED      CALL PE,EDA1h
4E79: 06 EC         LD B,ECh
4E7B: A4            AND H
4E7C: ED 08         DB EDh,08h
4E7E: 32 61 39      LD (3961h),A
4E81: 01 3C 01      LD BC,013Ch
4E84: 00            NOP
4E85: 01 47 01      LD BC,0147h
4E88: 30 01         JR NC,loc_4E8B
4E8A: 44            LD B,H

loc_4E8B:
4E8B: 01 60 01      LD BC,0160h
4E8E: 44            LD B,H
4E8F: 01 74 01      LD BC,0174h
4E92: 44            LD B,H
4E93: 01 A4 01      LD BC,01A4h
4E96: 30 01         JR NC,loc_4E99
4E98: C0            RET NZ

loc_4E99:
4E99: 01 3F 02      LD BC,023Fh
4E9C: 40            LD B,B
4E9D: DC 3C C3      CALL C,C33Ch
4EA0: 00            NOP
4EA1: 80            ADD A,B
4EA2: ED 04         DB EDh,04h
4EA4: 96            SUB (HL)
4EA5: 38 81         JR C,loc_4E28
4EA7: 05            DEC B
4EA8: 2F            CPL
4EA9: 0C            INC C
4EAA: CC 02 80      CALL Z,8002h
4EAD: ED 08         DB EDh,08h
4EAF: CC 00 D0      CALL Z,D000h
4EB2: ED 06         DB EDh,06h
4EB4: 20 0A         JR NZ,loc_4EC0
4EB6: CC 01 00      CALL Z,sub_0001
4EB9: ED 08         DB EDh,08h
4EBB: CC 00 B0      CALL Z,B000h
4EBE: ED 06         DB EDh,06h

loc_4EC0:
4EC0: 39            ADD HL,SP
4EC1: 96            SUB (HL)
4EC2: 38 27         JR C,loc_4EEB
4EC4: 1C            INC E

loc_4EC5:
4EC5: CC 01 30      CALL Z,sub_3001
4EC8: ED 06         DB EDh,06h
4ECA: CC 01 20      CALL Z,sub_2001
4ECD: ED 08         DB EDh,08h
4ECF: FC 0B 1C      CALL M,sub_1C0B

loc_4ED2:
4ED2: 10 83         DJNZ loc_4E57
4ED4: 16 00         LD D,00h
4ED6: 25            DEC H
4ED7: 20 EC         JR NZ,loc_4EC5
4ED9: 06 C3         LD B,C3h
4EDB: 00            NOP
4EDC: 20 ED         JR NZ,loc_4ECB
4EDE: 06 20         LD B,20h
4EE0: 17            RLA
4EE1: DC 3C 10      CALL C,sub_103C
4EE4: 83            ADD A,E
4EE5: 13            INC DE

loc_4EE6:
4EE6: 80            ADD A,B
4EE7: 25            DEC H
4EE8: 05            DEC B
4EE9: CC 01 48      CALL Z,sub_4801
4EEC: 20 03         JR NZ,loc_4EF1
4EEE: CC 01 70      CALL Z,sub_7001

loc_4EF1:
4EF1: ED 06         DB EDh,06h
4EF3: CC 02 00      CALL Z,sub_0002
4EF6: ED 08         DB EDh,08h
4EF8: DC 3C C3      CALL C,C33Ch
4EFB: 00            NOP
4EFC: 80            ADD A,B
4EFD: ED 04         DB EDh,04h
4EFF: 39            ADD HL,SP
4F00: 39            ADD HL,SP
4F01: 34            INC (HL)
4F02: 40            LD B,B
4F03: 96            SUB (HL)
4F04: 29            ADD HL,HL
4F05: 84            ADD A,H
4F06: 03            INC BC
4F07: 81            ADD A,C
4F08: 03            INC BC
4F09: 26 1F         LD H,1Fh
4F0B: EE 88         XOR 88h
4F0D: 3C            INC A
4F0E: 11 83 04      LD DE,0483h
4F11: 60            LD H,B
4F12: 25            DEC H
4F13: 05            DEC B
4F14: BD            CP L
4F15: 4F            LD C,A
4F16: 2C            INC L
4F17: 25            DEC H
4F18: 11 CE 03      LD DE,03CEh
4F1B: A2            AND D
4F1C: 96            SUB (HL)
4F1D: 2A 84 01      LD HL,(0184h)
4F20: 88            ADC A,B
4F21: 01 C6 5F      LD BC,5FC6h
4F24: 3D            DEC A
4F25: 33            INC SP
4F26: CB BD         RES 7,L
4F28: 4F            LD C,A
4F29: 2C            INC L
4F2A: 35            DEC (HL)
4F2B: C0            RET NZ
4F2C: 34            INC (HL)
4F2D: 60            LD H,B
4F2E: 32 7A 7D      LD (7D7Ah),A
4F31: 0A            LD A,(BC)
4F32: AF            XOR A
4F33: 10 2B         DJNZ loc_4F60
4F35: 00            NOP
4F36: B2            OR D
4F37: A6            AND (HL)
4F38: 88            ADC A,B
4F39: 1B            DEC DE
4F3A: 84            ADD A,H
4F3B: 3F            CCF
4F3C: 81            ADD A,C
4F3D: 08            EX AF,AF'
4F3E: 10 24         DJNZ loc_4F64
4F40: 00            NOP
4F41: A7            AND A
4F42: 10 8E         DJNZ loc_4ED2
4F44: 4F            LD C,A
4F45: EF            RST 28h
4F46: A6            AND (HL)
4F47: A6            AND (HL)
4F48: 10 26         DJNZ loc_4F70
4F4A: 00            NOP
4F4B: 9D            SBC A,L
4F4C: A6            AND (HL)
4F4D: C4 84 C0      CALL NZ,C084h
4F50: 81            ADD A,C
4F51: C0            RET NZ
4F52: 10 26         DJNZ loc_4F7A
4F54: 00            NOP
4F55: 93            SUB E
4F56: 10 8E         DJNZ loc_4EE6
4F58: 50            LD D,B
4F59: 4B            LD C,E
4F5A: A6            AND (HL)
4F5B: 41            LD B,C
4F5C: 81            ADD A,C
4F5D: 02            LD (BC),A
4F5E: 10 25         DJNZ loc_4F85

loc_4F60:
4F60: 00            NOP
4F61: 87            ADD A,A
4F62: A6            AND (HL)
4F63: C8            RET Z

loc_4F64:
4F64: 17            RLA
4F65: 84            ADD A,H
4F66: 0F            RRCA
4F67: A6            AND (HL)
4F68: A6            AND (HL)
4F69: 26 7E         LD H,7Eh
4F6B: A6            AND (HL)
4F6C: C8            RET Z
4F6D: 1B            DEC DE
4F6E: 10 8E         DJNZ loc_4EFE

loc_4F70:
4F70: 4F            LD C,A
4F71: F7            RST 30h
4F72: 84            ADD A,H
4F73: 3F            CCF

loc_4F74:
4F74: 81            ADD A,C
4F75: 0A            LD A,(BC)
4F76: 24            INC H
4F77: 71            LD (HL),C
4F78: A6            AND (HL)
4F79: A6            AND (HL)

loc_4F7A:
4F7A: 26 6D         LD H,6Dh
4F7C: EC 48 10      CALL PE,sub_1048
4F7F: A3            AND E
4F80: 08            EX AF,AF'
4F81: 26 66         LD H,66h
4F83: EC 46 A3      CALL PE,A346h
4F86: 06 2A         LD B,2Ah
4F88: 07            RLCA
4F89: ED E4         DB EDh,E4h
4F8B: CC 00 00      CALL Z,sub_0000
4F8E: A3            AND E
4F8F: E4 10 83      CALL PO,8310h
4F92: 00            NOP
4F93: 06 24         LD B,24h
4F95: 53            LD D,E
4F96: 6F            LD L,A
4F97: 62            LD H,D
4F98: EC 44 A3      CALL PE,A344h
4F9B: 04            INC B
4F9C: 2A 0B ED      LD HL,(ED0Bh)
4F9F: E4 86 80      CALL PO,8086h
4FA2: A7            AND A
4FA3: 62            LD H,D
4FA4: CC 00 00      CALL Z,sub_0000
4FA7: A3            AND E
4FA8: E4 10 83      CALL PO,8310h
4FAB: 00            NOP
4FAC: 10 24         DJNZ loc_4FD2
4FAE: 3A A6 03      LD A,(03A6h)
4FB1: A8            XOR B
4FB2: 43            LD B,E
4FB3: 26 34         LD H,34h
4FB5: A6            AND (HL)
4FB6: 03            INC BC
4FB7: A8            XOR B
4FB8: 62            LD H,D
4FB9: 26 2E         LD H,2Eh

loc_4FBB:
4FBB: A6            AND (HL)
4FBC: C8            RET Z
4FBD: 1B            DEC DE
4FBE: 84            ADD A,H
4FBF: 3F            CCF
4FC0: 81            ADD A,C
4FC1: 09            ADD HL,BC
4FC2: 26 11         LD H,11h
4FC4: 10 AE         DJNZ loc_4F74
4FC6: C8            RET Z
4FC7: 2D            DEC L
4FC8: 86            ADD A,(HL)
4FC9: 00            NOP
4FCA: A7            AND A
4FCB: A8            XOR B
4FCC: 1B            DEC DE
4FCD: A6            AND (HL)
4FCE: A8            XOR B
4FCF: 16 84         LD D,84h
4FD1: F9            LD SP,HL

loc_4FD2:
4FD2: A7            AND A
4FD3: A8            XOR B
4FD4: 16 86         LD D,86h
4FD6: 09            ADD HL,BC
4FD7: A7            AND A
4FD8: 88            ADC A,B
4FD9: 1B            DEC DE
4FDA: 86            ADD A,(HL)
4FDB: 0A            LD A,(BC)
4FDC: A7            AND A
4FDD: C8            RET Z
4FDE: 1B            DEC DE
4FDF: AF            XOR A
4FE0: C8            RET Z
4FE1: 2D            DEC L
4FE2: EF            RST 28h
4FE3: 88            ADC A,B
4FE4: 2D            DEC L
4FE5: 1A            LD A,(DE)
4FE6: 01 20 02      LD BC,0220h
4FE9: 1C            INC E
4FEA: FE 32         CP 32h
4FEC: 66            LD H,(HL)
4FED: 35            DEC (HL)
4FEE: E0            RET PO
4FEF: 00            NOP
4FF0: FF            RST 38h
4FF1: FF            RST 38h
4FF2: FF            RST 38h
4FF3: FF            RST 38h
4FF4: FF            RST 38h
4FF5: FF            RST 38h
4FF6: 00            NOP
4FF7: 00            NOP
4FF8: FF            RST 38h
4FF9: 00            NOP
4FFA: 00            NOP
4FFB: FF            RST 38h
4FFC: FF            RST 38h
4FFD: FF            RST 38h
4FFE: FF            RST 38h
4FFF: FF            RST 38h
5000: 00            NOP
5001: 34            INC (HL)
5002: 40            LD B,B
5003: A6            AND (HL)
5004: 84            ADD A,H
5005: 84            ADD A,H
5006: C0            RET NZ
5007: 81            ADD A,C
5008: C0            RET NZ
5009: 26 3E         LD H,3Eh
500B: 10 AE         DJNZ loc_4FBB
500D: 88            ADC A,B
500E: 3C            INC A
500F: 10 8C         DJNZ loc_4F9D
5011: 04            INC B
5012: 60            LD H,B
5013: 25            DEC H
5014: 34            INC (HL)
5015: A6            AND (HL)
5016: A8            XOR B
5017: 1B            DEC DE
5018: 84            ADD A,H
5019: 3F            CCF
501A: 81            ADD A,C
501B: 03            INC BC
501C: 26 2B         LD H,2Bh
501E: 96            SUB (HL)
501F: 2A 48 1F      LD HL,(1F48h)
5022: 23            INC HL
5023: 33            INC SP
5024: C8            RET Z
5025: 3A A6 C6      LD A,(C6A6h)
5028: 81            ADD A,C
5029: 20 24         JR NZ,loc_504F
502B: 1D            DEC E
502C: 81            ADD A,C
502D: 08            EX AF,AF'
502E: 24            INC H
502F: 19            ADD HL,DE
5030: A6            AND (HL)
5031: 88            ADC A,B
5032: 1E 81         LD E,81h
5034: 00            NOP
5035: 26 12         LD H,12h
5037: 86            ADD A,(HL)
5038: 07            RLCA
5039: A7            AND A
503A: 88            ADC A,B
503B: 1B            DEC DE
503C: 86            ADD A,(HL)
503D: 07            RLCA
503E: A7            AND A
503F: 88            ADC A,B
5040: 1C            INC E
5041: A7            AND A
5042: 88            ADC A,B
5043: 1E 86         LD E,86h
5045: 00            NOP
5046: A7            AND A
5047: 88            ADC A,B
5048: 1D            DEC E
5049: 35            DEC (HL)
504A: C0            RET NZ
504B: FF            RST 38h
504C: 00            NOP
504D: FF            RST 38h
504E: FF            RST 38h

loc_504F:
504F: FF            RST 38h
5050: FF            RST 38h
5051: 00            NOP
5052: 00            NOP
5053: FF            RST 38h
5054: FF            RST 38h
5055: FF            RST 38h
5056: 00            NOP
5057: 00            NOP
5058: FF            RST 38h
5059: FF            RST 38h
505A: FF            RST 38h
505B: FF            RST 38h
505C: 00            NOP
505D: 00            NOP
505E: FF            RST 38h
505F: FF            RST 38h
5060: FF            RST 38h
5061: 34            INC (HL)
5062: 6E            LD L,(HL)
5063: 32 7F 8E      LD (8E7Fh),A
5066: 07            RLCA
5067: DB 6F         IN A,(6Fh)
5069: E4 A6 84      CALL PO,84A6h
506C: 2B            DEC HL
506D: 0B            DEC BC
506E: A6            AND (HL)
506F: 88            ADC A,B
5070: 17            RLA
5071: 85            ADD A,L
5072: 20 26         JR NZ,loc_509A
5074: 04            INC B
5075: 1A            LD A,(DE)
5076: 01 20 0D      LD BC,0D20h
5079: C6 24         ADD A,24h
507B: 3A 6C E4      LD A,(E46Ch)
507E: A6            AND (HL)
507F: E4 81 10      CALL PO,sub_1081
5082: 25            DEC H
5083: E6 1C         AND 1Ch
5085: FE 32         CP 32h
5087: 61            LD H,C
5088: 35            DEC (HL)
5089: EE BD         XOR BDh
508B: 6D            LD L,L
508C: E0            RET PO
508D: 96            SUB (HL)

sub_508E:
508E: 36 48         LD (HL),48h
5090: 10 8E         DJNZ loc_5020
5092: 50            LD D,B
5093: 96            SUB (HL)
5094: 6E            LD L,(HL)
5095: B6            OR (HL)
5096: 50            LD D,B
5097: 9E            SBC A,(HL)
5098: 50            LD D,B
5099: A5            AND L

loc_509A:
509A: 50            LD D,B
509B: AC            XOR H
509C: 50            LD D,B
509D: BF            CP A

loc_509E:
509E: BD            CP L
509F: 51            LD D,C
50A0: B6            OR (HL)
50A1: BD            CP L
50A2: 52            LD D,D
50A3: 1F            RRA
50A4: 39            ADD HL,SP
50A5: BD            CP L
50A6: 52            LD D,D
50A7: 1F            RRA
50A8: BD            CP L
50A9: 52            LD D,D
50AA: BC            CP H
50AB: 39            ADD HL,SP
50AC: BD            CP L
50AD: 51            LD D,C
50AE: B6            OR (HL)
50AF: BD            CP L
50B0: 52            LD D,D
50B1: BC            CP H

loc_50B2:
50B2: BD            CP L
50B3: 53            LD D,E
50B4: 1B            DEC DE
50B5: BD            CP L
50B6: 53            LD D,E
50B7: 7D            LD A,L
50B8: BD            CP L
50B9: 53            LD D,E
50BA: E6 BD         AND BDh
50BC: 54            LD D,H

loc_50BD:
50BD: 30 39         JR NC,loc_50F8
50BF: BD            CP L
50C0: 51            LD D,C
50C1: B6            OR (HL)
50C2: 86            ADD A,(HL)
50C3: 01 B7 0E      LD BC,0EB7h
50C6: FA BD 50      JP M,loc_50BD
50C9: DF            RST 18h
50CA: 7C            LD A,H
50CB: 0E FA         LD C,FAh
50CD: BD            CP L
50CE: 50            LD D,B
50CF: DF            RST 18h
50D0: BD            CP L
50D1: 54            LD D,H
50D2: 59            LD E,C
50D3: BD            CP L
50D4: 54            LD D,H
50D5: 98            SBC A,B

loc_50D6:
50D6: BD            CP L
50D7: 54            LD D,H
50D8: EC BD 55      CALL PE,sub_55BD
50DB: 21 39 35      LD HL,3539h
50DE: F0            RET P
50DF: 34            INC (HL)
50E0: 70            LD (HL),B
50E1: DC 3F 10      CALL C,sub_103F
50E4: 83            ADD A,E
50E5: 02            LD (BC),A
50E6: A8            XOR B
50E7: 25            DEC H
50E8: F4 96 29      CALL P,sub_2996
50EB: B4            OR H
50EC: 0E FA         LD C,FAh
50EE: 27            DAA
50EF: ED 96         DB EDh,96h
50F1: 51            LD D,C
50F2: 84            ADD A,H
50F3: 7F            LD A,A
50F4: 26 E7         LD H,E7h
50F6: 10 8E         DJNZ loc_5086

loc_50F8:
50F8: 0E FB         LD C,FBh

loc_50FA:
50FA: CE 03         ADC A,03h
50FC: A2            AND D
50FD: B6            OR (HL)
50FE: 0E FA         LD C,FAh
5100: 81            ADD A,C
5101: 01 27 05      LD BC,0527h
5104: 31 21 33      LD SP,3321h
5107: C8            RET Z
5108: 5F            LD E,A
5109: A6            AND (HL)
510A: A4            AND H
510B: 2B            DEC HL
510C: D0            RET NC
510D: BD            CP L
510E: 50            LD D,B
510F: 61            LD H,C
5110: 24            INC H
5111: CB EC         SET 5,H
5113: 44            LD B,H
5114: 83            ADD A,E
5115: 14            INC D
5116: D4 2B C4      CALL NC,C42Bh
5119: 10 83         DJNZ loc_509E
511B: 00            NOP
511C: D0            RET NC
511D: 24            INC H
511E: BE            CP (HL)
511F: 34            INC (HL)
5120: 06 86         LD B,86h
5122: 80            ADD A,B
5123: A7            AND A
5124: A4            AND H
5125: 10 AF         DJNZ loc_50D6
5127: 88            ADC A,B
5128: 1D            DEC E
5129: 35            DEC (HL)
512A: 06 32         LD B,32h
512C: 7E            LD A,(HL)
512D: 10 83         DJNZ loc_50B2
512F: 00            NOP
5130: 70            LD (HL),B
5131: 25            DEC H
5132: 03            INC BC
5133: 83            ADD A,E
5134: 00            NOP
5135: 10 6F         DJNZ loc_51A6
5137: E4 83 00      CALL PO,sub_0083
513A: 18 2B         JR loc_5167
513C: 04            INC B
513D: 6C            LD L,H
513E: E4 20 F7      CALL PO,F720h
5141: A6            AND (HL)
5142: E4 81 04      CALL PO,sub_0481
5145: 27            DAA
5146: 04            INC B
5147: 81            ADD A,C
5148: 07            RLCA
5149: 26 05         LD H,05h
514B: 4F            LD C,A
514C: 6F            LD L,A
514D: 61            LD H,C
514E: 20 0C         JR NZ,loc_515C
5150: BD            CP L
5151: 49            LD C,C
5152: D4 84 03      CALL NC,sub_0384
5155: 81            ADD A,C
5156: 03            INC BC
5157: 26 01         LD H,01h
5159: 4F            LD C,A
515A: A7            AND A
515B: 61            LD H,C

loc_515C:
515C: C6 18         ADD A,18h
515E: 4C            LD C,H
515F: 3D            DEC A
5160: C3 02 00      JP sub_0002
5163: DD            DB DDh ; prefix (nop)
5164: 04            INC B
5165: CC 01 56      CALL Z,sub_5601
5168: DD            DB DDh ; prefix (nop)
5169: 02            LD (BC),A
516A: 10 8E         DJNZ loc_50FA
516C: 51            LD D,C
516D: 98            SBC A,B
516E: A6            AND (HL)
516F: 61            LD H,C
5170: 81            ADD A,C
5171: 01 26 03      LD BC,0326h
5174: 31 A8 10      LD SP,10A8h
5177: A6            AND (HL)

loc_5178:
5178: E4 48 EC      CALL PO,EC48h
517B: A6            AND (HL)
517C: DD            DB DDh ; prefix (nop)
517D: 00            NOP
517E: CC 1B 0B      CALL Z,sub_0B1B
5181: DD            DB DDh ; prefix (nop)
5182: 06 10         LD B,10h
5184: 8E            ADC A,(HL)
5185: 00            NOP
5186: 00            NOP
5187: BD            CP L
5188: 54            LD D,H
5189: CD 6F 02      CALL sub_026F
518C: 86            ADD A,(HL)
518D: 03            INC BC
518E: A7            AND A
518F: 88            ADC A,B
5190: 19            ADD HL,DE
5191: 6F            LD L,A

loc_5192:
5192: 88            ADC A,B
5193: 18 32         JR loc_51C7
5195: 62            LD H,D

loc_5196:
5196: 35            DEC (HL)
5197: F0            RET P
5198: 14            INC D
5199: D0            RET NC
519A: 14            INC D
519B: E8            RET PE
519C: 15            DEC D
519D: 00            NOP
519E: 15            DEC D
519F: 18 15         JR loc_51B6
51A1: 40            LD B,B
51A2: 15            DEC D
51A3: 58            LD E,B
51A4: 15            DEC D
51A5: 70            LD (HL),B

loc_51A6:
51A6: 15            DEC D
51A7: 88            ADC A,B
51A8: 14            INC D
51A9: D8            RET C
51AA: 14            INC D
51AB: F0            RET P
51AC: 15            DEC D
51AD: 08            EX AF,AF'
51AE: 00            NOP
51AF: 00            NOP
51B0: 15            DEC D
51B1: 48            LD C,B
51B2: 15            DEC D
51B3: 60            LD H,B
51B4: 15            DEC D
51B5: 78            LD A,B

loc_51B6:
51B6: B6            OR (HL)

loc_51B7:
51B7: 0E F3         LD C,F3h
51B9: 2B            DEC HL
51BA: 05            DEC B
51BB: 85            ADD A,L
51BC: 40            LD B,B
51BD: 26 13         LD H,13h
51BF: 39            ADD HL,SP
51C0: BD            CP L
51C1: 50            LD D,B
51C2: 61            LD H,C
51C3: 24            INC H
51C4: FA A6 88      JP M,88A6h

loc_51C7:
51C7: 16 84         LD D,84h
51C9: 7F            LD A,A
51CA: A7            AND A
51CB: 88            ADC A,B
51CC: 16 6F         LD D,6Fh
51CE: 88            ADC A,B
51CF: 18 20         JR loc_51F1
51D1: 12            LD (DE),A
51D2: BD            CP L
51D3: 50            LD D,B

loc_51D4:
51D4: 61            LD H,C
51D5: 24            INC H
51D6: E8            RET PE
51D7: A6            AND (HL)
51D8: 88            ADC A,B
51D9: 16 8A         LD D,8Ah
51DB: 80            ADD A,B
51DC: A7            AND A
51DD: 88            ADC A,B
51DE: 16 86         LD D,86h
51E0: 01 A7 88      LD BC,88A7h
51E3: 18 A6         JR loc_518B
51E5: 88            ADC A,B
51E6: 18 48         JR loc_5230
51E8: 10 8E         DJNZ loc_5178

loc_51EA:
51EA: 58            LD E,B
51EB: 23            INC HL
51EC: E6 A6         AND A6h
51EE: E7            RST 20h
51EF: 02            LD (BC),A

loc_51F0:
51F0: 4C            LD C,H

loc_51F1:
51F1: E6 A6         AND A6h
51F3: E7            RST 20h
51F4: 88            ADC A,B
51F5: 19            ADD HL,DE
51F6: B6            OR (HL)
51F7: 0E F3         LD C,F3h
51F9: 84            ADD A,H
51FA: 0F            RRCA

loc_51FB:
51FB: 1F            RRA
51FC: 89            ADC A,C
51FD: 8A            ADC A,D
51FE: 20 B7         JR NZ,loc_51B7
5200: 0E F3         LD C,F3h
5202: 10 8E         DJNZ loc_5192
5204: 52            LD D,D
5205: 0F            RRCA
5206: 58            LD E,B
5207: 58            LD E,B
5208: 58            LD E,B
5209: 31 A5 BD      LD SP,BDA5h
520C: 54            LD D,H
520D: CD 39 02      CALL sub_0239
5210: 76            HALT
5211: 01 20 02      LD BC,0220h
5214: FF            RST 38h
5215: 19            ADD HL,DE
5216: 0C            INC C
5217: 09            ADD HL,BC
5218: 57            LD D,A
5219: 00            NOP
521A: DF            RST 18h
521B: 01 00 19      LD BC,1900h
521E: 0C            INC C
521F: 32 7E 10      LD (107Eh),A
5222: 8E            ADC A,(HL)
5223: 52            LD D,D
5224: A2            AND D
5225: EC A4 2B      CALL PE,sub_2BA4
5228: 38 FC         JR C,loc_5226
522A: 0B            DEC BC
522B: 1C            INC E
522C: 83            ADD A,E
522D: 00            NOP
522E: 40            LD B,B
522F: 10 A3         DJNZ loc_51D4
5231: A4            AND H
5232: 24            INC H
5233: 29            ADD HL,HL
5234: FC 0B 1C      CALL M,sub_1C0B
5237: C3 01 40      JP loc_4001
523A: 10 A3         DJNZ loc_51DF
523C: A4            AND H
523D: 25            DEC H
523E: 1E EC         LD E,ECh
5240: 22 E3 24      LD (24E3h),HL
5243: ED E4         DB EDh,E4h
5245: FC 0B 1F      CALL M,sub_1F0B
5248: 83            ADD A,E
5249: 00            NOP
524A: 40            LD B,B
524B: 10 A3         DJNZ loc_51F0
524D: E4 24 0D      CALL PO,sub_0D24
5250: FC 0B 1F      CALL M,sub_1F0B
5253: C3 01 40      JP loc_4001

loc_5256:
5256: 10 A3         DJNZ loc_51FB
5258: E4 25 02      CALL PO,sub_0225
525B: 20 18         JR NZ,loc_5275
525D: 31 28 20      LD SP,2028h
5260: C4 96 36      CALL NZ,sub_3696
5263: D6 38         SUB 38h
5265: 10 83         DJNZ loc_51EA
5267: 01 01 27      LD BC,2701h
526A: 34            INC (HL)
526B: B6            OR (HL)
526C: 0F            RRCA
526D: 1E 84         LD E,84h
526F: F7            RST 30h
5270: B7            OR A
5271: 0F            RRCA
5272: 1E 20         LD E,20h
5274: 2A B6 0F      LD HL,(0FB6h)
5277: 1E 85         LD E,85h
5279: 08            EX AF,AF'
527A: 26 23         LD H,23h
527C: BD            CP L
527D: 50            LD D,B
527E: 61            LD H,C
527F: 24            INC H

loc_5280:
5280: 1E 6F         LD E,6Fh
5282: 88            ADC A,B
5283: 18 BD         JR loc_5242
5285: 54            LD D,H

loc_5286:
5286: CD 10 8E      CALL 8E10h
5289: 58            LD E,B
528A: AE            XOR (HL)
528B: A6            AND (HL)
528C: 88            ADC A,B
528D: 18 C6         JR loc_5255
528F: 00            NOP
5290: E7            RST 20h
5291: 02            LD (BC),A
5292: C6 04         ADD A,04h
5294: E7            RST 20h
5295: 88            ADC A,B
5296: 19            ADD HL,DE
5297: B6            OR (HL)
5298: 0F            RRCA
5299: 1E 8A         LD E,8Ah
529B: 08            EX AF,AF'
529C: B7            OR A
529D: 0F            RRCA
529E: 1E 32         LD E,32h
52A0: 62            LD H,D
52A1: 39            ADD HL,SP
52A2: 04            INC B
52A3: 93            SUB E
52A4: 01 30 03      LD BC,0330h
52A7: 00            NOP
52A8: 1C            INC E
52A9: 0D            DEC C
52AA: 04            INC B
52AB: A3            AND E
52AC: 01 60 01      LD BC,0160h
52AF: 00            NOP
52B0: 1C            INC E
52B1: 0D            DEC C

loc_52B2:
52B2: 07            RLCA
52B3: E7            RST 20h
52B4: 01 40 01      LD BC,0140h
52B7: C0            RET NZ
52B8: 1C            INC E
52B9: 0D            DEC C
52BA: FF            RST 38h
52BB: FF            RST 38h
52BC: 96            SUB (HL)
52BD: 36 81         LD (HL),81h
52BF: 01 26 0A      LD BC,0A26h
52C2: 96            SUB (HL)
52C3: 38 27         JR C,loc_52EC
52C5: 05            DEC B

loc_52C6:
52C6: B6            OR (HL)
52C7: 0E F6         LD C,F6h
52C9: 2A 0F 39      LD HL,(390Fh)
52CC: 96            SUB (HL)

loc_52CD:
52CD: 36 81         LD (HL),81h
52CF: 02            LD (BC),A
52D0: 26 F9         LD H,F9h
52D2: 96            SUB (HL)
52D3: 38 81         JR C,loc_5256
52D5: 05            DEC B
52D6: 26 F3         LD H,F3h
52D8: 20 EC         JR NZ,loc_52C6
52DA: BD            CP L
52DB: 50            LD D,B
52DC: 61            LD H,C
52DD: 24            INC H
52DE: EC B6 0E      CALL PE,sub_0EB6
52E1: F6 8A         OR 8Ah
52E3: 80            ADD A,B
52E4: B7            OR A
52E5: 0E F6         LD C,F6h
52E7: BF            CP A
52E8: 0E F7         LD C,F7h
52EA: 96            SUB (HL)
52EB: 36 81         LD (HL),81h
52ED: 02            LD (BC),A
52EE: 26 06         LD H,06h
52F0: 10 8E         DJNZ loc_5280
52F2: 53            LD D,E
52F3: 13            INC DE
52F4: 20 04         JR NZ,loc_52FA
52F6: 10 8E         DJNZ loc_5286
52F8: 53            LD D,E
52F9: 0B            DEC BC

loc_52FA:
52FA: BD            CP L
52FB: 54            LD D,H
52FC: CD 86 00      CALL loc_0086
52FF: A7            AND A
5300: 02            LD (BC),A
5301: 6F            LD L,A
5302: 88            ADC A,B
5303: 1B            DEC DE
5304: A6            AND (HL)
5305: 84            ADD A,H
5306: 8A            ADC A,D
5307: 80            ADD A,B
5308: A7            AND A
5309: 84            ADD A,H
530A: 39            ADD HL,SP
530B: 08            EX AF,AF'
530C: 4D            LD C,L
530D: 01 02 01      LD BC,0102h
5310: 00            NOP
5311: 14            INC D
5312: 01 0F D0      LD BC,D00Fh
5315: 00            NOP
5316: C8            RET Z
5317: 02            LD (BC),A
5318: 00            NOP
5319: 14            INC D
531A: 01 B6 0F      LD BC,0FB6h
531D: 09            ADD HL,BC
531E: 2B            DEC HL
531F: 4C            LD C,H
5320: 96            SUB (HL)
5321: 36 81         LD (HL),81h
5323: 02            LD (BC),A
5324: 26 46         LD H,46h
5326: DC 3C 83      CALL C,833Ch

loc_5329:
5329: 09            ADD HL,BC
532A: 40            LD B,B
532B: 2B            DEC HL
532C: 3F            CCF
532D: 10 83         DJNZ loc_52B2
532F: 01 C0 24      LD BC,24C0h
5332: 39            ADD HL,SP
5333: BD            CP L

loc_5334:
5334: 50            LD D,B
5335: 61            LD H,C
5336: 24            INC H
5337: 34            INC (HL)
5338: 86            ADD A,(HL)
5339: 80            ADD A,B
533A: B7            OR A
533B: 0F            RRCA
533C: 09            ADD HL,BC
533D: 10 8E         DJNZ loc_52CD
533F: 53            LD D,E
5340: 6D            LD L,L
5341: BD            CP L
5342: 54            LD D,H

loc_5343:
5343: CD 86 00      CALL loc_0086
5346: A7            AND A
5347: 02            LD (BC),A
5348: CC 0F 0A      CALL Z,sub_0A0F
534B: ED 88         DB EDh,88h
534D: 19            ADD HL,DE
534E: 6F            LD L,A
534F: 88            ADC A,B
5350: 1E BD         LD E,BDh
5352: 50            LD D,B
5353: 61            LD H,C
5354: 24            INC H
5355: 16 10         LD D,10h
5357: 8E            ADC A,(HL)
5358: 53            LD D,E
5359: 75            LD (HL),L
535A: BD            CP L
535B: 54            LD D,H
535C: CD 86 00      CALL loc_0086
535F: A7            AND A
5360: 02            LD (BC),A
5361: CC 0F 0C      CALL Z,sub_0C0F
5364: ED 88         DB EDh,88h
5366: 19            ADD HL,DE
5367: 86            ADD A,(HL)
5368: 01 A7 88      LD BC,88A7h
536B: 1E 39         LD E,39h
536D: 0A            LD A,(BC)
536E: 4C            LD C,H
536F: 00            NOP
5370: E0            RET PO
5371: 01 00 28      LD BC,2800h
5374: 10 0A         DJNZ loc_5380
5376: EC 00 E0      CALL PE,E000h
5379: 01 00 28      LD BC,2800h
537C: 10 B6         DJNZ loc_5334
537E: 0F            RRCA

loc_537F:
537F: 0F            RRCA

loc_5380:
5380: 2B            DEC HL
5381: 53            LD D,E
5382: DC 3C 83      CALL C,833Ch
5385: 0B            DEC BC
5386: 20 2B         JR NZ,loc_53B3
5388: 4C            LD C,H
5389: 10 83         DJNZ loc_530E
538B: 00            NOP
538C: A0            AND B
538D: 24            INC H
538E: 46            LD B,(HL)
538F: BD            CP L
5390: 50            LD D,B
5391: 61            LD H,C
5392: 24            INC H
5393: 41            LD B,C
5394: 86            ADD A,(HL)
5395: 80            ADD A,B
5396: B7            OR A
5397: 0F            RRCA
5398: 0F            RRCA
5399: 10 8E         DJNZ loc_5329
539B: 53            LD D,E
539C: D6 BD         SUB BDh
539E: 54            LD D,H
539F: CD 86 00      CALL loc_0086
53A2: A7            AND A
53A3: 02            LD (BC),A
53A4: 86            ADD A,(HL)
53A5: F0            RET P
53A6: A7            AND A
53A7: 88            ADC A,B
53A8: 1A            LD A,(DE)
53A9: 6F            LD L,A
53AA: 03            INC BC
53AB: BD            CP L

loc_53AC:
53AC: 50            LD D,B
53AD: 61            LD H,C
53AE: 24            INC H
53AF: 25            DEC H
53B0: BF            CP A
53B1: 0F            RRCA
53B2: 0A            LD A,(BC)

loc_53B3:
53B3: 10 8E         DJNZ loc_5343
53B5: 53            LD D,E
53B6: D6 BD         SUB BDh
53B8: 54            LD D,H
53B9: CD 86 80      CALL 8086h
53BC: A7            AND A
53BD: 02            LD (BC),A
53BE: A7            AND A
53BF: 03            INC BC
53C0: BD            CP L
53C1: 50            LD D,B
53C2: 61            LD H,C
53C3: 24            INC H
53C4: 10 10         DJNZ loc_53D6
53C6: 8E            ADC A,(HL)
53C7: 53            LD D,E
53C8: DE BD         SBC A,BDh
53CA: 54            LD D,H
53CB: CD 86 20      CALL sub_2086
53CE: A7            AND A
53CF: 88            ADC A,B
53D0: 1A            LD A,(DE)
53D1: 86            ADD A,(HL)
53D2: 7F            LD A,A
53D3: A7            AND A
53D4: 02            LD (BC),A
53D5: 39            ADD HL,SP

loc_53D6:
53D6: 0C            INC C
53D7: 80            ADD A,B
53D8: 00            NOP
53D9: E0            RET PO
53DA: 00            NOP
53DB: E0            RET PO
53DC: 25            DEC H
53DD: 11 0C 78      LD DE,780Ch
53E0: 01 06 00      LD BC,0006h
53E3: E0            RET PO
53E4: 25            DEC H
53E5: 14            INC D
53E6: 34            INC (HL)
53E7: 30 96         JR NC,loc_537F
53E9: 38 81         JR C,loc_536C
53EB: 06 26         LD B,26h
53ED: 20 BD         JR NZ,loc_53AC
53EF: 49            LD C,C
53F0: D4 84 7F      CALL NC,sub_7F84
53F3: 26 19         LD H,19h
53F5: BD            CP L
53F6: 50            LD D,B
53F7: 61            LD H,C
53F8: 24            INC H
53F9: 14            INC D
53FA: 96            SUB (HL)
53FB: 51            LD D,C
53FC: 84            ADD A,H
53FD: 18 10         JR loc_540F
53FF: 8E            ADC A,(HL)
5400: 54            LD D,H
5401: 10 31         DJNZ loc_5434
5403: A6            AND (HL)
5404: BD            CP L

loc_5405:
5405: 54            LD D,H
5406: CD 6F 02      CALL sub_026F
5409: 86            ADD A,(HL)

loc_540A:
540A: 07            RLCA
540B: A7            AND A
540C: 88            ADC A,B
540D: 19            ADD HL,DE
540E: 35            DEC (HL)

loc_540F:
540F: B0            OR B
5410: 0F            RRCA
5411: 80            ADD A,B
5412: 01 A0 02      LD BC,02A0h
5415: 40            LD B,B
5416: 2E 13         LD L,13h
5418: 0F            RRCA
5419: B0            OR B
541A: 01 A0 02      LD BC,02A0h
541D: 40            LD B,B
541E: 2E 13         LD L,13h
5420: 0F            RRCA
5421: D8            RET C
5422: 01 A0 02      LD BC,02A0h
5425: 40            LD B,B
5426: 2E 13         LD L,13h
5428: 0F            RRCA
5429: FF            RST 38h
542A: 01 A0 02      LD BC,02A0h
542D: 40            LD B,B
542E: 2E 13         LD L,13h
5430: 96            SUB (HL)
5431: 38 81         JR C,loc_53B4
5433: 06 26         LD B,26h
5435: 1A            LD A,(DE)
5436: B6            OR (HL)
5437: 0F            RRCA
5438: 0E 2B         LD C,2Bh
543A: 15            DEC D
543B: BD            CP L
543C: 50            LD D,B
543D: 61            LD H,C
543E: 24            INC H
543F: 10 10         DJNZ loc_5451
5441: 8E            ADC A,(HL)
5442: 54            LD D,H
5443: 51            LD D,C
5444: BD            CP L

sub_5445:
5445: 54            LD D,H

sub_5446:
5446: CD 86 06      CALL sub_0686

sub_5449:
5449: A7            AND A
544A: 02            LD (BC),A
544B: 86            ADD A,(HL)
544C: 80            ADD A,B
544D: B7            OR A
544E: 0F            RRCA
544F: 0E 39         LD C,39h

loc_5451:
5451: 0F            RRCA
5452: A0            AND B

loc_5453:
5453: 02            LD (BC),A
5454: B8            CP B
5455: 01 00 2E      LD BC,2E00h
5458: 17            RLA
5459: B6            OR (HL)
545A: 0F            RRCA
545B: 12            LD (DE),A
545C: 2B            DEC HL
545D: 31 26 2F      LD SP,2F26h
5460: DC 3C 10      CALL C,sub_103C
5463: 83            ADD A,E
5464: 13            INC DE
5465: 01 25 27      LD BC,2725h
5468: B6            OR (HL)
5469: 0A            LD A,(BC)
546A: AC            XOR H
546B: 26 22         LD H,22h
546D: BD            CP L
546E: 50            LD D,B
546F: 61            LD H,C
5470: 24            INC H
5471: 1D            DEC E
5472: BF            CP A
5473: 0F            RRCA
5474: 13            INC DE
5475: 10 8E         DJNZ loc_5405
5477: 54            LD D,H
5478: 90            SUB B
5479: BD            CP L
547A: 54            LD D,H
547B: CD 86 00      CALL loc_0086
547E: A7            AND A
547F: 02            LD (BC),A
5480: 6F            LD L,A
5481: 88            ADC A,B
5482: 18 86         JR loc_540A

loc_5484:
5484: 01 A7 88      LD BC,88A7h
5487: 19            ADD HL,DE
5488: 6F            LD L,A
5489: 03            INC BC
548A: 86            ADD A,(HL)
548B: 80            ADD A,B
548C: B7            OR A
548D: 0F            RRCA
548E: 12            LD (DE),A
548F: 39            ADD HL,SP
5490: 14            INC D
5491: 68            LD L,B
5492: 01 48 02      LD BC,0248h
5495: 77            LD (HL),A
5496: 17            RLA
5497: 09            ADD HL,BC
5498: 96            SUB (HL)
5499: 26 27         LD H,27h
549B: 28 B6         JR Z,loc_5453
549D: 0F            RRCA
549E: 12            LD (DE),A
549F: 2A 23 96      LD HL,(9623h)
54A2: 51            LD D,C
54A3: 84            ADD A,H
54A4: 7F            LD A,A
54A5: 26 1D         LD H,1Dh
54A7: BD            CP L
54A8: 50            LD D,B
54A9: 61            LD H,C
54AA: 24            INC H
54AB: 18 10         JR loc_54BD
54AD: 8E            ADC A,(HL)
54AE: 54            LD D,H
54AF: C5            PUSH BC
54B0: BD            CP L
54B1: 54            LD D,H
54B2: CD 86 14      CALL sub_1486
54B5: A7            AND A
54B6: 88            ADC A,B

loc_54B7:
54B7: 1B            DEC DE
54B8: 6F            LD L,A
54B9: 02            LD (BC),A
54BA: 6F            LD L,A
54BB: 88            ADC A,B
54BC: 19            ADD HL,DE

loc_54BD:
54BD: 6F            LD L,A
54BE: 88            ADC A,B
54BF: 18 86         JR sub_5447
54C1: C0            RET NZ
54C2: A7            AND A
54C3: 0D            DEC C
54C4: 39            ADD HL,SP
54C5: 14            INC D
54C6: 80            ADD A,B
54C7: 01 48 02      LD BC,0248h
54CA: 00            NOP
54CB: 0E 03         LD C,03h
54CD: EC A1 ED      CALL PE,EDA1h
54D0: 04            INC B
54D1: EC A1 ED      CALL PE,EDA1h
54D4: 06 EC         LD B,ECh
54D6: A1            AND C
54D7: ED 08         DB EDh,08h
54D9: A6            AND (HL)
54DA: A0            AND B
54DB: A7            AND A
54DC: 01 A6 A4      LD BC,A4A6h
54DF: A7            AND A
54E0: 88            ADC A,B
54E1: 17            RLA
54E2: A6            AND (HL)
54E3: 84            ADD A,H
54E4: 8A            ADC A,D
54E5: 80            ADD A,B
54E6: A7            AND A
54E7: 84            ADD A,H
54E8: 6F            LD L,A
54E9: 88            ADC A,B
54EA: 1B            DEC DE
54EB: 39            ADD HL,SP
54EC: DC 3C 10      CALL C,sub_103C
54EF: 83            ADD A,E
54F0: 16 00         LD D,00h

loc_54F2:
54F2: 25            DEC H
54F3: 24            INC H
54F4: 10 8E         DJNZ loc_5484
54F6: 07            RLCA
54F7: 78            LD A,B
54F8: EC 24 10      CALL PE,sub_1024
54FB: 83            ADD A,E
54FC: 17            RLA
54FD: 10 24         DJNZ loc_5523
54FF: 18 B6         JR loc_54B7
5501: 0F            RRCA
5502: 21 2B 13      LD HL,132Bh
5505: BD            CP L
5506: 50            LD D,B
5507: 61            LD H,C
5508: 24            INC H
5509: 0E 10         LD C,10h
550B: 8E            ADC A,(HL)
550C: 55            LD D,L
550D: 19            ADD HL,DE
550E: BD            CP L
550F: 54            LD D,H
5510: CD 6F 02      CALL sub_026F
5513: 86            ADD A,(HL)
5514: FF            RST 38h
5515: B7            OR A
5516: 0F            RRCA
5517: 21 39 16      LD HL,1639h
551A: F0            RET P
551B: 01 8F 01      LD BC,018Fh
551E: 40            LD B,B
551F: 27            DAA
5520: 15            DEC D
5521: B6            OR (HL)
5522: 0F            RRCA

loc_5523:
5523: 1E 85         LD E,85h
5525: 10 26         DJNZ loc_554D
5527: 23            INC HL
5528: DC 3C 10      CALL C,sub_103C
552B: 83            ADD A,E
552C: 16 00         LD D,00h
552E: 25            DEC H
552F: 1B            DEC DE
5530: BD            CP L
5531: 50            LD D,B
5532: 61            LD H,C
5533: 24            INC H
5534: 16 B6         LD D,B6h
5536: 0F            RRCA

loc_5537:
5537: 1E 8A         LD E,8Ah
5539: 10 B7         DJNZ loc_54F2
553B: 0F            RRCA
553C: 1E 10         LD E,10h
553E: 8E            ADC A,(HL)
553F: 55            LD D,L
5540: 4C            LD C,H
5541: BD            CP L
5542: 54            LD D,H
5543: CD 86 5C      CALL sub_5C86
5546: A7            AND A
5547: 02            LD (BC),A
5548: BF            CP A
5549: 0F            RRCA
554A: 3E 39         LD A,39h
554C: 17            RLA

loc_554D:
554D: 80            ADD A,B
554E: 01 7F 01      LD BC,017Fh
5551: A0            AND B
5552: 02            LD (BC),A
5553: 1A            LD A,(DE)
5554: 39            ADD HL,SP
5555: 96            SUB (HL)
5556: 36 81         LD (HL),81h
5558: 02            LD (BC),A
5559: 27            DAA
555A: 06 10         LD B,10h
555C: 8E            ADC A,(HL)
555D: 55            LD D,L
555E: 6D            LD L,L
555F: 20 04         JR NZ,loc_5565
5561: 10 8E         DJNZ loc_54F1
5563: 55            LD D,L
5564: 7B            LD A,E

loc_5565:
5565: A6            AND (HL)
5566: 88            ADC A,B
5567: 1B            DEC DE
5568: 84            ADD A,H
5569: 7F            LD A,A
556A: 48            LD C,B
556B: 6E            LD L,(HL)
556C: B6            OR (HL)
556D: 55            LD D,L
556E: 89            ADC A,C
556F: 55            LD D,L
5570: 99            SBC A,C
5571: 55            LD D,L
5572: F0            RET P
5573: 56            LD D,(HL)
5574: 10 56         DJNZ loc_55CC
5576: 3A 56 4F      LD A,(4F56h)
5579: 56            LD D,(HL)

loc_557A:
557A: 8C            ADC A,H
557B: 55            LD D,L
557C: 89            ADC A,C
557D: 56            LD D,(HL)
557E: A2            AND D
557F: 56            LD D,(HL)
5580: 3A 56 FD      LD A,(FD56h)
5583: 57            LD D,A
5584: 4F            LD C,A
5585: 56            LD D,(HL)
5586: 8C            ADC A,H
5587: 56            LD D,(HL)
5588: 8C            ADC A,H
5589: 7F            LD A,A
558A: 0F            RRCA
558B: 8B            ADC A,E
558C: B6            OR (HL)
558D: 0B            DEC BC
558E: A9            XOR C
558F: 84            ADD A,H
5590: 04            INC B
5591: 27            DAA
5592: 05            DEC B
5593: 86            ADD A,(HL)
5594: 01 A7 88      LD BC,88A7h
5597: 1B            DEC DE
5598: 39            ADD HL,SP
5599: 34            INC (HL)
559A: 40            LD B,B
559B: CE 07         ADC A,07h
559D: 78            LD A,B
559E: 86            ADD A,(HL)
559F: 83            ADD A,E
55A0: A7            AND A
55A1: 42            LD B,D
55A2: 86            ADD A,(HL)

loc_55A3:
55A3: 80            ADD A,B
55A4: A7            AND A
55A5: 43            LD B,E
55A6: 86            ADD A,(HL)
55A7: 23            INC HL
55A8: B7            OR A
55A9: 38 0E         JR C,loc_55B9
55AB: EC 08 C3      CALL PE,C308h
55AE: 00            NOP
55AF: 02            LD (BC),A
55B0: ED 08         DB EDh,08h
55B2: 10 83         DJNZ loc_5537
55B4: 01 C0 25      LD BC,25C0h
55B7: 1B            DEC DE
55B8: CC 01 C0      CALL Z,C001h
55BB: ED 08         DB EDh,08h

sub_55BD:
55BD: 6C            LD L,H
55BE: 88            ADC A,B
55BF: 1B            DEC DE
55C0: A6            AND (HL)
55C1: 88            ADC A,B
55C2: 1B            DEC DE
55C3: 84            ADD A,H
55C4: 7F            LD A,A
55C5: A7            AND A
55C6: 88            ADC A,B
55C7: 1B            DEC DE
55C8: A6            AND (HL)
55C9: C4 8A 40      CALL NZ,sub_408A

loc_55CC:
55CC: A7            AND A
55CD: C4 86 08      CALL NZ,sub_0886
55D0: BD            CP L
55D1: 64            LD H,H
55D2: 4D            LD C,L
55D3: A6            AND (HL)
55D4: C4 8A 81      CALL NZ,818Ah
55D7: A7            AND A
55D8: C4 EC 04      CALL NZ,sub_04EC
55DB: C3 00 00      JP sub_0000
55DE: ED 44         NEG
55E0: EC 06 C3      CALL PE,C306h
55E3: FF            RST 38h
55E4: FC ED 46      CALL M,sub_46ED
55E7: EC 08 C3      CALL PE,C308h

loc_55EA:
55EA: 00            NOP
55EB: 00            NOP
55EC: ED 48         IN C,(C)
55EE: 35            DEC (HL)
55EF: C0            RET NZ
55F0: EC 08 83      CALL PE,8308h
55F3: 00            NOP
55F4: 03            INC BC
55F5: 10 83         DJNZ loc_557A
55F7: 01 40 25      LD BC,2540h
55FA: 04            INC B
55FB: ED 08         DB EDh,08h
55FD: 20 10         JR NZ,loc_560F
55FF: CC 01 40      CALL Z,loc_4001
5602: ED 08         DB EDh,08h
5604: 6C            LD L,H
5605: 88            ADC A,B
5606: 1B            DEC DE
5607: A6            AND (HL)
5608: 88            ADC A,B
5609: 1B            DEC DE
560A: 84            ADD A,H
560B: 7F            LD A,A
560C: A7            AND A
560D: 88            ADC A,B
560E: 1B            DEC DE

loc_560F:
560F: 39            ADD HL,SP
5610: B6            OR (HL)
5611: 0A            LD A,(BC)
5612: AF            XOR A
5613: 84            ADD A,H
5614: C0            RET NZ
5615: 27            DAA
5616: 22 EC 08      LD (08ECh),HL
5619: C3 00 03      JP loc_0300
561C: ED 08         DB EDh,08h
561E: 10 83         DJNZ loc_55A3
5620: 01 C0 25      LD BC,25C0h
5623: 15            DEC D
5624: CC 01 C0      CALL Z,C001h
5627: ED 08         DB EDh,08h
5629: 86            ADD A,(HL)
562A: 01 B7 0F      LD BC,0FB7h
562D: 8B            ADC A,E
562E: 6C            LD L,H
562F: 88            ADC A,B
5630: 1B            DEC DE
5631: A6            AND (HL)
5632: 88            ADC A,B
5633: 1B            DEC DE
5634: 84            ADD A,H
5635: 7F            LD A,A
5636: A7            AND A
5637: 88            ADC A,B

loc_5638:
5638: 1B            DEC DE
5639: 39            ADD HL,SP
563A: B6            OR (HL)
563B: 0E F6         LD C,F6h
563D: 84            ADD A,H
563E: 03            INC BC

loc_563F:
563F: 81            ADD A,C
5640: 03            INC BC
5641: 26 0B         LD H,0Bh
5643: 6C            LD L,H
5644: 88            ADC A,B
5645: 1B            DEC DE

sub_5646:
5646: A6            AND (HL)
5647: 88            ADC A,B
5648: 1B            DEC DE
5649: 84            ADD A,H
564A: 7F            LD A,A
564B: A7            AND A
564C: 88            ADC A,B
564D: 1B            DEC DE
564E: 39            ADD HL,SP
564F: A6            AND (HL)
5650: 88            ADC A,B
5651: 1B            DEC DE
5652: 2B            DEC HL
5653: 0A            LD A,(BC)
5654: 8A            ADC A,D
5655: 80            ADD A,B
5656: A7            AND A
5657: 88            ADC A,B
5658: 1B            DEC DE
5659: 86            ADD A,(HL)
565A: 24            INC H
565B: BD            CP L
565C: 64            LD H,H
565D: 4D            LD C,L
565E: EC 08 83      CALL PE,8308h
5661: 00            NOP
5662: 02            LD (BC),A
5663: ED 08         DB EDh,08h
5665: 10 83         DJNZ loc_55EA
5667: 01 00 24      LD BC,2400h
566A: 18 CC         JR loc_5638
566C: 01 00 ED      LD BC,ED00h
566F: 08            EX AF,AF'
5670: 6C            LD L,H
5671: 88            ADC A,B
5672: 1B            DEC DE
5673: A6            AND (HL)
5674: 88            ADC A,B
5675: 1B            DEC DE
5676: 84            ADD A,H
5677: 7F            LD A,A
5678: A7            AND A
5679: 88            ADC A,B
567A: 1B            DEC DE
567B: B6            OR (HL)
567C: 0E F6         LD C,F6h
567E: 8A            ADC A,D
567F: 04            INC B
5680: B7            OR A
5681: 0E F6         LD C,F6h
5683: EC 08 FD      CALL PE,FD08h
5686: 03            INC BC
5687: AA            XOR D
5688: FD            DB FDh ; prefix (nop)
5689: 04            INC B
568A: 09            ADD HL,BC
568B: 39            ADD HL,SP
568C: EC 04 C3      CALL PE,C304h
568F: 00            NOP
5690: 40            LD B,B
5691: 10 93         DJNZ loc_5626
5693: 3C            INC A
5694: 24            INC H
5695: 0B            DEC BC
5696: CC 00 00      CALL Z,sub_0000
5699: A7            AND A
569A: 84            ADD A,H
569B: B7            OR A
569C: 0E F6         LD C,F6h
569E: FD            DB FDh ; prefix (nop)
569F: 0E F7         LD C,F7h
56A1: 39            ADD HL,SP
56A2: 34            INC (HL)
56A3: 40            LD B,B
56A4: A6            AND (HL)
56A5: 88            ADC A,B
56A6: 1B            DEC DE
56A7: 2B            DEC HL
56A8: 0A            LD A,(BC)
56A9: 8A            ADC A,D
56AA: 80            ADD A,B
56AB: A7            AND A
56AC: 88            ADC A,B
56AD: 1B            DEC DE
56AE: 86            ADD A,(HL)
56AF: 24            INC H
56B0: BD            CP L
56B1: 64            LD H,H
56B2: 4D            LD C,L
56B3: EC 08 83      CALL PE,8308h
56B6: 00            NOP
56B7: 02            LD (BC),A
56B8: ED 08         DB EDh,08h
56BA: 10 83         DJNZ loc_563F
56BC: 01 00 25      LD BC,2500h
56BF: 0C            INC C
56C0: CE 04         ADC A,04h
56C2: 60            LD H,B
56C3: 8D            ADC A,L
56C4: 1E CE         LD E,CEh
56C6: 04            INC B
56C7: C3 8D 19      JP loc_198D
56CA: 20 15         JR NZ,loc_56E1
56CC: CE 04         ADC A,04h
56CE: 60            LD H,B
56CF: 8D            ADC A,L
56D0: 25            DEC H
56D1: CE 04         ADC A,04h
56D3: C3 8D 20      JP loc_208D
56D6: 6C            LD L,H
56D7: 88            ADC A,B
56D8: 1B            DEC DE
56D9: A6            AND (HL)
56DA: 88            ADC A,B
56DB: 1B            DEC DE
56DC: 84            ADD A,H
56DD: 7F            LD A,A

loc_56DE:
56DE: A7            AND A
56DF: 88            ADC A,B
56E0: 1B            DEC DE

loc_56E1:
56E1: 35            DEC (HL)
56E2: C0            RET NZ
56E3: 86            ADD A,(HL)
56E4: 84            ADD A,H
56E5: A7            AND A
56E6: 42            LD B,D
56E7: 86            ADD A,(HL)
56E8: 80            ADD A,B
56E9: A7            AND A
56EA: 43            LD B,E
56EB: A6            AND (HL)
56EC: C4 8A 81      CALL NZ,818Ah
56EF: A7            AND A
56F0: C4 EC 08      CALL NZ,sub_08EC
56F3: ED 48         IN C,(C)
56F5: 39            ADD HL,SP
56F6: A6            AND (HL)
56F7: C4 8A 40      CALL NZ,sub_408A
56FA: A7            AND A
56FB: C4 39 A6      CALL NZ,A639h
56FE: 88            ADC A,B
56FF: 1B            DEC DE
5700: 2B            DEC HL
5701: 0A            LD A,(BC)
5702: 8A            ADC A,D
5703: 80            ADD A,B
5704: A7            AND A
5705: 88            ADC A,B
5706: 1B            DEC DE
5707: 86            ADD A,(HL)
5708: 23            INC HL
5709: BD            CP L
570A: 64            LD H,H
570B: 4D            LD C,L
570C: EC 08 C3      CALL PE,C308h
570F: 00            NOP
5710: 02            LD (BC),A
5711: ED 08         DB EDh,08h
5713: 10 83         DJNZ loc_5698
5715: 02            LD (BC),A
5716: 78            LD A,B
5717: 25            DEC H
5718: 5B            LD E,E
5719: 6C            LD L,H
571A: 88            ADC A,B
571B: 1B            DEC DE
571C: A6            AND (HL)
571D: 88            ADC A,B
571E: 1B            DEC DE
571F: 84            ADD A,H
5720: 7F            LD A,A
5721: A7            AND A
5722: 88            ADC A,B
5723: 1B            DEC DE
5724: B6            OR (HL)
5725: 0E F6         LD C,F6h
5727: 8A            ADC A,D
5728: 04            INC B
5729: B7            OR A
572A: 0E F6         LD C,F6h
572C: 86            ADD A,(HL)
572D: 04            INC B
572E: BD            CP L
572F: 64            LD H,H
5730: 4D            LD C,L
5731: EC 08 C3      CALL PE,C308h
5734: 00            NOP
5735: 08            EX AF,AF'
5736: FD            DB FDh ; prefix (nop)

loc_5737:
5737: 03            INC BC
5738: AA            XOR D
5739: FD            DB FDh ; prefix (nop)
573A: 04            INC B

loc_573B:
573B: 09            ADD HL,BC
573C: FC 03 A8      CALL M,A803h
573F: 83            ADD A,E
5740: 00            NOP
5741: 08            EX AF,AF'
5742: FD            DB FDh ; prefix (nop)
5743: 03            INC BC
5744: A8            XOR B
5745: FC 04 07      CALL M,sub_0704
5748: 83            ADD A,E
5749: 00            NOP
574A: 08            EX AF,AF'
574B: FD            DB FDh ; prefix (nop)
574C: 04            INC B
574D: 07            RLCA
574E: 39            ADD HL,SP
574F: FC 0F 8B      CALL M,8B0Fh
5752: 27            DAA
5753: 1F            RRA
5754: EC 08 83      CALL PE,8308h
5757: 00            NOP
5758: 03            INC BC

loc_5759:
5759: 10 83         DJNZ loc_56DE
575B: 01 F8 25      LD BC,25F8h
575E: 04            INC B
575F: ED 08         DB EDh,08h
5761: 20 10         JR NZ,loc_5773
5763: CC 01 F8      CALL Z,F801h
5766: ED 08         DB EDh,08h
5768: 6C            LD L,H
5769: 88            ADC A,B
576A: 1B            DEC DE
576B: A6            AND (HL)
576C: 88            ADC A,B
576D: 1B            DEC DE
576E: 84            ADD A,H
576F: 7F            LD A,A
5770: A7            AND A
5771: 88            ADC A,B
5772: 1B            DEC DE

loc_5773:
5773: 39            ADD HL,SP
5774: EC 08 FD      CALL PE,FD08h
5777: 03            INC BC
5778: AA            XOR D
5779: FD            DB FDh ; prefix (nop)
577A: 04            INC B

loc_577B:
577B: 09            ADD HL,BC
577C: 39            ADD HL,SP
577D: 39            ADD HL,SP
577E: 6A            LD L,D
577F: 88            ADC A,B
5780: 19            ADD HL,DE
5781: 26 19         LD H,19h
5783: 6C            LD L,H
5784: 02            LD (BC),A
5785: A6            AND (HL)
5786: 02            LD (BC),A
5787: 81            ADD A,C
5788: 01 26 08      LD BC,0826h
578B: 10 AE         DJNZ loc_573B
578D: 88            ADC A,B
578E: 1D            DEC E
578F: C6 01         ADD A,01h
5791: E7            RST 20h
5792: A4            AND H
5793: 81            ADD A,C
5794: 04            INC B
5795: 24            INC H
5796: 06 86         LD B,86h

loc_5798:
5798: 08            EX AF,AF'
5799: A7            AND A
579A: 88            ADC A,B
579B: 19            ADD HL,DE
579C: 39            ADD HL,SP
579D: 6F            LD L,A
579E: 84            ADD A,H
579F: 6A            LD L,D
57A0: 02            LD (BC),A
57A1: 10 AE         DJNZ loc_5751
57A3: 88            ADC A,B
57A4: 1D            DEC E
57A5: 86            ADD A,(HL)
57A6: 02            LD (BC),A
57A7: A7            AND A
57A8: A4            AND H
57A9: 39            ADD HL,SP
57AA: 6A            LD L,D
57AB: 88            ADC A,B
57AC: 19            ADD HL,DE
57AD: 26 19         LD H,19h
57AF: 6C            LD L,H
57B0: 88            ADC A,B
57B1: 18 A6         JR loc_5759
57B3: 88            ADC A,B
57B4: 18 81         JR loc_5737
57B6: 09            ADD HL,BC
57B7: 24            INC H
57B8: 10 10         DJNZ loc_57CA
57BA: 8E            ADC A,(HL)
57BB: 57            LD D,A
57BC: D2 48 E6      JP NC,E648h
57BF: A6            AND (HL)
57C0: E7            RST 20h
57C1: 02            LD (BC),A
57C2: 4C            LD C,H
57C3: E6 A6         AND A6h
57C5: E7            RST 20h
57C6: 88            ADC A,B
57C7: 19            ADD HL,DE
57C8: 39            ADD HL,SP
57C9: 6F            LD L,A

loc_57CA:
57CA: 84            ADD A,H
57CB: 10 AE         DJNZ loc_577B
57CD: 88            ADC A,B
57CE: 1D            DEC E
57CF: 6F            LD L,A
57D0: A4            AND H
57D1: 39            ADD HL,SP
57D2: 00            NOP
57D3: 04            INC B
57D4: 01 04 02      LD BC,0204h
57D7: 04            INC B
57D8: 03            INC BC
57D9: 04            INC B
57DA: 04            INC B
57DB: 04            INC B
57DC: 03            INC BC
57DD: 02            LD (BC),A
57DE: 02            LD (BC),A
57DF: 02            LD (BC),A
57E0: 01 02 00      LD BC,0002h
57E3: 02            LD (BC),A
57E4: 6A            LD L,D
57E5: 88            ADC A,B
57E6: 19            ADD HL,DE
57E7: 26 26         LD H,26h
57E9: A6            AND (HL)
57EA: 88            ADC A,B
57EB: 16 2B         LD D,2Bh
57ED: 0C            INC C
57EE: 6C            LD L,H
57EF: 88            ADC A,B
57F0: 18 A6         JR loc_5798
57F2: 88            ADC A,B

loc_57F3:
57F3: 18 81         JR loc_5776
57F5: 02            LD (BC),A
57F6: 25            DEC H
57F7: 18 24         JR loc_581D
57F9: 05            DEC B
57FA: 6A            LD L,D
57FB: 88            ADC A,B
57FC: 18 2A         JR loc_5828
57FE: 11 6F 84      LD DE,846Fh
5801: A6            AND (HL)
5802: 88            ADC A,B
5803: 16 2A         LD D,2Ah
5805: 04            INC B
5806: 7F            LD A,A
5807: 0E F4         LD C,F4h
5809: 39            ADD HL,SP
580A: 86            ADD A,(HL)
580B: 01 B7 0E      LD BC,0EB7h
580E: F4 39 10      CALL P,sub_1039

loc_5811:
5811: 8E            ADC A,(HL)
5812: 58            LD E,B
5813: 23            INC HL
5814: A6            AND (HL)
5815: 88            ADC A,B
5816: 18 48         JR loc_5860
5818: E6 A6         AND A6h
581A: E7            RST 20h
581B: 02            LD (BC),A
581C: 4C            LD C,H

loc_581D:
581D: E6 A6         AND A6h

loc_581F:
581F: E7            RST 20h
5820: 88            ADC A,B
5821: 19            ADD HL,DE
5822: 39            ADD HL,SP
5823: 00            NOP
5824: 04            INC B
5825: 01 04 B6      LD BC,B604h

loc_5828:
5828: 0E F2         LD C,F2h
582A: 1F            RRA
582B: 89            ADC A,C
582C: 84            ADD A,H

loc_582D:
582D: 20 26         JR NZ,loc_5855
582F: 34            INC (HL)
5830: C5            PUSH BC
5831: 18 27         JR loc_585A
5833: 2F            CPL
5834: BD            CP L
5835: 58            LD E,B
5836: B3            OR E
5837: 25            DEC H
5838: 2A B6 0E      LD HL,(0EB6h)
583B: F2 85 10      JP P,loc_1085
583E: 27            DAA
583F: 0A            LD A,(BC)
5840: A6            AND (HL)
5841: 88            ADC A,B
5842: 16 84         LD D,84h
5844: 7F            LD A,A
5845: A7            AND A
5846: 88            ADC A,B
5847: 16 20         LD D,20h
5849: 08            EX AF,AF'
584A: A6            AND (HL)
584B: 88            ADC A,B
584C: 16 8A         LD D,8Ah
584E: 80            ADD A,B
584F: A7            AND A
5850: 88            ADC A,B
5851: 16 B6         LD D,B6h
5853: 0E F2         LD C,F2h

loc_5855:
5855: 84            ADD A,H

loc_5856:
5856: C7            RST 00h
5857: 8A            ADC A,D
5858: 20 B7         JR NZ,loc_5811

loc_585A:
585A: 0E F2         LD C,F2h
585C: 86            ADD A,(HL)
585D: 22 BD 64      LD (64BDh),HL

loc_5860:
5860: 4D            LD C,L
5861: 20 01         JR NZ,loc_5864
5863: 39            ADD HL,SP

loc_5864:
5864: 6A            LD L,D
5865: 88            ADC A,B
5866: 19            ADD HL,DE
5867: 26 FA         LD H,FAh
5869: A6            AND (HL)
586A: 88            ADC A,B
586B: 16 2B         LD D,2Bh

loc_586D:
586D: 1D            DEC E

loc_586E:
586E: A6            AND (HL)
586F: 88            ADC A,B
5870: 18 81         JR loc_57F3
5872: 04            INC B
5873: 27            DAA
5874: 28 6C         JR Z,loc_58E2
5876: 88            ADC A,B
5877: 18 A6         JR loc_581F
5879: 88            ADC A,B
587A: 18 81         JR loc_57FD
587C: 04            INC B
587D: 25            DEC H

sub_587E:
587E: 1E B6         LD E,B6h
5880: 0E F2         LD C,F2h
5882: 84            ADD A,H
5883: 07            RLCA
5884: 8A            ADC A,D

loc_5885:
5885: 80            ADD A,B
5886: B7            OR A

loc_5887:
5887: 0E F2         LD C,F2h
5889: 20 12         JR NZ,loc_589D

loc_588B:
588B: A6            AND (HL)
588C: 88            ADC A,B
588D: 18 27         JR loc_58B6
588F: 0D            DEC C
5890: 6A            LD L,D
5891: 88            ADC A,B
5892: 18 26         JR loc_58BA
5894: 08            EX AF,AF'
5895: B6            OR (HL)
5896: 0E F2         LD C,F2h
5898: 84            ADD A,H
5899: 07            RLCA
589A: B7            OR A
589B: 0E F2         LD C,F2h

loc_589D:
589D: 10 8E         DJNZ loc_582D
589F: 58            LD E,B
58A0: AE            XOR (HL)
58A1: A6            AND (HL)
58A2: 88            ADC A,B
58A3: 18 E6         JR loc_588B
58A5: A6            AND (HL)
58A6: E7            RST 20h
58A7: 02            LD (BC),A
58A8: C6 04         ADD A,04h
58AA: E7            RST 20h
58AB: 88            ADC A,B
58AC: 19            ADD HL,DE
58AD: 39            ADD HL,SP
58AE: 00            NOP
58AF: 01 02 03      LD BC,0302h

loc_58B2:
58B2: 7F            LD A,A
58B3: 34            INC (HL)
58B4: 06 32         LD B,32h

loc_58B6:
58B6: 7C            LD A,H
58B7: 96            SUB (HL)
58B8: 36 D6         LD (HL),D6h

loc_58BA:
58BA: 38 10         JR C,loc_58CC
58BC: 83            ADD A,E
58BD: 02            LD (BC),A
58BE: 01 26 04      LD BC,0426h
58C1: 1C            INC E
58C2: FE 20         CP 20h
58C4: 38 EC         JR C,loc_58B2
58C6: 04            INC B
58C7: ED E4         DB EDh,E4h
58C9: EC 06 E3      CALL PE,E306h

loc_58CC:
58CC: 08            EX AF,AF'
58CD: ED 62         SBC HL,HL
58CF: EC E4 C3      CALL PE,C3E4h
58D2: 00            NOP
58D3: 10 81         DJNZ loc_5856
58D5: FF            RST 38h
58D6: 27            DAA
58D7: 25            DEC H
58D8: 10 93         DJNZ loc_586D
58DA: 3C            INC A
58DB: 25            DEC H
58DC: 20 DC         JR NZ,loc_58BA
58DE: 3C            INC A
58DF: C3 01 10      JP loc_1001

loc_58E2:
58E2: 10 A3         DJNZ loc_5887
58E4: E4 25 16      CALL PO,sub_1625
58E7: EC 62 C3      CALL PE,C362h
58EA: 00            NOP
58EB: 10 81         DJNZ loc_586E
58ED: FF            RST 38h
58EE: 27            DAA
58EF: 0D            DEC C
58F0: 10 93         DJNZ loc_5885
58F2: 3F            CCF

loc_58F3:
58F3: 25            DEC H
58F4: 08            EX AF,AF'
58F5: DC 3F C3      CALL C,C33Fh
58F8: 01 10 10      LD BC,1010h
58FB: A3            AND E
58FC: 62            LD H,D
58FD: 32 64 35      LD (3564h),A
5900: 86            ADD A,(HL)
5901: A6            AND (HL)
5902: 88            ADC A,B
5903: 1B            DEC DE
5904: 2B            DEC HL
5905: 0B            DEC BC
5906: 96            SUB (HL)
5907: 51            LD D,C
5908: 84            ADD A,H
5909: 7E            LD A,(HL)
590A: 26 23         LD H,23h
590C: 86            ADD A,(HL)
590D: 80            ADD A,B
590E: A7            AND A
590F: 88            ADC A,B
5910: 1B            DEC DE
5911: 6A            LD L,D
5912: 88            ADC A,B
5913: 19            ADD HL,DE
5914: 26 19         LD H,19h
5916: 6C            LD L,H
5917: 88            ADC A,B
5918: 18 A6         JR loc_58C0
591A: 88            ADC A,B
591B: 18 81         JR loc_589E
591D: 05            DEC B
591E: 24            INC H
591F: 10 48         DJNZ loc_5969
5921: 10 8E         DJNZ loc_58B1
5923: 59            LD E,C
5924: 3C            INC A
5925: E6 A6         AND A6h
5927: E7            RST 20h
5928: 02            LD (BC),A
5929: 4C            LD C,H
592A: E6 A6         AND A6h
592C: E7            RST 20h
592D: 88            ADC A,B
592E: 19            ADD HL,DE
592F: 39            ADD HL,SP
5930: 6F            LD L,A
5931: 88            ADC A,B
5932: 1B            DEC DE
5933: 86            ADD A,(HL)
5934: 01 A7 88      LD BC,88A7h
5937: 19            ADD HL,DE
5938: 6F            LD L,A
5939: 88            ADC A,B
593A: 18 39         JR loc_5975
593C: 00            NOP
593D: 00            NOP
593E: 02            LD (BC),A
593F: 03            INC BC
5940: 01 03 02      LD BC,0203h
5943: 03            INC BC
5944: 00            NOP
5945: 01 34 60      LD BC,6034h
5948: A6            AND (HL)
5949: 88            ADC A,B

loc_594A:
594A: 1E BB         LD E,BBh
594C: 0F            RRCA
594D: 09            ADD HL,BC
594E: 84            ADD A,H
594F: 0F            RRCA
5950: 48            LD C,B
5951: 10 8E         DJNZ loc_58E1
5953: 59            LD E,C
5954: 57            LD D,A

loc_5955:
5955: 6E            LD L,(HL)
5956: B6            OR (HL)
5957: 59            LD E,C
5958: 7D            LD A,L
5959: 59            LD E,C
595A: F0            RET P
595B: 59            LD E,C
595C: F0            RET P
595D: 59            LD E,C
595E: 92            SUB D
595F: 59            LD E,C
5960: F2 59 F2      JP P,F259h
5963: 10 8E         DJNZ loc_58F3
5965: 03            INC BC
5966: A2            AND D
5967: 33            INC SP
5968: A8            XOR B

loc_5969:
5969: 5F            LD E,A
596A: 96            SUB (HL)
596B: 29            ADD HL,HL
596C: 85            ADD A,L
596D: 02            LD (BC),A
596E: 27            DAA
596F: 0C            INC C
5970: 85            ADD A,L
5971: 01 27 06      LD BC,0627h
5974: EC 44 A3      CALL PE,A344h
5977: 24            INC H
5978: 2B            DEC HL
5979: 02            LD (BC),A
597A: 1E 23         LD E,23h
597C: 39            ADD HL,SP
597D: A6            AND (HL)
597E: 88            ADC A,B
597F: 1B            DEC DE
5980: 2B            DEC HL
5981: 4A            LD C,D
5982: BD            CP L
5983: 59            LD E,C
5984: 63            LD H,E
5985: 1F            RRA
5986: 13            INC DE
5987: EC 44 A3      CALL PE,A344h
598A: 24            INC H
598B: 83            ADD A,E
598C: 00            NOP
598D: 10 2A         DJNZ loc_59B9
598F: 60            LD H,B
5990: 20 13         JR NZ,loc_59A5
5992: A6            AND (HL)
5993: 88            ADC A,B
5994: 1B            DEC DE
5995: 2B            DEC HL
5996: 35            DEC (HL)
5997: BD            CP L

loc_5998:
5998: 59            LD E,C
5999: 63            LD H,E
599A: 1F            RRA
599B: 13            INC DE
599C: EC 24 A3      CALL PE,A324h
599F: 44            LD B,H
59A0: 83            ADD A,E
59A1: 00            NOP
59A2: 40            LD B,B
59A3: 2B            DEC HL
59A4: 4B            LD C,E

loc_59A5:
59A5: 10 AE         DJNZ loc_5955
59A7: 98            SBC A,B
59A8: 19            ADD HL,DE
59A9: A6            AND (HL)
59AA: A4            AND H
59AB: 8A            ADC A,D
59AC: 40            LD B,B
59AD: A7            AND A
59AE: A4            AND H
59AF: 86            ADD A,(HL)
59B0: 25            DEC H
59B1: BD            CP L
59B2: 64            LD H,H
59B3: 4D            LD C,L
59B4: 86            ADD A,(HL)
59B5: 80            ADD A,B
59B6: A7            AND A
59B7: 88            ADC A,B
59B8: 1B            DEC DE

loc_59B9:
59B9: 6C            LD L,H
59BA: 02            LD (BC),A
59BB: 86            ADD A,(HL)
59BC: 04            INC B
59BD: A7            AND A
59BE: 88            ADC A,B
59BF: 19            ADD HL,DE
59C0: 6F            LD L,A
59C1: 88            ADC A,B
59C2: 18 86         JR loc_594A
59C4: D9            EXX

loc_59C5:
59C5: A7            AND A
59C6: 07            RLCA
59C7: CC 01 07      CALL Z,sub_0701
59CA: ED 08         DB EDh,08h
59CC: 6A            LD L,D
59CD: 88            ADC A,B
59CE: 19            ADD HL,DE
59CF: 26 1F         LD H,1Fh

loc_59D1:
59D1: 86            ADD A,(HL)
59D2: 04            INC B
59D3: A7            AND A
59D4: 88            ADC A,B
59D5: 19            ADD HL,DE
59D6: 6C            LD L,H
59D7: 02            LD (BC),A
59D8: A6            AND (HL)
59D9: 02            LD (BC),A
59DA: 81            ADD A,C
59DB: 04            INC B
59DC: 25            DEC H
59DD: 12            LD (DE),A
59DE: CC 00 E0      CALL Z,E000h
59E1: ED 06         DB EDh,06h
59E3: CC 01 00      CALL Z,sub_0001
59E6: ED 08         DB EDh,08h
59E8: B6            OR (HL)
59E9: 0F            RRCA
59EA: 09            ADD HL,BC

loc_59EB:
59EB: 8B            ADC A,E
59EC: 02            LD (BC),A
59ED: B7            OR A
59EE: 0F            RRCA
59EF: 09            ADD HL,BC
59F0: 35            DEC (HL)
59F1: E0            RET PO
59F2: DC 3C 10      CALL C,sub_103C
59F5: 83            ADD A,E
59F6: 0B            DEC BC
59F7: 00            NOP
59F8: 25            DEC H
59F9: F6 6F         OR 6Fh
59FB: 84            ADD A,H
59FC: 34            INC (HL)
59FD: 60            LD H,B
59FE: BC            CP H
59FF: 0F            RRCA
5A00: 0A            LD A,(BC)
5A01: 27            DAA
5A02: 21 FE 0F      LD HL,0FFEh
5A05: 0A            LD A,(BC)

loc_5A06:
5A06: A6            AND (HL)
5A07: 88            ADC A,B
5A08: 1B            DEC DE
5A09: 2B            DEC HL
5A0A: 4C            LD C,H
5A0B: DC 3C 10      CALL C,sub_103C
5A0E: 83            ADD A,E
5A0F: 0C            INC C
5A10: E0            RET PO
5A11: 24            INC H
5A12: 0D            DEC C
5A13: 10 83         DJNZ loc_5998
5A15: 0C            INC C
5A16: 80            ADD A,B
5A17: 24            INC H
5A18: 0B            DEC BC
5A19: 6A            LD L,D
5A1A: 88            ADC A,B
5A1B: 1A            LD A,(DE)
5A1C: 27            DAA
5A1D: 08            EX AF,AF'
5A1E: 35            DEC (HL)
5A1F: E0            RET PO
5A20: 6F            LD L,A
5A21: 84            ADD A,H
5A22: 6F            LD L,A
5A23: C4 35 E0      CALL NZ,E035h
5A26: 86            ADD A,(HL)
5A27: 80            ADD A,B
5A28: A7            AND A
5A29: 88            ADC A,B
5A2A: 1B            DEC DE
5A2B: 34            INC (HL)
5A2C: 10 BD         DJNZ loc_59EB
5A2E: 50            LD D,B
5A2F: 61            LD H,C
5A30: 24            INC H
5A31: 16 BF         LD D,BFh
5A33: 0F            RRCA
5A34: 0C            INC C
5A35: 10 8E         DJNZ loc_59C5
5A37: 5A            LD E,D
5A38: D4 BD 54      CALL NC,loc_54BD
5A3B: CD 86 06      CALL sub_0686
5A3E: A7            AND A
5A3F: 02            LD (BC),A
5A40: 86            ADD A,(HL)
5A41: 03            INC BC
5A42: A7            AND A
5A43: 88            ADC A,B
5A44: 19            ADD HL,DE
5A45: 6F            LD L,A
5A46: 88            ADC A,B
5A47: 18 35         JR sub_5A7E
5A49: 10 86         DJNZ loc_59D1
5A4B: 1E BD         LD E,BDh
5A4D: 64            LD H,H
5A4E: 4D            LD C,L
5A4F: 86            ADD A,(HL)
5A50: 01 A7 88      LD BC,88A7h
5A53: 19            ADD HL,DE
5A54: 6F            LD L,A
5A55: 88            ADC A,B
5A56: 18 6A         JR loc_5AC2
5A58: 88            ADC A,B
5A59: 19            ADD HL,DE
5A5A: 26 3B         LD H,3Bh
5A5C: 6C            LD L,H
5A5D: 88            ADC A,B
5A5E: 18 A6         JR loc_5A06
5A60: 88            ADC A,B
5A61: 18 81         JR loc_59E4
5A63: 0A            LD A,(BC)
5A64: 24            INC H
5A65: 33            INC SP
5A66: 81            ADD A,C
5A67: 02            LD (BC),A
5A68: 26 08         LD H,08h
5A6A: F6 0F         OR 0Fh
5A6C: 0F            RRCA
5A6D: CA 01 F7      JP Z,F701h
5A70: 0F            RRCA
5A71: 0F            RRCA
5A72: 81            ADD A,C
5A73: 09            ADD HL,BC
5A74: 26 0E         LD H,0Eh
5A76: 10 BE         DJNZ loc_5A36
5A78: 0F            RRCA
5A79: 0C            INC C
5A7A: 86            ADD A,(HL)
5A7B: 80            ADD A,B
5A7C: A7            AND A
5A7D: A8            XOR B

sub_5A7E:
5A7E: 1B            DEC DE
5A7F: 86            ADD A,(HL)
5A80: 01 A7 A8      LD BC,A8A7h
5A83: 19            ADD HL,DE
5A84: 10 8E         DJNZ loc_5A14
5A86: 5A            LD E,D
5A87: C0            RET NZ
5A88: 48            LD C,B
5A89: E6 A6         AND A6h
5A8B: E7            RST 20h
5A8C: 02            LD (BC),A
5A8D: CA 80 E7      JP Z,E780h
5A90: 42            LD B,D
5A91: 4C            LD C,H
5A92: E6 A6         AND A6h
5A94: E7            RST 20h
5A95: 88            ADC A,B
5A96: 19            ADD HL,DE
5A97: 35            DEC (HL)
5A98: E0            RET PO
5A99: 6F            LD L,A
5A9A: 88            ADC A,B
5A9B: 1B            DEC DE
5A9C: B6            OR (HL)
5A9D: 0F            RRCA
5A9E: 0F            RRCA
5A9F: 84            ADD A,H
5AA0: 80            ADD A,B
5AA1: B7            OR A
5AA2: 0F            RRCA
5AA3: 0F            RRCA
5AA4: BD            CP L
5AA5: 49            LD C,C
5AA6: D4 84 0F      CALL NC,sub_0F84
5AA9: 10 8E         DJNZ loc_5A39
5AAB: 5A            LD E,D
5AAC: DC C6 00      CALL C,sub_00C6

loc_5AAF:
5AAF: A0            AND B
5AB0: A5            AND L
5AB1: 2B            DEC HL
5AB2: 03            INC BC
5AB3: 5C            LD E,H
5AB4: 20 F9         JR NZ,loc_5AAF
5AB6: 1A            LD A,(DE)
5AB7: 01 56 56      LD BC,5656h
5ABA: 56            LD D,(HL)
5ABB: E7            RST 20h
5ABC: 88            ADC A,B
5ABD: 1A            LD A,(DE)
5ABE: 35            DEC (HL)
5ABF: E0            RET PO
5AC0: 00            NOP
5AC1: 00            NOP

loc_5AC2:
5AC2: 00            NOP
5AC3: 18 01         JR loc_5AC6
5AC5: 02            LD (BC),A

loc_5AC6:
5AC6: 02            LD (BC),A
5AC7: 02            LD (BC),A
5AC8: 03            INC BC
5AC9: 03            INC BC
5ACA: 04            INC B
5ACB: 03            INC BC
5ACC: 03            INC BC
5ACD: 03            INC BC
5ACE: 02            LD (BC),A
5ACF: 03            INC BC
5AD0: 01 03 00      LD BC,0003h
5AD3: 01 0C 78      LD BC,780Ch
5AD6: 01 07 00      LD BC,0007h
5AD9: E0            RET PO
5ADA: 25            DEC H
5ADB: 12            LD (DE),A
5ADC: 02            LD (BC),A
5ADD: 04            INC B
5ADE: 06 04         LD B,04h
5AE0: A6            AND (HL)
5AE1: 88            ADC A,B
5AE2: 1B            DEC DE
5AE3: 2B            DEC HL
5AE4: 1B            DEC DE
5AE5: 6A            LD L,D
5AE6: 88            ADC A,B
5AE7: 19            ADD HL,DE
5AE8: 26 0D         LD H,0Dh
5AEA: 6C            LD L,H
5AEB: 02            LD (BC),A
5AEC: A6            AND (HL)
5AED: 02            LD (BC),A
5AEE: 81            ADD A,C
5AEF: 0A            LD A,(BC)
5AF0: 24            INC H
5AF1: 06 86         LD B,86h
5AF3: 03            INC BC
5AF4: A7            AND A
5AF5: 88            ADC A,B
5AF6: 19            ADD HL,DE
5AF7: 39            ADD HL,SP
5AF8: 6A            LD L,D
5AF9: 02            LD (BC),A
5AFA: 86            ADD A,(HL)
5AFB: FF            RST 38h
5AFC: A7            AND A
5AFD: 88            ADC A,B
5AFE: 19            ADD HL,DE
5AFF: 39            ADD HL,SP
5B00: 6A            LD L,D
5B01: 88            ADC A,B
5B02: 19            ADD HL,DE
5B03: 26 F2         LD H,F2h
5B05: 6A            LD L,D
5B06: 02            LD (BC),A
5B07: A6            AND (HL)
5B08: 02            LD (BC),A
5B09: 81            ADD A,C
5B0A: 06 25         LD B,25h
5B0C: 06 86         LD B,86h
5B0E: 03            INC BC
5B0F: A7            AND A
5B10: 88            ADC A,B
5B11: 19            ADD HL,DE
5B12: 39            ADD HL,SP
5B13: 6F            LD L,A
5B14: 84            ADD A,H
5B15: 6C            LD L,H
5B16: 02            LD (BC),A
5B17: 39            ADD HL,SP
5B18: 6A            LD L,D
5B19: 88            ADC A,B
5B1A: 1A            LD A,(DE)
5B1B: 2B            DEC HL
5B1C: 0B            DEC BC
5B1D: 26 1E         LD H,1Eh
5B1F: 86            ADD A,(HL)
5B20: 09            ADD HL,BC
5B21: A7            AND A
5B22: 02            LD (BC),A
5B23: 86            ADD A,(HL)
5B24: 01 A7 88      LD BC,88A7h
5B27: 19            ADD HL,DE
5B28: 6A            LD L,D
5B29: 88            ADC A,B
5B2A: 19            ADD HL,DE
5B2B: 26 0D         LD H,0Dh
5B2D: 6C            LD L,H
5B2E: 02            LD (BC),A
5B2F: A6            AND (HL)
5B30: 02            LD (BC),A
5B31: 81            ADD A,C
5B32: 0E 24         LD C,24h
5B34: 09            ADD HL,BC
5B35: 86            ADD A,(HL)
5B36: 03            INC BC
5B37: A7            AND A
5B38: 88            ADC A,B
5B39: 19            ADD HL,DE

loc_5B3A:
5B3A: 6F            LD L,A
5B3B: 88            ADC A,B
5B3C: 1A            LD A,(DE)
5B3D: 39            ADD HL,SP
5B3E: 86            ADD A,(HL)
5B3F: 40            LD B,B
5B40: A7            AND A
5B41: 88            ADC A,B
5B42: 1A            LD A,(DE)
5B43: 86            ADD A,(HL)
5B44: 7F            LD A,A
5B45: A7            AND A
5B46: 02            LD (BC),A
5B47: 39            ADD HL,SP
5B48: 6A            LD L,D
5B49: 88            ADC A,B
5B4A: 19            ADD HL,DE
5B4B: 26 0D         LD H,0Dh
5B4D: 6C            LD L,H
5B4E: 02            LD (BC),A
5B4F: A6            AND (HL)
5B50: 02            LD (BC),A
5B51: 81            ADD A,C
5B52: 04            INC B
5B53: 24            INC H
5B54: 0E 86         LD C,86h
5B56: 07            RLCA
5B57: A7            AND A
5B58: 88            ADC A,B
5B59: 19            ADD HL,DE
5B5A: 6A            LD L,D
5B5B: 05            DEC B
5B5C: 6A            LD L,D
5B5D: 05            DEC B
5B5E: 6A            LD L,D
5B5F: 07            RLCA
5B60: 6A            LD L,D
5B61: 07            RLCA
5B62: 39            ADD HL,SP

loc_5B63:
5B63: 6F            LD L,A
5B64: 84            ADD A,H
5B65: 6A            LD L,D
5B66: 02            LD (BC),A
5B67: 39            ADD HL,SP
5B68: B6            OR (HL)
5B69: 0B            DEC BC
5B6A: AE            XOR (HL)
5B6B: 84            ADD A,H

loc_5B6C:
5B6C: 08            EX AF,AF'
5B6D: 27            DAA
5B6E: 02            LD (BC),A
5B6F: 6F            LD L,A
5B70: 84            ADD A,H
5B71: 39            ADD HL,SP
5B72: B6            OR (HL)
5B73: 0F            RRCA
5B74: 40            LD B,B
5B75: 84            ADD A,H
5B76: 81            ADD A,C
5B77: 81            ADD A,C
5B78: 81            ADD A,C
5B79: 26 02         LD H,02h
5B7B: 6F            LD L,A
5B7C: 84            ADD A,H
5B7D: 39            ADD HL,SP

loc_5B7E:
5B7E: A6            AND (HL)
5B7F: 88            ADC A,B
5B80: 1B            DEC DE
5B81: 27            DAA
5B82: 6B            LD L,E
5B83: 2B            DEC HL
5B84: 3F            CCF

loc_5B85:
5B85: 8A            ADC A,D
5B86: 80            ADD A,B
5B87: A7            AND A
5B88: 88            ADC A,B
5B89: 1B            DEC DE
5B8A: 10 AE         DJNZ loc_5B3A
5B8C: 88            ADC A,B
5B8D: 21 A6 0D      LD HL,0DA6h
5B90: 2B            DEC HL
5B91: 09            ADD HL,BC
5B92: EC 24 C3      CALL PE,C324h
5B95: 00            NOP
5B96: 10 ED         DJNZ loc_5B85
5B98: 04            INC B

loc_5B99:
5B99: 20 07         JR NZ,loc_5BA2
5B9B: EC 24 83      CALL PE,8324h
5B9E: 00            NOP
5B9F: 10 ED         DJNZ loc_5B8E
5BA1: 04            INC B

loc_5BA2:
5BA2: EC 26 ED      CALL PE,ED26h
5BA5: 06 EC         LD B,ECh
5BA7: 28 C3         JR Z,loc_5B6C
5BA9: 00            NOP
5BAA: 20 ED         JR NZ,loc_5B99
5BAC: 08            EX AF,AF'
5BAD: A6            AND (HL)
5BAE: 84            ADD A,H
5BAF: 8A            ADC A,D
5BB0: 01 A7 84      LD BC,84A7h
5BB3: A6            AND (HL)
5BB4: 0D            DEC C
5BB5: 84            ADD A,H
5BB6: 80            ADD A,B
5BB7: A7            AND A
5BB8: 03            INC BC
5BB9: 86            ADD A,(HL)
5BBA: 10 A7         DJNZ loc_5B63
5BBC: 0E 6F         LD C,6Fh
5BBE: 02            LD (BC),A
5BBF: 86            ADD A,(HL)
5BC0: 03            INC BC
5BC1: A7            AND A
5BC2: 88            ADC A,B
5BC3: 19            ADD HL,DE
5BC4: 6A            LD L,D
5BC5: 88            ADC A,B
5BC6: 19            ADD HL,DE
5BC7: 26 0D         LD H,0Dh
5BC9: A6            AND (HL)
5BCA: 02            LD (BC),A
5BCB: 88            ADC A,B
5BCC: 01 84 01      LD BC,0184h
5BCF: A7            AND A
5BD0: 02            LD (BC),A
5BD1: 86            ADD A,(HL)
5BD2: 04            INC B
5BD3: A7            AND A
5BD4: 88            ADC A,B
5BD5: 19            ADD HL,DE
5BD6: BD            CP L
5BD7: F9            LD SP,HL
5BD8: 80            ADD A,B
5BD9: B6            OR (HL)
5BDA: 0C            INC C
5BDB: 27            DAA
5BDC: 84            ADD A,H
5BDD: 0F            RRCA
5BDE: 27            DAA
5BDF: 0E 86         LD C,86h
5BE1: 05            DEC B
5BE2: A7            AND A
5BE3: 88            ADC A,B
5BE4: 17            RLA
5BE5: 86            ADD A,(HL)
5BE6: 11 A7 01      LD DE,01A7h
5BE9: 86            ADD A,(HL)
5BEA: 04            INC B
5BEB: A7            AND A
5BEC: 88            ADC A,B
5BED: 1B            DEC DE
5BEE: 39            ADD HL,SP
5BEF: A6            AND (HL)

loc_5BF0:
5BF0: 88            ADC A,B
5BF1: 1B            DEC DE
5BF2: 84            ADD A,H
5BF3: 7F            LD A,A
5BF4: 48            LD C,B
5BF5: 10 8E         DJNZ loc_5B85
5BF7: 5B            LD E,E
5BF8: FB            EI
5BF9: 6E            LD L,(HL)
5BFA: B6            OR (HL)
5BFB: 5C            LD E,H
5BFC: 03            INC BC
5BFD: 5C            LD E,H
5BFE: 40            LD B,B
5BFF: 5C            LD E,H

loc_5C00:
5C00: A6            AND (HL)
5C01: 5C            LD E,H
5C02: 04            INC B
5C03: 39            ADD HL,SP
5C04: A6            AND (HL)
5C05: 88            ADC A,B
5C06: 1B            DEC DE
5C07: 2B            DEC HL
5C08: 12            LD (DE),A
5C09: 8A            ADC A,D
5C0A: 80            ADD A,B
5C0B: A7            AND A
5C0C: 88            ADC A,B
5C0D: 1B            DEC DE
5C0E: A6            AND (HL)
5C0F: 0D            DEC C
5C10: 84            ADD A,H
5C11: 80            ADD A,B
5C12: 8A            ADC A,D
5C13: 07            RLCA
5C14: A7            AND A
5C15: 02            LD (BC),A
5C16: 86            ADD A,(HL)
5C17: 03            INC BC
5C18: A7            AND A
5C19: 88            ADC A,B
5C1A: 19            ADD HL,DE
5C1B: 6A            LD L,D
5C1C: 88            ADC A,B
5C1D: 19            ADD HL,DE
5C1E: 26 0F         LD H,0Fh
5C20: 6C            LD L,H
5C21: 02            LD (BC),A
5C22: A6            AND (HL)
5C23: 02            LD (BC),A
5C24: 84            ADD A,H
5C25: 0F            RRCA
5C26: 81            ADD A,C
5C27: 09            ADD HL,BC
5C28: 24            INC H
5C29: 06 86         LD B,86h
5C2B: 02            LD (BC),A
5C2C: A7            AND A
5C2D: 88            ADC A,B
5C2E: 19            ADD HL,DE
5C2F: 39            ADD HL,SP
5C30: 6A            LD L,D
5C31: 02            LD (BC),A
5C32: EC 88 1D      CALL PE,sub_1D88
5C35: 27            DAA
5C36: 06 86         LD B,86h
5C38: 01 A7 88      LD BC,88A7h
5C3B: 1B            DEC DE
5C3C: 39            ADD HL,SP
5C3D: 6F            LD L,A
5C3E: 84            ADD A,H
5C3F: 39            ADD HL,SP
5C40: 10 AE         DJNZ loc_5BF0
5C42: 88            ADC A,B
5C43: 1D            DEC E
5C44: A6            AND (HL)
5C45: 88            ADC A,B
5C46: 1B            DEC DE
5C47: 2B            DEC HL
5C48: 35            DEC (HL)
5C49: 8A            ADC A,D
5C4A: 80            ADD A,B
5C4B: A7            AND A
5C4C: 88            ADC A,B
5C4D: 1B            DEC DE
5C4E: A6            AND (HL)
5C4F: 23            INC HL
5C50: 2B            DEC HL
5C51: 07            RLCA
5C52: EC 24 C3      CALL PE,C324h
5C55: 00            NOP
5C56: 08            EX AF,AF'
5C57: 20 05         JR NZ,loc_5C5E
5C59: EC 24 83      CALL PE,8324h
5C5C: 00            NOP
5C5D: 08            EX AF,AF'

loc_5C5E:
5C5E: ED 04         DB EDh,04h
5C60: EC 26 83      CALL PE,8326h
5C63: 00            NOP
5C64: 01 ED 06      LD BC,06EDh
5C67: EC 28 C3      CALL PE,C328h
5C6A: 00            NOP
5C6B: 19            ADD HL,DE
5C6C: ED 08         DB EDh,08h
5C6E: A6            AND (HL)
5C6F: 23            INC HL
5C70: 8A            ADC A,D
5C71: 05            DEC B
5C72: A7            AND A
5C73: 02            LD (BC),A
5C74: 86            ADD A,(HL)
5C75: 04            INC B
5C76: A7            AND A
5C77: 88            ADC A,B
5C78: 18 86         JR loc_5C00
5C7A: 03            INC BC
5C7B: A7            AND A
5C7C: 88            ADC A,B
5C7D: 19            ADD HL,DE
5C7E: 86            ADD A,(HL)
5C7F: 03            INC BC
5C80: A7            AND A
5C81: A8            XOR B
5C82: 1B            DEC DE
5C83: 6A            LD L,D
5C84: 88            ADC A,B
5C85: 19            ADD HL,DE

sub_5C86:
5C86: 26 10         LD H,10h
5C88: 6A            LD L,D
5C89: 88            ADC A,B
5C8A: 18 27         JR loc_5CB3
5C8C: 0C            INC C
5C8D: A6            AND (HL)
5C8E: 02            LD (BC),A
5C8F: 88            ADC A,B
5C90: 03            INC BC
5C91: A7            AND A
5C92: 02            LD (BC),A
5C93: 86            ADD A,(HL)
5C94: 02            LD (BC),A
5C95: A7            AND A
5C96: 88            ADC A,B
5C97: 19            ADD HL,DE
5C98: 39            ADD HL,SP
5C99: 6F            LD L,A
5C9A: 84            ADD A,H
5C9B: 86            ADD A,(HL)

loc_5C9C:
5C9C: 01 A7 A8      LD BC,A8A7h
5C9F: 1B            DEC DE
5CA0: 86            ADD A,(HL)
5CA1: 01 A7 A8      LD BC,A8A7h
5CA4: 22 39 A6      LD (A639h),HL
5CA7: 88            ADC A,B
5CA8: 1B            DEC DE
5CA9: 2B            DEC HL
5CAA: 47            LD B,A
5CAB: 8A            ADC A,D
5CAC: 80            ADD A,B
5CAD: A7            AND A
5CAE: 88            ADC A,B
5CAF: 1B            DEC DE
5CB0: A6            AND (HL)
5CB1: 84            ADD A,H
5CB2: 84            ADD A,H

loc_5CB3:
5CB3: F0            RET P
5CB4: 8A            ADC A,D
5CB5: 01 A7 84      LD BC,84A7h
5CB8: 10 AE         DJNZ loc_5C68
5CBA: 88            ADC A,B
5CBB: 21 A6 0D      LD HL,0DA6h
5CBE: 84            ADD A,H
5CBF: 80            ADD A,B
5CC0: A7            AND A
5CC1: 03            INC BC
5CC2: 2B            DEC HL
5CC3: 07            RLCA
5CC4: EC 24 C3      CALL PE,C324h
5CC7: 00            NOP
5CC8: 1E 20         LD E,20h
5CCA: 05            DEC B
5CCB: EC 24 83      CALL PE,8324h
5CCE: 00            NOP
5CCF: 1E ED         LD E,EDh
5CD1: 04            INC B
5CD2: EC 26 ED      CALL PE,ED26h
5CD5: 06 EC         LD B,ECh
5CD7: 28 C3         JR Z,loc_5C9C
5CD9: 00            NOP
5CDA: 25            DEC H
5CDB: ED 08         DB EDh,08h
5CDD: 86            ADD A,(HL)
5CDE: 40            LD B,B
5CDF: A7            AND A
5CE0: 0E A6         LD C,A6h
5CE2: 03            INC BC
5CE3: 8A            ADC A,D
5CE4: 03            INC BC
5CE5: A7            AND A
5CE6: 02            LD (BC),A

loc_5CE7:
5CE7: 86            ADD A,(HL)
5CE8: 03            INC BC
5CE9: A7            AND A
5CEA: 88            ADC A,B
5CEB: 19            ADD HL,DE
5CEC: 6F            LD L,A
5CED: 88            ADC A,B
5CEE: 1D            DEC E
5CEF: 6F            LD L,A
5CF0: 88            ADC A,B
5CF1: 1E 6A         LD E,6Ah
5CF3: 88            ADC A,B
5CF4: 19            ADD HL,DE
5CF5: 26 0D         LD H,0Dh
5CF7: A6            AND (HL)
5CF8: 02            LD (BC),A
5CF9: 88            ADC A,B
5CFA: 07            RLCA
5CFB: 84            ADD A,H
5CFC: 87            ADD A,A
5CFD: A7            AND A
5CFE: 02            LD (BC),A
5CFF: 86            ADD A,(HL)
5D00: 02            LD (BC),A
5D01: A7            AND A
5D02: 88            ADC A,B
5D03: 19            ADD HL,DE
5D04: BD            CP L
5D05: F9            LD SP,HL
5D06: 80            ADD A,B
5D07: B6            OR (HL)
5D08: 0C            INC C
5D09: 27            DAA
5D0A: 84            ADD A,H
5D0B: 0F            RRCA
5D0C: 26 05         LD H,05h
5D0E: A6            AND (HL)
5D0F: 88            ADC A,B
5D10: 1D            DEC E
5D11: 27            DAA
5D12: 05            DEC B
5D13: 86            ADD A,(HL)
5D14: 03            INC BC
5D15: A7            AND A
5D16: 88            ADC A,B
5D17: 1B            DEC DE
5D18: 39            ADD HL,SP
5D19: 34            INC (HL)
5D1A: 7F            LD A,A
5D1B: 32 71 1F      LD (1F71h),A
5D1E: 43            LD B,E
5D1F: A7            AND A
5D20: 47            LD B,A
5D21: 81            ADD A,C
5D22: 1F            RRA
5D23: 27            DAA
5D24: 70            LD (HL),B

loc_5D25:
5D25: 81            ADD A,C
5D26: 9F            SBC A,A
5D27: 26 08         LD H,08h
5D29: 96            SUB (HL)
5D2A: 26 10         LD H,10h
5D2C: 27            DAA
5D2D: 00            NOP
5D2E: 62            LD H,D
5D2F: A6            AND (HL)
5D30: 67            LD H,A
5D31: 84            ADD A,H
5D32: 3F            CCF
5D33: 48            LD C,B
5D34: 8E            ADC A,(HL)
5D35: 5E            LD E,(HL)
5D36: 35            DEC (HL)
5D37: 10 AE         DJNZ loc_5CE7
5D39: 86            ADD A,(HL)
5D3A: 6F            LD L,A
5D3B: 42            LD B,D
5D3C: 6F            LD L,A
5D3D: 4C            LD C,H
5D3E: 6F            LD L,A
5D3F: 4D            LD C,L
5D40: 5F            LD E,A

loc_5D41:
5D41: A6            AND (HL)
5D42: A0            AND B
5D43: 46            LD B,(HL)
5D44: 46            LD B,(HL)
5D45: 46            LD B,(HL)
5D46: 46            LD B,(HL)
5D47: 84            ADD A,H
5D48: E0            RET PO
5D49: A7            AND A
5D4A: 48            LD C,B
5D4B: 5D            LD E,L

loc_5D4C:
5D4C: 26 02         LD H,02h
5D4E: AE            XOR (HL)
5D4F: A1            AND C

loc_5D50:
5D50: E6 A0         AND A0h
5D52: C1            POP BC
5D53: 00            NOP
5D54: 27            DAA
5D55: 3B            DEC SP
5D56: C1            POP BC
5D57: 01 27 F4      LD BC,F427h
5D5A: C1            POP BC
5D5B: 03            INC BC
5D5C: 26 04         LD H,04h
5D5E: C6 01         ADD A,01h
5D60: 20 DF         JR NZ,loc_5D41
5D62: C1            POP BC
5D63: 02            LD (BC),A
5D64: 26 08         LD H,08h
5D66: 1F            RRA
5D67: 10 E3         DJNZ loc_5D4C
5D69: A1            AND C
5D6A: 1F            RRA
5D6B: 01 20 E2      LD BC,E220h
5D6E: C1            POP BC
5D6F: 05            DEC B
5D70: 26 04         LD H,04h
5D72: 6F            LD L,A
5D73: 42            LD B,D
5D74: 20 DA         JR NZ,loc_5D50
5D76: C1            POP BC
5D77: 04            INC B
5D78: 26 08         LD H,08h
5D7A: 63            LD H,E
5D7B: 42            LD B,D
5D7C: E6 A0         AND A0h
5D7E: E7            RST 20h
5D7F: 45            LD B,L
5D80: 20 CE         JR NZ,loc_5D50
5D82: C1            POP BC
5D83: 06 26         LD B,26h
5D85: 06 EC         LD B,ECh
5D87: A1            AND C
5D88: ED 4C         NEG
5D8A: 20 C4         JR NZ,loc_5D50
5D8C: BD            CP L
5D8D: 5D            LD E,L
5D8E: D6 20         SUB 20h
5D90: BF            CP A
5D91: 32 6F 35      LD (356Fh),A
5D94: FF            RST 38h
5D95: 10 8E         DJNZ loc_5D25

loc_5D97:
5D97: 5D            LD E,L
5D98: BE            CP (HL)
5D99: 86            ADD A,(HL)
5D9A: 04            INC B
5D9B: A7            AND A
5D9C: C4 86 04      CALL NZ,sub_0486
5D9F: A7            AND A

loc_5DA0:
5DA0: 41            LD B,C
5DA1: 6F            LD L,A
5DA2: 42            LD B,D
5DA3: 4F            LD C,A

loc_5DA4:
5DA4: AE            XOR (HL)
5DA5: A1            AND C
5DA6: E6 A0         AND A0h
5DA8: ED 81         DB EDh,81h
5DAA: 6A            LD L,D
5DAB: C4 26 F8      CALL NZ,F826h
5DAE: 6A            LD L,D
5DAF: 41            LD B,C
5DB0: 27            DAA
5DB1: DF            RST 18h

loc_5DB2:
5DB2: 86            ADD A,(HL)
5DB3: 04            INC B
5DB4: A7            AND A
5DB5: C4 A6 42      CALL NZ,sub_42A6
5DB8: 88            ADC A,B
5DB9: 03            INC BC
5DBA: A7            AND A
5DBB: 42            LD B,D
5DBC: 20 E6         JR NZ,loc_5DA4
5DBE: 1B            DEC DE
5DBF: D8            RET C
5DC0: 36 37         LD (HL),37h
5DC2: 38 39         JR C,loc_5DFD
5DC4: 1B            DEC DE
5DC5: E2 F8 F9      JP PO,F9F8h
5DC8: FA FB 1C      JP M,loc_1CFB
5DCB: 18 3F         JR loc_5E0C
5DCD: 40            LD B,B
5DCE: 41            LD B,C
5DCF: 42            LD B,D
5DD0: 1C            INC E
5DD1: 22 FC FD      LD (FDFCh),HL
5DD4: FE FF         CP FFh
5DD6: A6            AND (HL)
5DD7: 47            LD B,A
5DD8: 2A 02 C6      LD HL,(C602h)
5DDB: 20 C0         JR NZ,loc_5D9D
5DDD: 20 C1         JR NZ,loc_5DA0
5DDF: 1A            LD A,(DE)
5DE0: 25            DEC H
5DE1: 02            LD (BC),A
5DE2: C0            RET NZ
5DE3: 06 4F         LD B,4Fh
5DE5: E3            EX (SP),HL
5DE6: 4C            LD C,H
5DE7: AA            XOR D
5DE8: 48            LD C,B
5DE9: ED 81         DB EDh,81h
5DEB: 6D            LD L,L
5DEC: 42            LD B,D
5DED: 2A 05 A6      LD HL,(A605h)
5DF0: 45            LD B,L
5DF1: BD            CP L
5DF2: FE 23         CP 23h
5DF4: 39            ADD HL,SP
5DF5: 86            ADD A,(HL)
5DF6: 00            NOP
5DF7: 17            RLA
5DF8: FF            RST 38h
5DF9: 1F            RRA
5DFA: 17            RLA
5DFB: 00            NOP
5DFC: 01 39 32      LD BC,3239h
5DFF: 7F            LD A,A
5E00: C6 20         ADD A,20h

loc_5E02:
5E02: E7            RST 20h
5E03: E4 8E 18      CALL PO,sub_188E
5E06: 42            LD B,D
5E07: 10 8E         DJNZ loc_5D97
5E09: 1F            RRA
5E0A: 82            ADD A,D
5E0B: CC E4 17      CALL Z,sub_17E4
5E0E: ED 81         DB EDh,81h
5E10: ED A1         CPI
5E12: 6A            LD L,D
5E13: E4 26 F5      CALL PO,F526h
5E16: 8E            ADC A,(HL)

loc_5E17:
5E17: 18 00         JR loc_5E19

loc_5E19:
5E19: 10 8E         DJNZ loc_5DA9
5E1B: 18 3E         JR loc_5E5B
5E1D: C6 20         ADD A,20h
5E1F: E7            RST 20h
5E20: E4 CC E4      CALL PO,E4CCh
5E23: 17            RLA
5E24: ED 84         DB EDh,84h
5E26: ED A4         DB EDh,A4h
5E28: 30 88         JR NC,loc_5DB2
5E2A: 40            LD B,B
5E2B: 31 A8 40      LD SP,40A8h
5E2E: 6A            LD L,D
5E2F: E4 26 EF      CALL PO,EF26h
5E32: 32 61 39      LD (3961h),A
5E35: 5E            LD E,(HL)
5E36: 7B            LD A,E
5E37: 5E            LD E,(HL)
5E38: 8E            ADC A,(HL)
5E39: 5E            LD E,(HL)
5E3A: 98            SBC A,B
5E3B: 5E            LD E,(HL)
5E3C: AD            XOR L
5E3D: 5E            LD E,(HL)
5E3E: BE            CP (HL)
5E3F: 5E            LD E,(HL)
5E40: D4 5E DD      CALL NC,DD5Eh
5E43: 5E            LD E,(HL)
5E44: FC 5F 0B      CALL M,sub_0B5F
5E47: 5F            LD E,A
5E48: 19            ADD HL,DE
5E49: 5F            LD E,A
5E4A: 26 5F         LD H,5Fh
5E4C: 33            INC SP
5E4D: 5F            LD E,A
5E4E: 42            LD B,D
5E4F: 5F            LD E,A
5E50: 51            LD D,C
5E51: 5F            LD E,A
5E52: 5C            LD E,H
5E53: 5F            LD E,A
5E54: 67            LD H,A
5E55: 5F            LD E,A
5E56: 8E            ADC A,(HL)
5E57: 5F            LD E,A
5E58: 9B            SBC A,E
5E59: 5F            LD E,A
5E5A: A8            XOR B

loc_5E5B:
5E5B: 5F            LD E,A
5E5C: B5            OR L
5E5D: 5F            LD E,A
5E5E: C2 5F D1      JP NZ,D15Fh
5E61: 5F            LD E,A
5E62: DB 5F         IN A,(5Fh)
5E64: E5            PUSH HL
5E65: 5F            LD E,A
5E66: EF            RST 28h
5E67: 5F            LD E,A
5E68: FA 60 05      JP M,loc_0560
5E6B: 60            LD H,B
5E6C: 20 60         JR NZ,loc_5ECE
5E6E: 28 60         JR Z,loc_5ED0
5E70: 30 60         JR NC,loc_5ED2
5E72: 30 60         JR NC,loc_5ED4
5E74: 55            LD D,L
5E75: 60            LD H,B
5E76: 6E            LD L,(HL)
5E77: 61            LD H,C
5E78: 3D            DEC A
5E79: 61            LD H,C
5E7A: 4B            LD C,E
5E7B: 00            NOP
5E7C: 18 84         JR loc_5E02
5E7E: 31 50 01      LD SP,0150h
5E81: 18 94         JR loc_5E17
5E83: 30 01         JR NC,loc_5E86
5E85: 18 AA         JR loc_5E31
5E87: 32 50 01      LD (0150h),A
5E8A: 18 BA         JR loc_5E46
5E8C: 30 00         JR NC,loc_5E8E

loc_5E8E:
5E8E: 00            NOP
5E8F: 1F            RRA
5E90: 58            LD E,B
5E91: 43            LD B,E
5E92: 52            LD D,D
5E93: 45            LD B,L
5E94: 44            LD B,H
5E95: 49            LD C,C
5E96: 54            LD D,H
5E97: 00            NOP
5E98: 00            NOP
5E99: 1E D0         LD E,D0h
5E9B: 50            LD D,B
5E9C: 55            LD D,L
5E9D: 53            LD D,E
5E9E: 48            LD C,B
5E9F: 20 53         JR NZ,loc_5EF4
5EA1: 54            LD D,H
5EA2: 41            LD B,C
5EA3: 52            LD D,D
5EA4: 54            LD D,H
5EA5: 20 42         JR NZ,loc_5EE9
5EA7: 55            LD D,L
5EA8: 54            LD D,H
5EA9: 54            LD D,H
5EAA: 4F            LD C,A
5EAB: 4E            LD C,(HL)
5EAC: 00            NOP
5EAD: 00            NOP
5EAE: 1E D0         LD E,D0h
5EB0: 31 20 50      LD SP,5020h
5EB3: 4C            LD C,H
5EB4: 41            LD B,C
5EB5: 59            LD E,C
5EB6: 45            LD B,L
5EB7: 52            LD D,D
5EB8: 20 4F         JR NZ,loc_5F09
5EBA: 4E            LD C,(HL)
5EBB: 4C            LD C,H
5EBC: 59            LD E,C
5EBD: 00            NOP
5EBE: 00            NOP
5EBF: 1E D0         LD E,D0h
5EC1: 4F            LD C,A
5EC2: 4E            LD C,(HL)
5EC3: 45            LD B,L
5EC4: 20 4F         JR NZ,loc_5F15
5EC6: 52            LD D,D
5EC7: 20 54         JR NZ,loc_5F1D
5EC9: 57            LD D,A
5ECA: 4F            LD C,A
5ECB: 20 50         JR NZ,loc_5F1D
5ECD: 4C            LD C,H

loc_5ECE:
5ECE: 41            LD B,C
5ECF: 59            LD E,C

loc_5ED0:
5ED0: 45            LD B,L
5ED1: 52            LD D,D

loc_5ED2:
5ED2: 53            LD D,E
5ED3: 00            NOP

loc_5ED4:
5ED4: 00            NOP
5ED5: 1B            DEC DE
5ED6: 26 53         LD H,53h
5ED8: 54            LD D,H
5ED9: 41            LD B,C
5EDA: 52            LD D,D
5EDB: 54            LD D,H
5EDC: 00            NOP
5EDD: 00            NOP
5EDE: 1F            RRA
5EDF: 46            LD B,(HL)
5EE0: 87            ADD A,A
5EE1: 60            LD H,B
5EE2: 20 31         JR NZ,loc_5F15
5EE4: 39            ADD HL,SP
5EE5: 38 38         JR C,loc_5F1F
5EE7: 20 54         JR NZ,loc_5F3D

loc_5EE9:
5EE9: 45            LD B,L
5EEA: 43            LD B,E
5EEB: 48            LD C,B
5EEC: 4E            LD C,(HL)
5EED: 4F            LD C,A
5EEE: 53            LD D,E
5EEF: 20 4A         JR NZ,loc_5F3B
5EF1: 41            LD B,C
5EF2: 50            LD D,B
5EF3: 41            LD B,C

loc_5EF4:
5EF4: 4E            LD C,(HL)
5EF5: 20 43         JR NZ,loc_5F3A
5EF7: 4F            LD C,A
5EF8: 52            LD D,D
5EF9: 50            LD D,B
5EFA: 2E 00         LD L,00h
5EFC: 00            NOP
5EFD: 1E D6         LD E,D6h
5EFF: 49            LD C,C
5F00: 4E            LD C,(HL)
5F01: 53            LD D,E
5F02: 45            LD B,L
5F03: 52            LD D,D
5F04: 54            LD D,H
5F05: 20 43         JR NZ,loc_5F4A
5F07: 4F            LD C,A
5F08: 49            LD C,C

loc_5F09:
5F09: 4E            LD C,(HL)
5F0A: 00            NOP
5F0B: 00            NOP
5F0C: 1B            DEC DE
5F0D: 1A            LD A,(DE)
5F0E: 47            LD B,A
5F0F: 45            LD B,L
5F10: 54            LD D,H
5F11: 20 52         JR NZ,loc_5F65
5F13: 45            LD B,L
5F14: 41            LD B,C

loc_5F15:
5F15: 44            LD B,H
5F16: 59            LD E,C
5F17: 21 00 00      LD HL,0000h
5F1A: 19            ADD HL,DE
5F1B: 04            INC B
5F1C: 47            LD B,A

loc_5F1D:
5F1D: 41            LD B,C
5F1E: 4D            LD C,L

loc_5F1F:
5F1F: 45            LD B,L
5F20: 20 4F         JR NZ,loc_5F71
5F22: 56            LD D,(HL)
5F23: 45            LD B,L
5F24: 52            LD D,D
5F25: 00            NOP
5F26: 00            NOP
5F27: 19            ADD HL,DE
5F28: 28 47         JR Z,loc_5F71
5F2A: 41            LD B,C
5F2B: 4D            LD C,L
5F2C: 45            LD B,L
5F2D: 20 4F         JR NZ,loc_5F7E
5F2F: 56            LD D,(HL)
5F30: 45            LD B,L
5F31: 52            LD D,D
5F32: 00            NOP
5F33: 00            NOP
5F34: 19            ADD HL,DE
5F35: 04            INC B
5F36: 49            LD C,C
5F37: 4E            LD C,(HL)
5F38: 53            LD D,E
5F39: 45            LD B,L

loc_5F3A:
5F3A: 52            LD D,D

loc_5F3B:
5F3B: 54            LD D,H
5F3C: 20 43         JR NZ,loc_5F81
5F3E: 4F            LD C,A
5F3F: 49            LD C,C
5F40: 4E            LD C,(HL)
5F41: 00            NOP
5F42: 00            NOP
5F43: 19            ADD HL,DE
5F44: 28 49         JR Z,loc_5F8F
5F46: 4E            LD C,(HL)
5F47: 53            LD D,E
5F48: 45            LD B,L
5F49: 52            LD D,D

loc_5F4A:
5F4A: 54            LD D,H
5F4B: 20 43         JR NZ,loc_5F90
5F4D: 4F            LD C,A
5F4E: 49            LD C,C
5F4F: 4E            LD C,(HL)
5F50: 00            NOP
5F51: 00            NOP
5F52: 1B            DEC DE
5F53: 0A            LD A,(BC)
5F54: 50            LD D,B
5F55: 4C            LD C,H
5F56: 41            LD B,C
5F57: 59            LD E,C
5F58: 45            LD B,L
5F59: 52            LD D,D
5F5A: 31 00 00      LD SP,0000h
5F5D: 1B            DEC DE
5F5E: 0A            LD A,(BC)
5F5F: 50            LD D,B
5F60: 4C            LD C,H
5F61: 41            LD B,C
5F62: 59            LD E,C
5F63: 45            LD B,L
5F64: 52            LD D,D

loc_5F65:
5F65: 32 00 00      LD (0000h),A
5F68: 1A            LD A,(DE)
5F69: 4A            LD C,D
5F6A: 4C            LD C,H
5F6B: 45            LD B,L
5F6C: 54            LD D,H
5F6D: 27            DAA
5F6E: 53            LD D,E
5F6F: 20 20         JR NZ,loc_5F91

loc_5F71:
5F71: 46            LD B,(HL)
5F72: 49            LD C,C
5F73: 47            LD B,A
5F74: 48            LD C,B
5F75: 54            LD D,H
5F76: 01 1B 0A      LD BC,0A1Bh
5F79: 31 50 4C      LD SP,4C50h
5F7C: 41            LD B,C
5F7D: 59            LD E,C

loc_5F7E:
5F7E: 45            LD B,L
5F7F: 52            LD D,D
5F80: 20 20         JR NZ,loc_5FA2
5F82: 56            LD D,(HL)
5F83: 53            LD D,E
5F84: 20 20         JR NZ,loc_5FA6
5F86: 32 50 4C      LD (4C50h),A
5F89: 41            LD B,C
5F8A: 59            LD E,C
5F8B: 45            LD B,L
5F8C: 52            LD D,D
5F8D: 00            NOP
5F8E: 00            NOP

loc_5F8F:
5F8F: 1B            DEC DE

loc_5F90:
5F90: 12            LD (DE),A

loc_5F91:
5F91: 4D            LD C,L
5F92: 49            LD C,C
5F93: 53            LD D,E
5F94: 53            LD D,E
5F95: 49            LD C,C
5F96: 4F            LD C,A
5F97: 4E            LD C,(HL)
5F98: 20 31         JR NZ,loc_5FCB
5F9A: 00            NOP
5F9B: 00            NOP
5F9C: 1B            DEC DE
5F9D: 12            LD (DE),A
5F9E: 4D            LD C,L
5F9F: 49            LD C,C
5FA0: 53            LD D,E
5FA1: 53            LD D,E

loc_5FA2:
5FA2: 49            LD C,C
5FA3: 4F            LD C,A
5FA4: 4E            LD C,(HL)
5FA5: 20 32         JR NZ,loc_5FD9
5FA7: 00            NOP
5FA8: 00            NOP
5FA9: 1B            DEC DE
5FAA: 12            LD (DE),A
5FAB: 4D            LD C,L
5FAC: 49            LD C,C
5FAD: 53            LD D,E
5FAE: 53            LD D,E
5FAF: 49            LD C,C
5FB0: 4F            LD C,A
5FB1: 4E            LD C,(HL)
5FB2: 20 33         JR NZ,loc_5FE7
5FB4: 00            NOP
5FB5: 00            NOP
5FB6: 1B            DEC DE
5FB7: 12            LD (DE),A
5FB8: 4D            LD C,L
5FB9: 49            LD C,C
5FBA: 53            LD D,E
5FBB: 53            LD D,E
5FBC: 49            LD C,C
5FBD: 4F            LD C,A
5FBE: 4E            LD C,(HL)
5FBF: 20 34         JR NZ,loc_5FF5
5FC1: 00            NOP
5FC2: 00            NOP
5FC3: 1B            DEC DE
5FC4: 0A            LD A,(BC)
5FC5: 42            LD B,D
5FC6: 4F            LD C,A
5FC7: 4E            LD C,(HL)
5FC8: 55            LD D,L
5FC9: 53            LD D,E
5FCA: 20 50         JR NZ,loc_601C
5FCC: 4F            LD C,A
5FCD: 49            LD C,C
5FCE: 4E            LD C,(HL)
5FCF: 54            LD D,H
5FD0: 00            NOP
5FD1: 00            NOP
5FD2: 1B            DEC DE
5FD3: 24            INC H
5FD4: 33            INC SP
5FD5: 30 30         JR NC,loc_6007
5FD7: 30 21         JR NC,loc_5FFA

loc_5FD9:
5FD9: 21 00 00      LD HL,0000h
5FDC: 1B            DEC DE
5FDD: 24            INC H
5FDE: 35            DEC (HL)
5FDF: 30 30         JR NC,loc_6011
5FE1: 30 21         JR NC,loc_6004
5FE3: 21 00 00      LD HL,0000h
5FE6: 1B            DEC DE

loc_5FE7:
5FE7: 24            INC H
5FE8: 38 30         JR C,loc_601A
5FEA: 30 30         JR NC,loc_601C
5FEC: 21 21 00      LD HL,0021h
5FEF: 00            NOP
5FF0: 19            ADD HL,DE
5FF1: 04            INC B
5FF2: 50            LD D,B
5FF3: 55            LD D,L
5FF4: 53            LD D,E

loc_5FF5:
5FF5: 48            LD C,B
5FF6: 20 31         JR NZ,loc_6029
5FF8: 50            LD D,B
5FF9: 00            NOP

loc_5FFA:
5FFA: 00            NOP
5FFB: 19            ADD HL,DE
5FFC: 28 50         JR Z,loc_604E
5FFE: 55            LD D,L
5FFF: 53            LD D,E
6000: 48            LD C,B
6001: 20 32         JR NZ,loc_6035
6003: 50            LD D,B

loc_6004:
6004: 00            NOP
6005: 00            NOP
6006: 1A            LD A,(DE)

loc_6007:
6007: 4A            LD C,D
6008: 49            LD C,C
6009: 4E            LD C,(HL)
600A: 56            LD D,(HL)
600B: 41            LD B,C
600C: 44            LD B,H
600D: 45            LD B,L
600E: 20 54         JR NZ,loc_6064
6010: 48            LD C,B

loc_6011:
6011: 45            LD B,L
6012: 20 45         JR NZ,loc_6059
6014: 4E            LD C,(HL)
6015: 45            LD B,L
6016: 4D            LD C,L
6017: 59            LD E,C
6018: 53            LD D,E
6019: 20 42         JR NZ,loc_605D
601B: 41            LD B,C

loc_601C:
601C: 53            LD D,E
601D: 45            LD B,L
601E: 2E 00         LD L,00h
6020: 05            DEC B
6021: 19            ADD HL,DE
6022: 04            INC B
6023: 4E            LD C,(HL)
6024: 41            LD B,C
6025: 4D            LD C,L
6026: 45            LD B,L
6027: 00            NOP
6028: 05            DEC B

loc_6029:
6029: 19            ADD HL,DE
602A: 2C            INC L
602B: 4E            LD C,(HL)
602C: 41            LD B,C
602D: 4D            LD C,L
602E: 45            LD B,L
602F: 00            NOP
6030: 00            NOP
6031: 1A            LD A,(DE)
6032: 86            ADD A,(HL)
6033: 04            INC B
6034: 04            INC B

loc_6035:
6035: 4D            LD C,L
6036: 41            LD B,C
6037: 59            LD E,C
6038: 20 59         JR NZ,loc_6093
603A: 4F            LD C,A
603B: 55            LD D,L
603C: 20 4C         JR NZ,loc_608A
603E: 49            LD C,C
603F: 56            LD D,(HL)
6040: 45            LD B,L
6041: 01 1C 18      LD BC,181Ch
6044: 48            LD C,B
6045: 41            LD B,C
6046: 50            LD D,B
6047: 50            LD D,B
6048: 49            LD C,C
6049: 4C            LD C,H
604A: 59            LD E,C
604B: 20 46         JR NZ,loc_6093
604D: 4F            LD C,A

loc_604E:
604E: 52            LD D,D
604F: 45            LD B,L
6050: 56            LD D,(HL)
6051: 45            LD B,L
6052: 52            LD D,D
6053: 2E 00         LD L,00h
6055: 00            NOP
6056: 1B            DEC DE
6057: D8            RET C
6058: 36 37         LD (HL),37h
605A: 38 39         JR C,loc_6095
605C: 3F            CCF

loc_605D:
605D: F8            RET M
605E: F9            LD SP,HL
605F: FA FB 01      JP M,loc_01FB
6062: 1C            INC E
6063: 18 3F         JR loc_60A4
6065: 40            LD B,B
6066: 41            LD B,C
6067: 42            LD B,D
6068: 43            LD B,E
6069: FC FD FE      CALL M,FEFDh
606C: FF            RST 38h
606D: 00            NOP
606E: 00            NOP
606F: 19            ADD HL,DE
6070: 8A            ADC A,D
6071: 54            LD D,H
6072: 48            LD C,B
6073: 49            LD C,C
6074: 53            LD D,E
6075: 20 47         JR NZ,loc_60BE
6077: 41            LD B,C
6078: 4D            LD C,L
6079: 45            LD B,L
607A: 20 49         JR NZ,loc_60C5
607C: 53            LD D,E
607D: 20 46         JR NZ,loc_60C5
607F: 4F            LD C,A
6080: 52            LD D,D
6081: 20 55         JR NZ,loc_60D8
6083: 53            LD D,E
6084: 45            LD B,L
6085: 01 1A 0A      LD BC,0A1Ah
6088: 49            LD C,C
6089: 4E            LD C,(HL)

loc_608A:
608A: 20 4A         JR NZ,loc_60D6
608C: 41            LD B,C
608D: 50            LD D,B
608E: 41            LD B,C
608F: 4E            LD C,(HL)
6090: 20 4F         JR NZ,loc_60E1
6092: 4E            LD C,(HL)

loc_6093:
6093: 4C            LD C,H
6094: 59            LD E,C

loc_6095:
6095: 2E 01         LD L,01h
6097: 1A            LD A,(DE)
6098: 8A            ADC A,D
6099: 53            LD D,E
609A: 41            LD B,C
609B: 4C            LD C,H
609C: 45            LD B,L
609D: 53            LD D,E
609E: 2C            INC L
609F: 45            LD B,L
60A0: 58            LD E,B
60A1: 50            LD D,B
60A2: 4F            LD C,A
60A3: 52            LD D,D

loc_60A4:
60A4: 54            LD D,H
60A5: 2C            INC L
60A6: 4F            LD C,A
60A7: 52            LD D,D
60A8: 01 1B 0A      LD BC,0A1Bh
60AB: 4F            LD C,A
60AC: 50            LD D,B
60AD: 45            LD B,L
60AE: 52            LD D,D
60AF: 41            LD B,C
60B0: 54            LD D,H
60B1: 49            LD C,C
60B2: 4F            LD C,A
60B3: 4E            LD C,(HL)
60B4: 20 4F         JR NZ,loc_6105
60B6: 55            LD D,L
60B7: 54            LD D,H
60B8: 53            LD D,E
60B9: 49            LD C,C
60BA: 44            LD B,H
60BB: 45            LD B,L
60BC: 01 1B 8A      LD BC,8A1Bh
60BF: 54            LD D,H
60C0: 48            LD C,B
60C1: 49            LD C,C
60C2: 53            LD D,E
60C3: 20 54         JR NZ,loc_6119

loc_60C5:
60C5: 45            LD B,L
60C6: 52            LD D,D
60C7: 52            LD D,D
60C8: 49            LD C,C
60C9: 54            LD D,H
60CA: 4F            LD C,A
60CB: 52            LD D,D
60CC: 59            LD E,C
60CD: 20 4D         JR NZ,loc_611C
60CF: 41            LD B,C
60D0: 59            LD E,C
60D1: 01 1C 0A      LD BC,0A1Ch
60D4: 56            LD D,(HL)
60D5: 49            LD C,C

loc_60D6:
60D6: 4F            LD C,A
60D7: 4C            LD C,H

loc_60D8:
60D8: 41            LD B,C
60D9: 54            LD D,H
60DA: 45            LD B,L
60DB: 20 49         JR NZ,loc_6126
60DD: 4E            LD C,(HL)
60DE: 54            LD D,H
60DF: 45            LD B,L
60E0: 52            LD D,D

loc_60E1:
60E1: 4E            LD C,(HL)
60E2: 41            LD B,C
60E3: 54            LD D,H
60E4: 49            LD C,C
60E5: 4F            LD C,A
60E6: 4E            LD C,(HL)
60E7: 41            LD B,C
60E8: 4C            LD C,H
60E9: 01 1C 8A      LD BC,8A1Ch
60EC: 43            LD B,E
60ED: 4F            LD C,A
60EE: 50            LD D,B
60EF: 59            LD E,C
60F0: 52            LD D,D
60F1: 49            LD C,C
60F2: 47            LD B,A
60F3: 48            LD C,B
60F4: 54            LD D,H
60F5: 20 41         JR NZ,loc_6138
60F7: 4E            LD C,(HL)
60F8: 44            LD B,H
60F9: 20 54         JR NZ,loc_614F
60FB: 52            LD D,D
60FC: 41            LD B,C
60FD: 44            LD B,H
60FE: 45            LD B,L
60FF: 4D            LD C,L
6100: 41            LD B,C
6101: 52            LD D,D
6102: 4B            LD C,E
6103: 01 1D 0A      LD BC,0A1Dh
6106: 4C            LD C,H
6107: 41            LD B,C
6108: 57            LD D,A
6109: 53            LD D,E
610A: 20 41         JR NZ,loc_614D
610C: 4E            LD C,(HL)
610D: 44            LD B,H
610E: 20 54         JR NZ,loc_6164
6110: 48            LD C,B
6111: 45            LD B,L
6112: 20 56         JR NZ,loc_616A
6114: 49            LD C,C
6115: 4F            LD C,A
6116: 4C            LD C,H
6117: 41            LD B,C
6118: 54            LD D,H

loc_6119:
6119: 4F            LD C,A
611A: 52            LD D,D
611B: 01 1D 8A      LD BC,8A1Dh
611E: 53            LD D,E
611F: 55            LD D,L
6120: 42            LD B,D
6121: 4A            LD C,D
6122: 45            LD B,L
6123: 43            LD B,E
6124: 54            LD D,H
6125: 20 54         JR NZ,loc_617B
6127: 4F            LD C,A
6128: 20 53         JR NZ,loc_617D
612A: 45            LD B,L
612B: 56            LD D,(HL)
612C: 45            LD B,L
612D: 52            LD D,D
612E: 45            LD B,L
612F: 01 1E 0A      LD BC,0A1Eh
6132: 50            LD D,B
6133: 45            LD B,L
6134: 4E            LD C,(HL)

loc_6135:
6135: 41            LD B,C
6136: 4C            LD C,H
6137: 54            LD D,H

loc_6138:
6138: 49            LD C,C
6139: 45            LD B,L
613A: 53            LD D,E
613B: 2E 00         LD L,00h
613D: 00            NOP
613E: 19            ADD HL,DE
613F: 04            INC B
6140: 43            LD B,E
6141: 4F            LD C,A
6142: 4E            LD C,(HL)
6143: 54            LD D,H
6144: 49            LD C,C
6145: 4E            LD C,(HL)
6146: 55            LD D,L
6147: 45            LD B,L
6148: 20 20         JR NZ,loc_616A
614A: 00            NOP
614B: 00            NOP
614C: 19            ADD HL,DE

loc_614D:
614D: 28 43         JR Z,loc_6192

loc_614F:
614F: 4F            LD C,A
6150: 4E            LD C,(HL)
6151: 54            LD D,H
6152: 49            LD C,C
6153: 4E            LD C,(HL)
6154: 55            LD D,L
6155: 45            LD B,L
6156: 20 20         JR NZ,loc_6178
6158: 00            NOP
6159: 34            INC (HL)
615A: 7F            LD A,A
615B: 32 71 1F      LD (1F71h),A
615E: 43            LD B,E
615F: 81            ADD A,C
6160: 01 27 5D      LD BC,5D27h
6163: A7            AND A

loc_6164:
6164: 47            LD B,A
6165: 6F            LD L,A
6166: 42            LD B,D
6167: 6F            LD L,A
6168: 4C            LD C,H

loc_6169:
6169: 6F            LD L,A

loc_616A:
616A: 4D            LD C,L
616B: C6 06         ADD A,06h
616D: 3D            DEC A
616E: C3 61 DD      JP DD61h
6171: 1F            RRA
6172: 02            LD (BC),A
6173: AE            XOR (HL)
6174: A1            AND C
6175: A6            AND (HL)
6176: A0            AND B
6177: A7            AND A

loc_6178:
6178: 4A            LD C,D
6179: 6A            LD L,D
617A: 4A            LD C,D

loc_617B:
617B: 44            LD B,H
617C: 34            INC (HL)

loc_617D:
617D: 01 89 00      LD BC,0089h
6180: A7            AND A

loc_6181:
6181: 4B            LD C,E
6182: 6F            LD L,A
6183: 4E            LD C,(HL)
6184: 34            INC (HL)
6185: 10 AE         DJNZ loc_6135
6187: A1            AND C
6188: A6            AND (HL)
6189: A4            AND H
618A: 84            ADD A,H
618B: 07            RLCA

loc_618C:
618C: A7            AND A
618D: C4 46 46      CALL NZ,sub_4646
6190: 46            LD B,(HL)
6191: 46            LD B,(HL)

loc_6192:
6192: 84            ADD A,H
6193: E0            RET PO
6194: A7            AND A
6195: 48            LD C,B
6196: 1F            RRA
6197: 12            LD (DE),A
6198: 35            DEC (HL)
6199: 10 4F         DJNZ loc_61EA
619B: 35            DEC (HL)
619C: 01 24 01      LD BC,0124h
619F: 43            LD B,E
61A0: A7            AND A
61A1: 49            LD C,C
61A2: A6            AND (HL)
61A3: 4E            LD C,(HL)
61A4: E6 A6         AND A6h
61A6: 6D            LD L,L

sub_61A7:
61A7: 49            LD C,C
61A8: 2B            DEC HL
61A9: 0A            LD A,(BC)
61AA: 1F            RRA
61AB: 98            SBC A,B
61AC: 54            LD D,H
61AD: 54            LD D,H
61AE: 54            LD D,H
61AF: 54            LD D,H
61B0: 8D            ADC A,L
61B1: 12            LD (DE),A
61B2: 1F            RRA
61B3: 89            ADC A,C
61B4: 8D            ADC A,L
61B5: 0E 6F         LD C,6Fh
61B7: 49            LD C,C
61B8: 6C            LD L,H
61B9: 4E            LD C,(HL)
61BA: A6            AND (HL)
61BB: 4E            LD C,(HL)
61BC: A1            AND C
61BD: 4B            LD C,E
61BE: 25            DEC H
61BF: E2 32 6F      JP PO,loc_6F32
61C2: 35            DEC (HL)
61C3: FF            RST 38h
61C4: 34            INC (HL)
61C5: 02            LD (BC),A
61C6: C4 0F CB      CALL NZ,CB0Fh
61C9: 30 C1         JR NC,loc_618C
61CB: 30 27         JR NC,loc_61F4
61CD: 02            LD (BC),A
61CE: 6F            LD L,A
61CF: 4A            LD C,D
61D0: A6            AND (HL)
61D1: 4A            LD C,D
61D2: 27            DAA
61D3: 04            INC B
61D4: 6A            LD L,D
61D5: 4A            LD C,D
61D6: C6 20         ADD A,20h
61D8: BD            CP L
61D9: 5D            LD E,L
61DA: D6 35         SUB 35h
61DC: 82            ADD A,D
61DD: 18 8A         JR loc_6169
61DF: 06 03         LD B,03h
61E1: EB            EX DE,HL
61E2: 00            NOP
61E3: 18 9C         JR loc_6181
61E5: 06 00         LD B,00h
61E7: 23            INC HL
61E8: 00            NOP
61E9: 1F            RRA

loc_61EA:
61EA: BA            CP D
61EB: 02            LD (BC),A
61EC: 00            NOP
61ED: 48            LD C,B
61EE: 00            NOP
61EF: 1A            LD A,(DE)
61F0: E2 02 00      JP PO,sub_0002
61F3: 28 00         JR Z,loc_61F5

loc_61F5:
61F5: 1F            RRA
61F6: 64            LD H,H
61F7: 02            LD (BC),A
61F8: 00            NOP
61F9: 21 00 18      LD HL,1800h

loc_61FC:
61FC: B0            OR B
61FD: 06 04         LD B,04h
61FF: 4A            LD C,D
6200: 00            NOP
6201: 19            ADD HL,DE
6202: 0C            INC C
6203: 02            LD (BC),A
6204: 0F            RRCA
6205: 4B            LD C,E
6206: 00            NOP
6207: 19            ADD HL,DE
6208: 12            LD (DE),A
6209: 01 0F 4C      LD BC,4C0Fh
620C: 00            NOP
620D: 19            ADD HL,DE
620E: 14            INC D

loc_620F:
620F: 01 0F 4D      LD BC,4D0Fh
6212: 00            NOP
6213: 1A            LD A,(DE)
6214: E6 06         AND 06h
6216: 0F            RRCA
6217: 91            SUB C
6218: 00            NOP
6219: 1B            DEC DE
621A: A6            AND (HL)
621B: 06 0F         LD B,0Fh
621D: 97            SUB A
621E: 00            NOP
621F: 1C            INC E
6220: 66            LD H,(HL)
6221: 06 0F         LD B,0Fh
6223: 9D            SBC A,L
6224: 00            NOP
6225: 1D            DEC E
6226: 26 06         LD H,06h
6228: 0F            RRCA
6229: A3            AND E
622A: 00            NOP
622B: 1D            DEC E
622C: E6 06         AND 06h
622E: 0F            RRCA
622F: A9            XOR C
6230: 00            NOP
6231: 19            ADD HL,DE

sub_6232:
6232: 16 01         LD D,01h
6234: 0F            RRCA
6235: 62            LD H,D
6236: 00            NOP
6237: 19            ADD HL,DE
6238: 3A 01 0F      LD A,(0F01h)
623B: 62            LD H,D
623C: 00            NOP
623D: 34            INC (HL)
623E: 36 10         LD (HL),10h
6240: 8E            ADC A,(HL)
6241: 62            LD H,D
6242: 99            SBC A,C
6243: B6            OR (HL)
6244: 38 04         JR C,loc_624A
6246: 43            LD B,E
6247: 84            ADD A,H
6248: 30 44         JR NC,loc_628E

loc_624A:
624A: 44            LD B,H
624B: 44            LD B,H
624C: 10 AE         DJNZ loc_61FC
624E: A6            AND (HL)
624F: 96            SUB (HL)
6250: 36 81         LD (HL),81h
6252: 03            INC BC
6253: 27            DAA
6254: 0C            INC C
6255: 81            ADD A,C
6256: 02            LD (BC),A
6257: 26 0A         LD H,0Ah
6259: 0D            DEC C
625A: 37            SCF
625B: 27            DAA

loc_625C:
625C: 06 86         LD B,86h
625E: 03            INC BC
625F: 20 02         JR NZ,loc_6263
6261: 86            ADD A,(HL)
6262: 04            INC B

loc_6263:
6263: E6 A6         AND A6h
6265: 4F            LD C,A
6266: FD            DB FDh ; prefix (nop)
6267: 0F            RRCA
6268: 48            LD C,B
6269: 7F            LD A,A
626A: 0F            RRCA
626B: 4A            LD C,D
626C: 10 8E         DJNZ loc_61FC
626E: 63            LD H,E
626F: 93            SUB E
6270: 86            ADD A,(HL)
6271: 00            NOP
6272: 8E            ADC A,(HL)
6273: 18 9A         JR loc_620F

loc_6275:
6275: E6 A0         AND A0h
6277: C1            POP BC
6278: FF            RST 38h
6279: 27            DAA

loc_627A:
627A: 04            INC B
627B: ED 81         DB EDh,81h
627D: 20 F6         JR NZ,loc_6275
627F: 8E            ADC A,(HL)
6280: 18 DA         JR loc_625C

loc_6282:
6282: E6 A0         AND A0h
6284: C1            POP BC
6285: FF            RST 38h
6286: 27            DAA
6287: 04            INC B
6288: ED 81         DB EDh,81h
628A: 20 F6         JR NZ,loc_6282
628C: BD            CP L
628D: 62            LD H,D

loc_628E:
628E: D8            RET C

loc_628F:
628F: 7F            LD A,A
6290: 0F            RRCA
6291: 4E            LD C,(HL)
6292: 86            ADD A,(HL)
6293: 9F            SBC A,A
6294: BD            CP L
6295: 5D            LD E,L
6296: 19            ADD HL,DE
6297: 35            DEC (HL)
6298: B6            OR (HL)
6299: 62            LD H,D
629A: A1            AND C
629B: 62            LD H,D
629C: A6            AND (HL)

loc_629D:
629D: 62            LD H,D
629E: AB            XOR E
629F: 62            LD H,D
62A0: B0            OR B
62A1: 70            LD (HL),B
62A2: 70            LD (HL),B
62A3: 90            SUB B
62A4: 50            LD D,B
62A5: 90            SUB B
62A6: 80            ADD A,B
62A7: 80            ADD A,B
62A8: 95            SUB L
62A9: 60            LD H,B
62AA: 95            SUB L
62AB: 65            LD H,L
62AC: 65            LD H,L
62AD: 85            ADD A,L
62AE: 45            LD B,L
62AF: 65            LD H,L
62B0: 60            LD H,B

loc_62B1:
62B1: 60            LD H,B
62B2: 80            ADD A,B
62B3: 40            LD B,B

loc_62B4:
62B4: 60            LD H,B
62B5: B6            OR (HL)
62B6: 0A            LD A,(BC)
62B7: AF            XOR A
62B8: 2B            DEC HL
62B9: 5B            LD E,E
62BA: B6            OR (HL)
62BB: 0F            RRCA
62BC: 4E            LD C,(HL)
62BD: 2B            DEC HL
62BE: 56            LD D,(HL)
62BF: BD            CP L
62C0: 63            LD H,E
62C1: 16 24         LD D,24h
62C3: 0D            DEC C
62C4: B6            OR (HL)
62C5: 0F            RRCA
62C6: 4E            LD C,(HL)
62C7: 8A            ADC A,D
62C8: 80            ADD A,B
62C9: B7            OR A
62CA: 0F            RRCA
62CB: 4E            LD C,(HL)
62CC: 86            ADD A,(HL)
62CD: 1F            RRA
62CE: BD            CP L
62CF: 5D            LD E,L
62D0: 19            ADD HL,DE
62D1: B6            OR (HL)
62D2: 0F            RRCA
62D3: 4A            LD C,D
62D4: 10 26         DJNZ loc_62FC
62D6: 00            NOP
62D7: 3D            DEC A
62D8: B6            OR (HL)
62D9: 0F            RRCA
62DA: 49            LD C,C
62DB: 1F            RRA
62DC: 89            ADC A,C
62DD: 44            LD B,H
62DE: 44            LD B,H
62DF: 44            LD B,H
62E0: 44            LD B,H
62E1: 84            ADD A,H

loc_62E2:
62E2: 0F            RRCA
62E3: B7            OR A
62E4: 0F            RRCA
62E5: 4C            LD C,H
62E6: C4 0F F7      CALL NZ,F70Fh
62E9: 0F            RRCA
62EA: 4D            LD C,L
62EB: B6            OR (HL)

loc_62EC:
62EC: 0F            RRCA
62ED: 4C            LD C,H
62EE: 8E            ADC A,(HL)
62EF: 63            LD H,E
62F0: 9D            SBC A,L
62F1: 48            LD C,B
62F2: 30 86         JR NC,loc_627A
62F4: 86            ADD A,(HL)
62F5: 00            NOP
62F6: E6 80         AND 80h
62F8: FD            DB FDh ; prefix (nop)

loc_62F9:
62F9: 18 A2         JR loc_629D
62FB: E6 80         AND 80h
62FD: FD            DB FDh ; prefix (nop)
62FE: 18 E2         JR loc_62E2
6300: B6            OR (HL)
6301: 0F            RRCA
6302: 4D            LD C,L
6303: 48            LD C,B
6304: 8E            ADC A,(HL)
6305: 63            LD H,E
6306: 9D            SBC A,L

loc_6307:
6307: 30 86         JR NC,loc_628F
6309: 86            ADD A,(HL)
630A: 00            NOP
630B: E6 80         AND 80h
630D: FD            DB FDh ; prefix (nop)

loc_630E:
630E: 18 A4         JR loc_62B4
6310: E6 80         AND 80h
6312: FD            DB FDh ; prefix (nop)
6313: 18 E4         JR loc_62F9
6315: 39            ADD HL,SP
6316: 96            SUB (HL)
6317: 51            LD D,C
6318: 84            ADD A,H
6319: 01 27 36      LD BC,3627h
631C: 7C            LD A,H
631D: 0F            RRCA
631E: 4A            LD C,D
631F: 96            SUB (HL)
6320: 55            LD D,L
6321: 10 8E         DJNZ loc_62B1
6323: 63            LD H,E
6324: 8F            ADC A,A
6325: E6 A6         AND A6h
6327: F1            POP AF
6328: 0F            RRCA
6329: 4A            LD C,D
632A: 24            INC H
632B: 1E 7F         LD E,7Fh
632D: 0F            RRCA
632E: 4A            LD C,D
632F: B6            OR (HL)
6330: 0F            RRCA
6331: 49            LD C,C
6332: 8B            ADC A,E
6333: 99            SBC A,C
6334: 19            ADD HL,DE
6335: B7            OR A
6336: 0F            RRCA
6337: 49            LD C,C
6338: 81            ADD A,C
6339: 99            SBC A,C
633A: 26 0E         LD H,0Eh
633C: 86            ADD A,(HL)
633D: 59            LD E,C
633E: B7            OR A
633F: 0F            RRCA
6340: 49            LD C,C
6341: B6            OR (HL)
6342: 0F            RRCA
6343: 48            LD C,B
6344: 8B            ADC A,E
6345: 99            SBC A,C
6346: 19            ADD HL,DE
6347: B7            OR A
6348: 0F            RRCA
6349: 48            LD C,B
634A: FC 0F 48      CALL M,sub_480F
634D: 26 03         LD H,03h
634F: 1A            LD A,(DE)

loc_6350:
6350: 01 39 1C      LD BC,1C39h
6353: FE 39         CP 39h
6355: 34            INC (HL)
6356: 10 B6         DJNZ loc_630E
6358: 03            INC BC
6359: EA 81 09      JP PE,loc_0981
635C: 25            DEC H

loc_635D:
635D: 02            LD (BC),A
635E: 86            ADD A,(HL)
635F: 09            ADD HL,BC
6360: 8E            ADC A,(HL)
6361: 63            LD H,E
6362: 9D            SBC A,L
6363: 48            LD C,B
6364: 30 86         JR NC,loc_62EC
6366: 86            ADD A,(HL)
6367: 00            NOP
6368: E6 80         AND 80h
636A: FD            DB FDh ; prefix (nop)
636B: 1F            RRA
636C: 04            INC B
636D: E6 80         AND 80h
636F: FD            DB FDh ; prefix (nop)
6370: 1F            RRA
6371: 44            LD B,H
6372: B6            OR (HL)
6373: 04            INC B
6374: 49            LD C,C
6375: 81            ADD A,C
6376: 09            ADD HL,BC
6377: 25            DEC H
6378: 02            LD (BC),A
6379: 86            ADD A,(HL)
637A: 09            ADD HL,BC
637B: 8E            ADC A,(HL)
637C: 63            LD H,E
637D: 9D            SBC A,L
637E: 48            LD C,B
637F: 30 86         JR NC,loc_6307
6381: 86            ADD A,(HL)
6382: 00            NOP
6383: E6 80         AND 80h
6385: FD            DB FDh ; prefix (nop)
6386: 1F            RRA
6387: 2A E6 80      LD HL,(80E6h)
638A: FD            DB FDh ; prefix (nop)
638B: 1F            RRA
638C: 6A            LD L,D
638D: 35            DEC (HL)
638E: 90            SUB B
638F: A0            AND B
6390: 90            SUB B
6391: 78            LD A,B
6392: 60            LD H,B
6393: 36 37         LD (HL),37h
6395: 38 39         JR C,loc_63D0
6397: FF            RST 38h
6398: 3F            CCF
6399: 40            LD B,B
639A: 41            LD B,C
639B: 42            LD B,D
639C: FF            RST 38h
639D: 43            LD B,E
639E: 4D            LD C,L
639F: 44            LD B,H
63A0: 4E            LD C,(HL)
63A1: 45            LD B,L
63A2: 4F            LD C,A
63A3: 46            LD B,(HL)
63A4: 50            LD D,B
63A5: 47            LD B,A
63A6: 51            LD D,C
63A7: 48            LD C,B
63A8: 52            LD D,D
63A9: 49            LD C,C
63AA: 53            LD D,E
63AB: 4A            LD C,D
63AC: 54            LD D,H
63AD: 4B            LD C,E
63AE: 55            LD D,L
63AF: 4C            LD C,H
63B0: 56            LD D,(HL)
63B1: B6            OR (HL)
63B2: 03            INC BC
63B3: C1            POP BC
63B4: 97            SUB A
63B5: 00            NOP
63B6: 86            ADD A,(HL)
63B7: 20 97         JR NZ,loc_6350
63B9: 03            INC BC
63BA: CC 1F 4C      CALL Z,sub_4C1F
63BD: DD            DB DDh ; prefix (nop)
63BE: 01 BD 63      LD BC,63BDh
63C1: D4 B6 04      CALL NC,sub_04B6
63C4: 20 97         JR NZ,loc_635D
63C6: 00            NOP
63C7: 86            ADD A,(HL)
63C8: 40            LD B,B
63C9: 97            SUB A
63CA: 03            INC BC
63CB: CC 1F 72      CALL Z,sub_721F
63CE: DD            DB DDh ; prefix (nop)
63CF: 01 BD 63      LD BC,63BDh
63D2: D4 39 34      CALL NC,sub_3439
63D5: 50            LD D,B
63D6: 32 7E 96      LD (967Eh),A
63D9: 00            NOP
63DA: BD            CP L
63DB: 64            LD H,H
63DC: 29            ADD HL,HL
63DD: E7            RST 20h
63DE: E4 DE 01      CALL PO,sub_01DE
63E1: 96            SUB (HL)
63E2: 03            INC BC
63E3: C6 5C         ADD A,5Ch
63E5: ED C1         DB EDh,C1h

loc_63E7:
63E7: 86            ADD A,(HL)
63E8: 04            INC B
63E9: A7            AND A
63EA: 61            LD H,C
63EB: 96            SUB (HL)
63EC: 03            INC BC
63ED: 6D            LD L,L
63EE: E4 27 0D      CALL PO,sub_0D27
63F1: C6 5D         ADD A,5Dh
63F3: ED C1         DB EDh,C1h
63F5: 5C            LD E,H
63F6: 6A            LD L,D
63F7: 61            LD H,C
63F8: 27            DAA
63F9: 0C            INC C
63FA: 6A            LD L,D
63FB: E4 26 F5      CALL PO,F526h
63FE: C6 5B         ADD A,5Bh
6400: ED C1         DB EDh,C1h
6402: 6A            LD L,D
6403: 61            LD H,C
6404: 26 FA         LD H,FAh
6406: C6 61         ADD A,61h
6408: ED C4         DB EDh,C4h
640A: 32 62 CC      LD (CC62h),A
640D: 00            NOP

loc_640E:
640E: 3C            INC A
640F: FD            DB FDh ; prefix (nop)
6410: 1F            RRA
6411: 46            LD B,(HL)
6412: FD            DB FDh ; prefix (nop)
6413: 1F            RRA
6414: 6C            LD L,H
6415: CC 00 3D      CALL Z,sub_3D00
6418: FD            DB FDh ; prefix (nop)
6419: 1F            RRA
641A: 48            LD C,B
641B: FD            DB FDh ; prefix (nop)
641C: 1F            RRA
641D: 6E            LD L,(HL)
641E: CC 00 3E      CALL Z,sub_3E00
6421: FD            DB FDh ; prefix (nop)
6422: 1F            RRA
6423: 4A            LD C,D
6424: FD            DB FDh ; prefix (nop)
6425: 1F            RRA
6426: 70            LD (HL),B
6427: 35            DEC (HL)
6428: D0            RET NC
6429: 5F            LD E,A
642A: 4D            LD C,L
642B: 27            DAA
642C: 07            RLCA
642D: 5C            LD E,H
642E: 80            ADD A,B
642F: 10 27         DJNZ loc_6458
6431: 02            LD (BC),A
6432: 2A F9 39      LD HL,(39F9h)
6435: 34            INC (HL)
6436: 02            LD (BC),A
6437: 10 AE         DJNZ loc_63E7
6439: 88            ADC A,B
643A: 2D            DEC L
643B: A6            AND (HL)
643C: A8            XOR B
643D: 1F            RRA
643E: 27            DAA
643F: 08            EX AF,AF'
6440: A0            AND B
6441: E4 24 01      CALL PO,sub_0124
6444: 4F            LD C,A
6445: A7            AND A
6446: A8            XOR B
6447: 1F            RRA
6448: BD            CP L
6449: 63            LD H,E
644A: B1            OR C
644B: 35            DEC (HL)
644C: 82            ADD A,D
644D: D6 26         SUB 26h
644F: 26 07         LD H,07h
6451: F6 38         OR 38h
6453: 04            INC B
6454: C4 04 27      CALL NZ,sub_2704
6457: 03            INC BC

loc_6458:
6458: B7            OR A
6459: 38 0E         JR C,loc_6469
645B: 39            ADD HL,SP
645C: 34            INC (HL)
645D: 40            LD B,B
645E: 10 AE         DJNZ loc_640E
6460: 88            ADC A,B

loc_6461:
6461: 35            DEC (HL)
6462: A6            AND (HL)
6463: A8            XOR B
6464: 16 2B         LD D,2Bh
6466: 28 A6         JR Z,loc_640E
6468: 88            ADC A,B

loc_6469:
6469: 34            INC (HL)
646A: 2A 23 85      LD HL,(8523h)
646D: 02            LD (BC),A
646E: 27            DAA
646F: 1F            RRA
6470: 32 7E 6F      LD (6F7Eh),A
6473: E4 A6 A8      CALL PO,A8A6h
6476: 17            RLA
6477: 81            ADD A,C
6478: 07            RLCA
6479: 27            DAA
647A: 12            LD (DE),A
647B: 81            ADD A,C
647C: 0E 27         LD C,27h
647E: 0E 81         LD C,81h
6480: 05            DEC B
6481: 27            DAA
6482: 0A            LD A,(BC)
6483: A6            AND (HL)
6484: A8            XOR B
6485: 34            INC (HL)
6486: 85            ADD A,L
6487: 08            EX AF,AF'
6488: 26 03         LD H,03h
648A: 7E            LD A,(HL)
648B: 65            LD H,L
648C: 7F            LD A,A
648D: 32 62 35      LD (3562h),A
6490: C0            RET NZ
6491: 34            INC (HL)
6492: 40            LD B,B
6493: A6            AND (HL)
6494: 88            ADC A,B
6495: 1B            DEC DE
6496: 84            ADD A,H
6497: 3F            CCF
6498: 81            ADD A,C
6499: 01 26 07      LD BC,0726h
649C: A6            AND (HL)
649D: 88            ADC A,B
649E: 22 81 08      LD (0881h),HL
64A1: 27            DAA
64A2: EC A6 88      CALL PE,88A6h
64A5: 34            INC (HL)
64A6: 2A E7 EE      LD HL,(EEE7h)
64A9: 88            ADC A,B
64AA: 35            DEC (HL)
64AB: E6 C8         AND C8h
64AD: 16 2B         LD D,2Bh
64AF: DF            RST 18h
64B0: 85            ADD A,L
64B1: 02            LD (BC),A
64B2: 10 26         DJNZ loc_64DA
64B4: 00            NOP
64B5: 83            ADD A,E
64B6: A6            AND (HL)
64B7: 03            INC BC
64B8: 2A 0D A6      LD HL,(A60Dh)
64BB: 88            ADC A,B
64BC: 43            LD B,E
64BD: 85            ADD A,L
64BE: 10 26         DJNZ loc_64E6
64C0: 46            LD B,(HL)
64C1: 85            ADD A,L
64C2: 40            LD B,B
64C3: 26 0F         LD H,0Fh
64C5: 20 C8         JR NZ,loc_648F
64C7: A6            AND (HL)
64C8: 88            ADC A,B
64C9: 43            LD B,E
64CA: 85            ADD A,L
64CB: 40            LD B,B
64CC: 26 39         LD H,39h
64CE: 85            ADD A,L
64CF: 10 26         DJNZ loc_64F7
64D1: 02            LD (BC),A
64D2: 20 BB         JR NZ,loc_648F
64D4: A6            AND (HL)
64D5: C8            RET Z
64D6: 17            RLA
64D7: 81            ADD A,C
64D8: 05            DEC B
64D9: 27            DAA

loc_64DA:
64DA: 2C            INC L
64DB: 81            ADD A,C
64DC: 06 27         LD B,27h
64DE: 28 81         JR Z,loc_6461
64E0: 07            RLCA
64E1: 27            DAA
64E2: 24            INC H
64E3: 81            ADD A,C
64E4: 0E 27         LD C,27h

loc_64E6:
64E6: 20 10         JR NZ,loc_64F8
64E8: 8E            ADC A,(HL)
64E9: 66            LD H,(HL)
64EA: 02            LD (BC),A
64EB: A6            AND (HL)
64EC: C8            RET Z
64ED: 17            RLA
64EE: A6            AND (HL)
64EF: A6            AND (HL)
64F0: 81            ADD A,C
64F1: 16 26         LD D,26h
64F3: 9B            SBC A,E
64F4: 86            ADD A,(HL)
64F5: 07            RLCA
64F6: A7            AND A

loc_64F7:
64F7: 88            ADC A,B

loc_64F8:
64F8: 1B            DEC DE
64F9: 86            ADD A,(HL)
64FA: 09            ADD HL,BC
64FB: A7            AND A
64FC: 88            ADC A,B
64FD: 1E 10         LD E,10h
64FF: AE            XOR (HL)
6500: 88            ADC A,B
6501: 35            DEC (HL)
6502: AF            XOR A
6503: A8            XOR B
6504: 21 20 30      LD HL,3020h
6507: A6            AND (HL)
6508: 88            ADC A,B
6509: 21 26 2B      LD HL,2B26h
650C: A6            AND (HL)
650D: 88            ADC A,B
650E: 1B            DEC DE
650F: 84            ADD A,H
6510: 3F            CCF
6511: 81            ADD A,C
6512: 0D            DEC C
6513: 27            DAA
6514: 22 81 16      LD (1681h),HL
6517: 27            DAA
6518: 1E 10         LD E,10h
651A: AE            XOR (HL)
651B: 88            ADC A,B
651C: 35            DEC (HL)
651D: A6            AND (HL)
651E: A8            XOR B
651F: 17            RLA
6520: CE 66         ADC A,66h
6522: 02            LD (BC),A
6523: A6            AND (HL)
6524: C6 81         ADD A,81h
6526: FF            RST 38h
6527: 27            DAA
6528: 0E A7         LD C,A7h
652A: 88            ADC A,B
652B: 1B            DEC DE
652C: 10 AF         DJNZ loc_64DD
652E: 88            ADC A,B
652F: 41            LD B,C
6530: AF            XOR A
6531: A8            XOR B
6532: 21 20 02      LD HL,0220h
6535: 32 62 35      LD (3562h),A
6538: C0            RET NZ
6539: 32 7E A6      LD (A67Eh),A
653C: 88            ADC A,B
653D: 1B            DEC DE
653E: 84            ADD A,H
653F: 3F            CCF
6540: 81            ADD A,C
6541: 07            RLCA
6542: 26 08         LD H,08h
6544: A6            AND (HL)
6545: 02            LD (BC),A
6546: 84            ADD A,H
6547: 7F            LD A,A
6548: 81            ADD A,C
6549: 52            LD D,D
654A: 27            DAA
654B: E9            JP (HL)
654C: 6F            LD L,A
654D: E4 10 AE      CALL PO,AE10h
6550: 88            ADC A,B
6551: 35            DEC (HL)
6552: AC            XOR H
6553: A8            XOR B
6554: 21 27 DE      LD HL,DE27h
6557: A6            AND (HL)
6558: A8            XOR B
6559: 17            RLA
655A: 81            ADD A,C
655B: 07            RLCA
655C: 27            DAA
655D: D7            RST 10h
655E: 81            ADD A,C
655F: 0E 27         LD C,27h
6561: D3 81         OUT (81h),A
6563: 05            DEC B
6564: 27            DAA
6565: CF            RST 08h
6566: E6 A8         AND A8h
6568: 34            INC (HL)
6569: C5            PUSH BC
656A: 01 27 C8      LD BC,C827h
656D: C5            PUSH BC
656E: 04            INC B
656F: 27            DAA
6570: 0E A6         LD C,A6h

loc_6572:
6572: 01 4C 46      LD BC,464Ch
6575: 46            LD B,(HL)
6576: 46            LD B,(HL)
6577: 46            LD B,(HL)
6578: A8            XOR B
6579: A8            XOR B
657A: 34            INC (HL)
657B: 84            ADD A,H
657C: 60            LD H,B
657D: 26 B6         LD H,B6h
657F: A6            AND (HL)
6580: A8            XOR B
6581: 34            INC (HL)
6582: 84            ADD A,H
6583: 93            SUB E
6584: A7            AND A
6585: A8            XOR B
6586: 34            INC (HL)
6587: EC 24 A3      CALL PE,A324h
658A: 04            INC B
658B: 2A 04 86      LD HL,(8604h)
658E: 80            ADD A,B
658F: A7            AND A
6590: E4 6F 61      CALL PO,sub_616F
6593: A6            AND (HL)
6594: 03            INC BC
6595: A8            XOR B
6596: E4 27 02      CALL PO,loc_0227
6599: 6C            LD L,H
659A: 61            LD H,C
659B: A6            AND (HL)
659C: 0F            RRCA
659D: A8            XOR B
659E: E4 26 06      CALL PO,sub_0626
65A1: A6            AND (HL)
65A2: 61            LD H,C
65A3: 88            ADC A,B
65A4: 01 A7 61      LD BC,61A7h
65A7: 86            ADD A,(HL)
65A8: 01 A7 88      LD BC,88A7h
65AB: 1B            DEC DE
65AC: A6            AND (HL)
65AD: 61            LD H,C
65AE: A7            AND A
65AF: 88            ADC A,B
65B0: 22 A6 88      LD (88A6h),HL
65B3: 1F            RRA
65B4: A0            AND B
65B5: 88            ADC A,B
65B6: 20 24         JR NZ,loc_65DC
65B8: 01 4F A7      LD BC,A74Fh
65BB: 88            ADC A,B
65BC: 1F            RRA
65BD: CE 66         ADC A,66h
65BF: 11 E6 A8      LD DE,A8E6h
65C2: 17            RLA
65C3: C4 3F A6      CALL NZ,A63Fh
65C6: 01 81 02      LD BC,0281h
65C9: 25            DEC H
65CA: 10 A6         DJNZ loc_6572
65CC: C5            PUSH BC
65CD: 81            ADD A,C
65CE: FF            RST 38h
65CF: 27            DAA
65D0: 0A            LD A,(BC)
65D1: 34            INC (HL)
65D2: 34            INC (HL)
65D3: AE            XOR (HL)
65D4: A8            XOR B
65D5: 21 BD F9      LD HL,F9BDh
65D8: 46            LD B,(HL)
65D9: 35            DEC (HL)
65DA: 34            INC (HL)
65DB: C1            POP BC

loc_65DC:
65DC: 06 26         LD B,26h
65DE: 1F            RRA
65DF: 86            ADD A,(HL)
65E0: 11 A7 A8      LD DE,A8A7h
65E3: 1B            DEC DE
65E4: A6            AND (HL)
65E5: A8            XOR B
65E6: 16 2A         LD D,2Ah
65E8: 15            DEC D
65E9: EE A8         XOR A8h
65EB: 1F            RRA

loc_65EC:
65EC: CC 00 00      CALL Z,sub_0000
65EF: A7            AND A
65F0: 88            ADC A,B
65F1: 16 ED         LD D,EDh
65F3: A8            XOR B
65F4: 1F            RRA
65F5: ED C8         DB EDh,C8h
65F7: 41            LD B,C
65F8: A7            AND A
65F9: C8            RET Z
65FA: 21 7A 0F      LD HL,0F7Ah
65FD: 22 32 62      LD (6232h),HL
6600: 35            DEC (HL)
6601: C0            RET NZ
6602: 16 FF         LD D,FFh
6604: FF            RST 38h
6605: 16 16         LD D,16h
6607: 0D            DEC C
6608: 0D            DEC C
6609: 0D            DEC C
660A: FF            RST 38h
660B: FF            RST 38h
660C: FF            RST 38h
660D: FF            RST 38h
660E: FF            RST 38h
660F: FF            RST 38h
6610: 0D            DEC C

loc_6611:
6611: 0B            DEC BC
6612: FF            RST 38h
6613: FF            RST 38h
6614: 0B            DEC BC
6615: 0B            DEC BC
6616: 11 0E FF      LD DE,FF0Eh
6619: FF            RST 38h
661A: FF            RST 38h
661B: FF            RST 38h
661C: FF            RST 38h
661D: FF            RST 38h
661E: FF            RST 38h
661F: 0B            DEC BC
6620: FF            RST 38h
6621: FF            RST 38h
6622: FF            RST 38h
6623: A6            AND (HL)
6624: 88            ADC A,B
6625: 34            INC (HL)
6626: 2A 28 10      LD HL,(1028h)
6629: AE            XOR (HL)
662A: 88            ADC A,B
662B: 35            DEC (HL)
662C: A6            AND (HL)
662D: A8            XOR B
662E: 17            RLA
662F: 84            ADD A,H
6630: 7F            LD A,A
6631: 81            ADD A,C
6632: 0F            RRCA
6633: 26 1B         LD H,1Bh
6635: 86            ADD A,(HL)
6636: 01 A7 88      LD BC,88A7h
6639: 1B            DEC DE
663A: 86            ADD A,(HL)
663B: 01 A7 88      LD BC,88A7h
663E: 22 A6 88      LD (88A6h),HL
6641: 1F            RRA
6642: A0            AND B
6643: 88            ADC A,B
6644: 20 24         JR NZ,loc_666A
6646: 01 4F A7      LD BC,A74Fh
6649: 88            ADC A,B
664A: 1F            RRA
664B: 86            ADD A,(HL)
664C: 02            LD (BC),A
664D: A7            AND A
664E: A8            XOR B
664F: 31 39 A6      LD SP,A639h
6652: 02            LD (BC),A

loc_6653:
6653: 84            ADD A,H
6654: 7F            LD A,A
6655: 81            ADD A,C
6656: 7F            LD A,A
6657: 27            DAA
6658: 51            LD D,C
6659: A6            AND (HL)
665A: 88            ADC A,B
665B: 37            SCF
665C: 10 8E         DJNZ loc_65EC
665E: 66            LD H,(HL)
665F: AB            XOR E
6660: 48            LD C,B
6661: 10 AE         DJNZ loc_6611
6663: A6            AND (HL)
6664: 6A            LD L,D
6665: 88            ADC A,B
6666: 19            ADD HL,DE
6667: 2A 41 A6      LD HL,(A641h)

loc_666A:
666A: 88            ADC A,B
666B: 18 E6         JR loc_6653
666D: 88            ADC A,B
666E: 31 C4 18      LD SP,18C4h
6671: 26 04         LD H,04h
6673: E6 0E         AND 0Eh
6675: 27            DAA
6676: 01 4C A1      LD BC,A14Ch
6679: A4            AND H
667A: 25            DEC H
667B: 01 4F A7      LD BC,A74Fh
667E: 88            ADC A,B
667F: 18 48         JR loc_66C9
6681: 4C            LD C,H
6682: E6 A6         AND A6h
6684: EA 03 E7      JP PE,E703h
6687: 02            LD (BC),A
6688: E6 88         AND 88h
668A: 37            SCF
668B: C1            POP BC
668C: 02            LD (BC),A
668D: 24            INC H
668E: 15            DEC D
668F: E6 88         AND 88h
6691: 21 C1 03      LD HL,03C1h
6694: 27            DAA
6695: 08            EX AF,AF'
6696: C1            POP BC
6697: 05            DEC B
6698: 27            DAA
6699: 04            INC B
669A: C1            POP BC
669B: 06 26         LD B,26h
669D: 06 E6         LD B,E6h
669F: 02            LD (BC),A
66A0: CB 4A         BIT 1,D
66A2: E7            RST 20h
66A3: 02            LD (BC),A
66A4: 4C            LD C,H
66A5: E6 A6         AND A6h
66A7: E7            RST 20h
66A8: 88            ADC A,B
66A9: 19            ADD HL,DE
66AA: 39            ADD HL,SP
66AB: 66            LD H,(HL)
66AC: BF            CP A
66AD: 66            LD H,(HL)
66AE: C8            RET Z
66AF: 66            LD H,(HL)
66B0: D1            POP DE
66B1: 66            LD H,(HL)
66B2: DA 66 D1      JP C,D166h
66B5: 66            LD H,(HL)
66B6: DA 66 E3      JP C,E366h
66B9: 66            LD H,(HL)
66BA: EA 66 F1      JP PE,F166h
66BD: 66            LD H,(HL)
66BE: F6 04         OR 04h
66C0: 04            INC B
66C1: 03            INC BC
66C2: 05            DEC B
66C3: 03            INC BC
66C4: 06 03         LD B,03h
66C6: 07            RLCA
66C7: 03            INC BC
66C8: 04            INC B

loc_66C9:
66C9: 00            NOP
66CA: 03            INC BC
66CB: 01 03 02      LD BC,0203h
66CE: 03            INC BC
66CF: 03            INC BC
66D0: 03            INC BC
66D1: 04            INC B
66D2: 22 03 23      LD (2303h),HL
66D5: 03            INC BC
66D6: 24            INC H
66D7: 03            INC BC
66D8: 25            DEC H
66D9: 03            INC BC
66DA: 04            INC B
66DB: 25            DEC H
66DC: 0A            LD A,(BC)
66DD: 24            INC H
66DE: 0A            LD A,(BC)
66DF: 23            INC HL
66E0: 0A            LD A,(BC)
66E1: 22 0A 03      LD (030Ah),HL
66E4: 27            DAA
66E5: 03            INC BC
66E6: 28 03         JR Z,loc_66EB
66E8: 29            ADD HL,HL
66E9: 03            INC BC
66EA: 03            INC BC

loc_66EB:
66EB: 29            ADD HL,HL
66EC: 03            INC BC
66ED: 28 03         JR Z,loc_66F2
66EF: 27            DAA
66F0: 03            INC BC
66F1: 02            LD (BC),A

loc_66F2:
66F2: 26 08         LD H,08h
66F4: 26 08         LD H,08h
66F6: 02            LD (BC),A
66F7: 26 08         LD H,08h
66F9: 26 08         LD H,08h
66FB: 67            LD H,A
66FC: 03            INC BC
66FD: 67            LD H,A
66FE: 0F            RRCA
66FF: 67            LD H,A
6700: 17            RLA
6701: 67            LD H,A
6702: 33            INC SP
6703: 01 80 00      LD BC,0080h
6706: 20 03         JR NZ,loc_670B
6708: 40            LD B,B
6709: 01 88 04      LD BC,0488h
670C: F0            RET P
670D: 03            INC BC
670E: 40            LD B,B
670F: 07            RLCA
6710: 1E 05         LD E,05h
6712: 10 08         DJNZ loc_671C
6714: A0            AND B
6715: 07            RLCA
6716: 1E 09         LD E,09h
6718: 10 08         DJNZ loc_6722
671A: 00            NOP
671B: 0A            LD A,(BC)

loc_671C:
671C: 10 09         DJNZ loc_6727
671E: 10 0B         DJNZ loc_672B
6720: 80            ADD A,B
6721: 0A            LD A,(BC)

loc_6722:
6722: 10 0C         DJNZ loc_6730
6724: F0            RET P
6725: 0B            DEC BC
6726: 80            ADD A,B

loc_6727:
6727: 0E FF         LD C,FFh
6729: 0C            INC C
672A: F0            RET P

loc_672B:
672B: 0F            RRCA
672C: FF            RST 38h
672D: 0F            RRCA
672E: 00            NOP
672F: 12            LD (DE),A

loc_6730:
6730: 80            ADD A,B

loc_6731:
6731: 0F            RRCA
6732: 00            NOP
6733: 1A            LD A,(DE)
6734: 00            NOP
6735: 15            DEC D
6736: 10 1B         DJNZ loc_6753
6738: F0            RET P
6739: 15            DEC D
673A: 10 34         DJNZ loc_6770
673C: 40            LD B,B
673D: 32 7E B6      LD (B67Eh),A
6740: 0A            LD A,(BC)
6741: AF            XOR A
6742: 10 2B         DJNZ loc_676F
6744: 00            NOP
6745: F1            POP AF
6746: A6            AND (HL)
6747: 88            ADC A,B
6748: 17            RLA
6749: 81            ADD A,C
674A: 17            RLA
674B: 10 27         DJNZ loc_6774
674D: 00            NOP
674E: E8            RET PE
674F: 81            ADD A,C
6750: 11 10 27      LD DE,2710h

loc_6753:
6753: 00            NOP
6754: E2 81 09      JP PO,loc_0981
6757: 10 27         DJNZ loc_6780
6759: 00            NOP
675A: DC 81 1A      CALL C,sub_1A81
675D: 10 27         DJNZ loc_6786
675F: 00            NOP
6760: D6 81         SUB 81h
6762: 03            INC BC
6763: 26 0B         LD H,0Bh
6765: A6            AND (HL)
6766: 88            ADC A,B
6767: 1B            DEC DE

loc_6768:
6768: 84            ADD A,H
6769: 7F            LD A,A
676A: 81            ADD A,C
676B: 14            INC D
676C: 10 27         DJNZ loc_6795
676E: 00            NOP

loc_676F:
676F: C7            RST 00h

loc_6770:
6770: EC 04 C3      CALL PE,C304h
6773: 00            NOP

loc_6774:
6774: 40            LD B,B
6775: 10 93         DJNZ loc_670A
6777: 3C            INC A
6778: 25            DEC H
6779: 39            ADD HL,SP
677A: 96            SUB (HL)
677B: 36 10         LD (HL),10h
677D: 8E            ADC A,(HL)
677E: 66            LD H,(HL)

loc_677F:
677F: FB            EI

loc_6780:
6780: 48            LD C,B
6781: 10 AE         DJNZ loc_6731
6783: A6            AND (HL)
6784: 96            SUB (HL)
6785: 38 48         JR C,loc_67CF
6787: 48            LD C,B
6788: 31 A6 A6      LD SP,A6A6h
678B: 04            INC B
678C: 81            ADD A,C
678D: FF            RST 38h
678E: 27            DAA
678F: 23            INC HL
6790: DC 3C 10      CALL C,sub_103C
6793: A3            AND E
6794: 04            INC B

loc_6795:
6795: 24            INC H

loc_6796:
6796: 13            INC DE
6797: EC A4 10      CALL PE,sub_10A4
679A: A3            AND E
679B: 04            INC B
679C: 25            DEC H
679D: 15            DEC D
679E: DC 3C C3      CALL C,C33Ch
67A1: 01 20 10      LD BC,1020h
67A4: A3            AND E
67A5: 04            INC B
67A6: 10 24         DJNZ loc_67CC
67A8: 00            NOP
67A9: 8D            ADC A,L
67AA: EC 22 10      CALL PE,sub_1022
67AD: A3            AND E
67AE: 04            INC B
67AF: 10 25         DJNZ loc_67D6
67B1: 00            NOP
67B2: 84            ADD A,H
67B3: A6            AND (HL)
67B4: 88            ADC A,B
67B5: 16 2A         LD D,2Ah
67B7: 0F            RRCA
67B8: 10 AE         DJNZ loc_6768

loc_67BA:
67BA: 88            ADC A,B
67BB: 1F            RRA
67BC: A6            AND (HL)
67BD: A4            AND H
67BE: 2A 07 A6      LD HL,(A607h)
67C1: A8            XOR B
67C2: 21 27 02      LD HL,0227h
67C5: 20 70         JR NZ,loc_6837
67C7: A6            AND (HL)
67C8: 88            ADC A,B
67C9: 1B            DEC DE
67CA: 84            ADD A,H
67CB: 3F            CCF

loc_67CC:
67CC: E6 88         AND 88h
67CE: 17            RLA

loc_67CF:
67CF: C1            POP BC
67D0: 05            DEC B
67D1: 27            DAA
67D2: 0A            LD A,(BC)
67D3: C1            POP BC
67D4: 06 26         LD B,26h

loc_67D6:
67D6: 0E 81         LD C,81h
67D8: 03            INC BC
67D9: 27            DAA
67DA: 5C            LD E,H
67DB: 26 08         LD H,08h
67DD: 81            ADD A,C

loc_67DE:
67DE: 04            INC B
67DF: 27            DAA
67E0: 56            LD D,(HL)
67E1: 81            ADD A,C
67E2: 10 27         DJNZ loc_680B
67E4: 52            LD D,D
67E5: A6            AND (HL)
67E6: 88            ADC A,B
67E7: 17            RLA
67E8: 81            ADD A,C
67E9: 0D            DEC C
67EA: 26 03         LD H,03h
67EC: 7F            LD A,A
67ED: 0E F2         LD C,F2h
67EF: 10 8E         DJNZ loc_677F
67F1: 04            INC B
67F2: 60            LD H,B
67F3: EE A8         XOR A8h
67F5: 41            LD B,C
67F6: EF            RST 28h
67F7: E4 AC E4      CALL PO,E4ACh
67FA: 26 09         LD H,09h
67FC: 6F            LD L,A
67FD: A8            XOR B
67FE: 41            LD B,C
67FF: 6F            LD L,A
6800: A8            XOR B
6801: 42            LD B,D
6802: 6F            LD L,A
6803: A8            XOR B
6804: 21 31 A8      LD HL,A831h
6807: 63            LD H,E
6808: 10 8C         DJNZ loc_6796
680A: 07            RLCA

loc_680B:
680B: DB 26         IN A,(26h)
680D: E5            PUSH HL
680E: CC 00 00      CALL Z,sub_0000
6811: A7            AND A
6812: 84            ADD A,H
6813: ED 88         DB EDh,88h
6815: 1F            RRA
6816: A7            AND A
6817: 88            ADC A,B
6818: 16 A6         LD D,A6h
681A: 88            ADC A,B
681B: 17            RLA
681C: 81            ADD A,C
681D: 07            RLCA
681E: 24            INC H
681F: 17            RLA
6820: 10 8E         DJNZ loc_67B0
6822: 6D            LD L,L
6823: 5E            LD E,(HL)
6824: A6            AND (HL)
6825: A6            AND (HL)
6826: 81            ADD A,C
6827: FF            RST 38h
6828: 27            DAA
6829: 0D            DEC C
682A: 10 8E         DJNZ loc_67BA
682C: 6D            LD L,L
682D: 65            LD H,L
682E: 10 AE         DJNZ loc_67DE
6830: A6            AND (HL)
6831: 6D            LD L,L
6832: A4            AND H
6833: 27            DAA
6834: 02            LD (BC),A
6835: 6A            LD L,D
6836: A4            AND H

loc_6837:
6837: 32 62 35      LD (3562h),A
683A: C0            RET NZ
683B: 34            INC (HL)
683C: 40            LD B,B
683D: 96            SUB (HL)
683E: 38 27         JR C,loc_6867
6840: 4B            LD C,E
6841: A6            AND (HL)
6842: 01 81 02      LD BC,0281h
6845: 26 45         LD H,45h
6847: A6            AND (HL)
6848: 88            ADC A,B
6849: 15            DEC D
684A: 85            ADD A,L
684B: 40            LD B,B
684C: 26 3E         LD H,3Eh

loc_684E:
684E: A6            AND (HL)
684F: 88            ADC A,B
6850: 1B            DEC DE
6851: 84            ADD A,H
6852: 3F            CCF
6853: 81            ADD A,C
6854: 00            NOP
6855: 26 35         LD H,35h
6857: FE 0F         CP 0Fh
6859: 36 A6         LD (HL),A6h
685B: C8            RET Z
685C: 1B            DEC DE
685D: 84            ADD A,H
685E: 3F            CCF
685F: 81            ADD A,C
6860: 05            DEC B
6861: 27            DAA
6862: 29            ADD HL,HL
6863: 81            ADD A,C
6864: 01 27 25      LD BC,2527h

loc_6867:
6867: 81            ADD A,C
6868: 04            INC B
6869: 27            DAA
686A: 21 B6 0F      LD HL,0FB6h
686D: 34            INC (HL)
686E: 81            ADD A,C
686F: 08            EX AF,AF'
6870: 24            INC H
6871: 1A            LD A,(DE)
6872: B6            OR (HL)
6873: 0F            RRCA
6874: 33            INC SP
6875: 81            ADD A,C
6876: 30 25         JR NC,loc_689D
6878: 13            INC DE
6879: 86            ADD A,(HL)
687A: 07            RLCA
687B: A7            AND A
687C: 88            ADC A,B
687D: 1B            DEC DE
687E: 86            ADD A,(HL)
687F: 04            INC B
6880: A7            AND A
6881: 88            ADC A,B
6882: 1E B6         LD E,B6h
6884: 0F            RRCA
6885: 35            DEC (HL)
6886: 46            LD B,(HL)
6887: 46            LD B,(HL)
6888: 84            ADD A,H
6889: 80            ADD A,B
688A: A7            AND A
688B: 03            INC BC
688C: 35            DEC (HL)
688D: C0            RET NZ
688E: 34            INC (HL)
688F: 16 A6         LD D,A6h
6891: 01 81 02      LD BC,0281h
6894: 25            DEC H
6895: 08            EX AF,AF'
6896: A6            AND (HL)
6897: 88            ADC A,B
6898: 13            INC DE
6899: 84            ADD A,H
689A: DF            RST 18h
689B: A7            AND A
689C: 88            ADC A,B

loc_689D:
689D: 13            INC DE
689E: 10 AE         DJNZ loc_684E
68A0: 88            ADC A,B
68A1: 41            LD B,C
68A2: 27            DAA
68A3: 7B            LD A,E
68A4: EC A8 1F      CALL PE,sub_1FA8
68A7: ED A8         LDD
68A9: 21 CC 00      LD HL,00CCh
68AC: 00            NOP
68AD: ED 88         DB EDh,88h
68AF: 41            LD B,C
68B0: A7            AND A
68B1: 88            ADC A,B
68B2: 40            LD B,B
68B3: ED A8         LDD
68B5: 1F            RRA
68B6: A7            AND A
68B7: A8            XOR B
68B8: 16 6F         LD D,6Fh
68BA: 88            ADC A,B
68BB: 21 86 02      LD HL,0286h
68BE: A7            AND A
68BF: A8            XOR B
68C0: 1B            DEC DE
68C1: A6            AND (HL)
68C2: 03            INC BC
68C3: A7            AND A
68C4: 23            INC HL
68C5: EC 04 ED      CALL PE,ED04h
68C8: 24            INC H
68C9: EC 06 ED      CALL PE,ED06h
68CC: 26 A6         LD H,A6h
68CE: A8            XOR B
68CF: 34            INC (HL)
68D0: 84            ADD A,H
68D1: 93            SUB E
68D2: A7            AND A
68D3: A8            XOR B
68D4: 34            INC (HL)
68D5: A6            AND (HL)

loc_68D6:
68D6: 01 81 02      LD BC,0281h
68D9: 24            INC H
68DA: 0F            RRCA
68DB: C6 44         ADD A,44h
68DD: 4D            LD C,L
68DE: 27            DAA
68DF: 02            LD (BC),A
68E0: C6 24         ADD A,24h
68E2: AA            XOR D
68E3: A8            XOR B
68E4: 34            INC (HL)
68E5: A7            AND A
68E6: A8            XOR B
68E7: 34            INC (HL)
68E8: 20 35         JR NZ,loc_691F
68EA: A6            AND (HL)
68EB: A8            XOR B
68EC: 34            INC (HL)
68ED: 8A            ADC A,D
68EE: 08            EX AF,AF'
68EF: A7            AND A
68F0: A8            XOR B
68F1: 34            INC (HL)
68F2: A6            AND (HL)
68F3: A8            XOR B
68F4: 17            RLA
68F5: 84            ADD A,H

loc_68F6:
68F6: 1F            RRA
68F7: 81            ADD A,C
68F8: 05            DEC B
68F9: 27            DAA
68FA: 15            DEC D
68FB: 81            ADD A,C
68FC: 06 26         LD B,26h
68FE: 20 7C         JR NZ,loc_697C
6900: 0F            RRCA
6901: 22 B6 0F      LD (0FB6h),HL
6904: 22 81 02      LD (0281h),HL
6907: 25            DEC H
6908: 16 7A         LD D,7Ah
690A: 0F            RRCA
690B: 22 6F A4      LD (A46Fh),HL
690E: 20 0F         JR NZ,loc_691F
6910: 7C            LD A,H
6911: 0F            RRCA
6912: 23            INC HL
6913: B6            OR (HL)
6914: 0F            RRCA
6915: 23            INC HL
6916: 81            ADD A,C
6917: 02            LD (BC),A
6918: 25            DEC H
6919: 05            DEC B
691A: 7A            LD A,D
691B: 0F            RRCA
691C: 23            INC HL
691D: 6F            LD L,A
691E: A4            AND H

loc_691F:
691F: 35            DEC (HL)
6920: 96            SUB (HL)
6921: 6F            LD L,A
6922: 88            ADC A,B
6923: 37            SCF
6924: B6            OR (HL)
6925: 0F            RRCA
6926: 35            DEC (HL)
6927: 85            ADD A,L
6928: 02            LD (BC),A
6929: 26 23         LD H,23h
692B: A6            AND (HL)
692C: 01 81 0B      LD BC,0B81h
692F: 27            DAA
6930: 26 81         LD H,81h
6932: 05            DEC B

loc_6933:
6933: 27            DAA
6934: 22 81 07      LD (0781h),HL
6937: 27            DAA
6938: 1E 10         LD E,10h
693A: BE            CP (HL)
693B: 0F            RRCA

loc_693C:
693C: 36 A6         LD (HL),A6h
693E: A8            XOR B
693F: 31 84 18      LD SP,1884h
6942: 26 07         LD H,07h
6944: B6            OR (HL)
6945: 0F            RRCA
6946: 34            INC (HL)
6947: 81            ADD A,C
6948: 08            EX AF,AF'
6949: 25            DEC H
694A: 03            INC BC
694B: 6C            LD L,H
694C: 88            ADC A,B
694D: 37            SCF
694E: A6            AND (HL)
694F: 88            ADC A,B
6950: 38 84         JR C,loc_68D6
6952: 0F            RRCA
6953: 81            ADD A,C
6954: 03            INC BC
6955: 27            DAA
6956: 0C            INC C
6957: 5F            LD E,A
6958: B6            OR (HL)
6959: 0F            RRCA
695A: 35            DEC (HL)
695B: 85            ADD A,L
695C: 01 27 02      LD BC,0227h
695F: CA 80 E7      JP Z,E780h
6962: 03            INC BC
6963: 39            ADD HL,SP
6964: 34            INC (HL)
6965: 78            LD A,B
6966: 10 8E         DJNZ loc_68F6
6968: 69            LD L,C
6969: 85            ADD A,L
696A: A6            AND (HL)
696B: 88            ADC A,B
696C: 17            RLA
696D: 84            ADD A,H
696E: 0F            RRCA
696F: A6            AND (HL)
6970: A6            AND (HL)
6971: 26 10         LD H,10h
6973: 10 BE         DJNZ loc_6933
6975: 0F            RRCA
6976: 36 A6         LD (HL),A6h
6978: 88            ADC A,B
6979: 1B            DEC DE
697A: 84            ADD A,H
697B: 3F            CCF

loc_697C:
697C: 81            ADD A,C
697D: 12            LD (DE),A

loc_697E:
697E: 27            DAA
697F: 03            INC BC
6980: BD            CP L
6981: 69            LD L,C
6982: 90            SUB B
6983: 35            DEC (HL)
6984: F8            RET M
6985: FF            RST 38h
6986: 00            NOP
6987: FF            RST 38h
6988: FF            RST 38h
6989: FF            RST 38h
698A: FF            RST 38h
698B: 00            NOP
698C: 00            NOP
698D: FF            RST 38h
698E: FF            RST 38h
698F: FF            RST 38h
6990: 34            INC (HL)
6991: 20 32         JR NZ,loc_69C5
6993: 7C            LD A,H
6994: 86            ADD A,(HL)
6995: 02            LD (BC),A

loc_6996:
6996: A7            AND A
6997: E4 EC 28      CALL PO,sub_28EC
699A: A3            AND E
699B: 08            EX AF,AF'
699C: 10 27         DJNZ loc_69C5
699E: 00            NOP
699F: B8            CP B
69A0: 2A 15 ED      LD HL,(ED15h)
69A3: 61            LD H,C
69A4: CC 00 00      CALL Z,sub_0000
69A7: A3            AND E
69A8: 61            LD H,C
69A9: 10 83         DJNZ loc_692E
69AB: 00            NOP
69AC: 60            LD H,B
69AD: 10 25         DJNZ loc_69D4
69AF: 00            NOP
69B0: A7            AND A
69B1: 86            ADD A,(HL)
69B2: 03            INC BC
69B3: A7            AND A
69B4: E4 20 08      CALL PO,sub_0820
69B7: 10 83         DJNZ loc_693C
69B9: 00            NOP
69BA: 38 10         JR C,loc_69CC
69BC: 25            DEC H
69BD: 00            NOP
69BE: 99            SBC A,C
69BF: B6            OR (HL)
69C0: 0C            INC C
69C1: 29            ADD HL,HL
69C2: 84            ADD A,H
69C3: 0F            RRCA
69C4: 10 27         DJNZ loc_69ED
69C6: 00            NOP
69C7: 90            SUB B
69C8: A6            AND (HL)
69C9: 88            ADC A,B
69CA: 21 27 17      LD HL,1727h
69CD: A6            AND (HL)
69CE: 01 81 02      LD BC,0281h
69D1: 10 25         DJNZ loc_69F8
69D3: 00            NOP

loc_69D4:
69D4: 83            ADD A,E
69D5: A6            AND (HL)
69D6: 88            ADC A,B
69D7: 21 81 03      LD HL,0381h
69DA: 25            DEC H
69DB: 08            EX AF,AF'
69DC: 81            ADD A,C
69DD: 04            INC B
69DE: 27            DAA
69DF: 04            INC B
69E0: 81            ADD A,C
69E1: 07            RLCA
69E2: 26 74         LD H,74h
69E4: A6            AND (HL)
69E5: 88            ADC A,B
69E6: 32 84 BF      LD (BF84h),A
69E9: A7            AND A
69EA: 88            ADC A,B
69EB: 32 5F B6      LD (B65Fh),A
69EE: 0C            INC C
69EF: 26 81         LD H,81h
69F1: 01 27 2E      LD BC,2E27h
69F4: 81            ADD A,C
69F5: 02            LD (BC),A
69F6: 26 1C         LD H,1Ch

loc_69F8:
69F8: EC 08 10      CALL PE,sub_1008
69FB: 83            ADD A,E
69FC: 01 10 25      LD BC,2510h
69FF: 22 10 83      LD (8310h),HL
6A02: 01 60 24      LD BC,2460h
6A05: 1C            INC E
6A06: 10 8E         DJNZ loc_6996
6A08: 0E D7         LD C,D7h
6A0A: EC A1 ED      CALL PE,EDA1h
6A0D: 04            INC B
6A0E: EC A1 ED      CALL PE,EDA1h
6A11: 06 25         LD B,25h
6A13: 44            LD B,H

loc_6A14:
6A14: 81            ADD A,C
6A15: 03            INC BC
6A16: 27            DAA
6A17: 0A            LD A,(BC)
6A18: E6 88         AND 88h
6A1A: 32 CA 40      LD (40CAh),A
6A1D: E7            RST 20h
6A1E: 88            ADC A,B
6A1F: 32 C6 80      LD (80C6h),A
6A22: E7            RST 20h
6A23: 61            LD H,C
6A24: C4 0F 1F      CALL NZ,sub_1F0F
6A27: 98            SBC A,B
6A28: 4C            LD C,H
6A29: A7            AND A
6A2A: 62            LD H,D
6A2B: 10 8E         DJNZ loc_69BB
6A2D: 0E E7         LD C,E7h
6A2F: A6            AND (HL)
6A30: A5            AND L
6A31: A1            AND C
6A32: 62            LD H,D
6A33: 24            INC H
6A34: 23            INC HL
6A35: 6C            LD L,H
6A36: A5            AND L
6A37: A6            AND (HL)
6A38: 61            LD H,C
6A39: A7            AND A
6A3A: 88            ADC A,B
6A3B: 38 A6         JR C,loc_69E3
6A3D: E4 A7 88      CALL PO,88A7h
6A40: 37            SCF
6A41: 86            ADD A,(HL)
6A42: 12            LD (DE),A
6A43: A7            AND A
6A44: 88            ADC A,B
6A45: 1B            DEC DE
6A46: A6            AND (HL)
6A47: 88            ADC A,B
6A48: 31 8A 10      LD SP,108Ah
6A4B: 5D            LD E,L
6A4C: 26 02         LD H,02h
6A4E: 8A            ADC A,D
6A4F: 08            EX AF,AF'
6A50: A7            AND A
6A51: 88            ADC A,B
6A52: 31 EC 64      LD SP,64ECh
6A55: ED 88         DB EDh,88h
6A57: 2D            DEC L
6A58: 32 64 35      LD (3564h),A
6A5B: A0            AND B
6A5C: 34            INC (HL)
6A5D: 40            LD B,B
6A5E: 96            SUB (HL)
6A5F: 36 81         LD (HL),81h
6A61: 01 26 65      LD BC,6526h
6A64: DC 3C 10      CALL C,sub_103C
6A67: 83            ADD A,E
6A68: 06 18         LD B,18h
6A6A: 25            DEC H
6A6B: 5D            LD E,L
6A6C: CC 06 00      CALL Z,sub_0006
6A6F: 10 A3         DJNZ loc_6A14
6A71: 04            INC B
6A72: 25            DEC H
6A73: 55            LD D,L
6A74: 6F            LD L,A
6A75: 84            ADD A,H
6A76: 6F            LD L,A
6A77: 88            ADC A,B
6A78: 13            INC DE
6A79: 6F            LD L,A
6A7A: 88            ADC A,B
6A7B: 15            DEC D
6A7C: 7A            LD A,D
6A7D: 0A            LD A,(BC)
6A7E: AC            XOR H
6A7F: A6            AND (HL)
6A80: 88            ADC A,B
6A81: 45            LD B,L
6A82: 27            DAA
6A83: 03            INC BC
6A84: 7A            LD A,D
6A85: 0B            DEC BC
6A86: 72            LD (HL),D
6A87: A6            AND (HL)
6A88: 88            ADC A,B
6A89: 17            RLA
6A8A: 2A 08 B6      LD HL,(B608h)
6A8D: 0A            LD A,(BC)
6A8E: AF            XOR A
6A8F: 8A            ADC A,D
6A90: 80            ADD A,B
6A91: B7            OR A
6A92: 0A            LD A,(BC)
6A93: AF            XOR A
6A94: A6            AND (HL)
6A95: 88            ADC A,B
6A96: 21 27 30      LD HL,3027h
6A99: 10 AE         DJNZ loc_6A49
6A9B: 88            ADC A,B
6A9C: 41            LD B,C
6A9D: CC 00 00      CALL Z,sub_0000
6AA0: A7            AND A
6AA1: A4            AND H
6AA2: A7            AND A
6AA3: 88            ADC A,B
6AA4: 21 ED 88      LD HL,88EDh
6AA7: 41            LD B,C
6AA8: ED A8         LDD
6AAA: 1F            RRA
6AAB: A7            AND A
6AAC: A8            XOR B
6AAD: 16 A6         LD D,A6h
6AAF: A8            XOR B
6AB0: 17            RLA
6AB1: 81            ADD A,C
6AB2: 07            RLCA
6AB3: 24            INC H
6AB4: 14            INC D
6AB5: CE 6D         ADC A,6Dh
6AB7: 5E            LD E,(HL)
6AB8: A6            AND (HL)
6AB9: C6 81         ADD A,81h
6ABB: FF            RST 38h
6ABC: 27            DAA
6ABD: 0B            DEC BC
6ABE: CE 6D         ADC A,6Dh
6AC0: 65            LD H,L
6AC1: EE C6         XOR C6h
6AC3: 6D            LD L,L
6AC4: C4 27 02      CALL NZ,loc_0227
6AC7: 6A            LD L,D
6AC8: C4 35 C0      CALL NZ,C035h
6ACB: 34            INC (HL)
6ACC: 20 FC         JR NZ,loc_6ACA
6ACE: 0F            RRCA
6ACF: 48            LD C,B
6AD0: 10 26         DJNZ loc_6AF8
6AD2: 00            NOP
6AD3: 80            ADD A,B
6AD4: A6            AND (HL)
6AD5: 88            ADC A,B
6AD6: 1B            DEC DE
6AD7: 84            ADD A,H
6AD8: 7F            LD A,A
6AD9: 81            ADD A,C
6ADA: 01 27 77      LD BC,7727h
6ADD: 81            ADD A,C
6ADE: 00            NOP
6ADF: 26 13         LD H,13h
6AE1: A6            AND (HL)
6AE2: 88            ADC A,B
6AE3: 37            SCF
6AE4: 81            ADD A,C
6AE5: 02            LD (BC),A
6AE6: 25            DEC H
6AE7: 57            LD D,A
6AE8: 86            ADD A,(HL)
6AE9: 01 A7 88      LD BC,88A7h
6AEC: 1B            DEC DE
6AED: 86            ADD A,(HL)
6AEE: 01 A7 88      LD BC,88A7h
6AF1: 22 20 60      LD (6020h),HL
6AF4: E6 88         AND 88h
6AF6: 15            DEC D
6AF7: C5            PUSH BC

loc_6AF8:
6AF8: 40            LD B,B
6AF9: 26 59         LD H,59h
6AFB: 84            ADD A,H

loc_6AFC:
6AFC: F7            RST 30h
6AFD: A7            AND A
6AFE: 88            ADC A,B
6AFF: 4C            LD C,H
6B00: A6            AND (HL)
6B01: 88            ADC A,B
6B02: 1B            DEC DE
6B03: 84            ADD A,H
6B04: 3F            CCF
6B05: 81            ADD A,C
6B06: 06 27         LD B,27h
6B08: 10 81         DJNZ loc_6A8B
6B0A: 08            EX AF,AF'
6B0B: 27            DAA
6B0C: 0C            INC C
6B0D: 81            ADD A,C
6B0E: 09            ADD HL,BC
6B0F: 27            DAA
6B10: 08            EX AF,AF'
6B11: 81            ADD A,C
6B12: 0A            LD A,(BC)
6B13: 27            DAA
6B14: 04            INC B
6B15: 81            ADD A,C

loc_6B16:
6B16: 0C            INC C
6B17: 26 26         LD H,26h
6B19: 10 AE         DJNZ loc_6AC9
6B1B: 88            ADC A,B
6B1C: 2D            DEC L
6B1D: A6            AND (HL)
6B1E: A8            XOR B
6B1F: 16 84         LD D,84h
6B21: F9            LD SP,HL
6B22: A7            AND A
6B23: A8            XOR B
6B24: 16 A6         LD D,A6h
6B26: 21 81 02      LD HL,0281h
6B29: 24            INC H
6B2A: 0F            RRCA
6B2B: 86            ADD A,(HL)
6B2C: 01 A7 A8      LD BC,A8A7h
6B2F: 1B            DEC DE
6B30: 86            ADD A,(HL)
6B31: 08            EX AF,AF'
6B32: A7            AND A
6B33: A8            XOR B
6B34: 22 6F A8      LD (A86Fh),HL
6B37: 1F            RRA
6B38: 20 05         JR NZ,loc_6B3F
6B3A: 86            ADD A,(HL)
6B3B: 00            NOP
6B3C: A7            AND A
6B3D: A8            XOR B
6B3E: 1B            DEC DE

loc_6B3F:
6B3F: 86            ADD A,(HL)
6B40: 01 A7 88      LD BC,88A7h

loc_6B43:
6B43: 1B            DEC DE
6B44: 86            ADD A,(HL)
6B45: 08            EX AF,AF'
6B46: A7            AND A
6B47: 88            ADC A,B
6B48: 22 6F 88      LD (886Fh),HL
6B4B: 1F            RRA
6B4C: A6            AND (HL)
6B4D: 88            ADC A,B
6B4E: 16 84         LD D,84h
6B50: F9            LD SP,HL
6B51: A7            AND A
6B52: 88            ADC A,B
6B53: 16 35         LD D,35h
6B55: A0            AND B
6B56: A6            AND (HL)
6B57: 88            ADC A,B
6B58: 3A 81 40      LD A,(4081h)
6B5B: 24            INC H
6B5C: 27            DAA

loc_6B5D:
6B5D: 1F            RRA
6B5E: 89            ADC A,C
6B5F: 3D            DEC A
6B60: 34            INC (HL)
6B61: 06 A6         LD B,A6h
6B63: 88            ADC A,B
6B64: 3B            DEC SP
6B65: 1F            RRA
6B66: 89            ADC A,C
6B67: 3D            DEC A
6B68: E3            EX (SP),HL
6B69: E4 34 02      CALL PO,sub_0234
6B6C: 10 8E         DJNZ loc_6AFC
6B6E: 00            NOP
6B6F: 82            ADD A,D
6B70: 96            SUB (HL)
6B71: 81            ADD A,C
6B72: C6 02         ADD A,02h
6B74: 3D            DEC A
6B75: 31 AB 35      LD SP,35ABh
6B78: 02            LD (BC),A
6B79: A7            AND A
6B7A: A0            AND B
6B7B: B6            OR (HL)
6B7C: 0A            LD A,(BC)
6B7D: AD            XOR L
6B7E: A7            AND A
6B7F: A4            AND H
6B80: 0C            INC C
6B81: 81            ADD A,C
6B82: 35            DEC (HL)
6B83: 86            ADD A,(HL)
6B84: 34            INC (HL)
6B85: 02            LD (BC),A
6B86: 10 8E         DJNZ loc_6B16
6B88: 00            NOP
6B89: 95            SUB L
6B8A: 96            SUB (HL)
6B8B: 94            SUB H
6B8C: C6 02         ADD A,02h
6B8E: 3D            DEC A
6B8F: 31 AB 35      LD SP,35ABh
6B92: 02            LD (BC),A
6B93: A7            AND A
6B94: A0            AND B
6B95: B6            OR (HL)
6B96: 0A            LD A,(BC)
6B97: AD            XOR L
6B98: A7            AND A
6B99: A4            AND H
6B9A: 0C            INC C
6B9B: 94            SUB H
6B9C: 39            ADD HL,SP

loc_6B9D:
6B9D: A6            AND (HL)
6B9E: 88            ADC A,B
6B9F: 3C            INC A
6BA0: 81            ADD A,C
6BA1: 40            LD B,B
6BA2: 24            INC H
6BA3: 27            DAA
6BA4: 1F            RRA
6BA5: 89            ADC A,C
6BA6: 3D            DEC A
6BA7: 34            INC (HL)
6BA8: 06 A6         LD B,A6h
6BAA: 88            ADC A,B
6BAB: 3D            DEC A
6BAC: 1F            RRA
6BAD: 89            ADC A,C
6BAE: 3D            DEC A
6BAF: E3            EX (SP),HL
6BB0: E4 34 02      CALL PO,sub_0234
6BB3: 10 8E         DJNZ loc_6B43
6BB5: 00            NOP
6BB6: A8            XOR B
6BB7: 96            SUB (HL)
6BB8: A7            AND A
6BB9: C6 02         ADD A,02h
6BBB: 3D            DEC A
6BBC: 31 AB 35      LD SP,35ABh
6BBF: 02            LD (BC),A
6BC0: A7            AND A
6BC1: A0            AND B
6BC2: B6            OR (HL)
6BC3: 0A            LD A,(BC)

loc_6BC4:
6BC4: AD            XOR L
6BC5: A7            AND A
6BC6: A4            AND H
6BC7: 0C            INC C
6BC8: A7            AND A
6BC9: 35            DEC (HL)
6BCA: 86            ADD A,(HL)
6BCB: 34            INC (HL)
6BCC: 02            LD (BC),A
6BCD: 10 8E         DJNZ loc_6B5D
6BCF: 00            NOP
6BD0: BB            CP E
6BD1: 96            SUB (HL)
6BD2: BA            CP D
6BD3: C6 02         ADD A,02h
6BD5: 3D            DEC A
6BD6: 31 AB 35      LD SP,35ABh
6BD9: 02            LD (BC),A
6BDA: A7            AND A
6BDB: A0            AND B
6BDC: B6            OR (HL)
6BDD: 0A            LD A,(BC)
6BDE: AD            XOR L
6BDF: A7            AND A
6BE0: A4            AND H
6BE1: 0C            INC C
6BE2: BA            CP D
6BE3: 39            ADD HL,SP
6BE4: A6            AND (HL)
6BE5: 88            ADC A,B
6BE6: 3A A1 88      LD A,(88A1h)
6BE9: 3C            INC A
6BEA: 27            DAA
6BEB: 08            EX AF,AF'
6BEC: 10 25         DJNZ loc_6C13
6BEE: FF            RST 38h
6BEF: 66            LD H,(HL)
6BF0: 10 24         DJNZ loc_6C16
6BF2: FF            RST 38h
6BF3: A9            XOR C
6BF4: A6            AND (HL)
6BF5: 88            ADC A,B
6BF6: 3B            DEC SP
6BF7: A1            AND C
6BF8: 88            ADC A,B
6BF9: 3D            DEC A
6BFA: 10 25         DJNZ loc_6C21
6BFC: FF            RST 38h
6BFD: 58            LD E,B
6BFE: 10 24         DJNZ loc_6C24
6C00: FF            RST 38h
6C01: 9B            SBC A,E
6C02: 39            ADD HL,SP
6C03: 39            ADD HL,SP
6C04: 39            ADD HL,SP
6C05: 39            ADD HL,SP
6C06: 34            INC (HL)

loc_6C07:
6C07: 36 8E         LD (HL),8Eh
6C09: 04            INC B
6C0A: 60            LD H,B
6C0B: 96            SUB (HL)
6C0C: 0F            RRCA
6C0D: C6 63         ADD A,63h
6C0F: 3D            DEC A
6C10: 30 8B         JR NC,loc_6B9D
6C12: 9F            SBC A,A

loc_6C13:
6C13: 0E 35         LD C,35h
6C15: B6            OR (HL)

loc_6C16:
6C16: 7D            LD A,L
6C17: 0F            RRCA
6C18: 2A 27 4F      LD HL,(4F27h)
6C1B: B6            OR (HL)
6C1C: 0F            RRCA
6C1D: 2A 2B 0E      LD HL,(0E2Bh)
6C20: 8A            ADC A,D

loc_6C21:
6C21: 80            ADD A,B
6C22: B7            OR A
6C23: 0F            RRCA

loc_6C24:
6C24: 2A CC 00      LD HL,(00CCh)
6C27: 00            NOP
6C28: B7            OR A
6C29: 0F            RRCA
6C2A: 2B            DEC HL
6C2B: FD            DB FDh ; prefix (nop)
6C2C: 0F            RRCA
6C2D: 2C            INC L
6C2E: 7C            LD A,H
6C2F: 0F            RRCA
6C30: 2C            INC L
6C31: F6 0F         OR 0Fh
6C33: 2C            INC L
6C34: 10 8E         DJNZ loc_6BC4
6C36: 6C            LD L,H
6C37: 6B            LD L,E
6C38: B6            OR (HL)
6C39: 0F            RRCA
6C3A: 2B            DEC HL
6C3B: E1            POP HL
6C3C: A6            AND (HL)
6C3D: 25            DEC H
6C3E: 2B            DEC HL
6C3F: B6            OR (HL)
6C40: 0F            RRCA

loc_6C41:
6C41: 2B            DEC HL
6C42: 88            ADC A,B
6C43: 01 B7 0F      LD BC,0FB7h
6C46: 2B            DEC HL
6C47: 7F            LD A,A
6C48: 0F            RRCA
6C49: 2C            INC L
6C4A: 4D            LD C,L
6C4B: 27            DAA
6C4C: 0C            INC C
6C4D: 7C            LD A,H
6C4E: 0F            RRCA
6C4F: 2D            DEC L
6C50: 34            INC (HL)
6C51: 02            LD (BC),A
6C52: 86            ADD A,(HL)
6C53: 4E            LD C,(HL)
6C54: BD            CP L
6C55: 64            LD H,H
6C56: 4D            LD C,L
6C57: 35            DEC (HL)
6C58: 02            LD (BC),A
6C59: BD            CP L
6C5A: 6C            LD L,H
6C5B: 6D            LD L,L
6C5C: B6            OR (HL)
6C5D: 0F            RRCA
6C5E: 2D            DEC L
6C5F: 81            ADD A,C
6C60: 04            INC B
6C61: 25            DEC H
6C62: 07            RLCA
6C63: 7F            LD A,A
6C64: 0F            RRCA
6C65: 2A 4F BD      LD HL,(BD4Fh)
6C68: 6C            LD L,H
6C69: 6D            LD L,L
6C6A: 39            ADD HL,SP
6C6B: 10 20         DJNZ loc_6C8D
6C6D: 34            INC (HL)
6C6E: 40            LD B,B
6C6F: 32 7C A7      LD (A77Ch),A

loc_6C72:
6C72: E4 86 04      CALL PO,sub_0486
6C75: A7            AND A
6C76: 61            LD H,C
6C77: 10 8E         DJNZ loc_6C07
6C79: 6C            LD L,H
6C7A: 9D            SBC A,L

loc_6C7B:
6C7B: CE 1A         ADC A,1Ah
6C7D: AC            XOR H

sub_6C7E:
6C7E: 86            ADD A,(HL)
6C7F: 04            INC B

loc_6C80:
6C80: A7            AND A
6C81: 62            LD H,D
6C82: 86            ADD A,(HL)
6C83: 60            LD H,B
6C84: E6 A0         AND A0h
6C86: 6D            LD L,L
6C87: E4 26 02      CALL PO,sub_0226
6C8A: 5F            LD E,A
6C8B: 4F            LD C,A
6C8C: ED C1         DB EDh,C1h
6C8E: 6A            LD L,D
6C8F: 62            LD H,D
6C90: 26 F2         LD H,F2h
6C92: 33            INC SP
6C93: C8            RET Z
6C94: 38 6A         JR C,loc_6D00
6C96: 61            LD H,C
6C97: 26 E5         LD H,E5h
6C99: 32 64 35      LD (3564h),A
6C9C: C0            RET NZ
6C9D: 63            LD H,E
6C9E: 64            LD H,H
6C9F: 65            LD H,L
6CA0: 66            LD H,(HL)
6CA1: 67            LD H,A
6CA2: 68            LD L,B
6CA3: 69            LD L,C
6CA4: 00            NOP
6CA5: 6A            LD L,D
6CA6: 6B            LD L,E
6CA7: 6C            LD L,H
6CA8: 00            NOP

loc_6CA9:
6CA9: 00            NOP
6CAA: 00            NOP
6CAB: 00            NOP
6CAC: 00            NOP
6CAD: 39            ADD HL,SP
6CAE: 96            SUB (HL)
6CAF: 36 48         LD (HL),48h
6CB1: 10 8E         DJNZ loc_6C41
6CB3: 6C            LD L,H
6CB4: B8            CP B
6CB5: 6E            LD L,(HL)
6CB6: B6            OR (HL)
6CB7: 39            ADD HL,SP
6CB8: 6C            LD L,H
6CB9: C0            RET NZ
6CBA: 6D            LD L,L
6CBB: 0C            INC C
6CBC: 6C            LD L,H
6CBD: C0            RET NZ
6CBE: 6C            LD L,H
6CBF: C0            RET NZ
6CC0: 32 7F 8E      LD (8E7Fh),A
6CC3: 07            RLCA
6CC4: DB 6F         IN A,(6Fh)
6CC6: E4 A6 84      CALL PO,84A6h
6CC9: 2A 33 A6      LD HL,(A633h)

loc_6CCC:
6CCC: 88            ADC A,B

loc_6CCD:
6CCD: 16 2A         LD D,2Ah
6CCF: 08            EX AF,AF'
6CD0: 10 AE         DJNZ loc_6C80
6CD2: 88            ADC A,B
6CD3: 1F            RRA
6CD4: A6            AND (HL)
6CD5: A4            AND H
6CD6: 2B            DEC HL

loc_6CD7:
6CD7: 26 EC         LD H,ECh
6CD9: 04            INC B
6CDA: C3 00 10      JP loc_1000
6CDD: 10 93         DJNZ loc_6C72
6CDF: 3C            INC A
6CE0: 24            INC H
6CE1: 1C            INC E
6CE2: 6F            LD L,A
6CE3: 84            ADD A,H
6CE4: A6            AND (HL)
6CE5: 88            ADC A,B
6CE6: 17            RLA
6CE7: 81            ADD A,C
6CE8: 07            RLCA
6CE9: 24            INC H
6CEA: 13            INC DE
6CEB: 10 8E         DJNZ loc_6C7B
6CED: 6D            LD L,L
6CEE: 5E            LD E,(HL)
6CEF: A6            AND (HL)
6CF0: A6            AND (HL)
6CF1: 81            ADD A,C
6CF2: FF            RST 38h
6CF3: 27            DAA
6CF4: 09            ADD HL,BC
6CF5: 10 8E         DJNZ loc_6C85
6CF7: 6D            LD L,L
6CF8: 65            LD H,L
6CF9: 10 AE         DJNZ loc_6CA9

loc_6CFB:
6CFB: A6            AND (HL)
6CFC: 6A            LD L,D
6CFD: A4            AND H
6CFE: C6 24         ADD A,24h

loc_6D00:
6D00: 3A 6C E4      LD A,(E46Ch)
6D03: A6            AND (HL)
6D04: E4 81 10      CALL PO,sub_1081
6D07: 25            DEC H
6D08: BE            CP (HL)
6D09: 32 61 39      LD (3961h),A
6D0C: 32 7C 8E      LD (8E7Ch),A
6D0F: 07            RLCA
6D10: DB 6F         IN A,(6Fh)
6D12: E4 A6 84      CALL PO,84A6h
6D15: 2A 39 A6      LD HL,(A639h)
6D18: 88            ADC A,B
6D19: 16 2A         LD D,2Ah
6D1B: 08            EX AF,AF'
6D1C: 10 AE         DJNZ loc_6CCC
6D1E: 88            ADC A,B
6D1F: 1F            RRA
6D20: A6            AND (HL)
6D21: A4            AND H
6D22: 2B            DEC HL
6D23: 2C            INC L
6D24: EC 08 E3      CALL PE,E308h
6D27: 06 ED         LD B,EDh
6D29: 61            LD H,C
6D2A: DC 3F C3      CALL C,C33Fh
6D2D: 01 10 10      LD BC,1010h
6D30: A3            AND E
6D31: 61            LD H,C
6D32: 24            INC H
6D33: 1C            INC E
6D34: 6F            LD L,A
6D35: 84            ADD A,H
6D36: A6            AND (HL)
6D37: 88            ADC A,B
6D38: 17            RLA
6D39: 81            ADD A,C
6D3A: 07            RLCA
6D3B: 24            INC H
6D3C: 13            INC DE
6D3D: 10 8E         DJNZ loc_6CCD
6D3F: 6D            LD L,L
6D40: 5E            LD E,(HL)
6D41: A6            AND (HL)
6D42: A6            AND (HL)
6D43: 81            ADD A,C
6D44: FF            RST 38h
6D45: 27            DAA
6D46: 09            ADD HL,BC
6D47: 10 8E         DJNZ loc_6CD7
6D49: 6D            LD L,L
6D4A: 65            LD H,L
6D4B: 10 AE         DJNZ loc_6CFB
6D4D: A6            AND (HL)

loc_6D4E:
6D4E: 6A            LD L,D
6D4F: A4            AND H
6D50: C6 24         ADD A,24h
6D52: 3A 6C E4      LD A,(E46Ch)
6D55: A6            AND (HL)
6D56: E4 81 10      CALL PO,sub_1081
6D59: 25            DEC H
6D5A: B8            CP B
6D5B: 32 64 39      LD (3964h),A
6D5E: 04            INC B
6D5F: FF            RST 38h
6D60: FF            RST 38h
6D61: 08            EX AF,AF'
6D62: 06 02         LD B,02h
6D64: 00            NOP
6D65: 0F            RRCA
6D66: 22 0F 23      LD (230Fh),HL
6D69: 0F            RRCA
6D6A: 24            INC H
6D6B: 0F            RRCA
6D6C: 25            DEC H
6D6D: 0F            RRCA
6D6E: 26 34         LD H,34h
6D70: 36 35         LD (HL),35h
6D72: B6            OR (HL)
6D73: 6A            LD L,D
6D74: 88            ADC A,B
6D75: 3F            CCF
6D76: 27            DAA
6D77: 1B            DEC DE
6D78: 6F            LD L,A
6D79: 0E B6         LD C,B6h
6D7B: 0F            RRCA
6D7C: 34            INC (HL)
6D7D: 81            ADD A,C
6D7E: 06 24         LD B,24h
6D80: 07            RLCA
6D81: B6            OR (HL)
6D82: 0F            RRCA
6D83: 33            INC SP
6D84: 81            ADD A,C
6D85: 2C            INC L
6D86: 25            DEC H
6D87: 08            EX AF,AF'
6D88: 86            ADD A,(HL)
6D89: 00            NOP
6D8A: A7            AND A
6D8B: 88            ADC A,B
6D8C: 1B            DEC DE
6D8D: 6F            LD L,A
6D8E: 88            ADC A,B
6D8F: 38 1C         JR C,loc_6DAD
6D91: FE 39         CP 39h
6D93: 6F            LD L,A
6D94: 88            ADC A,B
6D95: 3E 1A         LD A,1Ah
6D97: 01 39 34      LD BC,3439h
6D9A: 7E            LD A,(HL)
6D9B: 5F            LD E,A
6D9C: 10 8E         DJNZ loc_6D2C
6D9E: 07            RLCA
6D9F: DB A6         IN A,(A6h)
6DA1: A4            AND H
6DA2: 2B            DEC HL
6DA3: 2A 86 80      LD HL,(8086h)
6DA6: A7            AND A
6DA7: A4            AND H
6DA8: 86            ADD A,(HL)
6DA9: 08            EX AF,AF'

loc_6DAA:
6DAA: A7            AND A
6DAB: A8            XOR B
6DAC: 17            RLA

loc_6DAD:
6DAD: 86            ADD A,(HL)
6DAE: 20 A7         JR NZ,loc_6D57
6DB0: 21 86 05      LD HL,0586h

loc_6DB3:
6DB3: A7            AND A
6DB4: 22 EC 04      LD (04ECh),HL
6DB7: 83            ADD A,E
6DB8: 00            NOP
6DB9: 80            ADD A,B
6DBA: ED 24         DB EDh,24h
6DBC: EC 06 ED      CALL PE,ED06h
6DBF: 26 EC         LD H,ECh
6DC1: 08            EX AF,AF'
6DC2: 83            ADD A,E
6DC3: 00            NOP
6DC4: 20 ED         JR NZ,loc_6DB3
6DC6: 28 86         JR Z,loc_6D4E

loc_6DC8:
6DC8: 04            INC B
6DC9: A7            AND A
6DCA: A8            XOR B
6DCB: 19            ADD HL,DE
6DCC: 20 08         JR NZ,loc_6DD6
6DCE: 31 A8 24      LD SP,24A8h
6DD1: 5C            LD E,H
6DD2: C1            POP BC
6DD3: 10 25         DJNZ loc_6DFA
6DD5: CA 35 FE      JP Z,FE35h
6DD8: 6A            LD L,D
6DD9: 88            ADC A,B
6DDA: 19            ADD HL,DE
6DDB: 26 02         LD H,02h
6DDD: 6F            LD L,A
6DDE: 84            ADD A,H
6DDF: 39            ADD HL,SP
6DE0: 34            INC (HL)
6DE1: 70            LD (HL),B
6DE2: 96            SUB (HL)
6DE3: 36 10         LD (HL),10h
6DE5: 8E            ADC A,(HL)
6DE6: 6D            LD L,L
6DE7: EB            EX DE,HL
6DE8: 48            LD C,B
6DE9: 6E            LD L,(HL)
6DEA: B6            OR (HL)
6DEB: 6D            LD L,L
6DEC: F3            DI
6DED: 6E            LD L,(HL)
6DEE: AE            XOR (HL)
6DEF: 6E            LD L,(HL)
6DF0: C8            RET Z

loc_6DF1:
6DF1: 70            LD (HL),B
6DF2: B4            OR H
6DF3: BD            CP L
6DF4: 6D            LD L,L
6DF5: FB            EI
6DF6: BD            CP L
6DF7: 6E            LD L,(HL)
6DF8: 41            LD B,C
6DF9: 35            DEC (HL)

loc_6DFA:
6DFA: F0            RET P
6DFB: 96            SUB (HL)
6DFC: 51            LD D,C
6DFD: 84            ADD A,H
6DFE: 07            RLCA
6DFF: 26 37         LD H,37h
6E01: DC 3C 84      CALL C,843Ch
6E04: 01 83 00      LD BC,0083h
6E07: B0            OR B
6E08: 2B            DEC HL
6E09: 2E 10         LD L,10h
6E0B: 83            ADD A,E
6E0C: 01 20 24      LD BC,2420h
6E0F: 28 10         JR Z,loc_6E21
6E11: 8E            ADC A,(HL)
6E12: 6E            LD L,(HL)
6E13: 39            ADD HL,SP
6E14: 96            SUB (HL)
6E15: 51            LD D,C
6E16: 84            ADD A,H

loc_6E17:
6E17: 08            EX AF,AF'
6E18: 27            DAA
6E19: 04            INC B
6E1A: 10 8E         DJNZ loc_6DAA
6E1C: 6E            LD L,(HL)
6E1D: 3D            DEC A
6E1E: 32 7F 86      LD (867Fh),A

loc_6E21:
6E21: 02            LD (BC),A
6E22: A7            AND A
6E23: E4 4F 8E      CALL PO,8E4Fh
6E26: 36 B6         LD (HL),B6h
6E28: 30 88         JR NC,loc_6DB2
6E2A: 1E EC         LD E,ECh
6E2C: A1            AND C
6E2D: ED 81         DB EDh,81h
6E2F: 5C            LD E,H
6E30: ED 84         DB EDh,84h
6E32: 6A            LD L,D
6E33: E4 26 F2      CALL PO,F226h
6E36: 32 61 39      LD (3961h),A
6E39: 30 8D         JR NC,loc_6DC8
6E3B: 30 93         JR NC,loc_6DD0
6E3D: 35            DEC (HL)
6E3E: FA 35 FC      JP M,FC35h
6E41: DC 3C 83      CALL C,833Ch
6E44: 01 30 2B      LD BC,2B30h
6E47: 2C            INC L
6E48: 10 83         DJNZ loc_6DCD
6E4A: 01 00 24      LD BC,2400h
6E4D: 26 B6         LD H,B6h
6E4F: 0F            RRCA
6E50: 02            LD (BC),A
6E51: 2B            DEC HL
6E52: 21 85 02      LD HL,0285h
6E55: 26 1E         LD H,1Eh
6E57: 85            ADD A,L
6E58: 08            EX AF,AF'
6E59: 27            DAA
6E5A: 19            ADD HL,DE
6E5B: 8A            ADC A,D
6E5C: 80            ADD A,B
6E5D: B7            OR A
6E5E: 0F            RRCA
6E5F: 02            LD (BC),A
6E60: C6 05         ADD A,05h

loc_6E62:
6E62: 8E            ADC A,(HL)
6E63: 35            DEC (HL)
6E64: 12            LD (DE),A
6E65: 86            ADD A,(HL)
6E66: 03            INC BC
6E67: 30 88         JR NC,loc_6DF1
6E69: 1A            LD A,(DE)
6E6A: 6F            LD L,A
6E6B: 80            ADD A,B
6E6C: 6F            LD L,A
6E6D: 80            ADD A,B
6E6E: 4A            LD C,D
6E6F: 26 F9         LD H,F9h
6E71: 5A            LD E,D
6E72: 26 F1         LD H,F1h
6E74: 39            ADD HL,SP
6E75: 8A            ADC A,D
6E76: 80            ADD A,B
6E77: B7            OR A
6E78: 0F            RRCA
6E79: 02            LD (BC),A
6E7A: 32 7E 10      LD (107Eh),A
6E7D: 8E            ADC A,(HL)
6E7E: 6E            LD L,(HL)
6E7F: 9F            SBC A,A
6E80: 8E            ADC A,(HL)
6E81: 35            DEC (HL)
6E82: 12            LD (DE),A
6E83: 86            ADD A,(HL)
6E84: 05            DEC B
6E85: A7            AND A
6E86: 61            LD H,C
6E87: 86            ADD A,(HL)
6E88: 03            INC BC
6E89: A7            AND A
6E8A: E4 86 38      CALL PO,sub_3886
6E8D: 30 88         JR NC,loc_6E17
6E8F: 1A            LD A,(DE)
6E90: E6 A0         AND A0h
6E92: ED 81         DB EDh,81h
6E94: 6A            LD L,D
6E95: E4 26 F8      CALL PO,F826h
6E98: 6A            LD L,D
6E99: 61            LD H,C

loc_6E9A:
6E9A: 26 EB         LD H,EBh
6E9C: 32 62 39      LD (3962h),A
6E9F: D7            RST 10h
6EA0: D8            RET C
6EA1: D9            EXX
6EA2: DB DC         IN A,(DCh)
6EA4: DD            DB DDh ; prefix (nop)
6EA5: DE DF         SBC A,DFh
6EA7: E0            RET PO
6EA8: E1            POP HL
6EA9: E2 E3 E4      JP PO,E4E3h
6EAC: E5            PUSH HL
6EAD: E6 B6         AND B6h
6EAF: 0F            RRCA
6EB0: 18 2B         JR loc_6EDD
6EB2: 13            INC DE
6EB3: 7C            LD A,H
6EB4: 0F            RRCA
6EB5: 0C            INC C
6EB6: B6            OR (HL)
6EB7: 0F            RRCA

loc_6EB8:
6EB8: 0C            INC C
6EB9: 81            ADD A,C
6EBA: 10 25         DJNZ loc_6EE1
6EBC: 09            ADD HL,BC
6EBD: 7F            LD A,A
6EBE: 0E F5         LD C,F5h
6EC0: CE 0F         ADC A,0Fh
6EC2: 09            ADD HL,BC
6EC3: BD            CP L
6EC4: 71            LD (HL),C
6EC5: 73            LD (HL),E
6EC6: 35            DEC (HL)
6EC7: F0            RET P
6EC8: BD            CP L
6EC9: 6E            LD L,(HL)
6ECA: D0            RET NC
6ECB: BD            CP L
6ECC: 6F            LD L,A
6ECD: 35            DEC (HL)
6ECE: 35            DEC (HL)
6ECF: F0            RET P
6ED0: 96            SUB (HL)
6ED1: 51            LD D,C
6ED2: 84            ADD A,H
6ED3: 3F            CCF
6ED4: 26 4A         LD H,4Ah
6ED6: DC 3C 83      CALL C,833Ch

loc_6ED9:
6ED9: 0D            DEC C
6EDA: 60            LD H,B
6EDB: 2B            DEC HL
6EDC: 43            LD B,E

loc_6EDD:
6EDD: 10 83         DJNZ loc_6E62
6EDF: 00            NOP
6EE0: E0            RET PO

loc_6EE1:
6EE1: 24            INC H
6EE2: 3D            DEC A
6EE3: 96            SUB (HL)
6EE4: 51            LD D,C
6EE5: 84            ADD A,H
6EE6: C0            RET NZ
6EE7: 48            LD C,B
6EE8: 49            LD C,C
6EE9: 49            LD C,C
6EEA: 48            LD C,B
6EEB: 10 8E         DJNZ loc_6E7B
6EED: 6F            LD L,A
6EEE: 21 10 AE      LD HL,AE10h
6EF1: A6            AND (HL)
6EF2: 96            SUB (HL)
6EF3: 51            LD D,C
6EF4: 84            ADD A,H
6EF5: C0            RET NZ
6EF6: 26 0E         LD H,0Eh
6EF8: 34            INC (HL)
6EF9: 20 BD         JR NZ,loc_6EB8
6EFB: 49            LD C,C
6EFC: D4 35 20      CALL NC,sub_2035
6EFF: 2B            DEC HL
6F00: 05            DEC B
6F01: 86            ADD A,(HL)
6F02: 2A BD 64      LD HL,(64BDh)
6F05: 4D            LD C,L
6F06: 32 7F 86      LD (867Fh),A
6F09: 02            LD (BC),A
6F0A: A7            AND A
6F0B: E4 4F 8E      CALL PO,8E4Fh
6F0E: 35            DEC (HL)
6F0F: 88            ADC A,B
6F10: 30 88         JR NC,loc_6E9A
6F12: 1E EC         LD E,ECh
6F14: A1            AND C
6F15: ED 81         DB EDh,81h
6F17: 5C            LD E,H
6F18: ED 84         DB EDh,84h
6F1A: 6A            LD L,D
6F1B: E4 26 F2      CALL PO,F226h
6F1E: 32 61 39      LD (3961h),A
6F21: 6F            LD L,A
6F22: 29            ADD HL,HL
6F23: 6F            LD L,A
6F24: 2D            DEC L
6F25: 6F            LD L,A
6F26: 31 6F 2D      LD SP,2D6Fh
6F29: 2D            DEC L
6F2A: D8            RET C
6F2B: 2D            DEC L
6F2C: DE 2D         SBC A,2Dh

loc_6F2E:
6F2E: DA 2D E0      JP C,E02Dh
6F31: 2D            DEC L

loc_6F32:
6F32: DC 2D E2      CALL C,E22Dh
6F35: DC 3C 10      CALL C,sub_103C
6F38: 83            ADD A,E
6F39: 0F            RRCA
6F3A: A0            AND B
6F3B: 25            DEC H
6F3C: 25            DEC H
6F3D: B6            OR (HL)
6F3E: 0B            DEC BC
6F3F: AE            XOR (HL)
6F40: 5F            LD E,A
6F41: 1A            LD A,(DE)
6F42: 01 46 25      LD BC,2546h
6F45: 03            INC BC

loc_6F46:
6F46: 5C            LD E,H
6F47: 20 FA         JR NZ,loc_6F43
6F49: 10 8E         DJNZ loc_6ED9
6F4B: 6F            LD L,A
6F4C: 50            LD D,B
6F4D: 58            LD E,B
6F4E: 6E            LD L,(HL)
6F4F: B5            OR L
6F50: 6F            LD L,A
6F51: 62            LD H,D
6F52: 6F            LD L,A
6F53: A7            AND A
6F54: 6F            LD L,A
6F55: 62            LD H,D
6F56: 6F            LD L,A
6F57: 95            SUB L
6F58: 6F            LD L,A
6F59: 62            LD H,D
6F5A: 6F            LD L,A
6F5B: 83            ADD A,E
6F5C: 6F            LD L,A
6F5D: 63            LD H,E
6F5E: 6F            LD L,A
6F5F: 63            LD H,E
6F60: 6F            LD L,A
6F61: 62            LD H,D
6F62: 39            ADD HL,SP
6F63: BD            CP L
6F64: 6F            LD L,A
6F65: BE            CP (HL)
6F66: 2B            DEC HL
6F67: 12            LD (DE),A
6F68: 26 01         LD H,01h
6F6A: 39            ADD HL,SP
6F6B: BE            CP (HL)
6F6C: 0F            RRCA
6F6D: 0A            LD A,(BC)
6F6E: A6            AND (HL)
6F6F: 84            ADD A,H
6F70: 8A            ADC A,D
6F71: 40            LD B,B
6F72: A7            AND A
6F73: 84            ADD A,H
6F74: 86            ADD A,(HL)
6F75: 20 B7         JR NZ,loc_6F2E
6F77: 0F            RRCA
6F78: 0C            INC C
6F79: 39            ADD HL,SP
6F7A: B6            OR (HL)
6F7B: 0B            DEC BC
6F7C: AE            XOR (HL)
6F7D: 8A            ADC A,D
6F7E: 60            LD H,B
6F7F: B7            OR A
6F80: 0B            DEC BC
6F81: AE            XOR (HL)
6F82: 39            ADD HL,SP
6F83: BD            CP L
6F84: 6F            LD L,A
6F85: F4 26 01      CALL P,sub_0126
6F88: 39            ADD HL,SP
6F89: B6            OR (HL)
6F8A: 0B            DEC BC
6F8B: AE            XOR (HL)
6F8C: 8A            ADC A,D
6F8D: 10 B7         DJNZ loc_6F46
6F8F: 0B            DEC BC
6F90: AE            XOR (HL)
6F91: 7F            LD A,A
6F92: 0F            RRCA
6F93: 09            ADD HL,BC
6F94: 39            ADD HL,SP
6F95: BD            CP L
6F96: 6F            LD L,A
6F97: BE            CP (HL)
6F98: 26 01         LD H,01h
6F9A: 39            ADD HL,SP
6F9B: B6            OR (HL)
6F9C: 0B            DEC BC
6F9D: AE            XOR (HL)
6F9E: 8A            ADC A,D
6F9F: 04            INC B
6FA0: B7            OR A
6FA1: 0B            DEC BC
6FA2: AE            XOR (HL)
6FA3: 7F            LD A,A
6FA4: 0F            RRCA
6FA5: 09            ADD HL,BC
6FA6: 39            ADD HL,SP
6FA7: BD            CP L
6FA8: 6F            LD L,A
6FA9: F4 2B 09      CALL P,sub_092B
6FAC: 26 01         LD H,01h
6FAE: 39            ADD HL,SP
6FAF: 86            ADD A,(HL)
6FB0: 20 B7         JR NZ,loc_6F69
6FB2: 0F            RRCA
6FB3: 0C            INC C
6FB4: 39            ADD HL,SP
6FB5: B6            OR (HL)
6FB6: 0B            DEC BC
6FB7: AE            XOR (HL)
6FB8: 8A            ADC A,D
6FB9: 01 B7 0B      LD BC,0BB7h
6FBC: AE            XOR (HL)

loc_6FBD:
6FBD: 39            ADD HL,SP
6FBE: B6            OR (HL)
6FBF: 0F            RRCA
6FC0: 09            ADD HL,BC
6FC1: 2B            DEC HL
6FC2: 0D            DEC C
6FC3: 8A            ADC A,D
6FC4: 80            ADD A,B
6FC5: B7            OR A
6FC6: 0F            RRCA
6FC7: 09            ADD HL,BC
6FC8: 86            ADD A,(HL)
6FC9: 01 B7 0F      LD BC,0FB7h
6FCC: 0C            INC C
6FCD: 7F            LD A,A

loc_6FCE:
6FCE: 0F            RRCA
6FCF: 0D            DEC C
6FD0: 7A            LD A,D
6FD1: 0F            RRCA
6FD2: 0C            INC C
6FD3: 26 14         LD H,14h
6FD5: 7C            LD A,H
6FD6: 0F            RRCA
6FD7: 0D            DEC C
6FD8: B6            OR (HL)
6FD9: 0F            RRCA
6FDA: 0D            DEC C
6FDB: 81            ADD A,C
6FDC: 04            INC B
6FDD: 27            DAA
6FDE: 0C            INC C
6FDF: 24            INC H
6FE0: 0D            DEC C
6FE1: BD            CP L

loc_6FE2:
6FE2: 70            LD (HL),B
6FE3: 2D            DEC L
6FE4: 86            ADD A,(HL)
6FE5: 08            EX AF,AF'
6FE6: B7            OR A
6FE7: 0F            RRCA
6FE8: 0C            INC C
6FE9: 4F            LD C,A
6FEA: 39            ADD HL,SP
6FEB: 86            ADD A,(HL)
6FEC: 7F            LD A,A
6FED: 39            ADD HL,SP
6FEE: 7F            LD A,A
6FEF: 0F            RRCA
6FF0: 09            ADD HL,BC
6FF1: 86            ADD A,(HL)
6FF2: FF            RST 38h
6FF3: 39            ADD HL,SP
6FF4: B6            OR (HL)
6FF5: 0F            RRCA
6FF6: 09            ADD HL,BC
6FF7: 2B            DEC HL
6FF8: 0F            RRCA
6FF9: 8A            ADC A,D
6FFA: 80            ADD A,B
6FFB: B7            OR A
6FFC: 0F            RRCA
6FFD: 09            ADD HL,BC
6FFE: 86            ADD A,(HL)
6FFF: 01 B7 0F      LD BC,0FB7h
7002: 0C            INC C
7003: 86            ADD A,(HL)
7004: 03            INC BC
7005: B7            OR A
7006: 0F            RRCA
7007: 0D            DEC C
7008: 7A            LD A,D
7009: 0F            RRCA
700A: 0C            INC C
700B: 26 12         LD H,12h
700D: 7A            LD A,D
700E: 0F            RRCA
700F: 0D            DEC C
7010: B6            OR (HL)
7011: 0F            RRCA
7012: 0D            DEC C
7013: 2B            DEC HL
7014: 12            LD (DE),A
7015: 27            DAA
7016: 0A            LD A,(BC)
7017: BD            CP L
7018: 70            LD (HL),B
7019: 2D            DEC L
701A: 86            ADD A,(HL)
701B: 08            EX AF,AF'
701C: B7            OR A
701D: 0F            RRCA
701E: 0C            INC C
701F: 4F            LD C,A
7020: 39            ADD HL,SP
7021: BD            CP L
7022: 70            LD (HL),B
7023: 2D            DEC L
7024: 86            ADD A,(HL)
7025: 7F            LD A,A
7026: 39            ADD HL,SP
7027: 7F            LD A,A
7028: 0F            RRCA
7029: 09            ADD HL,BC
702A: 86            ADD A,(HL)
702B: FF            RST 38h
702C: 39            ADD HL,SP
702D: 10 8E         DJNZ loc_6FBD
702F: 70            LD (HL),B
7030: 64            LD H,H
7031: 48            LD C,B
7032: 10 AE         DJNZ loc_6FE2
7034: A6            AND (HL)
7035: 8E            ADC A,(HL)
7036: 30 5E         JR NC,loc_7096
7038: 32 7E 86      LD (867Eh),A
703B: 06 A7         LD B,A7h
703D: E4 86 03      CALL PO,sub_0386
7040: A7            AND A
7041: 61            LD H,C
7042: 86            ADD A,(HL)
7043: 1C            INC E
7044: 30 88         JR NC,loc_6FCE
7046: 18 31         JR loc_7079
7048: 23            INC HL
7049: E6 A0         AND A0h
704B: ED 81         DB EDh,81h
704D: 6A            LD L,D
704E: 61            LD H,C
704F: 26 F8         LD H,F8h
7051: 86            ADD A,(HL)
7052: 5C            LD E,H
7053: 31 3F E6      LD SP,E63Fh
7056: A2            AND D
7057: ED 81         DB EDh,81h
7059: E6 A2         AND A2h
705B: ED 84         DB EDh,84h
705D: 6A            LD L,D
705E: E4 26 DD      CALL PO,DD26h
7061: 32 62 39      LD (3962h),A
7064: 70            LD (HL),B
7065: 69            LD L,C
7066: 70            LD (HL),B
7067: 7B            LD A,E

loc_7068:
7068: 70            LD (HL),B
7069: 8D            ADC A,L
706A: 70            LD (HL),B
706B: 9F            SBC A,A
706C: 61            LD H,C
706D: 62            LD H,D
706E: 63            LD H,E
706F: 66            LD H,(HL)

loc_7070:
7070: 67            LD H,A
7071: 68            LD L,B
7072: 6A            LD L,D
7073: 6B            LD L,E
7074: 6C            LD L,H
7075: 6E            LD L,(HL)
7076: 6F            LD L,A
7077: 70            LD (HL),B
7078: 72            LD (HL),D

loc_7079:
7079: 73            LD (HL),E
707A: 74            LD (HL),H
707B: 76            HALT
707C: 77            LD (HL),A
707D: 78            LD A,B
707E: 7E            LD A,(HL)
707F: 7F            LD A,A
7080: 80            ADD A,B
7081: 83            ADD A,E
7082: 84            ADD A,H
7083: 80            ADD A,B
7084: 87            ADD A,A
7085: 88            ADC A,B
7086: 80            ADD A,B
7087: 8B            ADC A,E
7088: 8C            ADC A,H
7089: 80            ADD A,B
708A: 8F            ADC A,A
708B: 90            SUB B
708C: 80            ADD A,B
708D: 93            SUB E
708E: 94            SUB H
708F: 80            ADD A,B
7090: 81            ADD A,C
7091: 82            ADD A,D
7092: 80            ADD A,B
7093: 85            ADD A,L
7094: 86            ADD A,(HL)
7095: 80            ADD A,B

loc_7096:
7096: 89            ADC A,C
7097: 8A            ADC A,D
7098: 80            ADD A,B
7099: 8D            ADC A,L
709A: 8E            ADC A,(HL)
709B: 80            ADD A,B
709C: 91            SUB C
709D: 92            SUB D
709E: 80            ADD A,B
709F: 95            SUB L
70A0: 96            SUB (HL)
70A1: 80            ADD A,B
70A2: 97            SUB A
70A3: 80            ADD A,B
70A4: 80            ADD A,B
70A5: 98            SBC A,B
70A6: 80            ADD A,B
70A7: 80            ADD A,B
70A8: 99            SBC A,C
70A9: 80            ADD A,B
70AA: 80            ADD A,B
70AB: 9A            SBC A,D
70AC: 80            ADD A,B
70AD: 80            ADD A,B
70AE: 9B            SBC A,E
70AF: 80            ADD A,B
70B0: 80            ADD A,B
70B1: 9C            SBC A,H
70B2: 80            ADD A,B
70B3: 80            ADD A,B
70B4: DC 3C 10      CALL C,sub_103C
70B7: 83            ADD A,E
70B8: 12            LD (DE),A
70B9: 50            LD D,B

loc_70BA:
70BA: 24            INC H
70BB: 06 7F         LD B,7Fh
70BD: 0E FD         LD C,FDh
70BF: BD            CP L
70C0: 71            LD (HL),C
70C1: 24            INC H
70C2: DC 3C 10      CALL C,sub_103C
70C5: 83            ADD A,E
70C6: 13            INC DE
70C7: 00            NOP
70C8: 24            INC H
70C9: 08            EX AF,AF'
70CA: 86            ADD A,(HL)
70CB: 02            LD (BC),A

loc_70CC:
70CC: B7            OR A
70CD: 0E FD         LD C,FDh
70CF: BD            CP L
70D0: 71            LD (HL),C
70D1: 24            INC H
70D2: 96            SUB (HL)
70D3: 38 26         JR C,loc_70FB
70D5: 03            INC BC
70D6: BD            CP L
70D7: 72            LD (HL),D
70D8: 57            LD D,A

loc_70D9:
70D9: DC 3C 10      CALL C,sub_103C
70DC: 83            ADD A,E
70DD: 16 00         LD D,00h
70DF: 24            INC H
70E0: 36 DC         LD (HL),DCh
70E2: 3F            CCF
70E3: 10 83         DJNZ loc_7068
70E5: 02            LD (BC),A
70E6: 28 24         JR Z,loc_710C
70E8: 2E DC         LD L,DCh
70EA: 3C            INC A
70EB: 10 83         DJNZ loc_7070
70ED: 14            INC D
70EE: A0            AND B
70EF: 25            DEC H
70F0: 26 86         LD H,86h
70F2: 02            LD (BC),A
70F3: B7            OR A
70F4: 0E F5         LD C,F5h
70F6: CE 0F         ADC A,0Fh
70F8: 09            ADD HL,BC
70F9: BD            CP L
70FA: 71            LD (HL),C

loc_70FB:
70FB: 73            LD (HL),E
70FC: DC 3C 10      CALL C,sub_103C
70FF: 83            ADD A,E
7100: 15            DEC D
7101: 00            NOP
7102: 25            DEC H
7103: 13            INC DE
7104: FC 0F 0C      CALL M,sub_0C0F
7107: FD            DB FDh ; prefix (nop)
7108: 0F            RRCA
7109: 0A            LD A,(BC)
710A: CE 0E         ADC A,0Eh

loc_710C:
710C: F1            POP AF
710D: 86            ADD A,(HL)
710E: 04            INC B
710F: B7            OR A

loc_7110:
7110: 0E F5         LD C,F5h
7112: BD            CP L
7113: 71            LD (HL),C
7114: 73            LD (HL),E
7115: 20 0B         JR NZ,loc_7122
7117: DC 3C 10      CALL C,sub_103C
711A: 83            ADD A,E
711B: 16 00         LD D,00h
711D: 25            DEC H
711E: 03            INC BC
711F: BD            CP L
7120: 74            LD (HL),H
7121: 96            SUB (HL)

loc_7122:
7122: 35            DEC (HL)
7123: F0            RET P
7124: 96            SUB (HL)
7125: 51            LD D,C
7126: 84            ADD A,H
7127: 07            RLCA
7128: 26 38         LD H,38h
712A: 10 8E         DJNZ loc_70BA
712C: 71            LD (HL),C
712D: 6F            LD L,A
712E: 96            SUB (HL)
712F: 51            LD D,C
7130: 84            ADD A,H
7131: 18 27         JR loc_715A
7133: 0C            INC C
7134: 10 8E         DJNZ loc_70C4
7136: 71            LD (HL),C
7137: 6B            LD L,E
7138: 85            ADD A,L
7139: 08            EX AF,AF'
713A: 27            DAA
713B: 04            INC B
713C: 10 8E         DJNZ loc_70CC
713E: 71            LD (HL),C
713F: 67            LD H,A
7140: 32 7F 86      LD (867Fh),A
7143: 02            LD (BC),A
7144: A7            AND A
7145: E4 4F B6      CALL PO,B64Fh
7148: 0E FD         LD C,FDh
714A: 8E            ADC A,(HL)
714B: 71            LD (HL),C
714C: 63            LD H,E
714D: AE            XOR (HL)
714E: 86            ADD A,(HL)
714F: 30 88         JR NC,loc_70D9
7151: 1C            INC E
7152: EC A1 ED      CALL PE,EDA1h
7155: 81            ADD A,C

loc_7156:
7156: 5C            LD E,H
7157: ED 81         DB EDh,81h
7159: 5C            LD E,H

loc_715A:
715A: ED 84         DB EDh,84h
715C: 6A            LD L,D

loc_715D:
715D: E4 26 EF      CALL PO,EF26h
7160: 32 61 39      LD (3961h),A
7163: 30 44         JR NC,loc_71A9
7165: 30 5E         JR NC,loc_71C5
7167: 1D            DEC E
7168: 46            LD B,(HL)
7169: 1D            DEC E
716A: 49            LD C,C
716B: 1D            DEC E
716C: 4C            LD C,H
716D: 1D            DEC E
716E: 4F            LD C,A

loc_716F:
716F: 1E DB         LD E,DBh
7171: 1E E0         LD E,E0h
7173: A6            AND (HL)
7174: C4 81 FF      CALL NZ,FF81h
7177: 27            DAA
7178: 15            DEC D
7179: 84            ADD A,H
717A: 7F            LD A,A
717B: 81            ADD A,C
717C: 03            INC BC
717D: 24            INC H
717E: 0D            DEC C
717F: 48            LD C,B
7180: 10 8E         DJNZ loc_7110
7182: 71            LD (HL),C
7183: 86            ADD A,(HL)
7184: 6E            LD L,(HL)
7185: B6            OR (HL)
7186: 71            LD (HL),C
7187: 8F            ADC A,A
7188: 71            LD (HL),C
7189: C2 71 EF      JP NZ,EF71h
718C: 6C            LD L,H
718D: C4 39 A6      CALL NZ,A639h
7190: C4 2B 2E      CALL NZ,sub_2E2B
7193: 8A            ADC A,D
7194: 80            ADD A,B
7195: A7            AND A
7196: C4 BD 50      CALL NZ,loc_50BD
7199: 61            LD H,C
719A: 24            INC H
719B: 25            DEC H
719C: EF            RST 28h
719D: 88            ADC A,B
719E: 1D            DEC E
719F: B6            OR (HL)
71A0: 0E F5         LD C,F5h

loc_71A2:
71A2: 10 8E         DJNZ loc_7132
71A4: 72            LD (HL),D
71A5: 24            INC H
71A6: 10 AE         DJNZ loc_7156
71A8: A6            AND (HL)

loc_71A9:
71A9: BD            CP L
71AA: 54            LD D,H
71AB: CD 6F 02      CALL sub_026F
71AE: 86            ADD A,(HL)
71AF: 08            EX AF,AF'
71B0: A7            AND A
71B1: 88            ADC A,B
71B2: 19            ADD HL,DE
71B3: BE            CP (HL)
71B4: 0F            RRCA
71B5: 0A            LD A,(BC)
71B6: A6            AND (HL)
71B7: 84            ADD A,H
71B8: 8A            ADC A,D
71B9: 40            LD B,B
71BA: A7            AND A
71BB: 84            ADD A,H
71BC: 86            ADD A,(HL)
71BD: 2D            DEC L
71BE: BD            CP L
71BF: 64            LD H,H
71C0: 4D            LD C,L
71C1: 39            ADD HL,SP
71C2: A6            AND (HL)
71C3: C4 2B 28      CALL NZ,sub_282B
71C6: 8A            ADC A,D
71C7: 80            ADD A,B
71C8: A7            AND A
71C9: C4 B6 0E      CALL NZ,sub_0EB6
71CC: F5            PUSH AF
71CD: 10 8E         DJNZ loc_715D
71CF: 72            LD (HL),D
71D0: 42            LD B,D
71D1: AE            XOR (HL)
71D2: A6            AND (HL)
71D3: 32 7E 86      LD (867Eh),A
71D6: 05            DEC B
71D7: A7            AND A
71D8: 61            LD H,C
71D9: 86            ADD A,(HL)
71DA: 00            NOP
71DB: C6 06         ADD A,06h
71DD: E7            RST 20h
71DE: E4 A7 80      CALL PO,80A7h
71E1: 6A            LD L,D
71E2: E4 26 FA      CALL PO,FA26h
71E5: 30 88         JR NC,loc_716F
71E7: 1A            LD A,(DE)
71E8: 6A            LD L,D
71E9: 61            LD H,C
71EA: 26 EF         LD H,EFh
71EC: 32 62 39      LD (3962h),A
71EF: A6            AND (HL)
71F0: C4 2B 30      CALL NZ,sub_302B
71F3: 8A            ADC A,D
71F4: 80            ADD A,B
71F5: A7            AND A
71F6: C4 B6 0E      CALL NZ,sub_0EB6
71F9: F5            PUSH AF
71FA: 10 8E         DJNZ loc_718A
71FC: 72            LD (HL),D
71FD: 42            LD B,D
71FE: AE            XOR (HL)
71FF: A6            AND (HL)
7200: 32 7E 86      LD (867Eh),A
7203: 05            DEC B
7204: A7            AND A
7205: 61            LD H,C
7206: 86            ADD A,(HL)
7207: 26 10         LD H,10h
7209: 8E            ADC A,(HL)
720A: 72            LD (HL),D
720B: 48            LD C,B
720C: C6 03         ADD A,03h
720E: E7            RST 20h
720F: E4 E6 A0      CALL PO,A0E6h
7212: ED 81         DB EDh,81h
7214: 6A            LD L,D
7215: E4 26 F8      CALL PO,F826h
7218: 30 88         JR NC,loc_71A2
721A: 1A            LD A,(DE)
721B: 6A            LD L,D
721C: 61            LD H,C
721D: 26 ED         LD H,EDh

sub_721F:
721F: 6C            LD L,H
7220: C4 32 62      CALL NZ,sub_6232
7223: 39            ADD HL,SP
7224: 72            LD (HL),D
7225: 2A 72 32      LD HL,(3272h)
7228: 72            LD (HL),D
7229: 3A 04 28      LD A,(2804h)
722C: 01 3F 01      LD BC,013Fh
722F: 10 2A         DJNZ loc_725B
7231: 0A            LD A,(BC)
7232: 15            DEC D
7233: 77            LD (HL),A
7234: 01 3C 01      LD BC,013Ch
7237: 23            INC HL
7238: 2A 0A 15      LD HL,(150Ah)
723B: C8            RET Z
723C: 01 3C 01      LD BC,013Ch
723F: 23            INC HL
7240: 2A 0A 34      LD HL,(340Ah)
7243: C2 36 AC      JP NZ,AC36h
7246: 36 B6         LD (HL),B6h
7248: 00            NOP
7249: 01 02 04      LD BC,0402h
724C: 05            DEC B
724D: 06 07         LD B,07h
724F: 05            DEC B
7250: 08            EX AF,AF'
7251: 09            ADD HL,BC
7252: 05            DEC B
7253: 0A            LD A,(BC)
7254: 0B            DEC BC
7255: 05            DEC B
7256: 0C            INC C
7257: B6            OR (HL)
7258: 0F            RRCA
7259: 15            DEC D
725A: 84            ADD A,H

loc_725B:
725B: 7F            LD A,A
725C: 48            LD C,B
725D: 10 8E         DJNZ loc_71ED
725F: 72            LD (HL),D
7260: 63            LD H,E
7261: 6E            LD L,(HL)
7262: B6            OR (HL)
7263: 72            LD (HL),D
7264: 6C            LD L,H
7265: 72            LD (HL),D
7266: 99            SBC A,C
7267: 73            LD (HL),E
7268: 28 72         JR Z,loc_72DC
726A: 6B            LD L,E
726B: 39            ADD HL,SP

loc_726C:
726C: B6            OR (HL)
726D: 0F            RRCA
726E: 15            DEC D
726F: 2B            DEC HL
7270: 05            DEC B
7271: B6            OR (HL)
7272: 0F            RRCA
7273: 12            LD (DE),A
7274: 2A 22 10      LD HL,(1022h)
7277: 8E            ADC A,(HL)
7278: 03            INC BC
7279: A2            AND D
727A: 96            SUB (HL)
727B: 29            ADD HL,HL
727C: 85            ADD A,L
727D: 01 27 06      LD BC,0627h
7280: BD            CP L
7281: 74            LD (HL),H
7282: 7D            LD A,L
7283: 4D            LD C,L
7284: 2A 0F 96      LD HL,(960Fh)
7287: 29            ADD HL,HL
7288: 85            ADD A,L
7289: 02            LD (BC),A
728A: 27            DAA
728B: 0C            INC C
728C: 31 A8 5F      LD SP,5FA8h
728F: BD            CP L
7290: 74            LD (HL),H
7291: 7D            LD A,L
7292: 4D            LD C,L
7293: 2B            DEC HL
7294: 03            INC BC
7295: 7C            LD A,H
7296: 0F            RRCA
7297: 15            DEC D
7298: 39            ADD HL,SP
7299: B6            OR (HL)
729A: 0F            RRCA
729B: 15            DEC D
729C: 2B            DEC HL
729D: 50            LD D,B
729E: 10 BE         DJNZ loc_725E
72A0: 0F            RRCA
72A1: 13            INC DE
72A2: A6            AND (HL)
72A3: 22 81 01      LD (0181h),HL
72A6: 26 4F         LD H,4Fh
72A8: A6            AND (HL)
72A9: A8            XOR B
72AA: 19            ADD HL,DE
72AB: 81            ADD A,C
72AC: 01 26 48      LD BC,4826h
72AF: 86            ADD A,(HL)
72B0: 03            INC BC
72B1: A7            AND A
72B2: 22 CC 14      LD (14CCh),HL
72B5: 68            LD L,B
72B6: ED 24         DB EDh,24h
72B8: CC 01 48      CALL Z,sub_4801
72BB: ED 26         DB EDh,26h
72BD: CC 02 77      CALL Z,sub_7702
72C0: ED 08         DB EDh,08h
72C2: 86            ADD A,(HL)
72C3: 18 A7         JR loc_726C
72C5: A8            XOR B
72C6: 17            RLA
72C7: 32 7E 10      LD (107Eh),A
72CA: 8E            ADC A,(HL)
72CB: 72            LD (HL),D
72CC: F8            RET M
72CD: 8E            ADC A,(HL)
72CE: 30 32         JR NC,loc_7302
72D0: 86            ADD A,(HL)
72D1: 04            INC B

loc_72D2:
72D2: A7            AND A
72D3: 61            LD H,C
72D4: 86            ADD A,(HL)
72D5: 06 A7         LD B,A7h
72D7: E4 30 88      CALL PO,8830h
72DA: 14            INC D
72DB: EC A1 ED      CALL PE,EDA1h
72DE: 81            ADD A,C
72DF: 6A            LD L,D
72E0: E4 26 F8      CALL PO,F826h
72E3: 6A            LD L,D
72E4: 61            LD H,C
72E5: 26 ED         LD H,EDh
72E7: 32 62 86      LD (8662h),A
72EA: 7F            LD A,A
72EB: B7            OR A
72EC: 0F            RRCA
72ED: 12            LD (DE),A
72EE: 7C            LD A,H
72EF: 0F            RRCA
72F0: 15            DEC D
72F1: 7F            LD A,A
72F2: 0F            RRCA
72F3: 16 7F         LD D,7Fh
72F5: 0F            RRCA

loc_72F6:
72F6: 17            RLA
72F7: 39            ADD HL,SP
72F8: 36 8E         LD (HL),8Eh
72FA: 32 F3 32      LD (32F3h),A
72FD: F4 36 7B      CALL P,sub_7B36
7300: 32 FB 32      LD (32FBh),A
7303: FC 36 8E      CALL M,8E36h
7306: 32 F5 32      LD (32F5h),A
7309: F6 32         OR 32h

loc_730B:
730B: FD            DB FDh ; prefix (nop)
730C: 32 FE 36      LD (36FEh),A
730F: 85            ADD A,L
7310: 32 F7 32      LD (32F7h),A
7313: F8            RET M
7314: 32 F9 36      LD (36F9h),A
7317: 80            ADD A,B
7318: 36 81         LD (HL),81h
731A: 36 85         LD (HL),85h
731C: 32 FA 36      LD (36FAh),A
731F: 85            ADD A,L
7320: 36 82         LD (HL),82h
7322: 36 83         LD (HL),83h
7324: 36 84         LD (HL),84h
7326: 36 85         LD (HL),85h
7328: 10 BE         DJNZ loc_72E8
732A: 0F            RRCA
732B: 16 A6         LD D,A6h
732D: A4            AND H
732E: 2A 09 A6      LD HL,(A609h)
7331: 88            ADC A,B
7332: 1B            DEC DE
7333: 84            ADD A,H
7334: 7F            LD A,A
7335: 81            ADD A,C
7336: 02            LD (BC),A
7337: 25            DEC H
7338: 7F            LD A,A
7339: BD            CP L
733A: 74            LD (HL),H
733B: 41            LD B,C
733C: 4D            LD C,L
733D: 2B            DEC HL
733E: 7A            LD A,D
733F: 34            INC (HL)
7340: 02            LD (BC),A
7341: 48            LD C,B
7342: 10 8E         DJNZ loc_72D2
7344: 73            LD (HL),E
7345: FB            EI
7346: 10 AE         DJNZ loc_72F6
7348: A6            AND (HL)
7349: 8E            ADC A,(HL)
734A: 2F            CPL
734B: EE 32         XOR 32h
734D: 7E            LD A,(HL)
734E: 86            ADD A,(HL)
734F: 03            INC BC
7350: A7            AND A
7351: 61            LD H,C
7352: 86            ADD A,(HL)
7353: 02            LD (BC),A
7354: A7            AND A
7355: E4 30 88      CALL PO,8830h
7358: 1C            INC E
7359: EC A1 ED      CALL PE,EDA1h
735C: 81            ADD A,C
735D: 6A            LD L,D
735E: E4 26 F8      CALL PO,F826h
7361: 6A            LD L,D
7362: 61            LD H,C
7363: 26 ED         LD H,EDh
7365: 32 62 35      LD (3562h),A
7368: 02            LD (BC),A
7369: 10 BE         DJNZ loc_7329
736B: 0F            RRCA
736C: 16 27         LD D,27h
736E: 04            INC B
736F: E6 A4         AND A4h
7371: 2B            DEC HL
7372: 45            LD B,L
7373: BD            CP L
7374: 50            LD D,B
7375: 61            LD H,C
7376: 24            INC H
7377: 40            LD B,B
7378: A7            AND A
7379: 88            ADC A,B
737A: 1A            LD A,(DE)
737B: 10 8E         DJNZ loc_730B
737D: 73            LD (HL),E
737E: BF            CP A
737F: 48            LD C,B
7380: 10 AE         DJNZ loc_7330
7382: A6            AND (HL)
7383: 34            INC (HL)
7384: 02            LD (BC),A
7385: BD            CP L
7386: 54            LD D,H
7387: CD 35 02      CALL sub_0235
738A: C6 01         ADD A,01h
738C: E7            RST 20h
738D: 88            ADC A,B
738E: 19            ADD HL,DE
738F: 6F            LD L,A
7390: 88            ADC A,B
7391: 18 10         JR loc_73A3
7393: 8E            ADC A,(HL)
7394: 73            LD (HL),E
7395: F1            POP AF
7396: 6F            LD L,A
7397: 0D            DEC C
7398: 6F            LD L,A
7399: 0E C6         LD C,C6h
739B: F4 E7 88      CALL P,88E7h
739E: 11 6F 88      LD DE,886Fh
73A1: 12            LD (DE),A
73A2: E6 A6         AND A6h
73A4: E7            RST 20h
73A5: 0F            RRCA
73A6: 6F            LD L,A
73A7: 88            ADC A,B
73A8: 10 4C         DJNZ loc_73F6
73AA: E6 A6         AND A6h
73AC: E7            RST 20h
73AD: 02            LD (BC),A
73AE: C4 80 E7      CALL NZ,E780h
73B1: 03            INC BC
73B2: 6F            LD L,A
73B3: 88            ADC A,B
73B4: 34            INC (HL)
73B5: BF            CP A
73B6: 0F            RRCA
73B7: 16 39         LD D,39h
73B9: 86            ADD A,(HL)
73BA: 80            ADD A,B
73BB: B7            OR A
73BC: 0F            RRCA
73BD: 15            DEC D
73BE: 39            ADD HL,SP
73BF: 73            LD (HL),E
73C0: C9            RET
73C1: 73            LD (HL),E
73C2: D1            POP DE
73C3: 73            LD (HL),E
73C4: D9            EXX
73C5: 73            LD (HL),E
73C6: E1            POP HL
73C7: 73            LD (HL),E
73C8: E9            JP (HL)
73C9: 14            INC D
73CA: 67            LD H,A
73CB: 01 42 02      LD BC,0242h
73CE: 9D            SBC A,L
73CF: 30 16         JR NC,loc_73E7
73D1: 14            INC D
73D2: 68            LD L,B
73D3: 01 42 02      LD BC,0242h

loc_73D6:
73D6: 9C            SBC A,H
73D7: 30 16         JR NC,loc_73EF
73D9: 14            INC D
73DA: 68            LD L,B
73DB: 01 42 02      LD BC,0242h
73DE: 9B            SBC A,E
73DF: 30 16         JR NC,loc_73F7
73E1: 14            INC D
73E2: 6C            LD L,H
73E3: 01 42 02      LD BC,0242h
73E6: 9C            SBC A,H

loc_73E7:
73E7: 30 16         JR NC,loc_73FF
73E9: 14            INC D
73EA: 6E            LD L,(HL)
73EB: 01 42 02      LD BC,0242h
73EE: 9E            SBC A,(HL)

loc_73EF:
73EF: 30 16         JR NC,loc_7407
73F1: FA 04 FD      JP M,FD04h
73F4: 04            INC B
73F5: 00            NOP

loc_73F6:
73F6: 02            LD (BC),A

loc_73F7:
73F7: 03            INC BC
73F8: 80            ADD A,B
73F9: 06 80         LD B,80h
73FB: 74            LD (HL),H
73FC: 05            DEC B
73FD: 74            LD (HL),H
73FE: 11 74 1D      LD DE,1D74h
7401: 74            LD (HL),H
7402: 29            ADD HL,HL
7403: 74            LD (HL),H
7404: 35            DEC (HL)
7405: 36 94         LD (HL),94h

loc_7407:
7407: 35            DEC (HL)
7408: E4 35 E7      CALL PO,E735h
740B: 35            DEC (HL)
740C: E8            RET PE
740D: 35            DEC (HL)
740E: ED 35         DB EDh,35h
7410: EE 36         XOR 36h
7412: 94            SUB H
7413: 35            DEC (HL)
7414: F3            DI
7415: 35            DEC (HL)
7416: F6 35         OR 35h
7418: F7            RST 30h
7419: 35            DEC (HL)
741A: ED 35         DB EDh,35h
741C: F9            LD SP,HL
741D: 36 94         LD (HL),94h
741F: 35            DEC (HL)
7420: E5            PUSH HL
7421: 35            DEC (HL)
7422: E9            JP (HL)
7423: 35            DEC (HL)
7424: EA 35 EF      JP PE,EF35h
7427: 35            DEC (HL)
7428: F0            RET P
7429: 36 94         LD (HL),94h
742B: 35            DEC (HL)
742C: E6 35         AND 35h
742E: EB            EX DE,HL
742F: 35            DEC (HL)
7430: EC 35 EF      CALL PE,EF35h
7433: 35            DEC (HL)
7434: F1            POP AF
7435: 36 94         LD (HL),94h
7437: 35            DEC (HL)
7438: F2 35 F4      JP P,F435h
743B: 35            DEC (HL)
743C: F5            PUSH AF
743D: 35            DEC (HL)
743E: EF            RST 28h
743F: 35            DEC (HL)
7440: F8            RET M
7441: 96            SUB (HL)
7442: 29            ADD HL,HL
7443: 84            ADD A,H
7444: 03            INC BC
7445: 48            LD C,B
7446: 10 8E         DJNZ loc_73D6
7448: 74            LD (HL),H
7449: 4C            LD C,H
744A: 6E            LD L,(HL)
744B: B6            OR (HL)
744C: 74            LD (HL),H
744D: 54            LD D,H
744E: 74            LD (HL),H
744F: 57            LD D,A
7450: 74            LD (HL),H
7451: 5D            LD E,L
7452: 74            LD (HL),H
7453: 63            LD H,E
7454: 86            ADD A,(HL)
7455: FF            RST 38h
7456: 39            ADD HL,SP
7457: 10 8E         DJNZ loc_73E7
7459: 03            INC BC
745A: A2            AND D
745B: 20 20         JR NZ,loc_747D
745D: 10 8E         DJNZ loc_73ED
745F: 04            INC B
7460: 01 20 1A      LD BC,1A20h
7463: 96            SUB (HL)
7464: 51            LD D,C
7465: 85            ADD A,L
7466: 20 26         JR NZ,loc_748E
7468: 0A            LD A,(BC)
7469: BD            CP L
746A: 74            LD (HL),H
746B: 57            LD D,A
746C: 4D            LD C,L

sub_746D:
746D: 2A 0D BD      LD HL,(BD0Dh)
7470: 74            LD (HL),H
7471: 5D            LD E,L
7472: 39            ADD HL,SP
7473: BD            CP L
7474: 74            LD (HL),H
7475: 5D            LD E,L
7476: 4D            LD C,L
7477: 2A 03 BD      LD HL,(BD03h)
747A: 74            LD (HL),H
747B: 57            LD D,A
747C: 39            ADD HL,SP

loc_747D:
747D: EC 24 83      CALL PE,8324h
7480: 14            INC D
7481: 28 2B         JR Z,loc_74AE
7483: 0F            RRCA
7484: 10 83         DJNZ loc_7409
7486: 00            NOP
7487: 8C            ADC A,H
7488: 24            INC H
7489: 09            ADD HL,BC
748A: 4F            LD C,A

loc_748B:
748B: C0            RET NZ
748C: 1C            INC E
748D: 2B            DEC HL

loc_748E:
748E: 03            INC BC
748F: 4C            LD C,H
7490: 20 F9         JR NZ,loc_748B
7492: 39            ADD HL,SP
7493: 86            ADD A,(HL)
7494: FF            RST 38h
7495: 39            ADD HL,SP
7496: B6            OR (HL)
7497: 0B            DEC BC
7498: AE            XOR (HL)
7499: 8A            ADC A,D
749A: 10 5F         DJNZ loc_74FB

loc_749C:
749C: 47            LD B,A
749D: 25            DEC H
749E: 03            INC BC
749F: 5C            LD E,H
74A0: 20 FA         JR NZ,loc_749C
74A2: 10 8E         DJNZ loc_7432
74A4: 74            LD (HL),H
74A5: A9            XOR C
74A6: 58            LD E,B
74A7: 6E            LD L,(HL)
74A8: B5            OR L
74A9: 74            LD (HL),H
74AA: B3            OR E
74AB: 74            LD (HL),H
74AC: EA 74 B3      JP PE,B374h
74AF: 74            LD (HL),H
74B0: B7            OR A
74B1: 74            LD (HL),H
74B2: B3            OR E
74B3: 7F            LD A,A
74B4: 0F            RRCA
74B5: 09            ADD HL,BC
74B6: 39            ADD HL,SP
74B7: B6            OR (HL)
74B8: 0F            RRCA
74B9: 09            ADD HL,BC
74BA: 2B            DEC HL
74BB: 0D            DEC C
74BC: 8A            ADC A,D
74BD: 80            ADD A,B
74BE: B7            OR A
74BF: 0F            RRCA
74C0: 09            ADD HL,BC
74C1: 86            ADD A,(HL)
74C2: 01 B7 0F      LD BC,0FB7h
74C5: 0A            LD A,(BC)
74C6: 7F            LD A,A
74C7: 0F            RRCA
74C8: 0B            DEC BC
74C9: 7A            LD A,D
74CA: 0F            RRCA
74CB: 0A            LD A,(BC)
74CC: 26 12         LD H,12h
74CE: 7C            LD A,H
74CF: 0F            RRCA
74D0: 0B            DEC BC
74D1: B6            OR (HL)

loc_74D2:
74D2: 0F            RRCA
74D3: 0B            DEC BC
74D4: 81            ADD A,C
74D5: 03            INC BC
74D6: 24            INC H
74D7: 09            ADD HL,BC
74D8: BD            CP L
74D9: 75            LD (HL),L
74DA: 1D            DEC E
74DB: 86            ADD A,(HL)
74DC: 06 B7         LD B,B7h
74DE: 0F            RRCA
74DF: 0A            LD A,(BC)
74E0: 39            ADD HL,SP
74E1: B6            OR (HL)
74E2: 0B            DEC BC
74E3: AE            XOR (HL)
74E4: 8A            ADC A,D
74E5: 04            INC B
74E6: B7            OR A
74E7: 0B            DEC BC
74E8: AE            XOR (HL)
74E9: 39            ADD HL,SP
74EA: B6            OR (HL)
74EB: 0F            RRCA
74EC: 09            ADD HL,BC
74ED: 2B            DEC HL
74EE: 0F            RRCA
74EF: 8A            ADC A,D
74F0: 80            ADD A,B
74F1: B7            OR A
74F2: 0F            RRCA
74F3: 09            ADD HL,BC
74F4: 86            ADD A,(HL)
74F5: 01 B7 0F      LD BC,0FB7h
74F8: 0A            LD A,(BC)
74F9: 86            ADD A,(HL)
74FA: 02            LD (BC),A

loc_74FB:
74FB: B7            OR A
74FC: 0F            RRCA
74FD: 0B            DEC BC
74FE: 7A            LD A,D
74FF: 0F            RRCA
7500: 0A            LD A,(BC)
7501: 26 10         LD H,10h
7503: 7A            LD A,D
7504: 0F            RRCA
7505: 0B            DEC BC
7506: B6            OR (HL)
7507: 0F            RRCA
7508: 0B            DEC BC
7509: 2B            DEC HL
750A: 09            ADD HL,BC
750B: BD            CP L
750C: 75            LD (HL),L
750D: 1D            DEC E
750E: 86            ADD A,(HL)
750F: 06 B7         LD B,B7h
7511: 0F            RRCA
7512: 0A            LD A,(BC)
7513: 39            ADD HL,SP
7514: B6            OR (HL)
7515: 0B            DEC BC
7516: AE            XOR (HL)
7517: 8A            ADC A,D
7518: 01 B7 0B      LD BC,0BB7h
751B: AE            XOR (HL)
751C: 39            ADD HL,SP
751D: 10 8E         DJNZ loc_74AD
751F: 75            LD (HL),L
7520: 4A            LD C,D
7521: 48            LD C,B
7522: 10 AE         DJNZ loc_74D2
7524: A6            AND (HL)
7525: 32 7E 86      LD (867Eh),A
7528: 05            DEC B
7529: A7            AND A
752A: E4 8E 33      CALL PO,sub_338E
752D: FA 30 88      JP M,8830h
7530: 1C            INC E
7531: 86            ADD A,(HL)
7532: 77            LD (HL),A
7533: E6 A0         AND A0h
7535: ED 81         DB EDh,81h
7537: E7            RST 20h
7538: 61            LD H,C
7539: E6 A0         AND A0h
753B: ED 81         DB EDh,81h
753D: 86            ADD A,(HL)
753E: 37            SCF
753F: E6 61         AND 61h
7541: ED 84         DB EDh,84h
7543: 6A            LD L,D
7544: E4 26 E7      CALL PO,E726h
7547: 32 62 39      LD (3962h),A
754A: 75            LD (HL),L
754B: 50            LD D,B
754C: 75            LD (HL),L
754D: 5A            LD E,D
754E: 75            LD (HL),L
754F: 64            LD H,H
7550: 4F            LD C,A
7551: 4E            LD C,(HL)
7552: 52            LD D,D
7553: 51            LD D,C

loc_7554:
7554: 55            LD D,L
7555: 54            LD D,H
7556: 58            LD E,B
7557: 57            LD D,A
7558: 5B            LD E,E
7559: 5A            LD E,D
755A: 50            LD D,B
755B: 5C            LD E,H
755C: 53            LD D,E
755D: 5C            LD E,H
755E: 56            LD D,(HL)
755F: 5C            LD E,H
7560: 59            LD E,C
7561: 5C            LD E,H
7562: 5D            LD E,L
7563: 5C            LD E,H
7564: 5C            LD E,H
7565: 5C            LD E,H
7566: 5C            LD E,H
7567: 5C            LD E,H
7568: 5C            LD E,H
7569: 5C            LD E,H
756A: 5C            LD E,H
756B: 5C            LD E,H
756C: 5C            LD E,H
756D: 5C            LD E,H
756E: A6            AND (HL)
756F: 88            ADC A,B
7570: 1B            DEC DE
7571: 2B            DEC HL
7572: 4D            LD C,L
7573: 8A            ADC A,D
7574: 80            ADD A,B
7575: A7            AND A
7576: 88            ADC A,B
7577: 1B            DEC DE
7578: B6            OR (HL)
7579: 0F            RRCA
757A: 82            ADD A,D
757B: 2B            DEC HL
757C: 53            LD D,E
757D: 8A            ADC A,D
757E: 80            ADD A,B
757F: B7            OR A
7580: 0F            RRCA

loc_7581:
7581: 82            ADD A,D
7582: 6F            LD L,A
7583: 88            ADC A,B
7584: 59            LD E,C
7585: 6F            LD L,A
7586: 88            ADC A,B
7587: 5B            LD E,E
7588: 6F            LD L,A
7589: 88            ADC A,B
758A: 5D            LD E,L
758B: 6F            LD L,A
758C: 88            ADC A,B
758D: 5F            LD E,A
758E: 6F            LD L,A
758F: 88            ADC A,B
7590: 19            ADD HL,DE
7591: 6F            LD L,A
7592: 88            ADC A,B
7593: 18 EC         JR loc_7581

loc_7595:
7595: 04            INC B
7596: FD            DB FDh ; prefix (nop)
7597: 0F            RRCA
7598: 7E            LD A,(HL)
7599: EC 06 FD      CALL PE,FD06h
759C: 0F            RRCA
759D: 80            ADD A,B

loc_759E:
759E: FC 0F 36      CALL M,sub_360F
75A1: FD            DB FDh ; prefix (nop)
75A2: 0F            RRCA
75A3: 86            ADD A,(HL)
75A4: BD            CP L
75A5: 49            LD C,C
75A6: D4 10 8E      CALL NC,8E10h
75A9: 75            LD (HL),L
75AA: CA 84 03      JP Z,sub_0384
75AD: E6 A6         AND A6h
75AF: F7            RST 30h
75B0: 0F            RRCA
75B1: 8C            ADC A,H
75B2: BD            CP L
75B3: 49            LD C,C
75B4: D4 10 8E      CALL NC,8E10h
75B7: 75            LD (HL),L
75B8: CE 84         ADC A,84h
75BA: 01 E6 A6      LD BC,A6E6h
75BD: F7            RST 30h
75BE: 0F            RRCA
75BF: 8D            ADC A,L
75C0: A6            AND (HL)
75C1: 88            ADC A,B
75C2: 18 48         JR loc_760C
75C4: 10 8E         DJNZ loc_7554
75C6: 75            LD (HL),L
75C7: D9            EXX
75C8: 6E            LD L,(HL)
75C9: B6            OR (HL)
75CA: 20 30         JR NZ,loc_75FC
75CC: 40            LD B,B
75CD: 50            LD D,B
75CE: 0C            INC C
75CF: 14            INC D
75D0: 86            ADD A,(HL)
75D1: 00            NOP
75D2: A7            AND A
75D3: 88            ADC A,B
75D4: 1B            DEC DE
75D5: 6F            LD L,A
75D6: 88            ADC A,B
75D7: 57            LD D,A
75D8: 39            ADD HL,SP
75D9: 75            LD (HL),L
75DA: F5            PUSH AF
75DB: 76            HALT
75DC: 53            LD D,E
75DD: 76            HALT
75DE: 87            ADD A,A

loc_75DF:
75DF: 77            LD (HL),A
75E0: D7            RST 10h
75E1: 75            LD (HL),L
75E2: F5            PUSH AF
75E3: 76            HALT
75E4: 53            LD D,E
75E5: 77            LD (HL),A
75E6: 82            ADD A,D
75E7: 76            HALT
75E8: A1            AND C
75E9: 77            LD (HL),A
75EA: 8C            ADC A,H
75EB: 76            HALT
75EC: EE 77         XOR 77h
75EE: 82            ADD A,D
75EF: 77            LD (HL),A
75F0: 4E            LD C,(HL)
75F1: 77            LD (HL),A
75F2: 8C            ADC A,H
75F3: 77            LD (HL),A
75F4: A2            AND D
75F5: A6            AND (HL)
75F6: 88            ADC A,B
75F7: 5F            LD E,A
75F8: 81            ADD A,C
75F9: 03            INC BC
75FA: 27            DAA
75FB: 4D            LD C,L

loc_75FC:
75FC: 6F            LD L,A
75FD: 88            ADC A,B
75FE: 19            ADD HL,DE
75FF: 86            ADD A,(HL)
7600: 7E            LD A,(HL)
7601: AA            XOR D
7602: 03            INC BC
7603: A7            AND A
7604: 02            LD (BC),A
7605: 10 8E         DJNZ loc_7595
7607: 04            INC B
7608: 60            LD H,B
7609: 6D            LD L,L
760A: A4            AND H
760B: 2A 09 31      LD HL,(3109h)
760E: A8            XOR B
760F: 63            LD H,E
7610: 10 8C         DJNZ loc_759E
7612: 07            RLCA
7613: 78            LD A,B

loc_7614:
7614: 26 F3         LD H,F3h
7616: 4F            LD C,A
7617: E6 86         AND 86h
7619: E7            RST 20h
761A: A6            AND (HL)
761B: 4C            LD C,H
761C: 81            ADD A,C
761D: 63            LD H,E
761E: 26 F7         LD H,F7h
7620: 86            ADD A,(HL)
7621: 80            ADD A,B
7622: A7            AND A
7623: A4            AND H
7624: 6F            LD L,A
7625: A8            XOR B
7626: 1B            DEC DE
7627: 33            INC SP
7628: 88            ADC A,B
7629: 59            LD E,C
762A: A6            AND (HL)
762B: 88            ADC A,B
762C: 5F            LD E,A
762D: 48            LD C,B
762E: 10 AF         DJNZ loc_75DF
7630: C6 A6         ADD A,A6h
7632: 03            INC BC
7633: 2B            DEC HL
7634: 09            ADD HL,BC
7635: EC 04 C3      CALL PE,C304h
7638: 00            NOP
7639: 08            EX AF,AF'
763A: ED 04         DB EDh,04h
763C: 20 07         JR NZ,loc_7645
763E: EC 04 83      CALL PE,8304h
7641: 00            NOP
7642: 08            EX AF,AF'
7643: ED 04         DB EDh,04h

loc_7645:
7645: 6C            LD L,H
7646: 88            ADC A,B
7647: 5F            LD E,A
7648: 39            ADD HL,SP
7649: 6F            LD L,A
764A: 88            ADC A,B
764B: 19            ADD HL,DE
764C: 6F            LD L,A
764D: 88            ADC A,B
764E: 5F            LD E,A
764F: 6C            LD L,H
7650: 88            ADC A,B
7651: 18 39         JR loc_768C
7653: A6            AND (HL)
7654: 88            ADC A,B
7655: 5F            LD E,A
7656: 81            ADD A,C
7657: 03            INC BC
7658: 27            DAA
7659: 13            INC DE
765A: 6F            LD L,A
765B: 88            ADC A,B
765C: 19            ADD HL,DE
765D: 31 88 59      LD SP,5988h
7660: A6            AND (HL)
7661: 88            ADC A,B
7662: 5F            LD E,A
7663: 48            LD C,B
7664: 10 AE         DJNZ loc_7614
7666: A6            AND (HL)
7667: 6F            LD L,A
7668: A4            AND H
7669: 6C            LD L,H
766A: 88            ADC A,B
766B: 5F            LD E,A

loc_766C:
766C: 39            ADD HL,SP
766D: 86            ADD A,(HL)
766E: 7F            LD A,A
766F: A7            AND A
7670: 02            LD (BC),A
7671: 6F            LD L,A
7672: 88            ADC A,B
7673: 19            ADD HL,DE
7674: 6F            LD L,A
7675: 88            ADC A,B
7676: 5F            LD E,A
7677: 6C            LD L,H
7678: 88            ADC A,B
7679: 18 B6         JR loc_7631
767B: 0F            RRCA
767C: 82            ADD A,D
767D: 84            ADD A,H
767E: 40            LD B,B
767F: 27            DAA
7680: EB            EX DE,HL
7681: 86            ADD A,(HL)
7682: 0D            DEC C
7683: ED 88         DB EDh,88h
7685: 18 39         JR loc_76C0
7687: A6            AND (HL)
7688: 88            ADC A,B
7689: 19            ADD HL,DE
768A: B1            OR C
768B: 0F            RRCA

loc_768C:
768C: 8C            ADC A,H
768D: 27            DAA
768E: 05            DEC B
768F: 6C            LD L,H
7690: 88            ADC A,B
7691: 19            ADD HL,DE
7692: 20 D8         JR NZ,loc_766C
7694: 6F            LD L,A
7695: 88            ADC A,B
7696: 19            ADD HL,DE
7697: 6C            LD L,H
7698: 88            ADC A,B
7699: 18 6F         JR loc_770A
769B: 88            ADC A,B
769C: 5F            LD E,A
769D: 6F            LD L,A
769E: 88            ADC A,B
769F: 19            ADD HL,DE
76A0: 39            ADD HL,SP
76A1: A6            AND (HL)
76A2: 88            ADC A,B
76A3: 5F            LD E,A
76A4: 81            ADD A,C
76A5: 01 26 0C      LD BC,0C26h
76A8: A6            AND (HL)
76A9: 88            ADC A,B
76AA: 19            ADD HL,DE
76AB: 81            ADD A,C
76AC: 10 27         DJNZ loc_76D5
76AE: 11 6C 88      LD DE,886Ch
76B1: 19            ADD HL,DE
76B2: 20 2B         JR NZ,loc_76DF
76B4: A6            AND (HL)
76B5: 88            ADC A,B
76B6: 19            ADD HL,DE
76B7: 81            ADD A,C
76B8: 03            INC BC
76B9: 27            DAA
76BA: 05            DEC B
76BB: 6C            LD L,H
76BC: 88            ADC A,B
76BD: 19            ADD HL,DE
76BE: 20 1F         JR NZ,loc_76DF

loc_76C0:
76C0: 6F            LD L,A
76C1: 88            ADC A,B
76C2: 19            ADD HL,DE
76C3: A6            AND (HL)
76C4: 88            ADC A,B
76C5: 5F            LD E,A
76C6: 81            ADD A,C
76C7: 0A            LD A,(BC)
76C8: 27            DAA
76C9: 16 BD         LD D,BDh
76CB: 78            LD A,B
76CC: 63            LD H,E
76CD: 86            ADD A,(HL)
76CE: 09            ADD HL,BC
76CF: A0            AND B
76D0: 88            ADC A,B
76D1: 5F            LD E,A
76D2: E6 03         AND 03h
76D4: C1            POP BC

loc_76D5:
76D5: 80            ADD A,B
76D6: 27            DAA
76D7: 02            LD (BC),A
76D8: 8A            ADC A,D
76D9: 80            ADD A,B
76DA: A7            AND A
76DB: 02            LD (BC),A
76DC: 6C            LD L,H
76DD: 88            ADC A,B
76DE: 5F            LD E,A

loc_76DF:
76DF: 39            ADD HL,SP
76E0: 6F            LD L,A
76E1: 88            ADC A,B
76E2: 5F            LD E,A
76E3: 6F            LD L,A
76E4: 88            ADC A,B
76E5: 19            ADD HL,DE
76E6: 86            ADD A,(HL)
76E7: 7F            LD A,A
76E8: A7            AND A
76E9: 02            LD (BC),A
76EA: 6C            LD L,H
76EB: 88            ADC A,B
76EC: 18 39         JR loc_7727
76EE: A6            AND (HL)
76EF: 88            ADC A,B
76F0: 19            ADD HL,DE
76F1: 6F            LD L,A
76F2: 88            ADC A,B
76F3: 19            ADD HL,DE
76F4: A6            AND (HL)
76F5: 88            ADC A,B

loc_76F6:
76F6: 5F            LD E,A
76F7: B1            OR C
76F8: 0F            RRCA
76F9: 8D            ADC A,L
76FA: 24            INC H
76FB: 3A 84 03      LD A,(0384h)
76FE: 81            ADD A,C
76FF: 03            INC BC
7700: 27            DAA
7701: 11 10 BE      LD DE,BE10h
7704: 0F            RRCA
7705: 86            ADD A,(HL)
7706: A6            AND (HL)
7707: 88            ADC A,B
7708: 59            LD E,C
7709: A7            AND A

loc_770A:
770A: 21 86 04      LD HL,0486h
770D: AA            XOR D
770E: 23            INC HL
770F: A7            AND A
7710: 22 20 1F      LD (1F20h),HL
7713: 10 BE         DJNZ loc_76D3
7715: 0F            RRCA
7716: 86            ADD A,(HL)
7717: A6            AND (HL)
7718: 88            ADC A,B
7719: 5B            LD E,E
771A: A7            AND A
771B: 21 A6 A8      LD HL,A8A6h
771E: 1F            RRA
771F: 80            ADD A,B
7720: 04            INC B
7721: 24            INC H
7722: 01 4F A7      LD BC,A74Fh
7725: A8            XOR B
7726: 1F            RRA

loc_7727:
7727: 86            ADD A,(HL)
7728: 11 BD 64      LD DE,64BDh
772B: 4D            LD C,L
772C: 86            ADD A,(HL)
772D: 0F            RRCA
772E: AA            XOR D
772F: 23            INC HL
7730: A7            AND A
7731: 22 6C 88      LD (886Ch),HL
7734: 5F            LD E,A
7735: 39            ADD HL,SP
7736: 10 BE         DJNZ loc_76F6
7738: 0F            RRCA
7739: 86            ADD A,(HL)
773A: A6            AND (HL)
773B: 88            ADC A,B
773C: 59            LD E,C
773D: A7            AND A
773E: 01 A6 88      LD BC,88A6h
7741: 5B            LD E,E
7742: A7            AND A
7743: 21 6F 88      LD HL,886Fh
7746: 5F            LD E,A
7747: 6F            LD L,A
7748: 88            ADC A,B
7749: 19            ADD HL,DE
774A: 6C            LD L,H
774B: 88            ADC A,B
774C: 18 39         JR loc_7787
774E: A6            AND (HL)
774F: 88            ADC A,B
7750: 19            ADD HL,DE
7751: 81            ADD A,C
7752: 03            INC BC
7753: 27            DAA
7754: 05            DEC B

loc_7755:
7755: 6C            LD L,H
7756: 88            ADC A,B
7757: 19            ADD HL,DE
7758: 20 1D         JR NZ,loc_7777
775A: 6F            LD L,A
775B: 88            ADC A,B
775C: 19            ADD HL,DE
775D: A6            AND (HL)
775E: 88            ADC A,B
775F: 5F            LD E,A
7760: 81            ADD A,C
7761: 0A            LD A,(BC)
7762: 27            DAA
7763: 14            INC D
7764: BD            CP L
7765: 78            LD A,B
7766: 63            LD H,E
7767: A6            AND (HL)
7768: 88            ADC A,B
7769: 5F            LD E,A
776A: E6 03         AND 03h
776C: C1            POP BC
776D: 80            ADD A,B
776E: 27            DAA

loc_776F:
776F: 02            LD (BC),A
7770: 8A            ADC A,D
7771: 80            ADD A,B
7772: A7            AND A
7773: 02            LD (BC),A
7774: 6C            LD L,H
7775: 88            ADC A,B
7776: 5F            LD E,A

loc_7777:
7777: 39            ADD HL,SP
7778: 6F            LD L,A
7779: 88            ADC A,B
777A: 5F            LD E,A
777B: 6F            LD L,A
777C: 88            ADC A,B
777D: 19            ADD HL,DE
777E: 6C            LD L,H
777F: 88            ADC A,B
7780: 18 39         JR loc_77BB
7782: A6            AND (HL)
7783: 01 80 06      LD BC,0680h
7786: A7            AND A

loc_7787:
7787: 01 6C 88      LD BC,886Ch
778A: 18 39         JR loc_77C5
778C: A6            AND (HL)
778D: 01 8B 06      LD BC,068Bh
7790: A7            AND A
7791: 01 A7 88      LD BC,88A7h
7794: 59            LD E,C
7795: 10 BE         DJNZ loc_7755

loc_7797:
7797: 0F            RRCA
7798: 86            ADD A,(HL)
7799: A6            AND (HL)
779A: 21 A7 88      LD HL,88A7h
779D: 5B            LD E,E
779E: 6C            LD L,H
779F: 88            ADC A,B
77A0: 18 39         JR loc_77DB
77A2: 86            ADD A,(HL)
77A3: 04            INC B
77A4: AA            XOR D
77A5: 03            INC BC
77A6: A7            AND A
77A7: 02            LD (BC),A
77A8: B6            OR (HL)
77A9: 0F            RRCA
77AA: 82            ADD A,D
77AB: 84            ADD A,H
77AC: 40            LD B,B
77AD: 26 0E         LD H,0Eh
77AF: 10 BE         DJNZ loc_776F
77B1: 0F            RRCA
77B2: 86            ADD A,(HL)
77B3: 86            ADD A,(HL)
77B4: 01 A7 A8      LD BC,A8A7h
77B7: 1B            DEC DE
77B8: 86            ADD A,(HL)
77B9: 01 A7 A8      LD BC,A8A7h
77BC: 22 86 00      LD (0086h),HL
77BF: A7            AND A
77C0: 88            ADC A,B
77C1: 1B            DEC DE
77C2: 4F            LD C,A
77C3: 5F            LD E,A
77C4: ED 88         DB EDh,88h
77C6: 59            LD E,C
77C7: ED 88         DB EDh,88h
77C9: 5B            LD E,E
77CA: ED 88         DB EDh,88h
77CC: 5D            LD E,L
77CD: 7F            LD A,A
77CE: 0F            RRCA
77CF: 82            ADD A,D
77D0: 7F            LD A,A
77D1: 0F            RRCA
77D2: 86            ADD A,(HL)
77D3: 6F            LD L,A
77D4: 88            ADC A,B
77D5: 57            LD D,A
77D6: 39            ADD HL,SP
77D7: 10 BE         DJNZ loc_7797
77D9: 0F            RRCA
77DA: 86            ADD A,(HL)

loc_77DB:
77DB: A6            AND (HL)
77DC: A4            AND H
77DD: 2A 5D A6      LD HL,(A65Dh)
77E0: A8            XOR B
77E1: 1B            DEC DE
77E2: 84            ADD A,H
77E3: 7F            LD A,A
77E4: 81            ADD A,C
77E5: 05            DEC B
77E6: 27            DAA
77E7: 54            LD D,H
77E8: 81            ADD A,C
77E9: 01 27 50      LD BC,5027h
77EC: A6            AND (HL)
77ED: A8            XOR B
77EE: 15            DEC D
77EF: 85            ADD A,L
77F0: 40            LD B,B
77F1: 26 49         LD H,49h
77F3: 10 8C         DJNZ loc_7781
77F5: 03            INC BC
77F6: A2            AND D
77F7: 26 07         LD H,07h
77F9: B6            OR (HL)
77FA: 0F            RRCA
77FB: 82            ADD A,D
77FC: 8A            ADC A,D
77FD: 02            LD (BC),A
77FE: 20 05         JR NZ,loc_7805
7800: B6            OR (HL)
7801: 0F            RRCA
7802: 82            ADD A,D
7803: 8A            ADC A,D
7804: 01 B7 0F      LD BC,0FB7h
7807: 82            ADD A,D
7808: EC 26 ED      CALL PE,ED26h
780B: 06 CC         LD B,CCh
780D: 01 20 ED      LD BC,ED20h
7810: 08            EX AF,AF'
7811: A6            AND (HL)
7812: 23            INC HL
7813: 2B            DEC HL
7814: 0F            RRCA
7815: EC 24 83      CALL PE,8324h
7818: 00            NOP
7819: 48            LD C,B
781A: ED 04         DB EDh,04h
781C: 86            ADD A,(HL)
781D: 04            INC B
781E: A7            AND A
781F: 02            LD (BC),A
7820: 6F            LD L,A
7821: 03            INC BC
7822: 20 0F         JR NZ,loc_7833
7824: EC 24 C3      CALL PE,C324h
7827: 00            NOP
7828: 48            LD C,B
7829: ED 04         DB EDh,04h
782B: 86            ADD A,(HL)
782C: 84            ADD A,H
782D: A7            AND A
782E: 02            LD (BC),A
782F: 86            ADD A,(HL)
7830: 80            ADD A,B
7831: A7            AND A
7832: 03            INC BC

loc_7833:
7833: 86            ADD A,(HL)

loc_7834:
7834: 3C            INC A
7835: BD            CP L
7836: 64            LD H,H
7837: 4D            LD C,L
7838: 6C            LD L,H
7839: 88            ADC A,B
783A: 18 39         JR loc_7875
783C: A6            AND (HL)
783D: 03            INC BC
783E: 2B            DEC HL
783F: 0A            LD A,(BC)
7840: FC 0F 7E      CALL M,sub_7E0F
7843: 83            ADD A,E
7844: 00            NOP
7845: 20 ED         JR NZ,loc_7834
7847: 04            INC B
7848: 20 08         JR NZ,loc_7852
784A: FC 0F 7E      CALL M,sub_7E0F
784D: C3 00 20      JP loc_2000
7850: ED 04         DB EDh,04h

loc_7852:
7852: FC 0F 80      CALL M,800Fh
7855: ED 06         DB EDh,06h
7857: B6            OR (HL)
7858: 0F            RRCA
7859: 82            ADD A,D
785A: 8A            ADC A,D
785B: 40            LD B,B
785C: B7            OR A
785D: 0F            RRCA
785E: 82            ADD A,D
785F: 6C            LD L,H
7860: 88            ADC A,B
7861: 18 39         JR loc_789C
7863: 10 BE         DJNZ loc_7823
7865: 0F            RRCA
7866: 86            ADD A,(HL)
7867: EC 26 ED      CALL PE,ED26h
786A: 06 CC         LD B,CCh
786C: 01 20 ED      LD BC,ED20h
786F: 08            EX AF,AF'
7870: A6            AND (HL)
7871: 23            INC HL

loc_7872:
7872: A7            AND A
7873: 03            INC BC
7874: 2B            DEC HL

loc_7875:
7875: 09            ADD HL,BC
7876: EC 24 83      CALL PE,8324h
7879: 00            NOP

loc_787A:
787A: 30 ED         JR NC,loc_7869
787C: 04            INC B
787D: 20 07         JR NZ,loc_7886
787F: EC 24 C3      CALL PE,C324h
7882: 00            NOP
7883: 30 ED         JR NC,loc_7872
7885: 04            INC B

loc_7886:
7886: 39            ADD HL,SP
7887: 96            SUB (HL)
7888: 26 27         LD H,27h
788A: 1E 34         LD E,34h
788C: 7E            LD A,(HL)
788D: 96            SUB (HL)
788E: 36 26         LD (HL),26h
7890: 16 96         LD D,96h
7892: 4B            LD C,E
7893: 27            DAA
7894: 12            LD (DE),A
7895: BD            CP L
7896: 78            LD A,B
7897: AF            XOR A
7898: BD            CP L
7899: 79            LD A,C
789A: 83            ADD A,E
789B: BD            CP L

loc_789C:
789C: 7A            LD A,D
789D: 76            HALT
789E: BD            CP L
789F: 7B            LD A,E
78A0: 5F            LD E,A
78A1: BD            CP L
78A2: 7C            LD A,H
78A3: 2D            DEC L
78A4: BD            CP L
78A5: 7C            LD A,H
78A6: 53            LD D,E
78A7: 35            DEC (HL)
78A8: FE 7F         CP 7Fh
78AA: 0F            RRCA
78AB: 1C            INC E
78AC: 0F            RRCA
78AD: 4B            LD C,E
78AE: 39            ADD HL,SP
78AF: 8E            ADC A,(HL)
78B0: 04            INC B

loc_78B1:
78B1: 60            LD H,B
78B2: BD            CP L
78B3: 78            LD A,B
78B4: B9            CP C
78B5: BD            CP L
78B6: 78            LD A,B
78B7: E0            RET PO
78B8: 39            ADD HL,SP
78B9: A6            AND (HL)
78BA: 88            ADC A,B
78BB: 31 2B 21      LD SP,212Bh
78BE: 8A            ADC A,D
78BF: 80            ADD A,B
78C0: A7            AND A
78C1: 88            ADC A,B
78C2: 31 86 C1      LD SP,C186h
78C5: A7            AND A
78C6: 84            ADD A,H
78C7: CC 00 40      CALL Z,loc_4000
78CA: ED 04         DB EDh,04h
78CC: CC 01 20      CALL Z,sub_2001
78CF: ED 06         DB EDh,06h
78D1: CC 03 00      CALL Z,sub_0003
78D4: ED 08         DB EDh,08h
78D6: 86            ADD A,(HL)
78D7: 00            NOP
78D8: A7            AND A
78D9: 88            ADC A,B
78DA: 1B            DEC DE
78DB: 86            ADD A,(HL)
78DC: 1F            RRA
78DD: A7            AND A
78DE: 01 39 A6      LD BC,A639h
78E1: 84            ADD A,H
78E2: 2A 14 A6      LD HL,(A614h)
78E5: 88            ADC A,B
78E6: 1B            DEC DE
78E7: 84            ADD A,H
78E8: 7F            LD A,A
78E9: 48            LD C,B
78EA: 10 8E         DJNZ loc_787A
78EC: 78            LD A,B
78ED: F9            LD SP,HL
78EE: AD            XOR L
78EF: B6            OR (HL)
78F0: A6            AND (HL)
78F1: 88            ADC A,B
78F2: 22 2B 03      LD (032Bh),HL
78F5: BD            CP L
78F6: FF            RST 38h
78F7: 10 39         DJNZ loc_7932
78F9: 79            LD A,C
78FA: 05            DEC B
78FB: 79            LD A,C
78FC: 30 79         JR NC,loc_7977
78FE: 68            LD L,B
78FF: 79            LD A,C
7900: 05            DEC B
7901: 79            LD A,C
7902: 05            DEC B
7903: 79            LD A,C
7904: 0A            LD A,(BC)
7905: 86            ADD A,(HL)
7906: 08            EX AF,AF'
7907: A7            AND A
7908: 02            LD (BC),A
7909: 39            ADD HL,SP
790A: A6            AND (HL)
790B: 88            ADC A,B
790C: 1B            DEC DE
790D: 2B            DEC HL
790E: 0E 8A         LD C,8Ah
7910: 80            ADD A,B
7911: A7            AND A
7912: 88            ADC A,B
7913: 1B            DEC DE
7914: 86            ADD A,(HL)
7915: 01 A7 02      LD BC,02A7h
7918: 86            ADD A,(HL)
7919: 08            EX AF,AF'
791A: A7            AND A
791B: 88            ADC A,B
791C: 19            ADD HL,DE
791D: 6A            LD L,D
791E: 88            ADC A,B
791F: 19            ADD HL,DE
7920: 26 0D         LD H,0Dh
7922: 86            ADD A,(HL)
7923: 01 A7 88      LD BC,88A7h
7926: 19            ADD HL,DE
7927: 6F            LD L,A
7928: 88            ADC A,B
7929: 18 86         JR loc_78B1
792B: 01 A7 88      LD BC,88A7h
792E: 1B            DEC DE
792F: 39            ADD HL,SP
7930: 6A            LD L,D
7931: 88            ADC A,B

loc_7932:
7932: 19            ADD HL,DE
7933: 26 19         LD H,19h
7935: 6C            LD L,H
7936: 88            ADC A,B
7937: 18 A6         JR loc_78DF
7939: 88            ADC A,B
793A: 18 81         JR loc_78BD
793C: 03            INC BC
793D: 24            INC H
793E: 10 48         DJNZ loc_7988
7940: 10 8E         DJNZ loc_78D0
7942: 79            LD A,C
7943: 62            LD H,D
7944: E6 A6         AND A6h
7946: E7            RST 20h
7947: 02            LD (BC),A
7948: 4C            LD C,H
7949: E6 A6         AND A6h
794B: A7            AND A
794C: 88            ADC A,B
794D: 19            ADD HL,DE
794E: 39            ADD HL,SP
794F: 86            ADD A,(HL)
7950: 02            LD (BC),A
7951: A7            AND A
7952: 88            ADC A,B
7953: 1B            DEC DE
7954: 86            ADD A,(HL)
7955: 08            EX AF,AF'
7956: A7            AND A
7957: 88            ADC A,B
7958: 19            ADD HL,DE
7959: 86            ADD A,(HL)
795A: 05            DEC B
795B: A7            AND A
795C: 88            ADC A,B
795D: 18 6F         JR loc_79CE
795F: 88            ADC A,B

loc_7960:
7960: 22 39 00      LD (0039h),HL
7963: 00            NOP
7964: 02            LD (BC),A
7965: 06 1A         LD B,1Ah
7967: 06 6A         LD B,6Ah
7969: 88            ADC A,B
796A: 19            ADD HL,DE
796B: 26 12         LD H,12h
796D: 6A            LD L,D
796E: 88            ADC A,B
796F: 18 27         JR loc_7998
7971: 0E A6         LD C,A6h
7973: 88            ADC A,B
7974: 22 88 80      LD (8088h),HL

loc_7977:
7977: A7            AND A
7978: 88            ADC A,B
7979: 22 86 08      LD (0886h),HL
797C: A7            AND A
797D: 88            ADC A,B
797E: 19            ADD HL,DE
797F: 39            ADD HL,SP
7980: 6F            LD L,A
7981: 84            ADD A,H
7982: 39            ADD HL,SP
7983: 8E            ADC A,(HL)
7984: 04            INC B

loc_7985:
7985: C3 BD 79      JP loc_79BD

loc_7988:
7988: 90            SUB B
7989: BD            CP L
798A: FB            EI
798B: 58            LD E,B
798C: BD            CP L
798D: 79            LD A,C
798E: CA 39 A6      JP Z,A639h

loc_7991:
7991: 88            ADC A,B
7992: 31 10 2B      LD SP,2B10h
7995: 00            NOP
7996: 32 8A 80      LD (808Ah),A
7999: A7            AND A
799A: 88            ADC A,B
799B: 31 86 C1      LD SP,C186h
799E: A7            AND A
799F: 84            ADD A,H
79A0: CC 00 A0      CALL Z,A000h
79A3: ED 04         DB EDh,04h
79A5: CC 01 20      CALL Z,sub_2001

loc_79A8:
79A8: ED 06         DB EDh,06h
79AA: CC 03 00      CALL Z,sub_0003
79AD: ED 08         DB EDh,08h
79AF: 86            ADD A,(HL)
79B0: 00            NOP
79B1: A7            AND A
79B2: 88            ADC A,B

loc_79B3:
79B3: 1B            DEC DE
79B4: 86            ADD A,(HL)
79B5: 02            LD (BC),A
79B6: A7            AND A
79B7: 01 86 C0      LD BC,C086h
79BA: A7            AND A
79BB: 0D            DEC C

loc_79BC:
79BC: 86            ADD A,(HL)

loc_79BD:
79BD: 20 A7         JR NZ,loc_7966
79BF: 88            ADC A,B
79C0: 19            ADD HL,DE
79C1: 6F            LD L,A
79C2: 0E 7F         LD C,7Fh
79C4: 0F            RRCA
79C5: 07            RLCA
79C6: 7F            LD A,A
79C7: 0F            RRCA
79C8: 08            EX AF,AF'
79C9: 39            ADD HL,SP
79CA: A6            AND (HL)
79CB: 88            ADC A,B
79CC: 1B            DEC DE

loc_79CD:
79CD: 84            ADD A,H

loc_79CE:
79CE: 7F            LD A,A
79CF: 48            LD C,B
79D0: 10 8E         DJNZ loc_7960
79D2: 79            LD A,C
79D3: DA AD B6      JP C,B6ADh
79D6: BD            CP L
79D7: FF            RST 38h
79D8: 10 39         DJNZ loc_7A13
79DA: 79            LD A,C
79DB: E4 00 00      CALL PO,sub_0000

loc_79DE:
79DE: 00            NOP
79DF: 00            NOP
79E0: 7A            LD A,D
79E1: 04            INC B
79E2: 7A            LD A,D
79E3: 2F            CPL

loc_79E4:
79E4: 86            ADD A,(HL)
79E5: 84            ADD A,H
79E6: A7            AND A
79E7: 02            LD (BC),A
79E8: 6A            LD L,D
79E9: 88            ADC A,B
79EA: 19            ADD HL,DE
79EB: 26 16         LD H,16h
79ED: 86            ADD A,(HL)
79EE: 04            INC B
79EF: A7            AND A
79F0: 88            ADC A,B
79F1: 1B            DEC DE
79F2: 86            ADD A,(HL)
79F3: 9F            SBC A,A
79F4: A7            AND A
79F5: 02            LD (BC),A
79F6: 86            ADD A,(HL)
79F7: 02            LD (BC),A
79F8: A7            AND A
79F9: 88            ADC A,B
79FA: 19            ADD HL,DE
79FB: 6F            LD L,A
79FC: 88            ADC A,B
79FD: 18 86         JR loc_7985
79FF: 05            DEC B
7A00: A7            AND A
7A01: 88            ADC A,B
7A02: 1A            LD A,(DE)
7A03: 39            ADD HL,SP
7A04: 6A            LD L,D
7A05: 88            ADC A,B

loc_7A06:
7A06: 19            ADD HL,DE
7A07: 26 1D         LD H,1Dh
7A09: 6C            LD L,H
7A0A: 88            ADC A,B
7A0B: 18 A6         JR loc_79B3
7A0D: 88            ADC A,B
7A0E: 18 81         JR loc_7991
7A10: 04            INC B
7A11: 25            DEC H
7A12: 04            INC B

loc_7A13:
7A13: 4F            LD C,A
7A14: 6F            LD L,A
7A15: 88            ADC A,B
7A16: 18 48         JR loc_7A60
7A18: 10 8E         DJNZ loc_79A8
7A1A: 7A            LD A,D
7A1B: 27            DAA
7A1C: E6 A6         AND A6h
7A1E: E7            RST 20h
7A1F: 02            LD (BC),A
7A20: 4C            LD C,H
7A21: E6 A6         AND A6h
7A23: E7            RST 20h
7A24: 88            ADC A,B
7A25: 19            ADD HL,DE
7A26: 39            ADD HL,SP
7A27: 04            INC B
7A28: 04            INC B
7A29: 05            DEC B
7A2A: 04            INC B
7A2B: 06 04         LD B,04h
7A2D: 07            RLCA
7A2E: 04            INC B
7A2F: 6A            LD L,D
7A30: 88            ADC A,B
7A31: 19            ADD HL,DE
7A32: 26 2D         LD H,2Dh
7A34: 6C            LD L,H
7A35: 88            ADC A,B
7A36: 18 A6         JR loc_79DE
7A38: 88            ADC A,B
7A39: 18 81         JR loc_79BC
7A3B: 02            LD (BC),A
7A3C: 25            DEC H
7A3D: 16 6A         LD D,6Ah
7A3F: 88            ADC A,B
7A40: 1A            LD A,(DE)
7A41: 27            DAA
7A42: 1F            RRA
7A43: 6F            LD L,A
7A44: 88            ADC A,B
7A45: 18 86         JR loc_79CD
7A47: 30 BD         JR NC,loc_7A06
7A49: 64            LD H,H
7A4A: 4D            LD C,L
7A4B: B6            OR (HL)
7A4C: 0F            RRCA
7A4D: 07            RLCA
7A4E: 8A            ADC A,D
7A4F: 80            ADD A,B
7A50: B7            OR A
7A51: 0F            RRCA
7A52: 07            RLCA
7A53: 4F            LD C,A
7A54: 10 8E         DJNZ loc_79E4
7A56: 7A            LD A,D
7A57: 74            LD (HL),H
7A58: E6 A6         AND A6h
7A5A: E7            RST 20h
7A5B: 02            LD (BC),A
7A5C: 86            ADD A,(HL)
7A5D: 02            LD (BC),A
7A5E: A7            AND A
7A5F: 88            ADC A,B

loc_7A60:
7A60: 19            ADD HL,DE
7A61: 39            ADD HL,SP
7A62: 86            ADD A,(HL)
7A63: 00            NOP
7A64: A7            AND A
7A65: 88            ADC A,B
7A66: 1B            DEC DE
7A67: 86            ADD A,(HL)
7A68: 80            ADD A,B
7A69: A7            AND A
7A6A: 02            LD (BC),A
7A6B: 86            ADD A,(HL)
7A6C: FF            RST 38h
7A6D: A7            AND A
7A6E: 88            ADC A,B
7A6F: 19            ADD HL,DE
7A70: 6F            LD L,A
7A71: 88            ADC A,B
7A72: 18 39         JR loc_7AAD
7A74: 9F            SBC A,A

sub_7A75:
7A75: A0            AND B
7A76: CE 05         ADC A,05h
7A78: 89            ADC A,C
7A79: 8E            ADC A,(HL)
7A7A: 05            DEC B
7A7B: 26 BD         LD H,BDh
7A7D: 7A            LD A,D
7A7E: 8D            ADC A,L
7A7F: BD            CP L
7A80: FB            EI
7A81: 58            LD E,B
7A82: 1E 31         LD E,31h
7A84: BD            CP L
7A85: FB            EI
7A86: 58            LD E,B
7A87: 1E 13         LD E,13h
7A89: BD            CP L
7A8A: 7A            LD A,D
7A8B: D0            RET NC
7A8C: 39            ADD HL,SP
7A8D: A6            AND (HL)

loc_7A8E:
7A8E: 88            ADC A,B
7A8F: 31 2B 3D      LD SP,3D2Bh
7A92: 8A            ADC A,D
7A93: 80            ADD A,B
7A94: A7            AND A
7A95: 88            ADC A,B
7A96: 31 86 C1      LD SP,C186h
7A99: A7            AND A
7A9A: 84            ADD A,H
7A9B: A7            AND A
7A9C: C4 CC 00      CALL NZ,loc_00CC
7A9F: B0            OR B
7AA0: ED 04         DB EDh,04h
7AA2: C3 00 20      JP loc_2000
7AA5: ED 44         NEG
7AA7: CC 01 40      CALL Z,loc_4001
7AAA: ED 06         DB EDh,06h
7AAC: ED 46         IM 0
7AAE: CC 03 00      CALL Z,sub_0003
7AB1: ED 08         DB EDh,08h
7AB3: ED 48         IN C,(C)
7AB5: 86            ADD A,(HL)
7AB6: 07            RLCA
7AB7: A7            AND A
7AB8: 01 86 0B      LD BC,0B86h
7ABB: A7            AND A
7ABC: 41            LD B,C
7ABD: 86            ADD A,(HL)
7ABE: 00            NOP
7ABF: A7            AND A
7AC0: 88            ADC A,B
7AC1: 1B            DEC DE
7AC2: A7            AND A
7AC3: C8            RET Z
7AC4: 1B            DEC DE
7AC5: 6F            LD L,A

loc_7AC6:
7AC6: 0E 6F         LD C,6Fh
7AC8: 4E            LD C,(HL)
7AC9: 86            ADD A,(HL)
7ACA: 85            ADD A,L
7ACB: A7            AND A
7ACC: 02            LD (BC),A
7ACD: A7            AND A
7ACE: 42            LD B,D
7ACF: 39            ADD HL,SP
7AD0: A6            AND (HL)
7AD1: 88            ADC A,B
7AD2: 1B            DEC DE
7AD3: 27            DAA
7AD4: 71            LD (HL),C
7AD5: 2B            DEC HL

loc_7AD6:
7AD6: 22 8A 80      LD (808Ah),HL
7AD9: A7            AND A
7ADA: 88            ADC A,B
7ADB: 1B            DEC DE
7ADC: 86            ADD A,(HL)
7ADD: 08            EX AF,AF'
7ADE: A7            AND A
7ADF: 0E A7         LD C,A7h
7AE1: 4E            LD C,(HL)
7AE2: 86            ADD A,(HL)
7AE3: 04            INC B
7AE4: A7            AND A
7AE5: 02            LD (BC),A
7AE6: A7            AND A
7AE7: 42            LD B,D
7AE8: A7            AND A
7AE9: 88            ADC A,B
7AEA: 19            ADD HL,DE
7AEB: A7            AND A
7AEC: C8            RET Z
7AED: 19            ADD HL,DE
7AEE: 86            ADD A,(HL)
7AEF: 40            LD B,B
7AF0: A7            AND A
7AF1: 0D            DEC C
7AF2: A7            AND A
7AF3: 4D            LD C,L
7AF4: 86            ADD A,(HL)
7AF5: 08            EX AF,AF'
7AF6: A7            AND A
7AF7: 88            ADC A,B
7AF8: 22 6A 88      LD (886Ah),HL
7AFB: 22 26 19      LD (1926h),HL
7AFE: 10 8E         DJNZ loc_7A8E
7B00: 04            INC B
7B01: C3 86 03      JP sub_0386
7B04: A7            AND A
7B05: A8            XOR B
7B06: 1B            DEC DE
7B07: 86            ADD A,(HL)
7B08: 40            LD B,B
7B09: A7            AND A
7B0A: 2D            DEC L
7B0B: 86            ADD A,(HL)
7B0C: 08            EX AF,AF'
7B0D: A7            AND A
7B0E: 2E 86         LD L,86h
7B10: 01 A7 A8      LD BC,A8A7h
7B13: 19            ADD HL,DE
7B14: 6F            LD L,A
7B15: A8            XOR B
7B16: 18 6A         JR loc_7B82
7B18: 88            ADC A,B
7B19: 19            ADD HL,DE
7B1A: 26 1D         LD H,1Dh
7B1C: 6C            LD L,H
7B1D: 88            ADC A,B
7B1E: 18 A6         JR loc_7AC6
7B20: 88            ADC A,B
7B21: 18 81         JR loc_7AA4
7B23: 04            INC B
7B24: 25            DEC H
7B25: 04            INC B
7B26: 6F            LD L,A
7B27: 88            ADC A,B
7B28: 18 4F         JR loc_7B79
7B2A: 10 8E         DJNZ loc_7ABA
7B2C: 7B            LD A,E
7B2D: 42            LD B,D
7B2E: E6 A6         AND A6h
7B30: E7            RST 20h
7B31: 02            LD (BC),A
7B32: E7            RST 20h
7B33: 42            LD B,D

loc_7B34:
7B34: 86            ADD A,(HL)
7B35: 04            INC B

sub_7B36:
7B36: A7            AND A
7B37: 88            ADC A,B
7B38: 19            ADD HL,DE
7B39: BD            CP L
7B3A: FF            RST 38h
7B3B: 10 1F         DJNZ loc_7B5C
7B3D: 31 BD FF      LD SP,FFBDh
7B40: 10 39         DJNZ loc_7B7B
7B42: 04            INC B
7B43: 05            DEC B
7B44: 06 07         LD B,07h
7B46: 10 8E         DJNZ loc_7AD6
7B48: 04            INC B
7B49: 60            LD H,B
7B4A: A6            AND (HL)
7B4B: A4            AND H
7B4C: 2B            DEC HL
7B4D: 08            EX AF,AF'
7B4E: 86            ADD A,(HL)
7B4F: 03            INC BC
7B50: A7            AND A
7B51: 88            ADC A,B
7B52: 1B            DEC DE
7B53: A7            AND A
7B54: C8            RET Z
7B55: 1B            DEC DE
7B56: BD            CP L
7B57: FF            RST 38h
7B58: 10 1F         DJNZ loc_7B79
7B5A: 31 BD FF      LD SP,FFBDh
7B5D: 10 39         DJNZ loc_7B98
7B5F: B6            OR (HL)
7B60: 0F            RRCA
7B61: 07            RLCA
7B62: 27            DAA
7B63: 0D            DEC C
7B64: 2A 08 86      LD HL,(8608h)
7B67: 7F            LD A,A
7B68: B7            OR A
7B69: 0F            RRCA
7B6A: 07            RLCA
7B6B: BD            CP L
7B6C: 7B            LD A,E
7B6D: 72            LD (HL),D
7B6E: BD            CP L
7B6F: 7B            LD A,E

loc_7B70:
7B70: CB 39         SRL C

loc_7B72:
7B72: 8E            ADC A,(HL)
7B73: 08            EX AF,AF'
7B74: D7            RST 10h

loc_7B75:
7B75: A6            AND (HL)
7B76: 84            ADD A,H
7B77: 2A 05 30      LD HL,(3005h)
7B7A: 88            ADC A,B

loc_7B7B:
7B7B: 24            INC H
7B7C: 20 F7         JR NZ,loc_7B75
7B7E: 86            ADD A,(HL)
7B7F: 81            ADD A,C
7B80: A7            AND A
7B81: 84            ADD A,H

loc_7B82:
7B82: 86            ADD A,(HL)
7B83: 03            INC BC
7B84: A7            AND A
7B85: 02            LD (BC),A
7B86: 86            ADD A,(HL)
7B87: C0            RET NZ
7B88: A7            AND A
7B89: 0D            DEC C
7B8A: 86            ADD A,(HL)
7B8B: 30 A7         JR NC,loc_7B34
7B8D: 0E CC         LD C,CCh
7B8F: 00            NOP
7B90: 80            ADD A,B
7B91: ED 04         DB EDh,04h
7B93: CC 01 20      CALL Z,sub_2001
7B96: ED 06         DB EDh,06h

loc_7B98:
7B98: CC 03 29      CALL Z,sub_2903
7B9B: ED 08         DB EDh,08h
7B9D: 86            ADD A,(HL)
7B9E: 20 A7         JR NZ,loc_7B47
7BA0: 01 6F 88      LD BC,886Fh
7BA3: 1B            DEC DE
7BA4: 10 8E         DJNZ loc_7B34
7BA6: 08            EX AF,AF'
7BA7: B3            OR E
7BA8: A6            AND (HL)
7BA9: A4            AND H
7BAA: 2B            DEC HL
7BAB: 1E 86         LD E,86h
7BAD: 80            ADD A,B
7BAE: A7            AND A
7BAF: A4            AND H
7BB0: 6F            LD L,A
7BB1: 22 86 02      LD (0286h),HL
7BB4: A7            AND A
7BB5: A8            XOR B
7BB6: 19            ADD HL,DE
7BB7: CC 00 80      CALL Z,8000h
7BBA: ED 24         DB EDh,24h
7BBC: CC 01 20      CALL Z,sub_2001
7BBF: ED 26         DB EDh,26h
7BC1: CC 03 29      CALL Z,sub_2903
7BC4: ED 28         DB EDh,28h
7BC6: 86            ADD A,(HL)
7BC7: 20 A7         JR NZ,loc_7B70
7BC9: 21 39 8E      LD HL,8E39h
7BCC: 08            EX AF,AF'
7BCD: D7            RST 10h

loc_7BCE:
7BCE: A6            AND (HL)
7BCF: 84            ADD A,H
7BD0: 2A 52 A6      LD HL,(A652h)
7BD3: 88            ADC A,B
7BD4: 1B            DEC DE
7BD5: 26 46         LD H,46h
7BD7: BD            CP L
7BD8: FB            EI
7BD9: 58            LD E,B
7BDA: EC 04 10      CALL PE,sub_1004
7BDD: 83            ADD A,E
7BDE: 00            NOP
7BDF: 40            LD B,B
7BE0: 24            INC H
7BE1: 43            LD B,E
7BE2: 10 8E         DJNZ loc_7B72
7BE4: 04            INC B
7BE5: 60            LD H,B
7BE6: 86            ADD A,(HL)
7BE7: 05            DEC B
7BE8: A7            AND A
7BE9: A8            XOR B
7BEA: 1B            DEC DE
7BEB: 86            ADD A,(HL)

loc_7BEC:
7BEC: FF            RST 38h
7BED: A7            AND A
7BEE: 88            ADC A,B
7BEF: 1B            DEC DE

loc_7BF0:
7BF0: CC 00 40      CALL Z,loc_4000
7BF3: ED 04         DB EDh,04h
7BF5: BD            CP L
7BF6: 49            LD C,C
7BF7: D4 84 07      CALL NC,sub_0784
7BFA: 1F            RRA
7BFB: 89            ADC A,C

loc_7BFC:
7BFC: 4F            LD C,A
7BFD: E3            EX (SP),HL
7BFE: 04            INC B
7BFF: ED 04         DB EDh,04h
7C01: EC 06 83      CALL PE,8306h
7C04: 00            NOP
7C05: 01 ED 06      LD BC,06EDh
7C08: BD            CP L
7C09: 49            LD C,C
7C0A: D4 84 07      CALL NC,sub_0784
7C0D: 1F            RRA
7C0E: 89            ADC A,C
7C0F: 4F            LD C,A
7C10: E3            EX (SP),HL
7C11: 08            EX AF,AF'
7C12: ED 08         DB EDh,08h
7C14: 86            ADD A,(HL)
7C15: 05            DEC B
7C16: A7            AND A
7C17: 02            LD (BC),A
7C18: 86            ADD A,(HL)
7C19: 02            LD (BC),A
7C1A: A7            AND A
7C1B: 88            ADC A,B
7C1C: 19            ADD HL,DE
7C1D: 6A            LD L,D
7C1E: 88            ADC A,B
7C1F: 19            ADD HL,DE
7C20: 26 03         LD H,03h
7C22: 6F            LD L,A
7C23: 84            ADD A,H
7C24: 39            ADD HL,SP
7C25: BD            CP L
7C26: FF            RST 38h
7C27: 10 30         DJNZ loc_7C59
7C29: 88            ADC A,B
7C2A: 24            INC H
7C2B: 20 A1         JR NZ,loc_7BCE
7C2D: 8E            ADC A,(HL)

loc_7C2E:
7C2E: 08            EX AF,AF'
7C2F: B3            OR E
7C30: A6            AND (HL)
7C31: 84            ADD A,H
7C32: 2A 06 BD      LD HL,(BD06h)
7C35: 7C            LD A,H
7C36: 3B            DEC SP
7C37: BD            CP L

loc_7C38:
7C38: FF            RST 38h
7C39: 10 39         DJNZ loc_7C74
7C3B: 6A            LD L,D
7C3C: 88            ADC A,B
7C3D: 19            ADD HL,DE
7C3E: 26 0D         LD H,0Dh
7C40: 6C            LD L,H
7C41: 02            LD (BC),A
7C42: A6            AND (HL)
7C43: 02            LD (BC),A
7C44: 81            ADD A,C
7C45: 03            INC BC
7C46: 24            INC H
7C47: 06 86         LD B,86h
7C49: 02            LD (BC),A
7C4A: A7            AND A
7C4B: 88            ADC A,B
7C4C: 19            ADD HL,DE
7C4D: 39            ADD HL,SP
7C4E: 6A            LD L,D
7C4F: 02            LD (BC),A
7C50: 6F            LD L,A
7C51: 84            ADD A,H
7C52: 39            ADD HL,SP
7C53: FC 04 C7      CALL M,C704h
7C56: 10 83         DJNZ loc_7BDB
7C58: 01 10 25      LD BC,2510h
7C5B: 1F            RRA
7C5C: 10 8E         DJNZ loc_7BEC
7C5E: 04            INC B
7C5F: 60            LD H,B
7C60: 6F            LD L,A
7C61: A0            AND B
7C62: 10 8C         DJNZ loc_7BF0
7C64: 06 4F         LD B,4Fh
7C66: 25            DEC H
7C67: F8            RET M
7C68: 10 8E         DJNZ loc_7BF8
7C6A: 08            EX AF,AF'
7C6B: B3            OR E
7C6C: 6F            LD L,A
7C6D: A0            AND B
7C6E: 10 8C         DJNZ loc_7BFC
7C70: 09            ADD HL,BC
7C71: AF            XOR A
7C72: 25            DEC H
7C73: F8            RET M

loc_7C74:
7C74: 86            ADD A,(HL)
7C75: 00            NOP
7C76: 97            SUB A
7C77: 4B            LD C,E
7C78: 7F            LD A,A
7C79: 0F            RRCA
7C7A: 1C            INC E
7C7B: 39            ADD HL,SP

loc_7C7C:
7C7C: 96            SUB (HL)
7C7D: 36 81         LD (HL),81h
7C7F: 03            INC BC
7C80: 27            DAA
7C81: 11 86 02      LD DE,0286h
7C84: 97            SUB A
7C85: 36 86         LD (HL),86h
7C87: 07            RLCA
7C88: 97            SUB A
7C89: 4F            LD C,A
7C8A: 86            ADD A,(HL)
7C8B: 02            LD (BC),A
7C8C: 97            SUB A
7C8D: 4B            LD C,E
7C8E: 86            ADD A,(HL)
7C8F: 01 BD FE      LD BC,FEBDh
7C92: 23            INC HL
7C93: 8E            ADC A,(HL)
7C94: 04            INC B
7C95: 60            LD H,B
7C96: 4F            LD C,A
7C97: 97            SUB A
7C98: 00            NOP
7C99: 96            SUB (HL)
7C9A: 00            NOP

loc_7C9B:
7C9B: C6 09         ADD A,09h
7C9D: 3D            DEC A
7C9E: 10 8E         DJNZ loc_7C2E
7CA0: 7D            LD A,L
7CA1: 3C            INC A

loc_7CA2:
7CA2: 96            SUB (HL)
7CA3: 36 81         LD (HL),81h
7CA5: 03            INC BC
7CA6: 26 04         LD H,04h
7CA8: 10 8E         DJNZ loc_7C38
7CAA: 7D            LD A,L
7CAB: 4E            LD C,(HL)
7CAC: 31 A5 A6      LD SP,A6A5h
7CAF: A0            AND B
7CB0: A7            AND A
7CB1: 84            ADD A,H
7CB2: A6            AND (HL)
7CB3: A0            AND B
7CB4: A7            AND A
7CB5: 01 A6 A0      LD BC,A0A6h
7CB8: A7            AND A
7CB9: 88            ADC A,B
7CBA: 17            RLA
7CBB: EC A1 ED      CALL PE,EDA1h
7CBE: 04            INC B
7CBF: EC A1 ED      CALL PE,EDA1h
7CC2: 06 EC         LD B,ECh
7CC4: A4            AND H
7CC5: ED 08         DB EDh,08h
7CC7: 4F            LD C,A
7CC8: A7            AND A
7CC9: 88            ADC A,B
7CCA: 1B            DEC DE
7CCB: 30 88         JR NC,loc_7C55
7CCD: 63            LD H,E
7CCE: 0C            INC C
7CCF: 00            NOP
7CD0: 96            SUB (HL)
7CD1: 00            NOP
7CD2: 81            ADD A,C
7CD3: 02            LD (BC),A
7CD4: 25            DEC H
7CD5: C3 10 8E      JP 8E10h
7CD8: 7D            LD A,L
7CD9: 2C            INC L
7CDA: 96            SUB (HL)
7CDB: 36 81         LD (HL),81h
7CDD: 03            INC BC
7CDE: 26 02         LD H,02h
7CE0: 31 24 EC      LD SP,EC24h
7CE3: A1            AND C
7CE4: FD            DB FDh ; prefix (nop)
7CE5: 0B            DEC BC
7CE6: 1C            INC E
7CE7: EC A4 FD      CALL PE,FDA4h
7CEA: 0B            DEC BC
7CEB: 1F            RRA
7CEC: 10 8E         DJNZ loc_7C7C
7CEE: 7D            LD A,L
7CEF: 34            INC (HL)
7CF0: 96            SUB (HL)
7CF1: 36 81         LD (HL),81h

loc_7CF3:
7CF3: 03            INC BC
7CF4: 26 02         LD H,02h
7CF6: 31 24 EC      LD SP,EC24h
7CF9: A1            AND C
7CFA: FD            DB FDh ; prefix (nop)
7CFB: 03            INC BC
7CFC: A6            AND (HL)
7CFD: EC A4 FD      CALL PE,FDA4h
7D00: 04            INC B
7D01: 05            DEC B
7D02: BD            CP L
7D03: FF            RST 38h
7D04: 08            EX AF,AF'
7D05: 96            SUB (HL)
7D06: 36 81         LD (HL),81h
7D08: 03            INC BC
7D09: 27            DAA
7D0A: 1A            LD A,(DE)
7D0B: 10 8E         DJNZ loc_7C9B
7D0D: 18 00         JR loc_7D0F

loc_7D0F:
7D0F: CC 00 00      CALL Z,sub_0000
7D12: ED A1         CPI
7D14: 10 8C         DJNZ loc_7CA2
7D16: 20 00         JR NZ,loc_7D18

loc_7D18:
7D18: 25            DEC H
7D19: F8            RET M
7D1A: BD            CP L
7D1B: 5D            LD E,L
7D1C: F5            PUSH AF
7D1D: BD            CP L
7D1E: 62            LD H,D
7D1F: 3D            DEC A
7D20: 86            ADD A,(HL)
7D21: 01 BD 5D      LD BC,5DBDh
7D24: 19            ADD HL,DE
7D25: CC 03 00      CALL Z,sub_0003
7D28: FD            DB FDh ; prefix (nop)
7D29: 0F            RRCA
7D2A: 3B            DEC SP
7D2B: 39            ADD HL,SP
7D2C: 09            ADD HL,BC
7D2D: C0            RET NZ
7D2E: 01 80 13      LD BC,1380h
7D31: 10 03         DJNZ loc_7D36
7D33: 00            NOP
7D34: 0A            LD A,(BC)
7D35: 00            NOP

loc_7D36:
7D36: 0A            LD A,(BC)
7D37: 20 13         JR NZ,loc_7D4C
7D39: 50            LD D,B
7D3A: 13            INC DE
7D3B: 70            LD (HL),B
7D3C: C1            POP BC
7D3D: 0A            LD A,(BC)
7D3E: 08            EX AF,AF'
7D3F: 0A            LD A,(BC)
7D40: 28 00         JR Z,loc_7D42

loc_7D42:
7D42: B8            CP B
7D43: 01 00 C1      LD BC,C100h
7D46: 08            EX AF,AF'
7D47: 06 0A         LD B,0Ah
7D49: 58            LD E,B
7D4A: 00            NOP
7D4B: A0            AND B

loc_7D4C:
7D4C: 01 00 C1      LD BC,C100h
7D4F: 07            RLCA
7D50: 05            DEC B
7D51: 13            INC DE
7D52: 68            LD L,B
7D53: 01 80 02      LD BC,0280h

loc_7D56:
7D56: 00            NOP
7D57: C1            POP BC
7D58: 07            RLCA
7D59: 05            DEC B

loc_7D5A:
7D5A: 13            INC DE
7D5B: C8            RET Z
7D5C: 01 80 02      LD BC,0280h
7D5F: 00            NOP
7D60: 4F            LD C,A
7D61: 97            SUB A
7D62: 00            NOP
7D63: 10 8E         DJNZ loc_7CF3
7D65: 18 00         JR loc_7D67

loc_7D67:
7D67: 4F            LD C,A
7D68: 97            SUB A
7D69: 01 CC 00      LD BC,00CCh
7D6C: 57            LD D,A
7D6D: ED A1         CPI
7D6F: 0C            INC C
7D70: 01 96 01      LD BC,0196h
7D73: 81            ADD A,C
7D74: 20 25         JR NZ,loc_7D9B
7D76: F3            DI
7D77: 86            ADD A,(HL)
7D78: 04            INC B
7D79: BD            CP L
7D7A: FE 23         CP 23h

loc_7D7C:
7D7C: 0C            INC C
7D7D: 00            NOP
7D7E: 96            SUB (HL)
7D7F: 00            NOP
7D80: 81            ADD A,C
7D81: 20 25         JR NZ,loc_7DA8
7D83: E3            EX (SP),HL
7D84: 86            ADD A,(HL)
7D85: 20 BD         JR NZ,loc_7D44
7D87: FE 23         CP 23h
7D89: 4F            LD C,A
7D8A: 97            SUB A
7D8B: 00            NOP
7D8C: B6            OR (HL)

loc_7D8D:
7D8D: 38 02         JR C,loc_7D91
7D8F: 84            ADD A,H
7D90: 08            EX AF,AF'

loc_7D91:
7D91: 27            DAA
7D92: F9            LD SP,HL
7D93: 8E            ADC A,(HL)
7D94: 3C            INC A
7D95: 80            ADD A,B
7D96: 10 8E         DJNZ loc_7D26
7D98: 3E 80         LD A,80h
7D9A: A6            AND (HL)

loc_7D9B:
7D9B: 84            ADD A,H
7D9C: 84            ADD A,H
7D9D: F0            RET P
7D9E: 80            ADD A,B
7D9F: 10 24         DJNZ loc_7DC5
7DA1: 01 4F 97      LD BC,974Fh
7DA4: 02            LD (BC),A
7DA5: A6            AND (HL)
7DA6: 84            ADD A,H
7DA7: 84            ADD A,H

loc_7DA8:
7DA8: 0F            RRCA
7DA9: 80            ADD A,B
7DAA: 01 24 01      LD BC,0124h
7DAD: 4F            LD C,A
7DAE: 97            SUB A
7DAF: 03            INC BC
7DB0: 96            SUB (HL)
7DB1: 02            LD (BC),A
7DB2: 9A            SBC A,D
7DB3: 03            INC BC
7DB4: A7            AND A
7DB5: 80            ADD A,B
7DB6: A6            AND (HL)
7DB7: A4            AND H
7DB8: 84            ADD A,H
7DB9: 0F            RRCA
7DBA: 80            ADD A,B

loc_7DBB:
7DBB: 01 24 01      LD BC,0124h
7DBE: 4F            LD C,A
7DBF: A7            AND A
7DC0: A0            AND B
7DC1: B6            OR (HL)
7DC2: 38 02         JR C,loc_7DC6
7DC4: 84            ADD A,H

loc_7DC5:
7DC5: 08            EX AF,AF'

loc_7DC6:
7DC6: 27            DAA
7DC7: F9            LD SP,HL
7DC8: 10 8C         DJNZ loc_7D56
7DCA: 3F            CCF
7DCB: 80            ADD A,B
7DCC: 25            DEC H
7DCD: CC 0C 00      CALL Z,sub_000C
7DD0: 96            SUB (HL)

loc_7DD1:
7DD1: 00            NOP
7DD2: 81            ADD A,C
7DD3: 10 25         DJNZ loc_7DFA
7DD5: B6            OR (HL)
7DD6: 8E            ADC A,(HL)
7DD7: 20 81         JR NZ,loc_7D5A
7DD9: CC 00 00      CALL Z,sub_0000
7DDC: ED 81         DB EDh,81h
7DDE: 8C            ADC A,H
7DDF: 21 81 25      LD HL,2581h
7DE2: F9            LD SP,HL
7DE3: 86            ADD A,(HL)
7DE4: 0A            LD A,(BC)
7DE5: 97            SUB A
7DE6: 4F            LD C,A
7DE7: 86            ADD A,(HL)
7DE8: 03            INC BC
7DE9: 97            SUB A
7DEA: 4B            LD C,E
7DEB: 86            ADD A,(HL)
7DEC: 03            INC BC
7DED: 97            SUB A
7DEE: 36 BD         LD (HL),BDh
7DF0: 7C            LD A,H
7DF1: 7C            LD A,H
7DF2: BD            CP L
7DF3: FF            RST 38h
7DF4: 10 86         DJNZ loc_7D7C
7DF6: 40            LD B,B
7DF7: BD            CP L
7DF8: FE 23         CP 23h

loc_7DFA:
7DFA: 4F            LD C,A

loc_7DFB:
7DFB: 97            SUB A
7DFC: 00            NOP
7DFD: 10 8E         DJNZ loc_7D8D
7DFF: 20 00         JR NZ,loc_7E01

loc_7E01:
7E01: 4F            LD C,A

loc_7E02:
7E02: 97            SUB A
7E03: 01 CC 00      LD BC,00CCh
7E06: 00            NOP
7E07: ED A3         OUTI
7E09: 0C            INC C
7E0A: 01 96 01      LD BC,0196h
7E0D: 81            ADD A,C
7E0E: 20 25         JR NZ,loc_7E35
7E10: F3            DI
7E11: 86            ADD A,(HL)
7E12: 04            INC B
7E13: BD            CP L
7E14: FE 23         CP 23h
7E16: 0C            INC C
7E17: 00            NOP
7E18: 96            SUB (HL)
7E19: 00            NOP
7E1A: 81            ADD A,C
7E1B: 20 25         JR NZ,loc_7E42
7E1D: E3            EX (SP),HL
7E1E: BD            CP L
7E1F: 5D            LD E,L
7E20: F5            PUSH AF
7E21: 86            ADD A,(HL)

loc_7E22:
7E22: 01 BD 5D      LD BC,5DBDh
7E25: 19            ADD HL,DE
7E26: BD            CP L
7E27: 62            LD H,D
7E28: 3D            DEC A
7E29: 39            ADD HL,SP
7E2A: 34            INC (HL)
7E2B: 10 8E         DJNZ loc_7DBB
7E2D: 18 00         JR loc_7E2F

loc_7E2F:
7E2F: CC E4 17      CALL Z,sub_17E4
7E32: ED 81         DB EDh,81h
7E34: 8C            ADC A,H

loc_7E35:
7E35: 20 00         JR NZ,loc_7E37

loc_7E37:
7E37: 26 F9         LD H,F9h
7E39: 35            DEC (HL)
7E3A: 90            SUB B
7E3B: A6            AND (HL)
7E3C: 88            ADC A,B
7E3D: 1B            DEC DE
7E3E: 84            ADD A,H
7E3F: 7F            LD A,A
7E40: 48            LD C,B
7E41: 10 8E         DJNZ loc_7DD1
7E43: 7E            LD A,(HL)
7E44: 47            LD B,A
7E45: 6E            LD L,(HL)
7E46: B6            OR (HL)
7E47: 7E            LD A,(HL)
7E48: 4D            LD C,L
7E49: 7E            LD A,(HL)
7E4A: 88            ADC A,B
7E4B: 7E            LD A,(HL)
7E4C: AA            XOR D
7E4D: 6A            LD L,D
7E4E: 88            ADC A,B
7E4F: 19            ADD HL,DE
7E50: 26 15         LD H,15h
7E52: A6            AND (HL)
7E53: 02            LD (BC),A
7E54: 88            ADC A,B
7E55: 01 A7 02      LD BC,02A7h
7E58: 6C            LD L,H
7E59: 88            ADC A,B
7E5A: 18 A6         JR loc_7E02
7E5C: 88            ADC A,B
7E5D: 18 81         JR loc_7DE0
7E5F: 06 24         LD B,24h
7E61: 06 86         LD B,86h
7E63: 03            INC BC
7E64: A7            AND A
7E65: 88            ADC A,B
7E66: 19            ADD HL,DE

loc_7E67:
7E67: 39            ADD HL,SP
7E68: 86            ADD A,(HL)
7E69: 06 A7         LD B,A7h
7E6B: 02            LD (BC),A
7E6C: 86            ADD A,(HL)
7E6D: 06 A7         LD B,A7h
7E6F: 88            ADC A,B
7E70: 19            ADD HL,DE
7E71: 6F            LD L,A
7E72: 88            ADC A,B
7E73: 18 86         JR loc_7DFB
7E75: 01 A7 88      LD BC,88A7h
7E78: 1B            DEC DE
7E79: EC 04 83      CALL PE,8304h
7E7C: 00            NOP
7E7D: 03            INC BC
7E7E: ED 04         DB EDh,04h
7E80: EC 08 83      CALL PE,8308h
7E83: 00            NOP
7E84: 04            INC B
7E85: ED 08         DB EDh,08h
7E87: 39            ADD HL,SP
7E88: 6A            LD L,D
7E89: 88            ADC A,B
7E8A: 19            ADD HL,DE
7E8B: 26 17         LD H,17h
7E8D: 86            ADD A,(HL)
7E8E: 02            LD (BC),A
7E8F: A7            AND A
7E90: 88            ADC A,B
7E91: 1B            DEC DE
7E92: 10 8E         DJNZ loc_7E22
7E94: 7E            LD A,(HL)
7E95: A5            AND L
7E96: A6            AND (HL)
7E97: 88            ADC A,B
7E98: 1A            LD A,(DE)
7E99: E6 A6         AND A6h
7E9B: E7            RST 20h
7E9C: 02            LD (BC),A
7E9D: EC 08 83      CALL PE,8308h
7EA0: 00            NOP
7EA1: 0C            INC C
7EA2: ED 08         DB EDh,08h
7EA4: 39            ADD HL,SP
7EA5: 08            EX AF,AF'
7EA6: 08            EX AF,AF'
7EA7: 07            RLCA
7EA8: 88            ADC A,B
7EA9: 88            ADC A,B
7EAA: A6            AND (HL)
7EAB: 88            ADC A,B
7EAC: 1B            DEC DE
7EAD: 2B            DEC HL
7EAE: 0D            DEC C
7EAF: 8A            ADC A,D
7EB0: 80            ADD A,B
7EB1: A7            AND A
7EB2: 88            ADC A,B
7EB3: 1B            DEC DE
7EB4: A6            AND (HL)
7EB5: 84            ADD A,H
7EB6: 84            ADD A,H
7EB7: F0            RET P
7EB8: 8A            ADC A,D
7EB9: 02            LD (BC),A
7EBA: A7            AND A
7EBB: 84            ADD A,H
7EBC: BD            CP L
7EBD: FB            EI
7EBE: 58            LD E,B
7EBF: CC 01 A0      CALL Z,A001h
7EC2: 10 A3         DJNZ loc_7E67
7EC4: 08            EX AF,AF'
7EC5: 25            DEC H
7EC6: 02            LD (BC),A
7EC7: 6F            LD L,A
7EC8: 84            ADD A,H
7EC9: 39            ADD HL,SP
7ECA: DC 3C 10      CALL C,sub_103C
7ECD: 83            ADD A,E
7ECE: 10 10         DJNZ loc_7EE0
7ED0: 25            DEC H
7ED1: 02            LD (BC),A
7ED2: 6F            LD L,A
7ED3: 84            ADD A,H
7ED4: 39            ADD HL,SP
7ED5: 00            NOP
7ED6: FF FF FF FF...DB FFh ; x10

loc_7EE0:
7EE0: FF            RST 38h
7EE1: FF            RST 38h
7EE2: FF FF FF FF...DB FFh ; x162

sub_7F84:
7F84: FF            RST 38h
7F85: FF            RST 38h
7F86: FF FF FF FF...DB FFh ; x122
