; Z80 Disassembly
; Generated by disasmZ80.js
; ROM size: 32768 bytes
;


sub_0000:
0000: F3            DI
0001: ED 56         IM 1
0003: 3A 00 A0      LD A,(A000h)
0006: 31 00 88      LD SP,8800h
0009: 3E FF         LD A,FFh
000B: 32 04 83      LD (8304h),A
000E: CD 2A 01      CALL sub_012A
0011: CD 68 01      CALL sub_0168
0014: CD 9F 02      CALL sub_029F
0017: CD 3A 01      CALL sub_013A
001A: 3E 00         LD A,00h
001C: 32 04 83      LD (8304h),A
001F: FB            EI

sub_0020:
0020: C3 00 01      JP loc_0100
0023: 00            NOP
0024: 00            NOP
0025: 00            NOP
0026: 00            NOP
0027: 00            NOP

sub_0028:
0028: 00            NOP
0029: 00            NOP
002A: 00            NOP
002B: 00            NOP
002C: 00            NOP
002D: 00            NOP
002E: 00            NOP
002F: 00            NOP

sub_0030:
0030: 00            NOP
0031: 00            NOP
0032: 00            NOP
0033: 00            NOP
0034: 00            NOP
0035: 00            NOP
0036: 00            NOP
0037: 00            NOP

sub_0038:
0038: F5            PUSH AF
0039: D5            PUSH DE
003A: E5            PUSH HL
003B: 21 03 83      LD HL,8303h
003E: 34            INC (HL)
003F: CD 3A 01      CALL sub_013A
0042: E1            POP HL
0043: D1            POP DE
0044: F1            POP AF
0045: FB            EI
0046: C9            RET
0047: 00 00 00 00...DB 00h ; x31
0066: F5            PUSH AF
0067: 3A 04 83      LD A,(8304h)
006A: A7            AND A
006B: 28 03         JR Z,loc_0070
006D: F1            POP AF
006E: ED 45         RETN

loc_0070:
0070: E5            PUSH HL
0071: 3A 01 83      LD A,(8301h)
0074: 6F            LD L,A
0075: 26 84         LD H,84h
0077: 3C            INC A
0078: 32 01 83      LD (8301h),A
007B: 3A 00 A0      LD A,(A000h)
007E: 77            LD (HL),A
007F: E1            POP HL

sub_0080:
0080: F1            POP AF
0081: ED 45         RETN

loc_0083:
0083: 00            NOP
0084: 00            NOP
0085: 00            NOP
0086: 00            NOP
0087: 00            NOP
0088: 00            NOP
0089: 00            NOP
008A: 00            NOP
008B: 00            NOP
008C: 00            NOP
008D: 00            NOP
008E: 00            NOP
008F: 00            NOP
0090: 00            NOP
0091: 00            NOP
0092: 00            NOP
0093: 00            NOP
0094: 00            NOP
0095: 00            NOP
0096: 00            NOP
0097: 00            NOP
0098: 00            NOP
0099: 00            NOP
009A: 00            NOP
009B: 00            NOP
009C: 00            NOP
009D: 00            NOP
009E: 00            NOP
009F: 00            NOP
00A0: 00            NOP
00A1: 00            NOP
00A2: 00            NOP
00A3: 00            NOP
00A4: 00            NOP
00A5: 00            NOP
00A6: 00            NOP
00A7: 00            NOP
00A8: 00            NOP
00A9: 00            NOP
00AA: 00            NOP
00AB: 00            NOP
00AC: 00            NOP
00AD: 00            NOP
00AE: 00            NOP
00AF: 00            NOP
00B0: 00            NOP
00B1: 00            NOP
00B2: 00            NOP
00B3: 00            NOP
00B4: 00            NOP
00B5: 00            NOP
00B6: 00            NOP
00B7: 00            NOP
00B8: 00            NOP
00B9: 00            NOP
00BA: 00            NOP
00BB: 00            NOP
00BC: 00            NOP
00BD: 00            NOP
00BE: 00            NOP
00BF: 00            NOP
00C0: 00            NOP
00C1: 00            NOP
00C2: 00            NOP
00C3: 00            NOP
00C4: 00            NOP
00C5: 00            NOP
00C6: 00            NOP
00C7: 00            NOP
00C8: 00            NOP
00C9: 00            NOP
00CA: 00            NOP
00CB: 00            NOP
00CC: 00            NOP
00CD: 00            NOP
00CE: 00            NOP
00CF: 00            NOP
00D0: 00            NOP
00D1: 00            NOP

sub_00D2:
00D2: 00            NOP
00D3: 00            NOP
00D4: 00            NOP
00D5: 00            NOP
00D6: 00            NOP
00D7: 00            NOP
00D8: 00            NOP
00D9: 00            NOP
00DA: 00            NOP
00DB: 00            NOP
00DC: 00            NOP
00DD: 00            NOP
00DE: 00            NOP
00DF: 00            NOP
00E0: 00            NOP
00E1: 00            NOP
00E2: 00            NOP
00E3: 00            NOP
00E4: 00            NOP
00E5: 00            NOP
00E6: 00            NOP
00E7: 00            NOP
00E8: 00            NOP
00E9: 00            NOP
00EA: 00            NOP
00EB: 00            NOP
00EC: 00            NOP
00ED: 00            NOP
00EE: 00            NOP
00EF: 00            NOP
00F0: 00            NOP
00F1: 00            NOP
00F2: 00            NOP
00F3: 00            NOP
00F4: 00            NOP
00F5: 00            NOP
00F6: 00            NOP
00F7: 00            NOP

loc_00F8:
00F8: 00            NOP
00F9: 00            NOP
00FA: 00            NOP
00FB: 00            NOP
00FC: 00            NOP
00FD: 00            NOP
00FE: 00            NOP
00FF: 00            NOP

loc_0100:
0100: CD 6E 01      CALL sub_016E

loc_0103:
0103: 3A 02 83      LD A,(8302h)
0106: 21 01 83      LD HL,8301h
0109: BE            CP (HL)
010A: CA 1B 01      JP Z,loc_011B
010D: 6F            LD L,A
010E: 26 84         LD H,84h
0110: 3C            INC A

loc_0111:
0111: 32 02 83      LD (8302h),A
0114: 7E            LD A,(HL)
0115: CD 88 01      CALL sub_0188
0118: C3 03 01      JP loc_0103

loc_011B:
011B: AF            XOR A
011C: 21 03 83      LD HL,8303h
011F: BE            CP (HL)
0120: CA 00 01      JP Z,loc_0100
0123: 35            DEC (HL)
0124: CD 3F 03      CALL sub_033F
0127: C3 00 01      JP loc_0100

sub_012A:
012A: AF            XOR A
012B: 32 03 83      LD (8303h),A
012E: 32 01 83      LD (8301h),A
0131: 32 02 83      LD (8302h),A
0134: 16 DD         LD D,DDh
0136: 3E 12         LD A,12h
0138: 18 14         JR loc_014E

sub_013A:
013A: 16 3A         LD D,3Ah
013C: 3E 14         LD A,14h
013E: 5F            LD E,A
013F: CD 60 01      CALL sub_0160
0142: 7B            LD A,E
0143: 32 00 88      LD (8800h),A
0146: CD 60 01      CALL sub_0160
0149: 7A            LD A,D
014A: 32 01 88      LD (8801h),A
014D: C9            RET

loc_014E:
014E: F3            DI
014F: 5F            LD E,A
0150: CD 60 01      CALL sub_0160
0153: 7B            LD A,E
0154: 32 00 88      LD (8800h),A
0157: CD 60 01      CALL sub_0160
015A: 7A            LD A,D
015B: 32 01 88      LD (8801h),A
015E: FB            EI
015F: C9            RET

sub_0160:
0160: 3A 01 88      LD A,(8801h)
0163: E6 80         AND 80h
0165: 20 F9         JR NZ,sub_0160
0167: C9            RET

sub_0168:
0168: 3E FF         LD A,FFh
016A: 32 00 83      LD (8300h),A
016D: C9            RET

sub_016E:
016E: 3A 00 83      LD A,(8300h)
0171: FE FF         CP FFh
0173: C8            RET Z
0174: 3A 01 83      LD A,(8301h)
0177: 6F            LD L,A
0178: 26 84         LD H,84h
017A: 3C            INC A
017B: 32 01 83      LD (8301h),A
017E: 3A 00 83      LD A,(8300h)
0181: 77            LD (HL),A
0182: 3E FF         LD A,FFh
0184: 32 00 83      LD (8300h),A
0187: C9            RET

sub_0188:
0188: 2A 1A 82      LD HL,(821Ah)
018B: E9            JP (HL)
018C: A7            AND A
018D: CA 9F 02      JP Z,sub_029F
0190: FE F0         CP F0h
0192: D2 D9 02      JP NC,loc_02D9
0195: FE 80         CP 80h
0197: C8            RET Z
0198: 32 1C 82      LD (821Ch),A
019B: E6 7F         AND 7Fh
019D: 6F            LD L,A
019E: 3A 00 10      LD A,(1000h)
01A1: BD            CP L
01A2: DA 3A 03      JP C,loc_033A
01A5: 2D            DEC L
01A6: 26 00         LD H,00h
01A8: 29            ADD HL,HL
01A9: 29            ADD HL,HL
01AA: 11 02 10      LD DE,1002h
01AD: 19            ADD HL,DE
01AE: E5            PUSH HL
01AF: DD E1         POP IX
01B1: DD 7E 03      LD A,(IX+03h)
01B4: A7            AND A
01B5: 3A 1C 82      LD A,(821Ch)
01B8: C2 89 0B      JP NZ,loc_0B89
01BB: A7            AND A
01BC: FA 74 02      JP M,loc_0274
01BF: 5E            LD E,(HL)
01C0: 23            INC HL
01C1: 56            LD D,(HL)
01C2: 23            INC HL
01C3: 7E            LD A,(HL)
01C4: 32 1D 82      LD (821Dh),A
01C7: EB            EX DE,HL
01C8: 11 00 10      LD DE,1000h
01CB: 19            ADD HL,DE
01CC: E5            PUSH HL
01CD: CD 55 02      CALL sub_0255
01D0: E1            POP HL
01D1: D8            RET C

loc_01D2:
01D2: 7E            LD A,(HL)
01D3: FE FF         CP FFh
01D5: C8            RET Z
01D6: FE FE         CP FEh
01D8: 20 06         JR NZ,loc_01E0
01DA: 23            INC HL
01DB: 23            INC HL
01DC: 23            INC HL
01DD: 23            INC HL
01DE: 18 F2         JR loc_01D2

loc_01E0:
01E0: E5            PUSH HL
01E1: 32 12 82      LD (8212h),A
01E4: 3A 12 82      LD A,(8212h)
01E7: 6F            LD L,A
01E8: 26 00         LD H,00h
01EA: 29            ADD HL,HL
01EB: 29            ADD HL,HL
01EC: 29            ADD HL,HL
01ED: 29            ADD HL,HL
01EE: 29            ADD HL,HL
01EF: 29            ADD HL,HL
01F0: EB            EX DE,HL
01F1: DD 21 00 80   LD IX,8000h
01F5: DD 19         ADD IX,DE
01F7: DD E5         PUSH IX
01F9: D1            POP DE

sub_01FA:
01FA: 21 80 0E      LD HL,0E80h
01FD: 01 40 00      LD BC,0040h

loc_0200:
0200: ED B0         LDIR
0202: 3A 12 82      LD A,(8212h)
0205: 87            ADD A,A
0206: 87            ADD A,A
0207: 87            ADD A,A
0208: 87            ADD A,A
0209: 5F            LD E,A
020A: 16 00         LD D,00h
020C: 21 20 82      LD HL,8220h
020F: 19            ADD HL,DE
0210: DD 75 06      LD (IX+06h),L
0213: DD 74 07      LD (IX+07h),H
0216: E1            POP HL
0217: 23            INC HL
0218: 7E            LD A,(HL)
0219: A7            AND A
021A: 3E 00         LD A,00h
021C: 28 0E         JR Z,loc_022C
021E: DD CB 00 FE   SET 7,(IX+00h)
0222: 3E 78         LD A,78h
0224: 32 13 82      LD (8213h),A
0227: 3E FF         LD A,FFh
0229: 32 14 82      LD (8214h),A

loc_022C:
022C: 23            INC HL
022D: CD 69 0C      CALL sub_0C69
0230: D5            PUSH DE
0231: DD 75 04      LD (IX+04h),L
0234: DD 74 05      LD (IX+05h),H
0237: 3A 12 82      LD A,(8212h)
023A: 5F            LD E,A
023B: 16 00         LD D,00h
023D: FD 21 00 82   LD IY,8200h
0241: FD 19         ADD IY,DE
0243: 3A 1D 82      LD A,(821Dh)
0246: FD 77 08      LD (IY+08h),A
0249: 3A 1C 82      LD A,(821Ch)
024C: FD 77 00      LD (IY+00h),A
024F: E1            POP HL
0250: 23            INC HL
0251: 23            INC HL
0252: C3 D2 01      JP loc_01D2

sub_0255:
0255: 4F            LD C,A

loc_0256:
0256: FD 21 00 82   LD IY,8200h
025A: 7E            LD A,(HL)
025B: FE FF         CP FFh
025D: 28 13         JR Z,loc_0272
025F: 5F            LD E,A
0260: 16 00         LD D,00h
0262: FD 19         ADD IY,DE
0264: 79            LD A,C
0265: FD BE 08      CP (IY+08h)
0268: 38 06         JR C,loc_0270
026A: 23            INC HL
026B: 23            INC HL
026C: 23            INC HL
026D: 23            INC HL
026E: 18 E6         JR loc_0256

loc_0270:
0270: 37            SCF
0271: C9            RET

loc_0272:
0272: A7            AND A
0273: C9            RET

loc_0274:
0274: E6 7F         AND 7Fh
0276: DD 21 00 80   LD IX,8000h
027A: FD 21 00 82   LD IY,8200h
027E: 11 40 00      LD DE,0040h
0281: 06 08         LD B,08h

loc_0283:
0283: FD BE 00      CP (IY+00h)
0286: 20 10         JR NZ,loc_0298
0288: DD 36 02 80   LD (IX+02h),80h
028C: DD 36 00 00   LD (IX+00h),00h
0290: FD 36 00 00   LD (IY+00h),00h
0294: FD 36 08 00   LD (IY+08h),00h

loc_0298:
0298: DD 19         ADD IX,DE
029A: FD 23         INC IY
029C: 10 E5         DJNZ loc_0283
029E: C9            RET

sub_029F:
029F: 21 8C 01      LD HL,018Ch
02A2: 22 1A 82      LD (821Ah),HL
02A5: CD AB 02      CALL sub_02AB
02A8: C3 76 0B      JP loc_0B76

sub_02AB:
02AB: AF            XOR A
02AC: 32 17 82      LD (8217h),A
02AF: 3E 80         LD A,80h
02B1: 32 11 82      LD (8211h),A
02B4: 21 10 82      LD HL,8210h
02B7: CB 9E         RES 3,(HL)
02B9: DD 21 00 80   LD IX,8000h
02BD: FD 21 00 82   LD IY,8200h
02C1: 11 40 00      LD DE,0040h
02C4: 06 08         LD B,08h

loc_02C6:
02C6: DD 36 00 00   LD (IX+00h),00h
02CA: FD 36 00 00   LD (IY+00h),00h
02CE: FD 36 08 00   LD (IY+08h),00h
02D2: DD 19         ADD IX,DE
02D4: FD 23         INC IY
02D6: 10 EE         DJNZ loc_02C6
02D8: C9            RET

loc_02D9:
02D9: FE F0         CP F0h
02DB: CA F3 02      JP Z,loc_02F3
02DE: FE F1         CP F1h
02E0: CA 10 03      JP Z,loc_0310
02E3: FE F2         CP F2h
02E5: CA 1E 03      JP Z,loc_031E
02E8: FE FE         CP FEh
02EA: CA AB 02      JP Z,sub_02AB
02ED: FE FF         CP FFh
02EF: CA 76 0B      JP Z,loc_0B76
02F2: C9            RET

loc_02F3:
02F3: 21 F9 02      LD HL,02F9h
02F6: C3 36 03      JP loc_0336

sub_02F9:
02F9: 47            LD B,A
02FA: 3E FF         LD A,FFh
02FC: 90            SUB B
02FD: 07            RLCA
02FE: E6 7F         AND 7Fh
0300: 32 17 82      LD (8217h),A
0303: 21 11 82      LD HL,8211h
0306: CB E6         SET 4,(HL)
0308: 21 10 82      LD HL,8210h
030B: CB 9E         RES 3,(HL)
030D: C3 33 03      JP loc_0333

loc_0310:
0310: 21 16 03      LD HL,0316h
0313: C3 36 03      JP loc_0336
0316: 21 10 82      LD HL,8210h
0319: CB A6         RES 4,(HL)
031B: C3 29 03      JP loc_0329

loc_031E:
031E: 21 24 03      LD HL,0324h
0321: C3 36 03      JP loc_0336
0324: 21 10 82      LD HL,8210h
0327: CB E6         SET 4,(HL)

loc_0329:
0329: CB DE         SET 3,(HL)
032B: 32 19 82      LD (8219h),A
032E: 3E FF         LD A,FFh
0330: 32 18 82      LD (8218h),A

loc_0333:
0333: 21 8C 01      LD HL,018Ch

loc_0336:
0336: 22 1A 82      LD (821Ah),HL
0339: C9            RET

loc_033A:
033A: 7D            LD A,L
033B: 32 1F 82      LD (821Fh),A
033E: C9            RET

sub_033F:
033F: CD 29 08      CALL sub_0829
0342: CD E9 07      CALL sub_07E9
0345: AF            XOR A
0346: DD 21 00 80   LD IX,8000h

loc_034A:
034A: 32 12 82      LD (8212h),A
034D: CD 84 08      CALL sub_0884
0350: 11 40 00      LD DE,0040h
0353: DD 19         ADD IX,DE
0355: 3A 12 82      LD A,(8212h)
0358: 3C            INC A
0359: FE 08         CP 08h
035B: C2 4A 03      JP NZ,loc_034A
035E: AF            XOR A
035F: DD 21 00 80   LD IX,8000h

loc_0363:
0363: 32 12 82      LD (8212h),A
0366: CD 7C 03      CALL sub_037C
0369: 11 40 00      LD DE,0040h
036C: DD 19         ADD IX,DE
036E: 3A 12 82      LD A,(8212h)
0371: 3C            INC A
0372: FE 08         CP 08h
0374: C2 63 03      JP NZ,loc_0363
0377: AF            XOR A
0378: 32 11 82      LD (8211h),A
037B: C9            RET

sub_037C:
037C: DD 7E 00      LD A,(IX+00h)
037F: A7            AND A
0380: C8            RET Z
0381: DD CB 01 66   BIT 4,(IX+01h)
0385: C4 37 07      CALL NZ,sub_0737
0388: DD CB 00 7E   BIT 7,(IX+00h)
038C: 28 06         JR Z,loc_0394
038E: 3A 10 82      LD A,(8210h)
0391: E6 01         AND 01h
0393: C8            RET Z

loc_0394:
0394: DD 7E 01      LD A,(IX+01h)
0397: A7            AND A
0398: 28 0B         JR Z,loc_03A5
039A: 5F            LD E,A
039B: CB 43         BIT 0,E
039D: C4 B9 07      CALL NZ,sub_07B9
03A0: CB 53         BIT 2,E
03A2: C4 93 07      CALL NZ,sub_0793

loc_03A5:
03A5: DD CB 00 4E   BIT 1,(IX+00h)
03A9: 28 15         JR Z,loc_03C0
03AB: DD 35 13      DEC (IX+13h)
03AE: 20 10         JR NZ,loc_03C0
03B0: DD 7E 02      LD A,(IX+02h)
03B3: F6 01         OR 01h
03B5: DD 77 02      LD (IX+02h),A
03B8: DD CB 01 BE   RES 7,(IX+01h)
03BC: DD CB 00 8E   RES 1,(IX+00h)

loc_03C0:
03C0: DD 35 11      DEC (IX+11h)
03C3: C0            RET NZ
03C4: DD CB 00 56   BIT 2,(IX+00h)
03C8: 28 12         JR Z,loc_03DC
03CA: DD CB 00 96   RES 2,(IX+00h)
03CE: DD 7E 0D      LD A,(IX+0Dh)
03D1: DD 77 0E      LD (IX+0Eh),A
03D4: DD 7E 02      LD A,(IX+02h)
03D7: F6 30         OR 30h
03D9: DD 77 02      LD (IX+02h),A

loc_03DC:
03DC: DD 6E 04      LD L,(IX+04h)
03DF: DD 66 05      LD H,(IX+05h)

loc_03E2:
03E2: CD F0 03      CALL sub_03F0
03E5: 38 02         JR C,loc_03E9
03E7: 18 F9         JR loc_03E2

loc_03E9:
03E9: DD 75 04      LD (IX+04h),L
03EC: DD 74 05      LD (IX+05h),H
03EF: C9            RET

sub_03F0:
03F0: 7E            LD A,(HL)
03F1: 23            INC HL
03F2: A7            AND A
03F3: C8            RET Z
03F4: 5F            LD E,A
03F5: E6 C0         AND C0h
03F7: F2 02 04      JP P,loc_0402
03FA: FE 80         CP 80h
03FC: CA 76 06      JP Z,loc_0676
03FF: C3 0A 04      JP loc_040A

loc_0402:
0402: DD 73 10      LD (IX+10h),E
0405: CD 6C 08      CALL sub_086C
0408: A7            AND A
0409: C9            RET

loc_040A:
040A: 7B            LD A,E
040B: E6 3F         AND 3Fh
040D: E5            PUSH HL
040E: 21 E1 0E      LD HL,0EE1h
0411: 87            ADD A,A
0412: 85            ADD A,L
0413: 6F            LD L,A
0414: 30 01         JR NC,loc_0417
0416: 24            INC H

loc_0417:
0417: 5E            LD E,(HL)
0418: 23            INC HL
0419: 56            LD D,(HL)
041A: EB            EX DE,HL
041B: E3            EX (SP),HL
041C: C9            RET
041D: 7E            LD A,(HL)
041E: DD 77 08      LD (IX+08h),A
0421: C3 48 04      JP loc_0448

sub_0424:
0424: 7E            LD A,(HL)
0425: DD 86 08      ADD A,(IX+08h)
0428: DD 77 08      LD (IX+08h),A
042B: C3 48 04      JP loc_0448
042E: 7E            LD A,(HL)
042F: DD 77 09      LD (IX+09h),A
0432: C3 48 04      JP loc_0448
0435: 5E            LD E,(HL)
0436: E5            PUSH HL
0437: CD 9D 0C      CALL sub_0C9D
043A: DD 6E 09      LD L,(IX+09h)
043D: DD 66 08      LD H,(IX+08h)
0440: 19            ADD HL,DE
0441: DD 75 09      LD (IX+09h),L
0444: DD 74 08      LD (IX+08h),H
0447: E1            POP HL

loc_0448:
0448: DD 7E 02      LD A,(IX+02h)
044B: F6 28         OR 28h
044D: DD 77 02      LD (IX+02h),A
0450: 23            INC HL
0451: A7            AND A
0452: C9            RET
0453: 7E            LD A,(HL)
0454: DD 77 0A      LD (IX+0Ah),A
0457: 23            INC HL
0458: A7            AND A
0459: C9            RET
045A: 7E            LD A,(HL)
045B: 23            INC HL
045C: 18 09         JR loc_0467
045E: 3E 0C         LD A,0Ch
0460: 18 02         JR loc_0464
0462: 3E F4         LD A,F4h

loc_0464:
0464: DD 86 0B      ADD A,(IX+0Bh)

loc_0467:
0467: DD 77 0B      LD (IX+0Bh),A
046A: A7            AND A
046B: C9            RET
046C: DD CB 01 86   RES 0,(IX+01h)
0470: 7E            LD A,(HL)
0471: 18 0F         JR loc_0482
0473: DD CB 01 86   RES 0,(IX+01h)
0477: 7E            LD A,(HL)
0478: DD 86 0C      ADD A,(IX+0Ch)
047B: 38 03         JR C,loc_0480
047D: F2 82 04      JP P,loc_0482

loc_0480:
0480: 3E 7F         LD A,7Fh

loc_0482:
0482: DD 77 0C      LD (IX+0Ch),A
0485: DD 7E 02      LD A,(IX+02h)
0488: F6 10         OR 10h
048A: DD 77 02      LD (IX+02h),A
048D: 23            INC HL
048E: A7            AND A
048F: C9            RET
0490: DD CB 01 96   RES 2,(IX+01h)
0494: 7E            LD A,(HL)
0495: 18 0F         JR loc_04A6
0497: DD CB 01 96   RES 2,(IX+01h)
049B: 7E            LD A,(HL)
049C: DD 86 0D      ADD A,(IX+0Dh)
049F: 38 03         JR C,loc_04A4
04A1: F2 A6 04      JP P,loc_04A6

loc_04A4:
04A4: 3E 7F         LD A,7Fh

loc_04A6:
04A6: DD 77 0D      LD (IX+0Dh),A
04A9: DD 77 0E      LD (IX+0Eh),A
04AC: DD 7E 02      LD A,(IX+02h)
04AF: F6 30         OR 30h
04B1: DD 77 02      LD (IX+02h),A
04B4: 23            INC HL
04B5: A7            AND A
04B6: C9            RET
04B7: 7E            LD A,(HL)
04B8: DD 77 0F      LD (IX+0Fh),A
04BB: 23            INC HL
04BC: A7            AND A
04BD: C9            RET
04BE: DD CB 01 9E   RES 3,(IX+01h)
04C2: 18 04         JR loc_04C8
04C4: DD CB 01 DE   SET 3,(IX+01h)

loc_04C8:
04C8: 7E            LD A,(HL)
04C9: DD 77 19      LD (IX+19h),A
04CC: DD 77 18      LD (IX+18h),A
04CF: DD CB 01 D6   SET 2,(IX+01h)
04D3: 23            INC HL
04D4: A7            AND A
04D5: C9            RET
04D6: DD CB 01 8E   RES 1,(IX+01h)
04DA: 18 04         JR loc_04E0
04DC: DD CB 01 CE   SET 1,(IX+01h)

loc_04E0:
04E0: 7E            LD A,(HL)
04E1: DD 77 17      LD (IX+17h),A
04E4: DD 77 16      LD (IX+16h),A
04E7: DD CB 01 C6   SET 0,(IX+01h)
04EB: 23            INC HL
04EC: A7            AND A
04ED: C9            RET
04EE: DD 7E 01      LD A,(IX+01h)
04F1: E6 FA         AND FAh
04F3: DD 77 01      LD (IX+01h),A
04F6: A7            AND A
04F7: C9            RET
04F8: 7E            LD A,(HL)
04F9: 18 04         JR loc_04FF
04FB: 3A 13 82      LD A,(8213h)
04FE: 86            ADD A,(HL)

loc_04FF:
04FF: 32 13 82      LD (8213h),A
0502: 3E FF         LD A,FFh
0504: 32 14 82      LD (8214h),A
0507: 3A 10 82      LD A,(8210h)
050A: E6 FD         AND FDh
050C: 32 10 82      LD (8210h),A
050F: 23            INC HL
0510: A7            AND A
0511: C9            RET
0512: 3A 10 82      LD A,(8210h)
0515: F6 02         OR 02h
0517: E6 FB         AND FBh
0519: 18 05         JR loc_0520
051B: 3A 10 82      LD A,(8210h)
051E: F6 06         OR 06h

loc_0520:
0520: 32 10 82      LD (8210h),A
0523: 7E            LD A,(HL)
0524: 32 15 82      LD (8215h),A
0527: 3E 01         LD A,01h
0529: 32 16 82      LD (8216h),A
052C: 23            INC HL
052D: A7            AND A
052E: C9            RET
052F: 3A 10 82      LD A,(8210h)
0532: E6 FD         AND FDh
0534: 32 10 82      LD (8210h),A
0537: A7            AND A
0538: C9            RET

sub_0539:
0539: DD 7E 0D      LD A,(IX+0Dh)
053C: DD 77 0E      LD (IX+0Eh),A
053F: DD CB 01 7E   BIT 7,(IX+01h)
0543: 28 02         JR Z,loc_0547
0545: A7            AND A
0546: C9            RET

loc_0547:
0547: DD 7E 02      LD A,(IX+02h)
054A: F6 42         OR 42h
054C: DD 77 02      LD (IX+02h),A
054F: DD CB 01 FE   SET 7,(IX+01h)
0553: A7            AND A
0554: C9            RET
0555: DD 7E 02      LD A,(IX+02h)
0558: F6 01         OR 01h
055A: DD 77 02      LD (IX+02h),A
055D: DD CB 01 BE   RES 7,(IX+01h)
0561: A7            AND A
0562: C9            RET
0563: 7E            LD A,(HL)
0564: DD 77 1E      LD (IX+1Eh),A
0567: 23            INC HL
0568: DD 7E 01      LD A,(IX+01h)
056B: F6 50         OR 50h
056D: DD 77 01      LD (IX+01h),A
0570: A7            AND A
0571: C9            RET
0572: DD 7E 01      LD A,(IX+01h)
0575: E6 AF         AND AFh
0577: DD 77 01      LD (IX+01h),A
057A: A7            AND A
057B: C9            RET
057C: 7E            LD A,(HL)
057D: DD 77 14      LD (IX+14h),A
0580: 23            INC HL
0581: A7            AND A
0582: C9            RET
0583: 7E            LD A,(HL)
0584: DD 77 15      LD (IX+15h),A
0587: CD 6C 08      CALL sub_086C
058A: 23            INC HL
058B: A7            AND A
058C: C9            RET
058D: DD CB 00 DE   SET 3,(IX+00h)
0591: A7            AND A
0592: C9            RET
0593: DD CB 00 DE   SET 3,(IX+00h)
0597: A7            AND A
0598: C9            RET
0599: DD 7E 10      LD A,(IX+10h)
059C: DD 77 11      LD (IX+11h),A
059F: 37            SCF
05A0: C9            RET
05A1: E5            PUSH HL
05A2: CD 69 0C      CALL sub_0C69
05A5: DD 75 20      LD (IX+20h),L
05A8: DD 74 21      LD (IX+21h),H
05AB: DD 7E 02      LD A,(IX+02h)
05AE: F6 04         OR 04h
05B0: DD 77 02      LD (IX+02h),A
05B3: E1            POP HL
05B4: 23            INC HL
05B5: 23            INC HL
05B6: A7            AND A
05B7: C9            RET

loc_05B8:
05B8: CD 69 0C      CALL sub_0C69
05BB: A7            AND A
05BC: C9            RET
05BD: CD 69 0C      CALL sub_0C69
05C0: E5            PUSH HL
05C1: 13            INC DE
05C2: 13            INC DE
05C3: DD 6E 06      LD L,(IX+06h)
05C6: DD 66 07      LD H,(IX+07h)
05C9: 73            LD (HL),E
05CA: 23            INC HL
05CB: 72            LD (HL),D
05CC: 23            INC HL
05CD: 36 00         LD (HL),00h
05CF: 23            INC HL
05D0: DD 75 06      LD (IX+06h),L
05D3: DD 74 07      LD (IX+07h),H
05D6: E1            POP HL
05D7: A7            AND A
05D8: C9            RET
05D9: DD 6E 06      LD L,(IX+06h)
05DC: DD 66 07      LD H,(IX+07h)
05DF: 2B            DEC HL
05E0: 2B            DEC HL
05E1: 56            LD D,(HL)
05E2: 2B            DEC HL
05E3: 5E            LD E,(HL)
05E4: DD 75 06      LD (IX+06h),L
05E7: DD 74 07      LD (IX+07h),H
05EA: EB            EX DE,HL
05EB: A7            AND A
05EC: C9            RET
05ED: 7E            LD A,(HL)
05EE: 23            INC HL
05EF: EB            EX DE,HL
05F0: DD 6E 06      LD L,(IX+06h)
05F3: DD 66 07      LD H,(IX+07h)
05F6: 73            LD (HL),E
05F7: 23            INC HL
05F8: 72            LD (HL),D
05F9: 23            INC HL
05FA: 36 01         LD (HL),01h
05FC: 23            INC HL
05FD: 77            LD (HL),A
05FE: 23            INC HL
05FF: DD 75 06      LD (IX+06h),L

sub_0602:
0602: DD 74 07      LD (IX+07h),H
0605: EB            EX DE,HL
0606: A7            AND A
0607: C9            RET
0608: 7E            LD A,(HL)
0609: E5            PUSH HL
060A: DD 6E 06      LD L,(IX+06h)
060D: DD 66 07      LD H,(IX+07h)
0610: 2B            DEC HL
0611: 2B            DEC HL
0612: BE            CP (HL)
0613: 20 16         JR NZ,loc_062B
0615: 18 0F         JR loc_0626
0617: 7E            LD A,(HL)
0618: E5            PUSH HL
0619: DD 6E 06      LD L,(IX+06h)
061C: DD 66 07      LD H,(IX+07h)
061F: 2B            DEC HL
0620: 2B            DEC HL
0621: BE            CP (HL)
0622: 28 07         JR Z,loc_062B
0624: 18 00         JR loc_0626

loc_0626:
0626: E1            POP HL
0627: 23            INC HL
0628: C3 B8 05      JP loc_05B8

loc_062B:
062B: E1            POP HL
062C: 23            INC HL
062D: 23            INC HL
062E: 23            INC HL
062F: A7            AND A
0630: C9            RET
0631: E5            PUSH HL
0632: DD 6E 06      LD L,(IX+06h)
0635: DD 66 07      LD H,(IX+07h)
0638: 2B            DEC HL
0639: 35            DEC (HL)
063A: 20 0C         JR NZ,loc_0648
063C: 2B            DEC HL
063D: 2B            DEC HL
063E: 2B            DEC HL
063F: DD 75 06      LD (IX+06h),L
0642: DD 74 07      LD (IX+07h),H
0645: E1            POP HL
0646: A7            AND A
0647: C9            RET

loc_0648:
0648: 2B            DEC HL
0649: 34            INC (HL)

loc_064A:
064A: 2B            DEC HL
064B: 56            LD D,(HL)
064C: 2B            DEC HL
064D: 5E            LD E,(HL)
064E: E1            POP HL
064F: EB            EX DE,HL
0650: A7            AND A
0651: C9            RET
0652: AF            XOR A
0653: DD 77 00      LD (IX+00h),A
0656: 3A 12 82      LD A,(8212h)
0659: 21 00 82      LD HL,8200h
065C: 85            ADD A,L
065D: 6F            LD L,A
065E: 30 01         JR NC,loc_0661
0660: 24            INC H

loc_0661:
0661: 36 00         LD (HL),00h
0663: 21 08 82      LD HL,8208h
0666: 85            ADD A,L
0667: 6F            LD L,A
0668: 30 01         JR NC,loc_066B
066A: 24            INC H

loc_066B:
066B: 36 00         LD (HL),00h
066D: 37            SCF
066E: C9            RET
066F: 7E            LD A,(HL)
0670: DD 77 11      LD (IX+11h),A
0673: 23            INC HL
0674: 37            SCF
0675: C9            RET

loc_0676:
0676: DD 7E 12      LD A,(IX+12h)
0679: DD 77 13      LD (IX+13h),A
067C: CB 6B         BIT 5,E
067E: CA 8F 06      JP Z,loc_068F
0681: 7E            LD A,(HL)
0682: 23            INC HL
0683: 07            RLCA
0684: DC 00 07      CALL C,sub_0700
0687: 07            RLCA
0688: DC 05 07      CALL C,sub_0705
068B: 07            RLCA
068C: DC 16 07      CALL C,sub_0716

loc_068F:
068F: DD CB 00 CE   SET 1,(IX+00h)
0693: 7B            LD A,E
0694: E6 1F         AND 1Fh
0696: DD 86 0B      ADD A,(IX+0Bh)
0699: DD 86 0A      ADD A,(IX+0Ah)
069C: DD CB 01 66   BIT 4,(IX+01h)
06A0: 28 33         JR Z,loc_06D5
06A2: DD CB 01 76   BIT 6,(IX+01h)
06A6: 28 07         JR Z,loc_06AF
06A8: DD 77 08      LD (IX+08h),A
06AB: DD CB 01 B6   RES 6,(IX+01h)

loc_06AF:
06AF: DD 77 1A      LD (IX+1Ah),A
06B2: DD 96 08      SUB (IX+08h)
06B5: D2 BA 06      JP NC,loc_06BA
06B8: ED 44         NEG

loc_06BA:
06BA: E5            PUSH HL
06BB: DD 66 1E      LD H,(IX+1Eh)
06BE: CD 8B 0C      CALL sub_0C8B
06C1: DD 75 1C      LD (IX+1Ch),L
06C4: DD 74 1D      LD (IX+1Dh),H
06C7: E1            POP HL
06C8: DD 7E 09      LD A,(IX+09h)
06CB: DD 77 1B      LD (IX+1Bh),A
06CE: DD CB 01 EE   SET 5,(IX+01h)
06D2: C3 D8 06      JP loc_06D8

loc_06D5:
06D5: DD 77 08      LD (IX+08h),A

loc_06D8:
06D8: DD 7E 02      LD A,(IX+02h)
06DB: F6 28         OR 28h
06DD: DD 77 02      LD (IX+02h),A
06E0: DD 7E 0D      LD A,(IX+0Dh)
06E3: DD 77 0E      LD (IX+0Eh),A
06E6: DD CB 01 7E   BIT 7,(IX+01h)
06EA: 20 0C         JR NZ,loc_06F8
06EC: DD 7E 02      LD A,(IX+02h)
06EF: F6 42         OR 42h
06F1: DD 77 02      LD (IX+02h),A
06F4: DD CB 01 FE   SET 7,(IX+01h)

loc_06F8:
06F8: DD 7E 10      LD A,(IX+10h)
06FB: DD 77 11      LD (IX+11h),A
06FE: 37            SCF
06FF: C9            RET

sub_0700:
0700: DD 36 13 FF   LD (IX+13h),FFh
0704: C9            RET

sub_0705:
0705: F5            PUSH AF
0706: DD 7E 14      LD A,(IX+14h)
0709: DD BE 10      CP (IX+10h)
070C: 38 03         JR C,loc_0711
070E: DD 7E 10      LD A,(IX+10h)

loc_0711:
0711: DD 77 13      LD (IX+13h),A
0714: F1            POP AF
0715: C9            RET

sub_0716:
0716: D5            PUSH DE
0717: F5            PUSH AF
0718: DD 7E 0D      LD A,(IX+0Dh)
071B: DD 86 0F      ADD A,(IX+0Fh)
071E: 38 03         JR C,loc_0723
0720: F2 25 07      JP P,loc_0725

loc_0723:
0723: 3E 7F         LD A,7Fh

loc_0725:
0725: DD 77 0E      LD (IX+0Eh),A
0728: DD 7E 02      LD A,(IX+02h)
072B: F6 30         OR 30h
072D: DD 77 02      LD (IX+02h),A
0730: DD CB 00 D6   SET 2,(IX+00h)
0734: F1            POP AF
0735: D1            POP DE
0736: C9            RET

sub_0737:
0737: DD CB 01 6E   BIT 5,(IX+01h)

sub_073B:
073B: C8            RET Z
073C: DD 66 08      LD H,(IX+08h)
073F: DD 6E 09      LD L,(IX+09h)
0742: DD 56 1A      LD D,(IX+1Ah)
0745: DD 5E 1B      LD E,(IX+1Bh)
0748: E5            PUSH HL
0749: A7            AND A
074A: ED 52         SBC HL,DE
074C: E1            POP HL
074D: CA 7F 07      JP Z,loc_077F
0750: DA 70 07      JP C,loc_0770
0753: D5            PUSH DE
0754: E5            PUSH HL
0755: 21 00 00      LD HL,0000h
0758: DD 5E 1C      LD E,(IX+1Ch)
075B: DD 56 1D      LD D,(IX+1Dh)
075E: AF            XOR A
075F: ED 52         SBC HL,DE
0761: EB            EX DE,HL
0762: E1            POP HL
0763: 19            ADD HL,DE
0764: D1            POP DE
0765: E5            PUSH HL
0766: A7            AND A
0767: ED 52         SBC HL,DE
0769: E1            POP HL
076A: CA 7F 07      JP Z,loc_077F
076D: D2 84 07      JP NC,loc_0784

loc_0770:
0770: DD 4E 1C      LD C,(IX+1Ch)
0773: DD 46 1D      LD B,(IX+1Dh)
0776: 09            ADD HL,BC
0777: E5            PUSH HL
0778: A7            AND A
0779: ED 52         SBC HL,DE
077B: E1            POP HL
077C: DA 84 07      JP C,loc_0784

loc_077F:
077F: DD CB 01 AE   RES 5,(IX+01h)
0783: EB            EX DE,HL

loc_0784:
0784: DD 74 08      LD (IX+08h),H
0787: DD 75 09      LD (IX+09h),L
078A: DD 7E 02      LD A,(IX+02h)
078D: F6 08         OR 08h
078F: DD 77 02      LD (IX+02h),A
0792: C9            RET

sub_0793:
0793: DD 35 19      DEC (IX+19h)
0796: C0            RET NZ
0797: DD 7E 18      LD A,(IX+18h)
079A: DD 77 19      LD (IX+19h),A
079D: DD CB 01 5E   BIT 3,(IX+01h)
07A1: 20 0B         JR NZ,loc_07AE
07A3: DD 34 0D      INC (IX+0Dh)
07A6: F2 B8 07      JP P,loc_07B8
07A9: DD 36 0D 7F   LD (IX+0Dh),7Fh
07AD: C9            RET

loc_07AE:
07AE: DD 35 0D      DEC (IX+0Dh)
07B1: F2 B8 07      JP P,loc_07B8
07B4: DD 36 0D 00   LD (IX+0Dh),00h

loc_07B8:
07B8: C9            RET

sub_07B9:
07B9: DD 35 17      DEC (IX+17h)
07BC: C0            RET NZ
07BD: DD 7E 16      LD A,(IX+16h)
07C0: DD 77 17      LD (IX+17h),A
07C3: DD CB 01 4E   BIT 1,(IX+01h)
07C7: 20 0D         JR NZ,loc_07D6
07C9: DD 34 0C      INC (IX+0Ch)
07CC: F2 E0 07      JP P,loc_07E0
07CF: DD 36 0C 7F   LD (IX+0Ch),7Fh
07D3: C3 E0 07      JP loc_07E0

loc_07D6:
07D6: DD 35 0C      DEC (IX+0Ch)
07D9: F2 E0 07      JP P,loc_07E0
07DC: DD 36 0C 00   LD (IX+0Ch),00h

loc_07E0:
07E0: DD 7E 02      LD A,(IX+02h)
07E3: F6 10         OR 10h
07E5: DD 77 02      LD (IX+02h),A
07E8: C9            RET

sub_07E9:
07E9: 21 10 82      LD HL,8210h
07EC: CB 5E         BIT 3,(HL)
07EE: C8            RET Z
07EF: 3A 19 82      LD A,(8219h)
07F2: 47            LD B,A
07F3: 3A 18 82      LD A,(8218h)
07F6: 80            ADD A,B
07F7: 32 18 82      LD (8218h),A
07FA: D0            RET NC
07FB: CB 66         BIT 4,(HL)
07FD: C2 0F 08      JP NZ,loc_080F

sub_0800:
0800: 3A 17 82      LD A,(8217h)
0803: 3D            DEC A
0804: FA 09 08      JP M,loc_0809
0807: 20 11         JR NZ,loc_081A

loc_0809:
0809: AF            XOR A
080A: CB 9E         RES 3,(HL)
080C: C3 1A 08      JP loc_081A

loc_080F:
080F: 3A 17 82      LD A,(8217h)
0812: 3C            INC A
0813: F2 1A 08      JP P,loc_081A
0816: 3E FF         LD A,FFh
0818: CB 9E         RES 3,(HL)

loc_081A:
081A: 32 17 82      LD (8217h),A
081D: 21 11 82      LD HL,8211h
0820: CB E6         SET 4,(HL)
0822: 3A 19 82      LD A,(8219h)
0825: 32 18 82      LD (8218h),A

sub_0828:
0828: C9            RET

sub_0829:
0829: 3A 13 82      LD A,(8213h)
082C: A7            AND A
082D: 28 10         JR Z,loc_083F
082F: 47            LD B,A
0830: 3A 14 82      LD A,(8214h)
0833: 80            ADD A,B
0834: 32 14 82      LD (8214h),A
0837: 38 06         JR C,loc_083F
0839: 21 10 82      LD HL,8210h
083C: CB 86         RES 0,(HL)
083E: C9            RET

loc_083F:
083F: 21 10 82      LD HL,8210h
0842: CB C6         SET 0,(HL)
0844: CB 4E         BIT 1,(HL)
0846: C8            RET Z
0847: 3A 16 82      LD A,(8216h)
084A: 3D            DEC A
084B: 32 16 82      LD (8216h),A
084E: C0            RET NZ
084F: 3A 15 82      LD A,(8215h)
0852: 32 16 82      LD (8216h),A
0855: 16 02         LD D,02h
0857: CB 56         BIT 2,(HL)
0859: 28 02         JR Z,loc_085D
085B: 16 FE         LD D,FEh

loc_085D:
085D: 3A 13 82      LD A,(8213h)
0860: CD A6 0C      CALL sub_0CA6
0863: A7            AND A
0864: 20 02         JR NZ,loc_0868
0866: 3E 01         LD A,01h

loc_0868:
0868: 32 13 82      LD (8213h),A
086B: C9            RET

sub_086C:
086C: E5            PUSH HL
086D: DD 7E 10      LD A,(IX+10h)
0870: DD 66 15      LD H,(IX+15h)
0873: CD 8B 0C      CALL sub_0C8B
0876: AF            XOR A
0877: CB 05         RLC L
0879: 8C            ADC A,H
087A: A7            AND A
087B: 20 02         JR NZ,loc_087F
087D: 3E 01         LD A,01h

loc_087F:
087F: DD 77 12      LD (IX+12h),A
0882: E1            POP HL
0883: C9            RET

sub_0884:
0884: DD 7E 02      LD A,(IX+02h)
0887: 21 11 82      LD HL,8211h
088A: B6            OR (HL)
088B: DD 77 02      LD (IX+02h),A
088E: E6 80         AND 80h
0890: 28 06         JR Z,loc_0898
0892: CD 52 0B      CALL sub_0B52
0895: C3 CC 08      JP loc_08CC

loc_0898:
0898: DD CB 02 46   BIT 0,(IX+02h)
089C: C4 F8 0A      CALL NZ,sub_0AF8
089F: DD CB 02 56   BIT 2,(IX+02h)
08A3: C4 4E 0A      CALL NZ,sub_0A4E
08A6: DD CB 02 76   BIT 6,(IX+02h)
08AA: C4 01 0B      CALL NZ,sub_0B01
08AD: CD 13 0B      CALL sub_0B13
08B0: DD CB 02 5E   BIT 3,(IX+02h)
08B4: C4 E8 09      CALL NZ,sub_09E8
08B7: DD CB 02 6E   BIT 5,(IX+02h)
08BB: C4 3C 09      CALL NZ,sub_093C
08BE: DD CB 02 66   BIT 4,(IX+02h)
08C2: C4 D1 08      CALL NZ,sub_08D1
08C5: DD CB 02 4E   BIT 1,(IX+02h)

sub_08C9:
08C9: C4 D8 0A      CALL NZ,sub_0AD8

loc_08CC:
08CC: DD 36 02 00   LD (IX+02h),00h
08D0: C9            RET

sub_08D1:
08D1: DD 66 32      LD H,(IX+32h)
08D4: DD 7E 23      LD A,(IX+23h)
08D7: CD 7A 0C      CALL sub_0C7A
08DA: CB 2C         SRA H
08DC: CB 2C         SRA H
08DE: 3A 17 82      LD A,(8217h)
08E1: 47            LD B,A
08E2: DD 7E 0C      LD A,(IX+0Ch)
08E5: 90            SUB B
08E6: 30 01         JR NC,loc_08E9
08E8: AF            XOR A

loc_08E9:
08E9: 84            ADD A,H
08EA: 38 03         JR C,loc_08EF
08EC: F2 F1 08      JP P,loc_08F1

loc_08EF:
08EF: 3E 7F         LD A,7Fh

loc_08F1:
08F1: 87            ADD A,A
08F2: 2F            CPL
08F3: 0F            RRCA
08F4: 0F            RRCA
08F5: E6 3F         AND 3Fh
08F7: 4F            LD C,A
08F8: DD E5         PUSH IX
08FA: CD 32 09      CALL sub_0932
08FD: 57            LD D,A
08FE: 3A 12 82      LD A,(8212h)
0901: C6 60         ADD A,60h
0903: CD 4E 01      CALL loc_014E
0906: DD 23         INC IX

sub_0908:
0908: CD 32 09      CALL sub_0932
090B: 57            LD D,A
090C: 3A 12 82      LD A,(8212h)
090F: C6 68         ADD A,68h
0911: CD 4E 01      CALL loc_014E
0914: DD 23         INC IX
0916: CD 32 09      CALL sub_0932
0919: 57            LD D,A
091A: 3A 12 82      LD A,(8212h)
091D: C6 70         ADD A,70h
091F: CD 4E 01      CALL loc_014E
0922: DD 23         INC IX
0924: CD 32 09      CALL sub_0932
0927: 57            LD D,A

sub_0928:
0928: 3A 12 82      LD A,(8212h)
092B: C6 78         ADD A,78h
092D: DD E1         POP IX
092F: C3 4E 01      JP loc_014E

sub_0932:
0932: DD 7E 36      LD A,(IX+36h)
0935: DD CB 2C 7E   BIT 7,(IX+2Ch)
0939: C8            RET Z
093A: 81            ADD A,C
093B: C9            RET

sub_093C:
093C: DD 7E 08      LD A,(IX+08h)
093F: CB 3F         SRL A
0941: 32 1C 82      LD (821Ch),A
0944: DD 7E 0E      LD A,(IX+0Eh)
0947: 87            ADD A,A
0948: 32 1D 82      LD (821Dh),A
094B: DD E5         PUSH IX
094D: CD 66 09      CALL sub_0966
0950: DD 23         INC IX
0952: CD 66 09      CALL sub_0966
0955: DD 23         INC IX
0957: CD 66 09      CALL sub_0966
095A: DD 23         INC IX
095C: CD 66 09      CALL sub_0966
095F: DD E1         POP IX
0961: DD CB 02 E6   SET 4,(IX+02h)
0965: C9            RET

sub_0966:
0966: 3A 1C 82      LD A,(821Ch)
0969: DD 4E 28      LD C,(IX+28h)
096C: CB 79         BIT 7,C
096E: 28 02         JR Z,loc_0972
0970: C6 40         ADD A,40h

loc_0972:
0972: 26 0E         LD H,0Eh
0974: 6F            LD L,A
0975: 7E            LD A,(HL)
0976: 57            LD D,A
0977: E6 F0         AND F0h
0979: 6F            LD L,A
097A: 79            LD A,C
097B: E6 0F         AND 0Fh
097D: B5            OR L
097E: 26 0D         LD H,0Dh
0980: 6F            LD L,A
0981: 46            LD B,(HL)
0982: 7A            LD A,D
0983: 07            RLCA
0984: 07            RLCA
0985: 07            RLCA
0986: 07            RLCA
0987: E6 F0         AND F0h
0989: 6F            LD L,A
098A: 79            LD A,C
098B: E6 0F         AND 0Fh
098D: B5            OR L
098E: 26 0D         LD H,0Dh
0990: 6F            LD L,A
0991: 7E            LD A,(HL)
0992: 0F            RRCA
0993: 0F            RRCA
0994: 0F            RRCA
0995: 0F            RRCA
0996: E6 0F         AND 0Fh
0998: 80            ADD A,B
0999: 0F            RRCA
099A: 0F            RRCA
099B: 0F            RRCA
099C: E6 1F         AND 1Fh
099E: DD 86 24      ADD A,(IX+24h)
09A1: DA A7 09      JP C,loc_09A7
09A4: F2 A9 09      JP P,loc_09A9

loc_09A7:
09A7: 3E 7F         LD A,7Fh

loc_09A9:
09A9: 4F            LD C,A
09AA: 3A 1D 82      LD A,(821Dh)
09AD: 47            LD B,A
09AE: CB 7F         BIT 7,A
09B0: 20 01         JR NZ,loc_09B3
09B2: 2F            CPL

loc_09B3:
09B3: 07            RLCA
09B4: DD 66 2C      LD H,(IX+2Ch)
09B7: E6 F0         AND F0h
09B9: 6F            LD L,A
09BA: 7C            LD A,H
09BB: E6 0F         AND 0Fh
09BD: B5            OR L
09BE: 26 0D         LD H,0Dh
09C0: 6F            LD L,A
09C1: 7E            LD A,(HL)
09C2: 0F            RRCA
09C3: 0F            RRCA
09C4: 0F            RRCA
09C5: 0F            RRCA
09C6: E6 0F         AND 0Fh
09C8: 1E 1A         LD E,1Ah
09CA: DD CB 2C 7E   BIT 7,(IX+2Ch)
09CE: 20 05         JR NZ,loc_09D5
09D0: 0F            RRCA
09D1: E6 07         AND 07h
09D3: 1E 08         LD E,08h

loc_09D5:
09D5: CB 78         BIT 7,B
09D7: 28 02         JR Z,loc_09DB
09D9: 2F            CPL
09DA: 3C            INC A

loc_09DB:
09DB: 83            ADD A,E
09DC: 81            ADD A,C
09DD: 38 03         JR C,loc_09E2
09DF: F2 E4 09      JP P,loc_09E4

loc_09E2:
09E2: 3E 7F         LD A,7Fh

loc_09E4:
09E4: DD 77 36      LD (IX+36h),A
09E7: C9            RET

sub_09E8:
09E8: DD 66 33      LD H,(IX+33h)
09EB: DD 7E 23      LD A,(IX+23h)
09EE: CD 7A 0C      CALL sub_0C7A
09F1: CB 2C         SRA H
09F3: CB 1D         RR L
09F5: CB 2C         SRA H
09F7: CB 1D         RR L
09F9: CB 2C         SRA H
09FB: CB 1D         RR L
09FD: CB 2C         SRA H
09FF: CB 1D         RR L
0A01: EB            EX DE,HL
0A02: DD 7E 34      LD A,(IX+34h)
0A05: A7            AND A
0A06: FA 16 0A      JP M,loc_0A16
0A09: DD 86 08      ADD A,(IX+08h)
0A0C: FE 5F         CP 5Fh
0A0E: DA 1D 0A      JP C,loc_0A1D
0A11: 3E 5F         LD A,5Fh
0A13: C3 1D 0A      JP loc_0A1D

loc_0A16:
0A16: DD 86 08      ADD A,(IX+08h)
0A19: DA 1D 0A      JP C,loc_0A1D
0A1C: AF            XOR A

loc_0A1D:
0A1D: 67            LD H,A
0A1E: DD 6E 09      LD L,(IX+09h)
0A21: 19            ADD HL,DE
0A22: E5            PUSH HL
0A23: 7C            LD A,H
0A24: 06 0C         LD B,0Ch
0A26: CD 70 0C      CALL sub_0C70
0A29: 21 D5 0E      LD HL,0ED5h
0A2C: 85            ADD A,L
0A2D: 6F            LD L,A
0A2E: 30 01         JR NC,loc_0A31
0A30: 24            INC H

loc_0A31:
0A31: 5E            LD E,(HL)
0A32: 79            LD A,C
0A33: 07            RLCA
0A34: 07            RLCA
0A35: 07            RLCA
0A36: 07            RLCA
0A37: B3            OR E
0A38: 57            LD D,A
0A39: 3A 12 82      LD A,(8212h)
0A3C: C6 28         ADD A,28h
0A3E: CD 4E 01      CALL loc_014E
0A41: E1            POP HL
0A42: 7D            LD A,L
0A43: E6 FC         AND FCh
0A45: 57            LD D,A
0A46: 3A 12 82      LD A,(8212h)
0A49: C6 30         ADD A,30h
0A4B: C3 4E 01      JP loc_014E

sub_0A4E:
0A4E: CD 58 0B      CALL sub_0B58
0A51: DD 6E 20      LD L,(IX+20h)
0A54: DD 66 21      LD H,(IX+21h)
0A57: E5            PUSH HL
0A58: E5            PUSH HL
0A59: FD E1         POP IY
0A5B: 06 15         LD B,15h
0A5D: 21 C0 0E      LD HL,0EC0h

loc_0A60:
0A60: FD 56 00      LD D,(IY+00h)
0A63: 7E            LD A,(HL)
0A64: 81            ADD A,C
0A65: CD 4E 01      CALL loc_014E
0A68: 23            INC HL
0A69: FD 23         INC IY
0A6B: 10 F3         DJNZ loc_0A60
0A6D: DD E5         PUSH IX
0A6F: E1            POP HL
0A70: 3E 24         LD A,24h
0A72: 85            ADD A,L
0A73: 6F            LD L,A
0A74: 30 01         JR NC,loc_0A77
0A76: 24            INC H

loc_0A77:
0A77: EB            EX DE,HL
0A78: E1            POP HL
0A79: E5            PUSH HL
0A7A: 3E 1B         LD A,1Bh
0A7C: 85            ADD A,L
0A7D: 6F            LD L,A
0A7E: 30 01         JR NC,loc_0A81
0A80: 24            INC H

loc_0A81:
0A81: 01 11 00      LD BC,0011h
0A84: ED B0         LDIR
0A86: FD E1         POP IY
0A88: FD 7E 1A      LD A,(IY+1Ah)
0A8B: DD 77 35      LD (IX+35h),A
0A8E: CB 7F         BIT 7,A
0A90: CA D7 0A      JP Z,loc_0AD7
0A93: FD 56 16      LD D,(IY+16h)
0A96: 3E 18         LD A,18h
0A98: CD 4E 01      CALL loc_014E
0A9B: FD 7E 17      LD A,(IY+17h)
0A9E: E6 7F         AND 7Fh
0AA0: 57            LD D,A
0AA1: 3E 19         LD A,19h
0AA3: CD 4E 01      CALL loc_014E
0AA6: FD 7E 18      LD A,(IY+18h)
0AA9: F6 80         OR 80h
0AAB: 57            LD D,A
0AAC: 3E 19         LD A,19h
0AAE: CD 4E 01      CALL loc_014E
0AB1: FD 56 19      LD D,(IY+19h)
0AB4: 3A 12 82      LD A,(8212h)
0AB7: C6 38         ADD A,38h
0AB9: CD 4E 01      CALL loc_014E
0ABC: FD 7E 1A      LD A,(IY+1Ah)
0ABF: E6 0F         AND 0Fh
0AC1: 57            LD D,A
0AC2: 3E 1B         LD A,1Bh
0AC4: CD 4E 01      CALL loc_014E
0AC7: 3A 12 82      LD A,(8212h)
0ACA: FE 07         CP 07h
0ACC: C2 D7 0A      JP NZ,loc_0AD7
0ACF: FD 56 15      LD D,(IY+15h)
0AD2: 3E 0F         LD A,0Fh
0AD4: CD 4E 01      CALL loc_014E

loc_0AD7:
0AD7: C9            RET

sub_0AD8:
0AD8: DD 7E 35      LD A,(IX+35h)
0ADB: F6 3F         OR 3Fh
0ADD: 3C            INC A
0ADE: C2 EF 0A      JP NZ,loc_0AEF
0AE1: 16 02         LD D,02h
0AE3: 3E 01         LD A,01h
0AE5: CD 4E 01      CALL loc_014E
0AE8: 16 00         LD D,00h
0AEA: 3E 01         LD A,01h
0AEC: CD 4E 01      CALL loc_014E

loc_0AEF:
0AEF: 3A 12 82      LD A,(8212h)
0AF2: F6 78         OR 78h
0AF4: 57            LD D,A
0AF5: C3 FC 0A      JP loc_0AFC

sub_0AF8:
0AF8: 3A 12 82      LD A,(8212h)
0AFB: 57            LD D,A

loc_0AFC:
0AFC: 3E 08         LD A,08h
0AFE: C3 4E 01      JP loc_014E

sub_0B01:
0B01: DD 7E 31      LD A,(IX+31h)
0B04: C6 02         ADD A,02h
0B06: DD 77 22      LD (IX+22h),A
0B09: 3E 80         LD A,80h
0B0B: DD CB 30 7E   BIT 7,(IX+30h)
0B0F: 28 33         JR Z,loc_0B44
0B11: 18 27         JR loc_0B3A

sub_0B13:
0B13: DD CB 00 5E   BIT 3,(IX+00h)
0B17: C8            RET Z
0B18: DD 35 22      DEC (IX+22h)
0B1B: C0            RET NZ
0B1C: DD 36 22 01   LD (IX+22h),01h
0B20: DD 7E 23      LD A,(IX+23h)
0B23: C6 80         ADD A,80h
0B25: DD 86 30      ADD A,(IX+30h)
0B28: F5            PUSH AF
0B29: DD CB 30 7E   BIT 7,(IX+30h)
0B2D: 20 07         JR NZ,loc_0B36
0B2F: F1            POP AF
0B30: 30 12         JR NC,loc_0B44
0B32: 3E FF         LD A,FFh
0B34: 18 04         JR loc_0B3A

loc_0B36:
0B36: F1            POP AF
0B37: 38 0B         JR C,loc_0B44
0B39: AF            XOR A

loc_0B3A:
0B3A: 57            LD D,A
0B3B: DD 7E 30      LD A,(IX+30h)
0B3E: ED 44         NEG
0B40: DD 77 30      LD (IX+30h),A
0B43: 7A            LD A,D

loc_0B44:
0B44: D6 80         SUB 80h
0B46: DD 77 23      LD (IX+23h),A
0B49: DD 7E 02      LD A,(IX+02h)
0B4C: F6 18         OR 18h
0B4E: DD 77 02      LD (IX+02h),A
0B51: C9            RET

sub_0B52:
0B52: CD 58 0B      CALL sub_0B58
0B55: C3 F8 0A      JP sub_0AF8

sub_0B58:
0B58: 3A 12 82      LD A,(8212h)
0B5B: 4F            LD C,A
0B5C: 16 0F         LD D,0Fh
0B5E: 3E E0         LD A,E0h
0B60: 81            ADD A,C
0B61: CD 4E 01      CALL loc_014E
0B64: 3E E8         LD A,E8h
0B66: 81            ADD A,C
0B67: CD 4E 01      CALL loc_014E
0B6A: 3E F0         LD A,F0h
0B6C: 81            ADD A,C
0B6D: CD 4E 01      CALL loc_014E
0B70: 3E F8         LD A,F8h
0B72: 81            ADD A,C
0B73: C3 4E 01      JP loc_014E

loc_0B76:
0B76: 11 11 83      LD DE,8311h
0B79: 21 10 83      LD HL,8310h
0B7C: 36 00         LD (HL),00h
0B7E: 01 0F 00      LD BC,000Fh
0B81: ED B0         LDIR
0B83: 3E 78         LD A,78h
0B85: 32 00 98      LD (9800h),A
0B88: C9            RET

loc_0B89:
0B89: A7            AND A
0B8A: FA 03 0C      JP M,loc_0C03
0B8D: CD 33 0C      CALL sub_0C33
0B90: 4E            LD C,(HL)
0B91: 23            INC HL
0B92: 56            LD D,(HL)
0B93: 23            INC HL
0B94: 5E            LD E,(HL)
0B95: AF            XOR A
0B96: 06 04         LD B,04h
0B98: DD 21 13 83   LD IX,8313h

loc_0B9C:
0B9C: DD BE 00      CP (IX+00h)
0B9F: 28 28         JR Z,loc_0BC9
0BA1: DD 2B         DEC IX
0BA3: 10 F7         DJNZ loc_0B9C
0BA5: 3A 1C 82      LD A,(821Ch)
0BA8: 06 04         LD B,04h
0BAA: DD 21 13 83   LD IX,8313h

loc_0BAE:
0BAE: DD BE 08      CP (IX+08h)
0BB1: CA C9 0B      JP Z,loc_0BC9
0BB4: DD 2B         DEC IX
0BB6: 10 F6         DJNZ loc_0BAE
0BB8: 7B            LD A,E
0BB9: 06 04         LD B,04h
0BBB: DD 21 13 83   LD IX,8313h

loc_0BBF:
0BBF: DD BE 04      CP (IX+04h)
0BC2: 30 05         JR NC,loc_0BC9
0BC4: DD 2B         DEC IX
0BC6: 10 F7         DJNZ loc_0BBF
0BC8: C9            RET

loc_0BC9:
0BC9: DD 6E 00      LD L,(IX+00h)
0BCC: DD 71 00      LD (IX+00h),C
0BCF: DD 73 04      LD (IX+04h),E
0BD2: 3A 1C 82      LD A,(821Ch)
0BD5: DD 77 08      LD (IX+08h),A
0BD8: 3E 04         LD A,04h

loc_0BDA:
0BDA: CB 27         SLA A
0BDC: 10 FC         DJNZ loc_0BDA
0BDE: 5F            LD E,A
0BDF: 7D            LD A,L
0BE0: A7            AND A
0BE1: 28 07         JR Z,loc_0BEA
0BE3: 7B            LD A,E
0BE4: CD 5E 0C      CALL sub_0C5E
0BE7: CD 61 0C      CALL sub_0C61

loc_0BEA:
0BEA: CB 23         SLA E
0BEC: 79            LD A,C
0BED: F6 80         OR 80h
0BEF: CD 5E 0C      CALL sub_0C5E
0BF2: 7B            LD A,E
0BF3: B2            OR D
0BF4: CD 5E 0C      CALL sub_0C5E
0BF7: 79            LD A,C
0BF8: F6 80         OR 80h
0BFA: CD 5E 0C      CALL sub_0C5E
0BFD: 7B            LD A,E
0BFE: B2            OR D
0BFF: CD 5E 0C      CALL sub_0C5E
0C02: C9            RET

loc_0C03:
0C03: E6 7F         AND 7Fh
0C05: 06 04         LD B,04h
0C07: DD 21 13 83   LD IX,8313h

loc_0C0B:
0C0B: DD BE 08      CP (IX+08h)
0C0E: CC 16 0C      CALL Z,sub_0C16
0C11: DD 2B         DEC IX
0C13: 10 F6         DJNZ loc_0C0B
0C15: C9            RET

sub_0C16:
0C16: F5            PUSH AF
0C17: C5            PUSH BC
0C18: 3E 04         LD A,04h

loc_0C1A:
0C1A: CB 27         SLA A
0C1C: 10 FC         DJNZ loc_0C1A
0C1E: CD 5E 0C      CALL sub_0C5E
0C21: CD 61 0C      CALL sub_0C61
0C24: DD 36 00 00   LD (IX+00h),00h
0C28: DD 36 04 00   LD (IX+04h),00h
0C2C: DD 36 08 00   LD (IX+08h),00h
0C30: C1            POP BC
0C31: F1            POP AF
0C32: C9            RET

sub_0C33:
0C33: DD 21 10 83   LD IX,8310h
0C37: 06 04         LD B,04h
0C39: 3A 00 98      LD A,(9800h)
0C3C: 4F            LD C,A
0C3D: 16 08         LD D,08h

loc_0C3F:
0C3F: CB 09         RRC C
0C41: 38 14         JR C,loc_0C57
0C43: DD 7E 00      LD A,(IX+00h)
0C46: A7            AND A

loc_0C47:
0C47: 28 0E         JR Z,loc_0C57
0C49: AF            XOR A

loc_0C4A:
0C4A: DD 77 00      LD (IX+00h),A
0C4D: DD 77 04      LD (IX+04h),A
0C50: DD 77 08      LD (IX+08h),A
0C53: 7A            LD A,D
0C54: CD 5E 0C      CALL sub_0C5E

loc_0C57:
0C57: CB 22         SLA D
0C59: DD 23         INC IX
0C5B: 10 E2         DJNZ loc_0C3F
0C5D: C9            RET

sub_0C5E:
0C5E: 32 00 98      LD (9800h),A

sub_0C61:
0C61: F5            PUSH AF
0C62: 3E 64         LD A,64h

loc_0C64:
0C64: 3D            DEC A
0C65: 20 FD         JR NZ,loc_0C64
0C67: F1            POP AF
0C68: C9            RET

sub_0C69:
0C69: 5E            LD E,(HL)
0C6A: 23            INC HL
0C6B: 56            LD D,(HL)
0C6C: 2B            DEC HL
0C6D: EB            EX DE,HL
0C6E: 19            ADD HL,DE
0C6F: C9            RET

sub_0C70:
0C70: 0E 00         LD C,00h

loc_0C72:
0C72: 90            SUB B
0C73: 38 03         JR C,loc_0C78
0C75: 0C            INC C
0C76: 18 FA         JR loc_0C72

loc_0C78:
0C78: 80            ADD A,B
0C79: C9            RET

sub_0C7A:
0C7A: CB 7F         BIT 7,A
0C7C: 28 0D         JR Z,sub_0C8B
0C7E: ED 44         NEG
0C80: CD 8B 0C      CALL sub_0C8B
0C83: EB            EX DE,HL

loc_0C84:
0C84: 21 00 00      LD HL,0000h
0C87: A7            AND A
0C88: ED 52         SBC HL,DE
0C8A: C9            RET

sub_0C8B:
0C8B: 5F            LD E,A
0C8C: 16 00         LD D,00h
0C8E: 2E 00         LD L,00h
0C90: 06 08         LD B,08h

loc_0C92:
0C92: 29            ADD HL,HL
0C93: 30 01         JR NC,loc_0C96
0C95: 19            ADD HL,DE

loc_0C96:
0C96: 10 FA         DJNZ loc_0C92
0C98: C9            RET
0C99: 21 00 00      LD HL,0000h
0C9C: C9            RET

sub_0C9D:
0C9D: AF            XOR A
0C9E: 53            LD D,E
0C9F: CB 22         SLA D
0CA1: 17            RLA
0CA2: ED 44         NEG
0CA4: 57            LD D,A
0CA5: C9            RET

sub_0CA6:
0CA6: CB 7A         BIT 7,D
0CA8: 28 05         JR Z,loc_0CAF
0CAA: 82            ADD A,D
0CAB: D8            RET C
0CAC: 3E 00         LD A,00h
0CAE: C9            RET

loc_0CAF:
0CAF: 82            ADD A,D
0CB0: D0            RET NC
0CB1: 3E FF         LD A,FFh
0CB3: C9            RET
0CB4: 00 00 00 00...DB 00h ; x93
0D11: 01 02 03      LD BC,0302h
0D14: 04            INC B
0D15: 05            DEC B
0D16: 06 07         LD B,07h
0D18: 08            EX AF,AF'
0D19: 09            ADD HL,BC
0D1A: 0A            LD A,(BC)
0D1B: 0B            DEC BC
0D1C: 0C            INC C
0D1D: 0D            DEC C
0D1E: 0E 0F         LD C,0Fh
0D20: 00            NOP
0D21: 02            LD (BC),A
0D22: 04            INC B
0D23: 06 08         LD B,08h
0D25: 0A            LD A,(BC)
0D26: 0C            INC C
0D27: 0E 10         LD C,10h
0D29: 12            LD (DE),A
0D2A: 14            INC D
0D2B: 16 18         LD D,18h
0D2D: 1A            LD A,(DE)
0D2E: 1C            INC E
0D2F: 1E 00         LD E,00h
0D31: 03            INC BC
0D32: 06 09         LD B,09h
0D34: 0C            INC C
0D35: 0F            RRCA
0D36: 12            LD (DE),A
0D37: 15            DEC D
0D38: 18 1B         JR loc_0D55
0D3A: 1E 21         LD E,21h
0D3C: 24            INC H
0D3D: 27            DAA
0D3E: 2A 2D 00      LD HL,(002Dh)
0D41: 04            INC B
0D42: 08            EX AF,AF'
0D43: 0C            INC C
0D44: 10 14         DJNZ loc_0D5A
0D46: 18 1C         JR loc_0D64
0D48: 20 24         JR NZ,loc_0D6E
0D4A: 28 2C         JR Z,loc_0D78
0D4C: 30 34         JR NC,loc_0D82
0D4E: 38 3C         JR C,loc_0D8C
0D50: 00            NOP
0D51: 05            DEC B
0D52: 0A            LD A,(BC)
0D53: 0F            RRCA
0D54: 14            INC D

loc_0D55:
0D55: 19            ADD HL,DE
0D56: 1E 23         LD E,23h
0D58: 28 2D         JR Z,loc_0D87

loc_0D5A:
0D5A: 32 37 3C      LD (3C37h),A
0D5D: 41            LD B,C
0D5E: 46            LD B,(HL)
0D5F: 4B            LD C,E
0D60: 00            NOP
0D61: 06 0C         LD B,0Ch
0D63: 12            LD (DE),A

loc_0D64:
0D64: 18 1E         JR loc_0D84
0D66: 24            INC H
0D67: 2A 30 36      LD HL,(3630h)
0D6A: 3C            INC A
0D6B: 42            LD B,D
0D6C: 48            LD C,B
0D6D: 4E            LD C,(HL)

loc_0D6E:
0D6E: 54            LD D,H
0D6F: 5A            LD E,D
0D70: 00            NOP
0D71: 07            RLCA
0D72: 0E 15         LD C,15h
0D74: 1C            INC E
0D75: 23            INC HL
0D76: 2A 31 38      LD HL,(3831h)
0D79: 3F            CCF
0D7A: 46            LD B,(HL)
0D7B: 4D            LD C,L
0D7C: 54            LD D,H
0D7D: 5B            LD E,E
0D7E: 62            LD H,D
0D7F: 69            LD L,C
0D80: 00            NOP
0D81: 08            EX AF,AF'

loc_0D82:
0D82: 10 18         DJNZ loc_0D9C

loc_0D84:
0D84: 20 28         JR NZ,loc_0DAE
0D86: 30 38         JR NC,loc_0DC0
0D88: 40            LD B,B
0D89: 48            LD C,B
0D8A: 50            LD D,B
0D8B: 58            LD E,B

loc_0D8C:
0D8C: 60            LD H,B
0D8D: 68            LD L,B
0D8E: 70            LD (HL),B
0D8F: 78            LD A,B
0D90: 00            NOP
0D91: 09            ADD HL,BC
0D92: 12            LD (DE),A
0D93: 1B            DEC DE
0D94: 24            INC H
0D95: 2D            DEC L
0D96: 36 3F         LD (HL),3Fh
0D98: 48            LD C,B
0D99: 51            LD D,C
0D9A: 5A            LD E,D
0D9B: 63            LD H,E

loc_0D9C:
0D9C: 6C            LD L,H
0D9D: 75            LD (HL),L
0D9E: 7E            LD A,(HL)
0D9F: 87            ADD A,A
0DA0: 00            NOP
0DA1: 0A            LD A,(BC)
0DA2: 14            INC D
0DA3: 1E 28         LD E,28h
0DA5: 32 3C 46      LD (463Ch),A
0DA8: 50            LD D,B
0DA9: 5A            LD E,D
0DAA: 64            LD H,H
0DAB: 6E            LD L,(HL)
0DAC: 78            LD A,B
0DAD: 82            ADD A,D

loc_0DAE:
0DAE: 8C            ADC A,H
0DAF: 96            SUB (HL)
0DB0: 00            NOP
0DB1: 0B            DEC BC
0DB2: 16 21         LD D,21h
0DB4: 2C            INC L
0DB5: 37            SCF
0DB6: 42            LD B,D
0DB7: 4D            LD C,L
0DB8: 58            LD E,B
0DB9: 63            LD H,E
0DBA: 6E            LD L,(HL)
0DBB: 79            LD A,C
0DBC: 84            ADD A,H
0DBD: 8F            ADC A,A
0DBE: 9A            SBC A,D
0DBF: A5            AND L

loc_0DC0:
0DC0: 00            NOP
0DC1: 0C            INC C
0DC2: 18 24         JR loc_0DE8
0DC4: 30 3C         JR NC,loc_0E02
0DC6: 48            LD C,B
0DC7: 54            LD D,H
0DC8: 60            LD H,B
0DC9: 6C            LD L,H
0DCA: 78            LD A,B
0DCB: 84            ADD A,H
0DCC: 90            SUB B
0DCD: 9C            SBC A,H
0DCE: A8            XOR B
0DCF: B4            OR H
0DD0: 00            NOP
0DD1: 0D            DEC C
0DD2: 1A            LD A,(DE)
0DD3: 27            DAA
0DD4: 34            INC (HL)
0DD5: 41            LD B,C
0DD6: 4E            LD C,(HL)
0DD7: 5B            LD E,E
0DD8: 68            LD L,B
0DD9: 75            LD (HL),L
0DDA: 82            ADD A,D
0DDB: 8F            ADC A,A
0DDC: 9C            SBC A,H
0DDD: A9            XOR C
0DDE: B6            OR (HL)
0DDF: C3 00 0E      JP loc_0E00
0DE2: 1C            INC E
0DE3: 2A 38 46      LD HL,(4638h)
0DE6: 54            LD D,H
0DE7: 62            LD H,D

loc_0DE8:
0DE8: 70            LD (HL),B
0DE9: 7E            LD A,(HL)
0DEA: 8C            ADC A,H
0DEB: 9A            SBC A,D
0DEC: A8            XOR B
0DED: B6            OR (HL)
0DEE: C4 D2 00      CALL NZ,sub_00D2
0DF1: 0F            RRCA
0DF2: 1E 2D         LD E,2Dh
0DF4: 3C            INC A
0DF5: 4B            LD C,E
0DF6: 5A            LD E,D
0DF7: 69            LD L,C
0DF8: 78            LD A,B
0DF9: 87            ADD A,A
0DFA: 96            SUB (HL)
0DFB: A5            AND L
0DFC: B4            OR H
0DFD: C3 D2 E1      JP E1D2h

loc_0E00:
0E00: 00            NOP
0E01: 00            NOP

loc_0E02:
0E02: 00            NOP
0E03: 00            NOP
0E04: 00            NOP
0E05: 00            NOP
0E06: 00            NOP
0E07: 05            DEC B
0E08: 0A            LD A,(BC)
0E09: 0F            RRCA
0E0A: 14            INC D
0E0B: 19            ADD HL,DE
0E0C: 1E 22         LD E,22h
0E0E: 27            DAA
0E0F: 2C            INC L
0E10: 31 36 3B      LD SP,3B36h
0E13: 40            LD B,B
0E14: 45            LD B,L
0E15: 4A            LD C,D
0E16: 4F            LD C,A
0E17: 54            LD D,H
0E18: 59            LD E,C
0E19: 5E            LD E,(HL)
0E1A: 62            LD H,D
0E1B: 67            LD H,A
0E1C: 6C            LD L,H
0E1D: 71            LD (HL),C
0E1E: 76            HALT
0E1F: 7B            LD A,E
0E20: 80            ADD A,B
0E21: 85            ADD A,L
0E22: 8A            ADC A,D
0E23: 8F            ADC A,A
0E24: 94            SUB H
0E25: 99            SBC A,C
0E26: 9E            SBC A,(HL)
0E27: A2            AND D
0E28: A7            AND A
0E29: AC            XOR H
0E2A: B1            OR C
0E2B: B6            OR (HL)
0E2C: BB            CP E
0E2D: C0            RET NZ
0E2E: C5            PUSH BC
0E2F: CA CF D4      JP Z,D4CFh
0E32: D9            EXX
0E33: DE E2         SBC A,E2h
0E35: E7            RST 20h
0E36: EC F1 F6      CALL PE,F6F1h
0E39: FB            EI
0E3A: FE FF         CP FFh
0E3C: FF            RST 38h
0E3D: FF            RST 38h
0E3E: FF            RST 38h
0E3F: FF            RST 38h
0E40: FF            RST 38h
0E41: E1            POP HL
0E42: FF            RST 38h
0E43: FF            RST 38h
0E44: FF            RST 38h
0E45: FF            RST 38h
0E46: FF            RST 38h
0E47: FF            RST 38h
0E48: FE FD         CP FDh
0E4A: FC FA F8      CALL M,F8FAh
0E4D: F6 F3         OR F3h
0E4F: F0            RET P
0E50: EC E8 E4      CALL PE,E4E8h
0E53: DF            RST 18h
0E54: DA D4 CF      JP C,CFD4h
0E57: C8            RET Z
0E58: C2 BB B3      JP NZ,B3BBh
0E5B: AB            XOR E
0E5C: A3            AND E
0E5D: 9B            SBC A,E
0E5E: 92            SUB D
0E5F: 89            ADC A,C
0E60: 7F            LD A,A
0E61: 75            LD (HL),L
0E62: 6C            LD L,H
0E63: 63            LD H,E
0E64: 5B            LD E,E
0E65: 53            LD D,E
0E66: 4B            LD C,E
0E67: 43            LD B,E
0E68: 3C            INC A
0E69: 36 2F         LD (HL),2Fh
0E6B: 2A 24 1F      LD HL,(1F24h)
0E6E: 1A            LD A,(DE)
0E6F: 16 12         LD D,12h
0E71: 0E 0B         LD C,0Bh
0E73: 08            EX AF,AF'
0E74: 06 04         LD B,04h
0E76: 02            LD (BC),A
0E77: 01 01 01      LD BC,0101h
0E7A: 01 00 00      LD BC,0000h
0E7D: 00            NOP
0E7E: 00            NOP
0E7F: 00            NOP
0E80: 01 00 80      LD BC,8000h
0E83: 2D            DEC L
0E84: 00            NOP
0E85: 00            NOP
0E86: 00            NOP
0E87: 00            NOP
0E88: 00            NOP
0E89: 00            NOP
0E8A: 00            NOP
0E8B: 30 7F         JR NC,loc_0F0C
0E8D: 40            LD B,B
0E8E: 40            LD B,B
0E8F: 0A            LD A,(BC)
0E90: 0C            INC C
0E91: 01 0B 00      LD BC,000Bh
0E94: 06 DC         LD B,DCh
0E96: 00 00 00 00...DB 00h ; x9
0E9F: 24            INC H
0EA0: 00 00 00 00...DB 00h ; x26
0EBA: 41            LD B,C
0EBB: 42            LD B,D
0EBC: 43            LD B,E
0EBD: 44            LD B,H
0EBE: 45            LD B,L
0EBF: 46            LD B,(HL)
0EC0: 20 40         JR NZ,loc_0F02
0EC2: 48            LD C,B
0EC3: 50            LD D,B
0EC4: 58            LD E,B
0EC5: 80            ADD A,B
0EC6: 88            ADC A,B
0EC7: 90            SUB B
0EC8: 98            SBC A,B
0EC9: A0            AND B
0ECA: A8            XOR B
0ECB: B0            OR B
0ECC: B8            CP B
0ECD: C0            RET NZ
0ECE: C8            RET Z
0ECF: D0            RET NC
0ED0: D8            RET C
0ED1: E0            RET PO
0ED2: E8            RET PE
0ED3: F0            RET P
0ED4: F8            RET M
0ED5: 00            NOP
0ED6: 01 02 04      LD BC,0402h
0ED9: 05            DEC B
0EDA: 06 08         LD B,08h
0EDC: 09            ADD HL,BC
0EDD: 0A            LD A,(BC)
0EDE: 0C            INC C
0EDF: 0D            DEC C
0EE0: 0E 1D         LD C,1Dh
0EE2: 04            INC B
0EE3: 24            INC H
0EE4: 04            INC B
0EE5: 2E 04         LD L,04h
0EE7: 35            DEC (HL)
0EE8: 04            INC B
0EE9: 53            LD D,E
0EEA: 04            INC B
0EEB: 5A            LD E,D
0EEC: 04            INC B
0EED: 5E            LD E,(HL)
0EEE: 04            INC B
0EEF: 62            LD H,D
0EF0: 04            INC B
0EF1: 6C            LD L,H
0EF2: 04            INC B
0EF3: 73            LD (HL),E
0EF4: 04            INC B
0EF5: B7            OR A
0EF6: 04            INC B
0EF7: BE            CP (HL)
0EF8: 04            INC B
0EF9: C4 04 D6      CALL NZ,D604h
0EFC: 04            INC B
0EFD: DC 04 EE      CALL C,EE04h
0F00: 04            INC B
0F01: F8            RET M

loc_0F02:
0F02: 04            INC B
0F03: FB            EI
0F04: 04            INC B
0F05: 12            LD (DE),A
0F06: 05            DEC B
0F07: 1B            DEC DE
0F08: 05            DEC B
0F09: 2F            CPL
0F0A: 05            DEC B
0F0B: 39            ADD HL,SP

loc_0F0C:
0F0C: 05            DEC B
0F0D: 55            LD D,L
0F0E: 05            DEC B
0F0F: 63            LD H,E
0F10: 05            DEC B
0F11: 68            LD L,B
0F12: 05            DEC B
0F13: 72            LD (HL),D
0F14: 05            DEC B
0F15: 7C            LD A,H
0F16: 05            DEC B
0F17: 83            ADD A,E
0F18: 05            DEC B
0F19: 8D            ADC A,L
0F1A: 05            DEC B
0F1B: 93            SUB E
0F1C: 05            DEC B
0F1D: 99            SBC A,C
0F1E: 05            DEC B
0F1F: A1            AND C
0F20: 05            DEC B
0F21: B8            CP B
0F22: 05            DEC B
0F23: BD            CP L
0F24: 05            DEC B
0F25: D9            EXX
0F26: 05            DEC B
0F27: ED 05         DB EDh,05h
0F29: 08            EX AF,AF'
0F2A: 06 17         LD B,17h
0F2C: 06 31         LD B,31h
0F2E: 06 52         LD B,52h
0F30: 06 90         LD B,90h
0F32: 04            INC B
0F33: 97            SUB A
0F34: 04            INC B
0F35: 6F            LD L,A
0F36: 06 00         LD B,00h
0F38: 00 00 00 00...DB 00h ; x72
0F80: 20 54         JR NZ,loc_0FD6
0F82: 65            LD H,L
0F83: 63            LD H,E
0F84: 68            LD L,B
0F85: 6E            LD L,(HL)
0F86: 6F            LD L,A
0F87: 73            LD (HL),E
0F88: 20 4A         JR NZ,loc_0FD4
0F8A: 61            LD H,C
0F8B: 70            LD (HL),B
0F8C: 61            LD H,C
0F8D: 6E            LD L,(HL)
0F8E: 20 20         JR NZ,loc_0FB0
0F90: 4F            LD C,A
0F91: 50            LD D,B
0F92: 4D            LD C,L
0F93: 2F            CPL
0F94: 4D            LD C,L
0F95: 53            LD D,E
0F96: 4D            LD C,L
0F97: 36 32         LD (HL),32h
0F99: 39            ADD HL,SP
0F9A: 35            DEC (HL)
0F9B: 28 4F         JR Z,loc_0FEC
0F9D: 6B            LD L,E
0F9E: 69            LD L,C
0F9F: 29            ADD HL,HL
0FA0: 20 20         JR NZ,loc_0FC2
0FA2: 53            LD D,E
0FA3: 6F            LD L,A
0FA4: 75            LD (HL),L
0FA5: 6E            LD L,(HL)
0FA6: 64            LD H,H
0FA7: 20 53         JR NZ,loc_0FFC
0FA9: 79            LD A,C
0FAA: 73            LD (HL),E
0FAB: 74            LD (HL),H
0FAC: 65            LD H,L
0FAD: 6D            LD L,L
0FAE: 20 20         JR NZ,loc_0FD0

loc_0FB0:
0FB0: 44            LD B,H
0FB1: 61            LD H,C
0FB2: 74            LD (HL),H
0FB3: 65            LD H,L
0FB4: 20 41         JR NZ,loc_0FF7
0FB6: 75            LD (HL),L
0FB7: 67            LD H,A
0FB8: 2F            CPL
0FB9: 32 34 2F      LD (2F34h),A
0FBC: 31 39 38      LD SP,3839h
0FBF: 38 20         JR C,loc_0FE1
0FC1: 28 63         JR Z,loc_1026
0FC3: 29            ADD HL,HL
0FC4: 20 43         JR NZ,loc_1009
0FC6: 6F            LD L,A
0FC7: 70            LD (HL),B
0FC8: 79            LD A,C
0FC9: 72            LD (HL),D
0FCA: 69            LD L,C
0FCB: 67            LD H,A
0FCC: 68            LD L,B
0FCD: 74            LD (HL),H
0FCE: 20 20         JR NZ,loc_0FF0

loc_0FD0:
0FD0: 20 20         JR NZ,loc_0FF2
0FD2: 20 31         JR NZ,loc_1005

loc_0FD4:
0FD4: 39            ADD HL,SP
0FD5: 38 37         JR C,loc_100E
0FD7: 2C            INC L
0FD8: 31 39 38      LD SP,3839h
0FDB: 38 20         JR C,loc_0FFD
0FDD: 20 20         JR NZ,loc_0FFF
0FDF: 20 20         JR NZ,loc_1001

loc_0FE1:
0FE1: 53            LD D,E
0FE2: 74            LD (HL),H
0FE3: 75            LD (HL),L
0FE4: 64            LD H,H
0FE5: 69            LD L,C
0FE6: 6F            LD L,A
0FE7: 20 4C         JR NZ,loc_1035
0FE9: 6F            LD L,A
0FEA: 61            LD H,C
0FEB: 70            LD (HL),B

loc_0FEC:
0FEC: 6C            LD L,H
0FED: 65            LD H,L
0FEE: 20 20         JR NZ,loc_1010

loc_0FF0:
0FF0: 54            LD D,H
0FF1: 45            LD B,L

loc_0FF2:
0FF2: 4C            LD C,H
0FF3: 20 30         JR NZ,loc_1025
0FF5: 34            INC (HL)
0FF6: 32 33 2D      LD (2D33h),A
0FF9: 32 33 2D      LD (2D33h),A

loc_0FFC:
0FFC: 33            INC SP

loc_0FFD:
0FFD: 30 39         JR NC,loc_1038

loc_0FFF:
0FFF: 32 5A 00      LD (005Ah),A
1002: 63            LD H,E
1003: 02            LD (BC),A
1004: FF            RST 38h

loc_1005:
1005: 00            NOP
1006: 06 0F         LD B,0Fh

sub_1008:
1008: FF            RST 38h

loc_1009:
1009: 00            NOP
100A: 2C            INC L
100B: 16 FF         LD D,FFh
100D: 00            NOP

loc_100E:
100E: 35            DEC (HL)
100F: 1D            DEC E

loc_1010:
1010: FF            RST 38h
1011: 00            NOP
1012: 56            LD D,(HL)
1013: 24            INC H
1014: FF            RST 38h
1015: 00            NOP
1016: 91            SUB C
1017: 27            DAA
1018: FF            RST 38h
1019: 00            NOP
101A: 60            LD H,B
101B: 2C            INC L
101C: FF            RST 38h
101D: 00            NOP
101E: C8            RET Z
101F: 37            SCF
1020: FF            RST 38h
1021: 00            NOP
1022: 2C            INC L
1023: 3C            INC A
1024: FF            RST 38h

loc_1025:
1025: 00            NOP

loc_1026:
1026: B9            CP C
1027: 41            LD B,C
1028: FF            RST 38h
1029: 00            NOP
102A: D8            RET C
102B: 2F            CPL
102C: FF            RST 38h
102D: 00            NOP
102E: 66            LD H,(HL)
102F: 31 FF 00      LD SP,00FFh
1032: 75            LD (HL),L
1033: 35            DEC (HL)
1034: FF            RST 38h

loc_1035:
1035: 00            NOP
1036: F2 36 FF      JP P,FF36h
1039: 00            NOP
103A: 6A            LD L,D
103B: 01 FF 00      LD BC,00FFh
103E: 01 00 F0      LD BC,F000h
1041: FF            RST 38h
1042: 02            LD (BC),A
1043: 00            NOP
1044: F0            RET P
1045: FF            RST 38h
1046: 03            INC BC
1047: 00            NOP
1048: F0            RET P
1049: FF            RST 38h
104A: 04            INC B
104B: 00            NOP
104C: F0            RET P
104D: FF            RST 38h
104E: 05            DEC B
104F: 00            NOP
1050: F0            RET P
1051: FF            RST 38h
1052: 06 00         LD B,00h
1054: F0            RET P
1055: FF            RST 38h
1056: 07            RLCA
1057: 00            NOP
1058: F0            RET P
1059: FF            RST 38h
105A: 08            EX AF,AF'
105B: 00            NOP
105C: F0            RET P
105D: FF            RST 38h
105E: 09            ADD HL,BC
105F: 00            NOP
1060: F0            RET P
1061: FF            RST 38h
1062: 0A            LD A,(BC)
1063: 00            NOP
1064: F0            RET P
1065: FF            RST 38h
1066: 0B            DEC BC
1067: 00            NOP
1068: F0            RET P
1069: FF            RST 38h
106A: 0C            INC C
106B: 00            NOP
106C: F0            RET P
106D: FF            RST 38h
106E: 0D            DEC C
106F: 00            NOP
1070: F0            RET P
1071: FF            RST 38h
1072: 0E 00         LD C,00h
1074: F0            RET P
1075: FF            RST 38h
1076: 0F            RRCA
1077: 00            NOP
1078: F0            RET P
1079: FF            RST 38h
107A: 10 00         DJNZ loc_107C

loc_107C:
107C: F0            RET P
107D: FF            RST 38h
107E: 11 00 F0      LD DE,F000h
1081: FF            RST 38h
1082: 12            LD (DE),A
1083: 00            NOP
1084: F0            RET P
1085: FF            RST 38h
1086: 13            INC DE
1087: 00            NOP
1088: F0            RET P
1089: FF            RST 38h
108A: 14            INC D
108B: 00            NOP
108C: F0            RET P
108D: FF            RST 38h
108E: 15            DEC D
108F: 00            NOP
1090: F0            RET P
1091: FF            RST 38h
1092: 16 00         LD D,00h
1094: F0            RET P
1095: FF            RST 38h
1096: 17            RLA
1097: 00            NOP
1098: F0            RET P
1099: FF            RST 38h
109A: 18 00         JR loc_109C

loc_109C:
109C: F0            RET P
109D: FF            RST 38h
109E: 19            ADD HL,DE
109F: 00            NOP
10A0: F0            RET P
10A1: FF            RST 38h
10A2: 1A            LD A,(DE)
10A3: 00            NOP
10A4: F0            RET P
10A5: FF            RST 38h
10A6: 1B            DEC DE
10A7: 00            NOP
10A8: F0            RET P
10A9: FF            RST 38h
10AA: 1C            INC E
10AB: 00            NOP
10AC: F0            RET P
10AD: FF            RST 38h
10AE: 1D            DEC E
10AF: 00            NOP
10B0: F0            RET P
10B1: FF            RST 38h
10B2: 1E 00         LD E,00h
10B4: F0            RET P
10B5: FF            RST 38h
10B6: 1F            RRA
10B7: 00            NOP
10B8: F0            RET P
10B9: FF            RST 38h
10BA: 20 00         JR NZ,loc_10BC

loc_10BC:
10BC: F0            RET P
10BD: FF            RST 38h
10BE: 21 00 F0      LD HL,F000h
10C1: FF            RST 38h
10C2: 22 00 F0      LD (F000h),HL
10C5: FF            RST 38h
10C6: 23            INC HL
10C7: 00            NOP
10C8: F0            RET P
10C9: FF            RST 38h
10CA: 24            INC H
10CB: 00            NOP
10CC: F0            RET P
10CD: FF            RST 38h
10CE: 25            DEC H
10CF: 00            NOP

sub_10D0:
10D0: F0            RET P
10D1: FF            RST 38h
10D2: 26 00         LD H,00h
10D4: F0            RET P
10D5: FF            RST 38h
10D6: 27            DAA
10D7: 00            NOP
10D8: F0            RET P
10D9: FF            RST 38h
10DA: 28 00         JR Z,loc_10DC

loc_10DC:
10DC: F0            RET P
10DD: FF            RST 38h
10DE: 29            ADD HL,HL
10DF: 00            NOP
10E0: F0            RET P
10E1: FF            RST 38h
10E2: 2A 00 F0      LD HL,(F000h)
10E5: FF            RST 38h
10E6: 2B            DEC HL
10E7: 00            NOP
10E8: F0            RET P
10E9: FF            RST 38h
10EA: 2C            INC L
10EB: 00            NOP
10EC: F0            RET P
10ED: FF            RST 38h
10EE: 2D            DEC L
10EF: 00            NOP

sub_10F0:
10F0: F0            RET P
10F1: FF            RST 38h
10F2: 2E 00         LD L,00h
10F4: F0            RET P
10F5: FF            RST 38h
10F6: 2F            CPL
10F7: 00            NOP

sub_10F8:
10F8: F0            RET P
10F9: FF            RST 38h
10FA: 30 00         JR NC,loc_10FC

loc_10FC:
10FC: F0            RET P
10FD: FF            RST 38h
10FE: 31 00 F0      LD SP,F000h
1101: FF            RST 38h
1102: 32 00 F0      LD (F000h),A
1105: FF            RST 38h
1106: 33            INC SP
1107: 00            NOP
1108: F0            RET P
1109: FF            RST 38h
110A: 34            INC (HL)
110B: 00            NOP
110C: F0            RET P
110D: FF            RST 38h
110E: 35            DEC (HL)
110F: 00            NOP

loc_1110:
1110: F0            RET P
1111: FF            RST 38h

loc_1112:
1112: 36 00         LD (HL),00h
1114: F0            RET P
1115: FF            RST 38h
1116: 37            SCF
1117: 00            NOP
1118: F0            RET P
1119: FF            RST 38h
111A: 38 00         JR C,loc_111C

loc_111C:
111C: F0            RET P
111D: FF            RST 38h
111E: 39            ADD HL,SP
111F: 00            NOP
1120: F0            RET P

sub_1121:
1121: FF            RST 38h
1122: 3A 00 F0      LD A,(F000h)
1125: FF            RST 38h
1126: 3B            DEC SP
1127: 00            NOP
1128: F0            RET P
1129: FF            RST 38h
112A: 3C            INC A
112B: 00            NOP
112C: F0            RET P
112D: FF            RST 38h
112E: 3D            DEC A
112F: 00            NOP
1130: F0            RET P
1131: FF            RST 38h
1132: 3E 00         LD A,00h
1134: F0            RET P
1135: FF            RST 38h
1136: 3F            CCF
1137: 00            NOP
1138: F0            RET P
1139: FF            RST 38h
113A: 40            LD B,B
113B: 00            NOP
113C: F0            RET P
113D: FF            RST 38h
113E: 41            LD B,C
113F: 00            NOP
1140: F0            RET P
1141: FF            RST 38h
1142: 42            LD B,D
1143: 00            NOP
1144: F0            RET P
1145: FF            RST 38h
1146: 43            LD B,E
1147: 00            NOP
1148: F0            RET P
1149: FF            RST 38h
114A: 44            LD B,H
114B: 00            NOP
114C: F0            RET P
114D: FF            RST 38h
114E: 45            LD B,L
114F: 00            NOP
1150: F0            RET P
1151: FF            RST 38h
1152: 46            LD B,(HL)
1153: 00            NOP
1154: F0            RET P
1155: FF            RST 38h
1156: 46            LD B,(HL)
1157: 00            NOP
1158: F0            RET P
1159: FF            RST 38h
115A: 46            LD B,(HL)
115B: 00            NOP
115C: F0            RET P
115D: FF            RST 38h
115E: 49            LD C,C
115F: 45            LD B,L
1160: FF            RST 38h
1161: 00            NOP
1162: 29            ADD HL,HL
1163: 46            LD B,(HL)
1164: FF            RST 38h
1165: 00            NOP
1166: 29            ADD HL,HL
1167: 46            LD B,(HL)
1168: FF            RST 38h
1169: 00            NOP
116A: 00            NOP
116B: 00            NOP
116C: 42            LD B,D
116D: 00            NOP
116E: 01 00 56      LD BC,5600h
1171: 00            NOP
1172: 02            LD (BC),A
1173: 00            NOP
1174: 5B            LD E,E
1175: 00            NOP
1176: 03            INC BC
1177: 00            NOP
1178: 62            LD H,D
1179: 00            NOP

loc_117A:
117A: 04            INC B
117B: 00            NOP
117C: 69            LD L,C
117D: 00            NOP
117E: 05            DEC B
117F: 00            NOP
1180: 70            LD (HL),B
1181: 00            NOP
1182: 06 00         LD B,00h
1184: 77            LD (HL),A
1185: 00            NOP
1186: 07            RLCA
1187: 00            NOP
1188: 93            SUB E
1189: 00            NOP
118A: FF            RST 38h
118B: 00            NOP
118C: 00            NOP
118D: 1F            RRA
118E: 00            NOP
118F: 01 00 1B      LD BC,1B00h
1192: 00            NOP
1193: 02            LD (BC),A
1194: 00            NOP
1195: 17            RLA
1196: 00            NOP
1197: 03            INC BC
1198: 00            NOP
1199: 13            INC DE
119A: 00            NOP
119B: 04            INC B
119C: 00            NOP
119D: 0F            RRCA
119E: 00            NOP
119F: 05            DEC B
11A0: 00            NOP
11A1: 0B            DEC BC
11A2: 00            NOP
11A3: 06 00         LD B,00h
11A5: 07            RLCA
11A6: 00            NOP
11A7: 07            RLCA
11A8: 00            NOP
11A9: 03            INC BC
11AA: 00            NOP
11AB: FF            RST 38h
11AC: D6 E7         SUB E7h
11AE: DF            RST 18h
11AF: BB            CP E
11B0: 55            LD D,L
11B1: C8            RET Z
11B2: 7F            LD A,A
11B3: E8            RET PE
11B4: 78            LD A,B
11B5: C0            RET NZ
11B6: 28 C2         JR Z,loc_117A
11B8: 00            NOP
11B9: D5            PUSH DE
11BA: EA 78 EA      JP PE,EA78h
11BD: 78            LD A,B
11BE: EA 78 EA      JP PE,EA78h
11C1: 78            LD A,B
11C2: EA 78 D6      JP PE,D678h
11C5: E7            RST 20h
11C6: C8            RET Z
11C7: 78            LD A,B
11C8: E8            RET PE
11C9: 78            LD A,B
11CA: C2 00 E0      JP NZ,E000h
11CD: 39            ADD HL,SP
11CE: 00            NOP
11CF: EA 14 C8      JP PE,C814h
11D2: 6E            LD L,(HL)
11D3: E8            RET PE
11D4: 78            LD A,B
11D5: C2 0A E0      JP NZ,E00Ah
11D8: 2E 00         LD L,00h
11DA: EA 28 C8      JP PE,C828h
11DD: 64            LD H,H
11DE: E8            RET PE
11DF: 78            LD A,B
11E0: C2 14 E0      JP NZ,E014h
11E3: 23            INC HL
11E4: 00            NOP
11E5: EA 3C C8      JP PE,C83Ch
11E8: 5A            LD E,D
11E9: E8            RET PE
11EA: 78            LD A,B
11EB: C2 1E E0      JP NZ,E01Eh
11EE: 18 00         JR loc_11F0

loc_11F0:
11F0: EA 50 C8      JP PE,C850h
11F3: 50            LD D,B
11F4: E8            RET PE
11F5: 78            LD A,B
11F6: C2 28 E0      JP NZ,E028h
11F9: 0D            DEC C
11FA: 00            NOP
11FB: EA 64 C8      JP PE,C864h
11FE: 46            LD B,(HL)
11FF: E8            RET PE
1200: 78            LD A,B
1201: C2 32 E0      JP NZ,E032h
1204: 02            LD (BC),A
1205: 00            NOP
1206: DF            RST 18h
1207: 67            LD H,A
1208: 45            LD B,L
1209: C0            RET NZ
120A: 3C            INC A
120B: D5            PUSH DE
120C: E3            EX (SP),HL
120D: 32 C3 14      LD (14C3h),A
1210: EA 03 C1      JP PE,C103h
1213: FF            RST 38h
1214: EA 03 C9      JP PE,C903h
1217: FF            RST 38h
1218: E6 D6         AND D6h
121A: E7            RST 20h
121B: DF            RST 18h
121C: 86            ADD A,(HL)
121D: 46            LD B,(HL)
121E: C8            RET Z
121F: 7F            LD A,A
1220: E8            RET PE
1221: 74            LD (HL),H
1222: C2 00 C0      JP NZ,C000h
1225: 32 D5 EA      LD (EAD5h),A
1228: 07            RLCA
1229: D6 EA         SUB EAh
122B: 02            LD (BC),A

loc_122C:
122C: C0            RET NZ
122D: 35            DEC (HL)
122E: D5            PUSH DE
122F: EA 07 D6      JP PE,D607h
1232: EA 02 C0      JP PE,C002h
1235: 39            ADD HL,SP
1236: D5            PUSH DE
1237: EA 07 D6      JP PE,D607h
123A: EA 02 C0      JP PE,C002h
123D: 34            INC (HL)
123E: D5            PUSH DE
123F: EA 07 D6      JP PE,D607h
1242: EA 02 C0      JP PE,C002h
1245: 31 D5 EA      LD SP,EAD5h
1248: 07            RLCA
1249: D6 EA         SUB EAh
124B: 02            LD (BC),A
124C: C0            RET NZ
124D: 2E D5         LD L,D5h
124F: EA 07 D6      JP PE,D607h
1252: EA 02 C0      JP PE,C002h
1255: 28 D5         JR Z,loc_122C
1257: EA 07 D6      JP PE,D607h
125A: EA 02 C0      JP PE,C002h
125D: 23            INC HL
125E: D5            PUSH DE
125F: EA 1E D6      JP PE,D61Eh
1262: E7            RST 20h
1263: 00            NOP
1264: FF            RST 38h
1265: 1F            RRA
1266: 00            NOP
1267: 01 FF 8B      LD BC,8BFFh
126A: 01 02 FF      LD BC,FF02h
126D: 2C            INC L
126E: 04            INC B
126F: 03            INC BC
1270: FF            RST 38h
1271: 9A            SBC A,D
1272: 05            DEC B
1273: 04            INC B
1274: FF            RST 38h
1275: 08            EX AF,AF'
1276: 07            RLCA
1277: 05            DEC B
1278: FF            RST 38h
1279: 75            LD (HL),L
127A: 08            EX AF,AF'
127B: 06 FF         LD B,FFh
127D: AB            XOR E
127E: 09            ADD HL,BC
127F: 07            RLCA

loc_1280:
1280: FF            RST 38h
1281: E7            RST 20h
1282: 0B            DEC BC
1283: FF            RST 38h
1284: D0            RET NC
1285: 84            ADD A,H
1286: DF            RST 18h
1287: 27            DAA
1288: 4D            LD C,L

loc_1289:
1289: C8            RET Z
128A: 64            LD H,H
128B: DB C8         IN A,(C8h)
128D: E8            RET PE
128E: 6E            LD L,(HL)
128F: 0C            INC C
1290: DE 06         SBC A,06h
1292: DE C5         SBC A,C5h
1294: 3C            INC A
1295: A1            AND C
1296: 80            ADD A,B
1297: 12            LD (DE),A

loc_1298:
1298: C5            PUSH BC
1299: 3C            INC A
129A: 81            ADD A,C
129B: 06 81         LD B,81h
129D: 0C            INC C
129E: DE 83         SBC A,83h
12A0: 30 DE         JR NC,loc_1280

loc_12A2:
12A2: 12            LD (DE),A
12A3: 84            ADD A,H
12A4: 06 84         LD B,84h
12A6: 0C            INC C
12A7: DE 86         SBC A,86h
12A9: 18 DE         JR loc_1289
12AB: 0C            INC C
12AC: DE 06         SBC A,06h
12AE: DE A1         SBC A,A1h

loc_12B0:
12B0: 80            ADD A,B
12B1: 12            LD (DE),A
12B2: 81            ADD A,C
12B3: 06 81         LD B,81h
12B5: 0C            INC C
12B6: DE 83         SBC A,83h
12B8: 30 DE         JR NC,loc_1298
12BA: 12            LD (DE),A
12BB: 84            ADD A,H
12BC: 06 84         LD B,84h
12BE: 0C            INC C
12BF: DE 83         SBC A,83h
12C1: 18 DE         JR loc_12A1
12C3: 0C            INC C
12C4: DE 06         SBC A,06h
12C6: DE A1         SBC A,A1h
12C8: 80            ADD A,B

loc_12C9:
12C9: 12            LD (DE),A
12CA: 81            ADD A,C
12CB: 06 81         LD B,81h
12CD: 0C            INC C
12CE: DE 83         SBC A,83h

loc_12D0:
12D0: 30 DE         JR NC,loc_12B0
12D2: 12            LD (DE),A
12D3: 84            ADD A,H
12D4: 06 84         LD B,84h
12D6: 0C            INC C
12D7: DE 86         SBC A,86h
12D9: 18 DE         JR loc_12B9
12DB: 0C            INC C

loc_12DC:
12DC: DE 06         SBC A,06h
12DE: DE A6         SBC A,A6h
12E0: 80            ADD A,B
12E1: 0C            INC C
12E2: 86            ADD A,(HL)
12E3: 86            ADD A,(HL)
12E4: 06 86         LD B,86h
12E6: 86            ADD A,(HL)
12E7: DE 86         SBC A,86h

loc_12E9:
12E9: 18 DE         JR loc_12C9
12EB: 0C            INC C
12EC: DE 06         SBC A,06h
12EE: DE A6         SBC A,A6h
12F0: 80            ADD A,B
12F1: 0C            INC C
12F2: 86            ADD A,(HL)
12F3: 86            ADD A,(HL)

loc_12F4:
12F4: 06 DE         LD B,DEh
12F6: 86            ADD A,(HL)
12F7: DE A6         SBC A,A6h
12F9: 80            ADD A,B
12FA: 30 A6         JR NC,loc_12A2
12FC: 80            ADD A,B
12FD: 0C            INC C
12FE: 86            ADD A,(HL)

loc_12FF:
12FF: DE 18         SBC A,18h
1301: DE DE         SBC A,DEh
1303: 06 C7         LD B,C7h
1305: 88            ADC A,B
1306: 8B            ADC A,E
1307: DE 8D         SBC A,8Dh
1309: 30 DE         JR NC,loc_12E9
130B: 0C            INC C
130C: DE 06         SBC A,06h
130E: 90            SUB B
130F: DE 8F         SBC A,8Fh
1311: DE 8D         SBC A,8Dh
1313: 8F            ADC A,A
1314: 30 DE         JR NC,loc_12F4
1316: 0C            INC C
1317: DE 06         SBC A,06h
1319: 92            SUB D
131A: DE 90         SBC A,90h
131C: DE 8F         SBC A,8Fh
131E: 90            SUB B
131F: 30 DE         JR NC,loc_12FF
1321: 0C            INC C
1322: DE 06         SBC A,06h
1324: 94            SUB H

loc_1325:
1325: DE 92         SBC A,92h
1327: DE 90         SBC A,90h
1329: 92            SUB D
132A: 18 DE         JR loc_130A
132C: 06 8D         LD B,8Dh
132E: DE 92         SBC A,92h
1330: DE 18         SBC A,18h
1332: DE 06         SBC A,06h
1334: 92            SUB D

loc_1335:
1335: 94            SUB H
1336: DE B5         SBC A,B5h
1338: 80            ADD A,B
1339: 18 95         JR loc_12D0
133B: DE 0C         SBC A,0Ch
133D: DE 06         SBC A,06h
133F: 90            SUB B
1340: DE 90         SBC A,90h
1342: DE 95         SBC A,95h
1344: B4            OR H
1345: 80            ADD A,B
1346: 18 94         JR loc_12DC
1348: DE 0C         SBC A,0Ch

loc_134A:
134A: DE 06         SBC A,06h
134C: 90            SUB B
134D: DE 90         SBC A,90h
134F: DE 94         SBC A,94h
1351: B2            OR D
1352: 80            ADD A,B
1353: 60            LD H,B

loc_1354:
1354: 92            SUB D
1355: 30 DE         JR NC,loc_1335
1357: 18 DE         JR loc_1337

loc_1359:
1359: 06 88         LD B,88h
135B: 8B            ADC A,E
135C: DE 8D         SBC A,8Dh
135E: 30 DE         JR NC,loc_133E
1360: 0C            INC C
1361: DE 06         SBC A,06h
1363: 90            SUB B
1364: DE 8F         SBC A,8Fh
1366: DE 8D         SBC A,8Dh

loc_1368:
1368: 8F            ADC A,A
1369: 30 DE         JR NC,loc_1349
136B: 0C            INC C
136C: DE 06         SBC A,06h
136E: 92            SUB D
136F: DE 90         SBC A,90h
1371: DE 8F         SBC A,8Fh
1373: 90            SUB B
1374: 30 DE         JR NC,loc_1354
1376: 0C            INC C
1377: DE 06         SBC A,06h
1379: 94            SUB H
137A: DE 92         SBC A,92h
137C: DE 90         SBC A,90h
137E: 92            SUB D
137F: 18 DE         JR loc_135F
1381: 06 8D         LD B,8Dh
1383: DE 92         SBC A,92h
1385: DE 18         SBC A,18h
1387: DE 06         SBC A,06h
1389: 92            SUB D
138A: 94            SUB H
138B: DE B5         SBC A,B5h
138D: 80            ADD A,B
138E: 18 95         JR loc_1325
1390: DE 0C         SBC A,0Ch

loc_1392:
1392: DE 06         SBC A,06h
1394: 90            SUB B
1395: DE 90         SBC A,90h
1397: DE 95         SBC A,95h
1399: B4            OR H
139A: 80            ADD A,B
139B: 18 94         JR loc_1331
139D: DE 0C         SBC A,0Ch
139F: DE 06         SBC A,06h

loc_13A1:
13A1: 90            SUB B
13A2: DE 90         SBC A,90h
13A4: DE 94         SBC A,94h
13A6: B2            OR D
13A7: 80            ADD A,B
13A8: 48            LD C,B
13A9: 92            SUB D

loc_13AA:
13AA: 06 92         LD B,92h
13AC: 95            SUB L
13AD: DE B7         SBC A,B7h
13AF: 80            ADD A,B

loc_13B0:
13B0: 48            LD C,B
13B1: 97            SUB A
13B2: 18 DE         JR loc_1392
13B4: 24            INC H
13B5: 8D            ADC A,L
13B6: 0C            INC C
13B7: AF            XOR A
13B8: 80            ADD A,B
13B9: 18 8F         JR loc_134A
13BB: 0C            INC C
13BC: 8B            ADC A,E
13BD: B0            OR B
13BE: 80            ADD A,B
13BF: 48            LD C,B
13C0: 90            SUB B
13C1: 18 DE         JR loc_13A1
13C3: 24            INC H
13C4: 8D            ADC A,L
13C5: 0C            INC C
13C6: AF            XOR A
13C7: 80            ADD A,B
13C8: 18 8F         JR loc_1359
13CA: 0C            INC C
13CB: 92            SUB D
13CC: B0            OR B
13CD: 80            ADD A,B
13CE: 48            LD C,B
13CF: 90            SUB B
13D0: 18 DE         JR loc_13B0
13D2: 24            INC H
13D3: 8D            ADC A,L
13D4: 0C            INC C
13D5: AF            XOR A
13D6: 80            ADD A,B
13D7: 18 8F         JR loc_1368
13D9: 0C            INC C
13DA: 8B            ADC A,E
13DB: B0            OR B
13DC: 80            ADD A,B
13DD: 30 B0         JR NC,loc_138F
13DF: 80            ADD A,B
13E0: 0C            INC C
13E1: 90            SUB B
13E2: 8D            ADC A,L
13E3: 90            SUB B
13E4: B2            OR D
13E5: 80            ADD A,B
13E6: 60            LD H,B
13E7: B2            OR D
13E8: 80            ADD A,B
13E9: 48            LD C,B
13EA: 92            SUB D
13EB: 06 92         LD B,92h
13ED: 8F            ADC A,A
13EE: DE AD         SBC A,ADh
13F0: 80            ADD A,B
13F1: E0            RET PO
13F2: A5            AND L
13F3: FE DF         CP DFh
13F5: 21 4E C8      LD HL,C84Eh
13F8: 5F            LD E,A
13F9: DB C8         IN A,(C8h)
13FB: E8            RET PE
13FC: 6E            LD L,(HL)
13FD: 0C            INC C
13FE: DE 06         SBC A,06h
1400: DE C5         SBC A,C5h
1402: 18 A6         JR loc_13AA
1404: 80            ADD A,B
1405: 0C            INC C
1406: C5            PUSH BC
1407: 18 86         JR loc_138F
1409: 06 92         LD B,92h
140B: 92            SUB D
140C: 86            ADD A,(HL)
140D: 92            SUB D
140E: 0C            INC C
140F: 86            ADD A,(HL)
1410: 86            ADD A,(HL)
1411: 06 92         LD B,92h
1413: 92            SUB D
1414: 0C            INC C
1415: 86            ADD A,(HL)
1416: 06 92         LD B,92h
1418: 92            SUB D
1419: 0C            INC C
141A: 86            ADD A,(HL)
141B: 06 92         LD B,92h
141D: 92            SUB D
141E: 0C            INC C
141F: 86            ADD A,(HL)
1420: 06 92         LD B,92h
1422: 92            SUB D
1423: 0C            INC C
1424: 86            ADD A,(HL)
1425: 06 92         LD B,92h
1427: 92            SUB D
1428: 86            ADD A,(HL)
1429: 92            SUB D
142A: 86            ADD A,(HL)
142B: A6            AND (HL)
142C: 80            ADD A,B
142D: 0C            INC C
142E: 86            ADD A,(HL)

loc_142F:
142F: 06 92         LD B,92h
1431: 92            SUB D
1432: 86            ADD A,(HL)
1433: 92            SUB D
1434: 0C            INC C
1435: 86            ADD A,(HL)
1436: 86            ADD A,(HL)
1437: 06 92         LD B,92h
1439: 92            SUB D
143A: 0C            INC C
143B: 86            ADD A,(HL)
143C: 06 92         LD B,92h
143E: 92            SUB D
143F: 0C            INC C
1440: 86            ADD A,(HL)
1441: 06 92         LD B,92h
1443: 92            SUB D
1444: 0C            INC C
1445: 86            ADD A,(HL)
1446: 06 92         LD B,92h
1448: 92            SUB D
1449: 0C            INC C
144A: 86            ADD A,(HL)
144B: 06 92         LD B,92h
144D: 92            SUB D
144E: 86            ADD A,(HL)
144F: 92            SUB D
1450: 86            ADD A,(HL)
1451: A6            AND (HL)
1452: 80            ADD A,B
1453: 0C            INC C
1454: 86            ADD A,(HL)
1455: 06 92         LD B,92h
1457: 92            SUB D
1458: 86            ADD A,(HL)
1459: 92            SUB D
145A: 0C            INC C
145B: 86            ADD A,(HL)
145C: 86            ADD A,(HL)
145D: 06 92         LD B,92h
145F: 92            SUB D
1460: 0C            INC C
1461: 86            ADD A,(HL)
1462: 06 92         LD B,92h
1464: 92            SUB D
1465: 0C            INC C
1466: 86            ADD A,(HL)
1467: 06 92         LD B,92h
1469: 92            SUB D
146A: 0C            INC C
146B: 86            ADD A,(HL)
146C: 06 92         LD B,92h
146E: 92            SUB D
146F: 0C            INC C
1470: 86            ADD A,(HL)
1471: 06 92         LD B,92h
1473: 92            SUB D
1474: 86            ADD A,(HL)
1475: 92            SUB D
1476: 86            ADD A,(HL)
1477: AE            XOR (HL)
1478: 80            ADD A,B
1479: 0C            INC C
147A: 8E            ADC A,(HL)
147B: 06 82         LD B,82h
147D: 82            ADD A,D
147E: 0C            INC C
147F: 8E            ADC A,(HL)
1480: 06 82         LD B,82h
1482: 82            ADD A,D
1483: 0C            INC C
1484: 8E            ADC A,(HL)
1485: 06 82         LD B,82h
1487: 82            ADD A,D
1488: 0C            INC C
1489: 8E            ADC A,(HL)
148A: 06 82         LD B,82h
148C: AB            XOR E
148D: 80            ADD A,B
148E: 0C            INC C
148F: 8B            ADC A,E
1490: 06 97         LD B,97h
1492: 97            SUB A
1493: 0C            INC C
1494: 8B            ADC A,E
1495: 06 97         LD B,97h
1497: 97            SUB A
1498: 0C            INC C
1499: 8B            ADC A,E
149A: 06 97         LD B,97h
149C: 97            SUB A
149D: 0C            INC C
149E: 8B            ADC A,E
149F: 06 97         LD B,97h
14A1: 97            SUB A
14A2: 18 8B         JR loc_142F
14A4: DE DE         SBC A,DEh
14A6: 06 8B         LD B,8Bh
14A8: 8C            ADC A,H
14A9: DE AD         SBC A,ADh
14AB: 80            ADD A,B
14AC: 0C            INC C
14AD: 8D            ADC A,L
14AE: 06 C6         LD B,C6h
14B0: C6 81         ADD A,81h
14B2: 81            ADD A,C
14B3: 0C            INC C
14B4: C7            RST 00h
14B5: 81            ADD A,C
14B6: 06 8D         LD B,8Dh
14B8: 8D            ADC A,L
14B9: 0C            INC C
14BA: 81            ADD A,C
14BB: 06 8D         LD B,8Dh
14BD: 8D            ADC A,L
14BE: 0C            INC C
14BF: 81            ADD A,C
14C0: 06 8D         LD B,8Dh
14C2: 8D            ADC A,L
14C3: 0C            INC C
14C4: C7            RST 00h
14C5: 8B            ADC A,E
14C6: 06 97         LD B,97h
14C8: 97            SUB A
14C9: 0C            INC C
14CA: 8B            ADC A,E
14CB: 06 97         LD B,97h
14CD: 97            SUB A
14CE: 0C            INC C
14CF: 8B            ADC A,E
14D0: 06 97         LD B,97h
14D2: 97            SUB A
14D3: 0C            INC C
14D4: 8B            ADC A,E
14D5: 06 97         LD B,97h
14D7: 97            SUB A
14D8: 0C            INC C
14D9: 84            ADD A,H
14DA: 06 90         LD B,90h
14DC: 90            SUB B
14DD: 0C            INC C
14DE: 84            ADD A,H
14DF: 06 90         LD B,90h
14E1: 90            SUB B
14E2: 0C            INC C
14E3: 84            ADD A,H
14E4: 06 90         LD B,90h
14E6: 90            SUB B
14E7: 0C            INC C
14E8: 84            ADD A,H
14E9: 06 90         LD B,90h
14EB: 90            SUB B
14EC: 0C            INC C
14ED: 86            ADD A,(HL)
14EE: 06 92         LD B,92h
14F0: 92            SUB D
14F1: 0C            INC C
14F2: 86            ADD A,(HL)
14F3: 06 92         LD B,92h
14F5: 92            SUB D
14F6: 0C            INC C
14F7: 86            ADD A,(HL)
14F8: 06 92         LD B,92h
14FA: 92            SUB D
14FB: 0C            INC C
14FC: 86            ADD A,(HL)
14FD: 06 92         LD B,92h
14FF: 92            SUB D
1500: 0C            INC C
1501: 89            ADC A,C
1502: 06 95         LD B,95h
1504: 95            SUB L
1505: 0C            INC C
1506: 89            ADC A,C
1507: 06 95         LD B,95h
1509: 95            SUB L
150A: 0C            INC C
150B: 89            ADC A,C
150C: 06 95         LD B,95h
150E: 95            SUB L
150F: 0C            INC C
1510: 89            ADC A,C
1511: 06 95         LD B,95h
1513: 95            SUB L
1514: 0C            INC C

sub_1515:
1515: 88            ADC A,B
1516: 06 94         LD B,94h
1518: 94            SUB H
1519: 0C            INC C
151A: 88            ADC A,B
151B: 06 94         LD B,94h
151D: 94            SUB H
151E: 0C            INC C
151F: 88            ADC A,B
1520: 06 94         LD B,94h
1522: 94            SUB H
1523: 0C            INC C

loc_1524:
1524: 88            ADC A,B
1525: 06 94         LD B,94h
1527: 94            SUB H
1528: 0C            INC C
1529: 86            ADD A,(HL)
152A: 06 92         LD B,92h
152C: 92            SUB D
152D: 0C            INC C
152E: 86            ADD A,(HL)
152F: 06 92         LD B,92h
1531: 92            SUB D
1532: 0C            INC C
1533: 86            ADD A,(HL)
1534: 06 92         LD B,92h
1536: 92            SUB D
1537: 0C            INC C
1538: 86            ADD A,(HL)
1539: A8            XOR B
153A: 80            ADD A,B
153B: 88            ADC A,B
153C: 06 94         LD B,94h
153E: 94            SUB H
153F: 0C            INC C
1540: 88            ADC A,B
1541: 06 94         LD B,94h
1543: 88            ADC A,B
1544: 18 DE         JR loc_1524
1546: 06 88         LD B,88h
1548: 8B            ADC A,E
1549: DE AD         SBC A,ADh
154B: 80            ADD A,B
154C: 0C            INC C
154D: 8D            ADC A,L
154E: 06 C6         LD B,C6h
1550: C6 81         ADD A,81h
1552: 81            ADD A,C
1553: 0C            INC C
1554: C7            RST 00h
1555: 81            ADD A,C
1556: 06 8D         LD B,8Dh
1558: 8D            ADC A,L
1559: 0C            INC C
155A: 81            ADD A,C
155B: 06 8D         LD B,8Dh
155D: 8D            ADC A,L
155E: 0C            INC C
155F: 81            ADD A,C
1560: 06 8D         LD B,8Dh
1562: 8D            ADC A,L
1563: 0C            INC C
1564: C7            RST 00h
1565: 8B            ADC A,E
1566: 06 97         LD B,97h
1568: 97            SUB A
1569: 0C            INC C
156A: 8B            ADC A,E
156B: 06 97         LD B,97h
156D: 97            SUB A
156E: 0C            INC C
156F: 8B            ADC A,E
1570: 06 97         LD B,97h
1572: 97            SUB A
1573: 0C            INC C
1574: 8B            ADC A,E
1575: 06 97         LD B,97h
1577: 97            SUB A
1578: 0C            INC C
1579: 84            ADD A,H
157A: 06 90         LD B,90h
157C: 90            SUB B
157D: 0C            INC C
157E: 84            ADD A,H
157F: 06 90         LD B,90h
1581: 90            SUB B
1582: 0C            INC C
1583: 84            ADD A,H
1584: 06 90         LD B,90h
1586: 90            SUB B
1587: 0C            INC C
1588: 84            ADD A,H
1589: 06 90         LD B,90h
158B: 90            SUB B
158C: 0C            INC C
158D: 86            ADD A,(HL)
158E: 06 92         LD B,92h
1590: 92            SUB D
1591: 0C            INC C
1592: 86            ADD A,(HL)
1593: 06 92         LD B,92h
1595: 92            SUB D
1596: 0C            INC C
1597: 86            ADD A,(HL)
1598: 06 92         LD B,92h
159A: 92            SUB D
159B: 0C            INC C
159C: 86            ADD A,(HL)
159D: 06 92         LD B,92h
159F: 92            SUB D
15A0: 0C            INC C
15A1: 89            ADC A,C
15A2: 06 95         LD B,95h
15A4: 95            SUB L
15A5: 0C            INC C
15A6: 89            ADC A,C
15A7: 06 95         LD B,95h
15A9: 95            SUB L
15AA: 0C            INC C
15AB: 89            ADC A,C
15AC: 06 95         LD B,95h
15AE: 95            SUB L
15AF: 0C            INC C
15B0: 89            ADC A,C
15B1: 06 95         LD B,95h
15B3: 95            SUB L
15B4: 0C            INC C
15B5: 88            ADC A,B
15B6: 06 94         LD B,94h
15B8: 94            SUB H
15B9: 0C            INC C
15BA: 88            ADC A,B
15BB: 06 94         LD B,94h
15BD: 94            SUB H
15BE: 0C            INC C
15BF: 88            ADC A,B
15C0: 06 94         LD B,94h
15C2: 94            SUB H
15C3: 0C            INC C
15C4: 88            ADC A,B
15C5: AE            XOR (HL)
15C6: 80            ADD A,B
15C7: 8E            ADC A,(HL)
15C8: 06 C6         LD B,C6h
15CA: C6 82         ADD A,82h
15CC: 82            ADD A,D
15CD: 0C            INC C
15CE: C7            RST 00h
15CF: 82            ADD A,D
15D0: 06 8E         LD B,8Eh
15D2: 8E            ADC A,(HL)
15D3: 0C            INC C
15D4: 82            ADD A,D
15D5: 06 8E         LD B,8Eh
15D7: 8E            ADC A,(HL)
15D8: 0C            INC C
15D9: 82            ADD A,D
15DA: C7            RST 00h
15DB: AB            XOR E
15DC: 80            ADD A,B
15DD: 8B            ADC A,E
15DE: 06 97         LD B,97h
15E0: 97            SUB A
15E1: 8B            ADC A,E
15E2: 97            SUB A
15E3: 0C            INC C
15E4: 8B            ADC A,E
15E5: 8B            ADC A,E
15E6: 06 97         LD B,97h
15E8: 97            SUB A
15E9: 0C            INC C
15EA: 8B            ADC A,E
15EB: 06 97         LD B,97h
15ED: 97            SUB A
15EE: 0C            INC C
15EF: 86            ADD A,(HL)
15F0: 06 92         LD B,92h
15F2: 92            SUB D
15F3: 0C            INC C
15F4: 86            ADD A,(HL)
15F5: 06 92         LD B,92h
15F7: 92            SUB D
15F8: 0C            INC C
15F9: 88            ADC A,B
15FA: 06 94         LD B,94h
15FC: 94            SUB H
15FD: 0C            INC C
15FE: 88            ADC A,B
15FF: 06 94         LD B,94h
1601: 94            SUB H
1602: 0C            INC C
1603: 8D            ADC A,L
1604: 06 C6         LD B,C6h
1606: C6 81         ADD A,81h
1608: 81            ADD A,C
1609: 0C            INC C
160A: C7            RST 00h
160B: 81            ADD A,C
160C: 06 8D         LD B,8Dh
160E: 8D            ADC A,L
160F: 0C            INC C
1610: 81            ADD A,C
1611: 06 8D         LD B,8Dh
1613: 8D            ADC A,L
1614: 0C            INC C
1615: 81            ADD A,C
1616: 06 8D         LD B,8Dh
1618: 8D            ADC A,L
1619: 0C            INC C
161A: C7            RST 00h
161B: 86            ADD A,(HL)
161C: 06 92         LD B,92h
161E: 92            SUB D
161F: 0C            INC C
1620: 86            ADD A,(HL)
1621: 06 92         LD B,92h
1623: 92            SUB D
1624: 0C            INC C
1625: 88            ADC A,B
1626: 06 94         LD B,94h
1628: 94            SUB H
1629: 0C            INC C
162A: 88            ADC A,B
162B: 06 94         LD B,94h
162D: 94            SUB H
162E: 0C            INC C
162F: 8D            ADC A,L
1630: 06 C6         LD B,C6h
1632: C6 81         ADD A,81h
1634: 81            ADD A,C
1635: 0C            INC C
1636: C7            RST 00h
1637: 81            ADD A,C
1638: 06 8D         LD B,8Dh
163A: 8D            ADC A,L
163B: 0C            INC C
163C: 81            ADD A,C
163D: 06 8D         LD B,8Dh
163F: 8D            ADC A,L
1640: 0C            INC C
1641: 81            ADD A,C
1642: 06 8D         LD B,8Dh
1644: 8D            ADC A,L
1645: 0C            INC C
1646: C7            RST 00h
1647: 86            ADD A,(HL)
1648: 06 92         LD B,92h
164A: 92            SUB D
164B: 0C            INC C
164C: 86            ADD A,(HL)
164D: 06 92         LD B,92h
164F: 92            SUB D
1650: 0C            INC C
1651: 88            ADC A,B
1652: 06 94         LD B,94h
1654: 94            SUB H
1655: 0C            INC C
1656: 88            ADC A,B
1657: 06 94         LD B,94h
1659: 94            SUB H
165A: 0C            INC C
165B: 8D            ADC A,L
165C: 06 C6         LD B,C6h
165E: C6 81         ADD A,81h
1660: 81            ADD A,C
1661: 0C            INC C
1662: C7            RST 00h
1663: 81            ADD A,C
1664: 06 8D         LD B,8Dh
1666: 8D            ADC A,L
1667: 0C            INC C
1668: 81            ADD A,C
1669: 06 8D         LD B,8Dh
166B: 8D            ADC A,L
166C: 0C            INC C
166D: 81            ADD A,C
166E: C7            RST 00h
166F: AB            XOR E
1670: 80            ADD A,B
1671: 8B            ADC A,E
1672: 06 97         LD B,97h
1674: 97            SUB A
1675: 8B            ADC A,E
1676: 97            SUB A
1677: 0C            INC C
1678: 8B            ADC A,E
1679: 8B            ADC A,E
167A: 06 97         LD B,97h
167C: 97            SUB A
167D: 0C            INC C
167E: 8B            ADC A,E
167F: 06 97         LD B,97h
1681: 97            SUB A

loc_1682:
1682: 0C            INC C
1683: 8B            ADC A,E
1684: 06 97         LD B,97h
1686: 97            SUB A
1687: 0C            INC C
1688: 8B            ADC A,E
1689: 06 97         LD B,97h
168B: 97            SUB A
168C: 0C            INC C
168D: 8B            ADC A,E
168E: 06 97         LD B,97h
1690: 97            SUB A
1691: 8B            ADC A,E
1692: 88            ADC A,B
1693: DE A6         SBC A,A6h

loc_1695:
1695: 80            ADD A,B
1696: E0            RET PO
1697: 6E            LD L,(HL)
1698: FD            DB FDh ; prefix (nop)
1699: DF            RST 18h
169A: 9C            SBC A,H
169B: 44            LD B,H
169C: C8            RET Z
169D: 5A            LD E,D
169E: DB B4         IN A,(B4h)
16A0: E8            RET PE
16A1: 6E            LD L,(HL)
16A2: 18 DE         JR loc_1682
16A4: 60            LD H,B
16A5: DE DE         SBC A,DEh
16A7: DE DE         SBC A,DEh
16A9: DE DE         SBC A,DEh
16AB: DE DE         SBC A,DEh
16AD: DE 06         SBC A,06h
16AF: DE C5         SBC A,C5h
16B1: 3C            INC A
16B2: 84            ADD A,H
16B3: 83            ADD A,E
16B4: DE 84         SBC A,84h
16B6: DE 83         SBC A,83h
16B8: DE 84         SBC A,84h
16BA: DE DE         SBC A,DEh
16BC: 83            ADD A,E
16BD: DE 84         SBC A,84h
16BF: DE 83         SBC A,83h
16C1: DE 83         SBC A,83h
16C3: 81            ADD A,C
16C4: DE 83         SBC A,83h
16C6: DE 81         SBC A,81h
16C8: DE 83         SBC A,83h
16CA: DE DE         SBC A,DEh
16CC: 81            ADD A,C
16CD: DE 83         SBC A,83h
16CF: DE 84         SBC A,84h
16D1: DE 84         SBC A,84h
16D3: 83            ADD A,E
16D4: DE 84         SBC A,84h
16D6: DE 83         SBC A,83h
16D8: DE 84         SBC A,84h
16DA: DE DE         SBC A,DEh
16DC: 83            ADD A,E
16DD: DE 84         SBC A,84h
16DF: DE 86         SBC A,86h
16E1: DE 86         SBC A,86h
16E3: 86            ADD A,(HL)
16E4: DE 86         SBC A,86h
16E6: DE 86         SBC A,86h
16E8: DE 86         SBC A,86h
16EA: DE DE         SBC A,DEh
16EC: 86            ADD A,(HL)
16ED: DE 86         SBC A,86h
16EF: DE 84         SBC A,84h
16F1: DE 84         SBC A,84h
16F3: 83            ADD A,E
16F4: DE 84         SBC A,84h
16F6: DE 83         SBC A,83h
16F8: DE 84         SBC A,84h
16FA: DE DE         SBC A,DEh
16FC: 83            ADD A,E
16FD: DE 84         SBC A,84h
16FF: DE 83         SBC A,83h
1701: DE 83         SBC A,83h
1703: 81            ADD A,C
1704: DE 83         SBC A,83h
1706: DE 81         SBC A,81h
1708: DE 83         SBC A,83h
170A: DE DE         SBC A,DEh
170C: 81            ADD A,C
170D: DE 83         SBC A,83h
170F: 0C            INC C
1710: A1            AND C
1711: 80            ADD A,B
1712: 18 81         JR loc_1695
1714: 83            ADD A,E
1715: 12            LD (DE),A
1716: 84            ADD A,H
1717: 06 A6         LD B,A6h
1719: 80            ADD A,B
171A: 0C            INC C
171B: 86            ADD A,(HL)
171C: A8            XOR B
171D: 80            ADD A,B
171E: 30 88         JR NC,loc_16A8
1720: 18 DE         JR loc_1700
1722: 06 DE         LD B,DEh
1724: 88            ADC A,B
1725: DE 84         SBC A,84h
1727: DE 84         SBC A,84h
1729: 83            ADD A,E
172A: DE 84         SBC A,84h
172C: DE 83         SBC A,83h
172E: DE 84         SBC A,84h
1730: DE DE         SBC A,DEh
1732: 83            ADD A,E
1733: DE 84         SBC A,84h
1735: DE 83         SBC A,83h
1737: DE 83         SBC A,83h
1739: 81            ADD A,C
173A: DE 83         SBC A,83h
173C: DE 81         SBC A,81h
173E: DE 83         SBC A,83h
1740: DE DE         SBC A,DEh
1742: 81            ADD A,C
1743: DE 83         SBC A,83h
1745: DE 84         SBC A,84h
1747: DE 84         SBC A,84h
1749: 83            ADD A,E
174A: DE 84         SBC A,84h
174C: DE 83         SBC A,83h
174E: DE 84         SBC A,84h
1750: DE DE         SBC A,DEh
1752: 83            ADD A,E
1753: DE 84         SBC A,84h
1755: DE 86         SBC A,86h
1757: DE 86         SBC A,86h

loc_1759:
1759: 86            ADD A,(HL)
175A: DE 86         SBC A,86h
175C: DE 86         SBC A,86h
175E: DE 86         SBC A,86h
1760: DE DE         SBC A,DEh
1762: 86            ADD A,(HL)
1763: DE 86         SBC A,86h
1765: DE 84         SBC A,84h
1767: DE 84         SBC A,84h
1769: 83            ADD A,E
176A: DE 84         SBC A,84h
176C: DE 83         SBC A,83h

loc_176E:
176E: DE 84         SBC A,84h
1770: DE DE         SBC A,DEh
1772: 83            ADD A,E
1773: DE 84         SBC A,84h
1775: DE 83         SBC A,83h
1777: DE 83         SBC A,83h
1779: 81            ADD A,C
177A: DE 83         SBC A,83h
177C: DE 81         SBC A,81h
177E: DE 83         SBC A,83h
1780: DE DE         SBC A,DEh
1782: 81            ADD A,C
1783: DE 83         SBC A,83h
1785: DE 81         SBC A,81h
1787: DE 81         SBC A,81h
1789: 81            ADD A,C
178A: DE 81         SBC A,81h
178C: DE 81         SBC A,81h
178E: DE 81         SBC A,81h
1790: DE DE         SBC A,DEh
1792: 81            ADD A,C
1793: DE 81         SBC A,81h
1795: DE 83         SBC A,83h
1797: DE 83         SBC A,83h
1799: 83            ADD A,E
179A: DE C7         SBC A,C7h
179C: 8B            ADC A,E
179D: DE 8D         SBC A,8Dh
179F: DE 12         SBC A,12h
17A1: 8F            ADC A,A
17A2: 06 B0         LD B,B0h
17A4: 80            ADD A,B
17A5: 0C            INC C
17A6: 90            SUB B
17A7: 92            SUB D
17A8: 89            ADC A,C
17A9: 8D            ADC A,L
17AA: 90            SUB B
17AB: AB            XOR E
17AC: 80            ADD A,B
17AD: 8B            ADC A,E
17AE: 8F            ADC A,A
17AF: 92            SUB D
17B0: B0            OR B
17B1: 80            ADD A,B
17B2: 18 90         JR loc_1744
17B4: 90            SUB B
17B5: 12            LD (DE),A
17B6: 92            SUB D
17B7: 06 AB         LD B,ABh
17B9: 80            ADD A,B
17BA: 0C            INC C
17BB: 8B            ADC A,E
17BC: 8D            ADC A,L
17BD: 89            ADC A,C
17BE: 8D            ADC A,L
17BF: 90            SUB B
17C0: AB            XOR E
17C1: 80            ADD A,B
17C2: 8B            ADC A,E
17C3: 8F            ADC A,A
17C4: 92            SUB D
17C5: B0            OR B
17C6: 80            ADD A,B
17C7: 18 90         JR loc_1759
17C9: 90            SUB B
17CA: 12            LD (DE),A
17CB: 92            SUB D
17CC: 06 AB         LD B,ABh
17CE: 80            ADD A,B
17CF: 0C            INC C
17D0: 8B            ADC A,E
17D1: 8D            ADC A,L
17D2: 89            ADC A,C
17D3: 8D            ADC A,L
17D4: 90            SUB B
17D5: AB            XOR E
17D6: 80            ADD A,B
17D7: 8B            ADC A,E
17D8: 8F            ADC A,A
17D9: 92            SUB D
17DA: B0            OR B
17DB: 80            ADD A,B
17DC: 18 90         JR loc_176E
17DE: 90            SUB B
17DF: 12            LD (DE),A
17E0: 92            SUB D
17E1: 06 AB         LD B,ABh
17E3: 80            ADD A,B
17E4: 0C            INC C
17E5: 8B            ADC A,E
17E6: 8F            ADC A,A
17E7: 06 DE         LD B,DEh
17E9: 8F            ADC A,A
17EA: 8D            ADC A,L
17EB: DE 8F         SBC A,8Fh
17ED: DE 8D         SBC A,8Dh
17EF: DE 90         SBC A,90h
17F1: DE 90         SBC A,90h
17F3: 8B            ADC A,E

loc_17F4:
17F4: DE 8D         SBC A,8Dh
17F6: 8F            ADC A,A
17F7: DE DE         SBC A,DEh
17F9: 8F            ADC A,A
17FA: 8D            ADC A,L
17FB: DE 8F         SBC A,8Fh
17FD: DE 8D         SBC A,8Dh
17FF: DE 90         SBC A,90h
1801: DE 90         SBC A,90h
1803: DE 95         SBC A,95h
1805: 95            SUB L
1806: DE 95         SBC A,95h
1808: E0            RET PO
1809: 9B            SBC A,E
180A: FE DF         CP DFh
180C: 2A 43 C8      LD HL,(C843h)
180F: 5A            LD E,D

loc_1810:
1810: DB B4         IN A,(B4h)
1812: E8            RET PE
1813: 6E            LD L,(HL)
1814: 18 DE         JR loc_17F4
1816: 60            LD H,B
1817: DE DE         SBC A,DEh
1819: DE DE         SBC A,DEh
181B: DE DE         SBC A,DEh
181D: DE DE         SBC A,DEh
181F: DE 06         SBC A,06h
1821: DE C5         SBC A,C5h
1823: 3C            INC A
1824: 81            ADD A,C
1825: C7            RST 00h
1826: 8B            ADC A,E
1827: DE 8D         SBC A,8Dh
1829: DE 8B         SBC A,8Bh
182B: DE 8D         SBC A,8Dh
182D: DE DE         SBC A,DEh
182F: 8B            ADC A,E
1830: DE 8D         SBC A,8Dh
1832: DE 8B         SBC A,8Bh
1834: DE 8B         SBC A,8Bh
1836: 8B            ADC A,E
1837: DE 8B         SBC A,8Bh
1839: DE 8B         SBC A,8Bh
183B: DE 8B         SBC A,8Bh
183D: DE DE         SBC A,DEh
183F: 8B            ADC A,E
1840: DE 8B         SBC A,8Bh
1842: DE 8B         SBC A,8Bh
1844: DE 8B         SBC A,8Bh
1846: 8B            ADC A,E
1847: DE 8B         SBC A,8Bh
1849: DE 8B         SBC A,8Bh
184B: DE 8B         SBC A,8Bh
184D: DE DE         SBC A,DEh
184F: 8B            ADC A,E
1850: DE 8B         SBC A,8Bh
1852: DE 8D         SBC A,8Dh
1854: DE 8D         SBC A,8Dh
1856: 8D            ADC A,L
1857: DE 8D         SBC A,8Dh
1859: DE 8D         SBC A,8Dh
185B: DE 8D         SBC A,8Dh
185D: DE DE         SBC A,DEh
185F: 8D            ADC A,L
1860: DE 8D         SBC A,8Dh
1862: DE 8D         SBC A,8Dh
1864: DE 8D         SBC A,8Dh
1866: 8B            ADC A,E
1867: DE 8D         SBC A,8Dh
1869: DE 8B         SBC A,8Bh
186B: DE 8D         SBC A,8Dh
186D: DE DE         SBC A,DEh
186F: 8B            ADC A,E
1870: DE 8D         SBC A,8Dh
1872: DE 8B         SBC A,8Bh
1874: DE 8B         SBC A,8Bh
1876: 8B            ADC A,E
1877: DE 8B         SBC A,8Bh
1879: DE 8B         SBC A,8Bh
187B: DE 8B         SBC A,8Bh
187D: DE DE         SBC A,DEh
187F: 8B            ADC A,E
1880: DE 8B         SBC A,8Bh
1882: 0C            INC C
1883: A9            XOR C
1884: 80            ADD A,B
1885: 18 89         JR loc_1810
1887: 8B            ADC A,E
1888: 12            LD (DE),A
1889: 8D            ADC A,L
188A: 06 AF         LD B,AFh
188C: 80            ADD A,B
188D: 0C            INC C
188E: 8F            ADC A,A
188F: AF            XOR A
1890: 80            ADD A,B
1891: 30 8F         JR NC,loc_1822
1893: 18 DE         JR loc_1873
1895: 06 DE         LD B,DEh
1897: 8D            ADC A,L
1898: DE 8D         SBC A,8Dh
189A: DE 8D         SBC A,8Dh
189C: 8B            ADC A,E
189D: DE 8D         SBC A,8Dh
189F: DE 8B         SBC A,8Bh
18A1: DE 8D         SBC A,8Dh
18A3: DE DE         SBC A,DEh
18A5: 8B            ADC A,E
18A6: DE 8D         SBC A,8Dh
18A8: DE 8B         SBC A,8Bh
18AA: DE 8B         SBC A,8Bh
18AC: 8B            ADC A,E
18AD: DE 8B         SBC A,8Bh
18AF: DE 8B         SBC A,8Bh
18B1: DE 8B         SBC A,8Bh

loc_18B3:
18B3: DE DE         SBC A,DEh
18B5: 8B            ADC A,E
18B6: DE 8B         SBC A,8Bh
18B8: DE 8B         SBC A,8Bh
18BA: DE 8B         SBC A,8Bh
18BC: 8B            ADC A,E
18BD: DE 8B         SBC A,8Bh
18BF: DE 8B         SBC A,8Bh
18C1: DE 8B         SBC A,8Bh
18C3: DE DE         SBC A,DEh
18C5: 8B            ADC A,E
18C6: DE 8B         SBC A,8Bh

loc_18C8:
18C8: DE 8D         SBC A,8Dh
18CA: DE 8D         SBC A,8Dh
18CC: 8D            ADC A,L
18CD: DE 8D         SBC A,8Dh
18CF: DE 8D         SBC A,8Dh
18D1: DE 8D         SBC A,8Dh
18D3: DE DE         SBC A,DEh
18D5: 8D            ADC A,L
18D6: DE 8D         SBC A,8Dh
18D8: DE 8D         SBC A,8Dh
18DA: DE 8D         SBC A,8Dh
18DC: 8B            ADC A,E

loc_18DD:
18DD: DE 8D         SBC A,8Dh
18DF: DE 8B         SBC A,8Bh
18E1: DE 8D         SBC A,8Dh
18E3: DE DE         SBC A,DEh
18E5: 8B            ADC A,E
18E6: DE 8D         SBC A,8Dh
18E8: DE 8B         SBC A,8Bh
18EA: DE 8B         SBC A,8Bh
18EC: 8B            ADC A,E
18ED: DE 8B         SBC A,8Bh
18EF: DE 8B         SBC A,8Bh
18F1: DE 8B         SBC A,8Bh
18F3: DE DE         SBC A,DEh
18F5: 8B            ADC A,E
18F6: DE 8B         SBC A,8Bh
18F8: DE 89         SBC A,89h
18FA: DE 89         SBC A,89h
18FC: 89            ADC A,C
18FD: DE 89         SBC A,89h
18FF: DE 89         SBC A,89h
1901: DE 89         SBC A,89h
1903: DE DE         SBC A,DEh
1905: 89            ADC A,C
1906: DE 89         SBC A,89h
1908: DE 8B         SBC A,8Bh
190A: DE 8B         SBC A,8Bh
190C: 8B            ADC A,E
190D: DE 88         SBC A,88h
190F: DE 89         SBC A,89h
1911: DE 12         SBC A,12h
1913: 8B            ADC A,E
1914: 06 AD         LD B,ADh

loc_1916:
1916: 80            ADD A,B
1917: 0C            INC C
1918: 8D            ADC A,L
1919: 8F            ADC A,A
191A: 86            ADD A,(HL)
191B: 89            ADC A,C
191C: 8D            ADC A,L
191D: A8            XOR B
191E: 80            ADD A,B
191F: 88            ADC A,B
1920: 8B            ADC A,E
1921: 8F            ADC A,A
1922: AD            XOR L
1923: 80            ADD A,B
1924: 18 8D         JR loc_18B3
1926: 8D            ADC A,L
1927: 12            LD (DE),A
1928: 8F            ADC A,A
1929: 06 A8         LD B,A8h
192B: 80            ADD A,B
192C: 0C            INC C
192D: 88            ADC A,B
192E: 88            ADC A,B
192F: 86            ADD A,(HL)
1930: 89            ADC A,C

loc_1931:
1931: 8D            ADC A,L
1932: A8            XOR B
1933: 80            ADD A,B
1934: 88            ADC A,B
1935: 8B            ADC A,E
1936: 8F            ADC A,A
1937: AD            XOR L
1938: 80            ADD A,B
1939: 18 8D         JR loc_18C8
193B: 8D            ADC A,L
193C: 12            LD (DE),A
193D: 8F            ADC A,A
193E: 06 A8         LD B,A8h
1940: 80            ADD A,B
1941: 0C            INC C
1942: 88            ADC A,B
1943: 88            ADC A,B
1944: 86            ADD A,(HL)
1945: 89            ADC A,C
1946: 8D            ADC A,L
1947: A8            XOR B
1948: 80            ADD A,B
1949: 88            ADC A,B
194A: 8B            ADC A,E
194B: 8F            ADC A,A
194C: AD            XOR L
194D: 80            ADD A,B
194E: 18 8D         JR loc_18DD
1950: 8D            ADC A,L
1951: 12            LD (DE),A
1952: 8F            ADC A,A
1953: 06 A8         LD B,A8h
1955: 80            ADD A,B
1956: 0C            INC C
1957: 88            ADC A,B
1958: 8B            ADC A,E
1959: 06 DE         LD B,DEh
195B: 8B            ADC A,E
195C: 8B            ADC A,E
195D: DE 8B         SBC A,8Bh
195F: DE 8B         SBC A,8Bh
1961: DE 8B         SBC A,8Bh
1963: DE 8B         SBC A,8Bh
1965: 8B            ADC A,E
1966: DE 8B         SBC A,8Bh
1968: 8B            ADC A,E
1969: DE DE         SBC A,DEh
196B: 8B            ADC A,E
196C: 8B            ADC A,E
196D: DE 8B         SBC A,8Bh
196F: DE 8B         SBC A,8Bh
1971: DE 8B         SBC A,8Bh
1973: DE 8B         SBC A,8Bh
1975: DE 92         SBC A,92h

loc_1977:
1977: 92            SUB D
1978: DE 92         SBC A,92h
197A: E0            RET PO
197B: 9B            SBC A,E
197C: FE DF         CP DFh
197E: 30 46         JR NC,loc_19C6
1980: C8            RET Z
1981: 55            LD D,L
1982: DB C8         IN A,(C8h)
1984: E8            RET PE
1985: 6E            LD L,(HL)
1986: 0C            INC C
1987: DE 06         SBC A,06h
1989: DE C5         SBC A,C5h
198B: 30 A4         JR NC,loc_1931
198D: 80            ADD A,B
198E: 12            LD (DE),A
198F: C5            PUSH BC
1990: 30 84         JR NC,loc_1916
1992: 06 84         LD B,84h
1994: 0C            INC C

loc_1995:
1995: DE 86         SBC A,86h
1997: 30 DE         JR NC,loc_1977
1999: 12            LD (DE),A
199A: 89            ADC A,C
199B: 06 89         LD B,89h
199D: 0C            INC C
199E: DE 8B         SBC A,8Bh
19A0: DE C8         SBC A,C8h
19A2: 5F            LD E,A
19A3: 06 83         LD B,83h
19A5: 84            ADD A,H
19A6: 83            ADD A,E
19A7: 81            ADD A,C
19A8: C7            RST 00h
19A9: 8B            ADC A,E
19AA: C8            RET Z
19AB: 55            LD D,L
19AC: B0            OR B
19AD: 80            ADD A,B
19AE: 12            LD (DE),A
19AF: 90            SUB B
19B0: 06 90         LD B,90h
19B2: 0C            INC C
19B3: DE 92         SBC A,92h
19B5: 30 DE         JR NC,loc_1995
19B7: 12            LD (DE),A
19B8: 95            SUB L

loc_19B9:
19B9: 06 95         LD B,95h

loc_19BB:
19BB: 0C            INC C
19BC: DE C8         SBC A,C8h
19BE: 5F            LD E,A
19BF: 92            SUB D
19C0: DE 94         SBC A,94h
19C2: 06 92         LD B,92h
19C4: 90            SUB B
19C5: 8F            ADC A,A

loc_19C6:
19C6: C8            RET Z

loc_19C7:
19C7: 55            LD D,L
19C8: B0            OR B
19C9: 80            ADD A,B
19CA: 12            LD (DE),A
19CB: 90            SUB B
19CC: 06 90         LD B,90h
19CE: 0C            INC C

loc_19CF:
19CF: DE 92         SBC A,92h
19D1: 30 DE         JR NC,loc_19B1
19D3: 12            LD (DE),A
19D4: 95            SUB L
19D5: 06 95         LD B,95h
19D7: 0C            INC C
19D8: DE 97         SBC A,97h
19DA: C8            RET Z

loc_19DB:
19DB: 5F            LD E,A
19DC: DE 06         SBC A,06h
19DE: 92            SUB D
19DF: 94            SUB H
19E0: 95            SUB L
19E1: DE 97         SBC A,97h
19E3: C8            RET Z
19E4: 55            LD D,L
19E5: B5            OR L
19E6: 80            ADD A,B
19E7: 0C            INC C
19E8: 95            SUB L
19E9: 95            SUB L
19EA: 06 95         LD B,95h
19EC: 95            SUB L

loc_19ED:
19ED: DE 95         SBC A,95h
19EF: 18 DE         JR loc_19CF
19F1: 0C            INC C
19F2: DE 06         SBC A,06h
19F4: DE B7         SBC A,B7h
19F6: 80            ADD A,B

loc_19F7:
19F7: 0C            INC C
19F8: 97            SUB A

loc_19F9:
19F9: 97            SUB A
19FA: 06 DE         LD B,DEh
19FC: 97            SUB A
19FD: DE B7         SBC A,B7h
19FF: 80            ADD A,B

loc_1A00:
1A00: 30 B7         JR NC,loc_19B9

loc_1A02:
1A02: 80            ADD A,B
1A03: 0C            INC C
1A04: 97            SUB A
1A05: DE 18         SBC A,18h
1A07: DE DE         SBC A,DEh
1A09: 0C            INC C
1A0A: DE 06         SBC A,06h
1A0C: DE 94         SBC A,94h
1A0E: 30 DE         JR NC,loc_19EE
1A10: 18 DE         JR loc_19F0
1A12: 0C            INC C
1A13: DE 06         SBC A,06h
1A15: DE 97         SBC A,97h
1A17: 30 DE         JR NC,loc_19F7
1A19: 18 DE         JR loc_19F9
1A1B: 0C            INC C

loc_1A1C:
1A1C: DE 06         SBC A,06h
1A1E: DE 97         SBC A,97h
1A20: 30 DE         JR NC,loc_1A00
1A22: 18 DE         JR loc_1A02
1A24: 0C            INC C
1A25: DE 06         SBC A,06h
1A27: DE C6         SBC A,C6h
1A29: C6 81         ADD A,81h
1A2B: 30 DE         JR NC,loc_1A0B
1A2D: 18 DE         JR loc_1A0D
1A2F: 06 81         LD B,81h
1A31: 83            ADD A,E
1A32: DE A4         SBC A,A4h
1A34: 80            ADD A,B
1A35: 18 84         JR loc_19BB
1A37: DE 0C         SBC A,0Ch
1A39: DE 06         SBC A,06h
1A3B: 81            ADD A,C
1A3C: DE 81         SBC A,81h

loc_1A3E:
1A3E: DE 84         SBC A,84h

loc_1A40:
1A40: A3            AND E
1A41: 80            ADD A,B
1A42: 18 83         JR loc_19C7
1A44: DE 0C         SBC A,0Ch
1A46: DE 06         SBC A,06h
1A48: 81            ADD A,C
1A49: DE 81         SBC A,81h
1A4B: DE 83         SBC A,83h
1A4D: C7            RST 00h

loc_1A4E:
1A4E: A9            XOR C

loc_1A4F:
1A4F: 80            ADD A,B

loc_1A50:
1A50: 18 89         JR loc_19DB
1A52: 8B            ADC A,E
1A53: 12            LD (DE),A
1A54: 8D            ADC A,L
1A55: 06 AF         LD B,AFh

loc_1A57:
1A57: 80            ADD A,B
1A58: 0C            INC C

loc_1A59:
1A59: 8F            ADC A,A
1A5A: AF            XOR A
1A5B: 80            ADD A,B
1A5C: 30 8F         JR NC,loc_19ED

loc_1A5E:
1A5E: 18 DE         JR loc_1A3E

loc_1A60:
1A60: 06 DE         LD B,DEh

loc_1A62:
1A62: 88            ADC A,B
1A63: DE 88         SBC A,88h
1A65: 30 DE         JR NC,loc_1A45
1A67: 18 DE         JR loc_1A47
1A69: 0C            INC C
1A6A: DE 06         SBC A,06h
1A6C: DE 8B         SBC A,8Bh
1A6E: 30 DE         JR NC,loc_1A4E
1A70: 18 DE         JR loc_1A50
1A72: 0C            INC C
1A73: DE 06         SBC A,06h
1A75: DE 8B         SBC A,8Bh
1A77: 30 DE         JR NC,loc_1A57
1A79: 18 DE         JR loc_1A59
1A7B: 0C            INC C
1A7C: DE 06         SBC A,06h
1A7E: DE 8D         SBC A,8Dh
1A80: 30 DE         JR NC,loc_1A60
1A82: 18 DE         JR loc_1A62
1A84: 06 8D         LD B,8Dh

loc_1A86:
1A86: 8F            ADC A,A
1A87: DE B0         SBC A,B0h
1A89: 80            ADD A,B
1A8A: 18 90         JR loc_1A1C

loc_1A8C:
1A8C: DE 0C         SBC A,0Ch
1A8E: DE 06         SBC A,06h
1A90: 8D            ADC A,L
1A91: DE 8D         SBC A,8Dh
1A93: DE 90         SBC A,90h
1A95: AF            XOR A
1A96: 80            ADD A,B
1A97: 18 8F         JR loc_1A28
1A99: DE 0C         SBC A,0Ch

loc_1A9B:
1A9B: DE 06         SBC A,06h
1A9D: 8D            ADC A,L
1A9E: DE 8D         SBC A,8Dh
1AA0: DE 8F         SBC A,8Fh
1AA2: A9            XOR C
1AA3: 80            ADD A,B
1AA4: 48            LD C,B
1AA5: A9            XOR C
1AA6: 80            ADD A,B

loc_1AA7:
1AA7: 12            LD (DE),A
1AA8: 89            ADC A,C
1AA9: 06 AB         LD B,ABh
1AAB: 80            ADD A,B
1AAC: 60            LD H,B
1AAD: 8B            ADC A,E
1AAE: 24            INC H
1AAF: 89            ADC A,C
1AB0: 0C            INC C
1AB1: AB            XOR E
1AB2: 80            ADD A,B
1AB3: 18 8B         JR loc_1A40
1AB5: 0C            INC C
1AB6: 86            ADD A,(HL)
1AB7: AD            XOR L
1AB8: 80            ADD A,B
1AB9: 48            LD C,B
1ABA: 8D            ADC A,L
1ABB: 18 DE         JR loc_1A9B
1ABD: 24            INC H
1ABE: 89            ADC A,C
1ABF: 0C            INC C
1AC0: AB            XOR E
1AC1: 80            ADD A,B
1AC2: 18 8B         JR loc_1A4F
1AC4: 0C            INC C
1AC5: 8F            ADC A,A
1AC6: AD            XOR L
1AC7: 80            ADD A,B
1AC8: 48            LD C,B
1AC9: 8D            ADC A,L
1ACA: 18 DE         JR loc_1AAA
1ACC: 24            INC H
1ACD: 89            ADC A,C
1ACE: 0C            INC C
1ACF: AB            XOR E
1AD0: 80            ADD A,B
1AD1: 18 8B         JR loc_1A5E
1AD3: 0C            INC C
1AD4: 86            ADD A,(HL)
1AD5: AD            XOR L
1AD6: 80            ADD A,B
1AD7: 30 AD         JR NC,loc_1A86
1AD9: 80            ADD A,B
1ADA: 0C            INC C
1ADB: 8D            ADC A,L
1ADC: 89            ADC A,C
1ADD: 8D            ADC A,L
1ADE: AF            XOR A
1ADF: 80            ADD A,B
1AE0: 60            LD H,B
1AE1: AF            XOR A
1AE2: 80            ADD A,B
1AE3: 48            LD C,B
1AE4: 8F            ADC A,A
1AE5: 06 8B         LD B,8Bh
1AE7: 88            ADC A,B

loc_1AE8:
1AE8: DE A6         SBC A,A6h
1AEA: 80            ADD A,B
1AEB: E0            RET PO
1AEC: A2            AND D
1AED: FE DF         CP DFh
1AEF: BF            CP A
1AF0: 44            LD B,H

loc_1AF1:
1AF1: C8            RET Z
1AF2: 55            LD D,L
1AF3: DB C8         IN A,(C8h)
1AF5: E8            RET PE
1AF6: 6E            LD L,(HL)
1AF7: 0C            INC C
1AF8: DE 06         SBC A,06h
1AFA: DE C5         SBC A,C5h
1AFC: 30 A9         JR NC,loc_1AA7
1AFE: 80            ADD A,B
1AFF: 12            LD (DE),A

loc_1B00:
1B00: C5            PUSH BC
1B01: 30 89         JR NC,loc_1A8C
1B03: 06 89         LD B,89h
1B05: 0C            INC C
1B06: DE 8B         SBC A,8Bh
1B08: 30 DE         JR NC,loc_1AE8
1B0A: 12            LD (DE),A
1B0B: 8D            ADC A,L
1B0C: 06 8D         LD B,8Dh
1B0E: 0C            INC C
1B0F: DE 8F         SBC A,8Fh
1B11: 18 DE         JR loc_1AF1

loc_1B13:
1B13: 0C            INC C
1B14: DE 06         SBC A,06h
1B16: DE A9         SBC A,A9h

loc_1B18:
1B18: 80            ADD A,B
1B19: 12            LD (DE),A
1B1A: 89            ADC A,C
1B1B: 06 89         LD B,89h
1B1D: 0C            INC C
1B1E: DE 8B         SBC A,8Bh
1B20: 30 DE         JR NC,loc_1B00
1B22: 12            LD (DE),A
1B23: 8D            ADC A,L

loc_1B24:
1B24: 06 8D         LD B,8Dh
1B26: 0C            INC C
1B27: DE 8B         SBC A,8Bh
1B29: 18 DE         JR loc_1B09
1B2B: 0C            INC C
1B2C: DE 06         SBC A,06h
1B2E: DE A9         SBC A,A9h
1B30: 80            ADD A,B

loc_1B31:
1B31: 12            LD (DE),A
1B32: 89            ADC A,C
1B33: 06 89         LD B,89h
1B35: 0C            INC C
1B36: DE 8B         SBC A,8Bh
1B38: 30 DE         JR NC,loc_1B18
1B3A: 12            LD (DE),A
1B3B: 8D            ADC A,L
1B3C: 06 8D         LD B,8Dh
1B3E: 0C            INC C
1B3F: DE 8F         SBC A,8Fh
1B41: 18 DE         JR loc_1B21
1B43: 0C            INC C
1B44: DE 06         SBC A,06h
1B46: DE AD         SBC A,ADh
1B48: 80            ADD A,B
1B49: 0C            INC C
1B4A: 8D            ADC A,L
1B4B: 8D            ADC A,L
1B4C: 06 8D         LD B,8Dh
1B4E: 8D            ADC A,L
1B4F: DE 8D         SBC A,8Dh
1B51: 18 DE         JR loc_1B31
1B53: 0C            INC C
1B54: DE 06         SBC A,06h
1B56: DE AF         SBC A,AFh
1B58: 80            ADD A,B

loc_1B59:
1B59: 0C            INC C
1B5A: 8F            ADC A,A

loc_1B5B:
1B5B: 8F            ADC A,A
1B5C: 06 DE         LD B,DEh
1B5E: 8F            ADC A,A
1B5F: DE AF         SBC A,AFh
1B61: 80            ADD A,B

loc_1B62:
1B62: 30 AF         JR NC,loc_1B13

loc_1B64:
1B64: 80            ADD A,B
1B65: 0C            INC C
1B66: 8F            ADC A,A
1B67: DE 18         SBC A,18h
1B69: DE DE         SBC A,DEh

loc_1B6B:
1B6B: 0C            INC C
1B6C: DE 06         SBC A,06h
1B6E: DE 84         SBC A,84h
1B70: 30 DE         JR NC,loc_1B50
1B72: 18 DE         JR loc_1B52
1B74: 0C            INC C
1B75: DE 06         SBC A,06h
1B77: DE 86         SBC A,86h
1B79: 30 DE         JR NC,loc_1B59
1B7B: 18 DE         JR loc_1B5B
1B7D: 0C            INC C
1B7E: DE 06         SBC A,06h
1B80: DE 88         SBC A,88h
1B82: 30 DE         JR NC,loc_1B62
1B84: 18 DE         JR loc_1B64
1B86: 0C            INC C
1B87: DE 06         SBC A,06h
1B89: DE 8A         SBC A,8Ah
1B8B: 30 DE         JR NC,loc_1B6B
1B8D: 18 DE         JR loc_1B6D
1B8F: 06 8D         LD B,8Dh
1B91: 8B            ADC A,E
1B92: DE AD         SBC A,ADh
1B94: 80            ADD A,B
1B95: 18 8D         JR loc_1B24
1B97: DE 0C         SBC A,0Ch
1B99: DE 06         SBC A,06h
1B9B: 89            ADC A,C
1B9C: DE 89         SBC A,89h
1B9E: DE 89         SBC A,89h
1BA0: AB            XOR E
1BA1: 80            ADD A,B
1BA2: 18 8B         JR loc_1B2F

loc_1BA4:
1BA4: DE 0C         SBC A,0Ch

loc_1BA6:
1BA6: DE 06         SBC A,06h
1BA8: 88            ADC A,B
1BA9: DE 88         SBC A,88h
1BAB: DE 88         SBC A,88h

loc_1BAD:
1BAD: A6            AND (HL)
1BAE: 80            ADD A,B

loc_1BAF:
1BAF: 18 86         JR loc_1B37
1BB1: 88            ADC A,B
1BB2: 12            LD (DE),A
1BB3: 89            ADC A,C
1BB4: 06 AB         LD B,ABh

loc_1BB6:
1BB6: 80            ADD A,B
1BB7: 0C            INC C

loc_1BB8:
1BB8: 8B            ADC A,E
1BB9: A8            XOR B
1BBA: 80            ADD A,B
1BBB: 30 88         JR NC,loc_1B45
1BBD: 18 DE         JR loc_1B9D

loc_1BBF:
1BBF: 06 DE         LD B,DEh

loc_1BC1:
1BC1: 84            ADD A,H
1BC2: DE 84         SBC A,84h
1BC4: 30 DE         JR NC,loc_1BA4
1BC6: 18 DE         JR loc_1BA6
1BC8: 0C            INC C
1BC9: DE 06         SBC A,06h
1BCB: DE 86         SBC A,86h
1BCD: 30 DE         JR NC,loc_1BAD
1BCF: 18 DE         JR loc_1BAF
1BD1: 0C            INC C
1BD2: DE 06         SBC A,06h
1BD4: DE 88         SBC A,88h
1BD6: 30 DE         JR NC,loc_1BB6
1BD8: 18 DE         JR loc_1BB8
1BDA: 0C            INC C
1BDB: DE 06         SBC A,06h
1BDD: DE 8A         SBC A,8Ah
1BDF: 30 DE         JR NC,loc_1BBF
1BE1: 18 DE         JR loc_1BC1
1BE3: 06 8D         LD B,8Dh
1BE5: 8B            ADC A,E
1BE6: DE AD         SBC A,ADh
1BE8: 80            ADD A,B
1BE9: 18 8D         JR loc_1B78
1BEB: DE 0C         SBC A,0Ch
1BED: DE 06         SBC A,06h
1BEF: 89            ADC A,C
1BF0: DE 89         SBC A,89h
1BF2: DE 89         SBC A,89h
1BF4: AB            XOR E
1BF5: 80            ADD A,B
1BF6: 18 8B         JR loc_1B83
1BF8: DE 0C         SBC A,0Ch
1BFA: DE 06         SBC A,06h
1BFC: 88            ADC A,B
1BFD: DE 88         SBC A,88h
1BFF: DE 88         SBC A,88h
1C01: A6            AND (HL)
1C02: 80            ADD A,B
1C03: 48            LD C,B
1C04: A6            AND (HL)
1C05: 80            ADD A,B
1C06: 12            LD (DE),A
1C07: 86            ADD A,(HL)
1C08: 06 A6         LD B,A6h
1C0A: 80            ADD A,B
1C0B: 60            LD H,B
1C0C: 86            ADD A,(HL)
1C0D: DE DE         SBC A,DEh
1C0F: DE DE         SBC A,DEh
1C11: DE 30         SBC A,30h
1C13: DE 18         SBC A,18h
1C15: DE 0C         SBC A,0Ch
1C17: DE AB         SBC A,ABh
1C19: 80            ADD A,B
1C1A: 60            LD H,B
1C1B: AB            XOR E
1C1C: 80            ADD A,B
1C1D: 48            LD C,B
1C1E: 8B            ADC A,E
1C1F: 06 8B         LD B,8Bh
1C21: 8B            ADC A,E
1C22: DE A9         SBC A,A9h
1C24: 80            ADD A,B
1C25: E0            RET PO
1C26: D9            EXX
1C27: FE DF         CP DFh
1C29: 91            SUB C
1C2A: 4A            LD C,D
1C2B: C8            RET Z
1C2C: 6E            LD L,(HL)
1C2D: E8            RET PE
1C2E: 64            LD H,H
1C2F: DF            RST 18h
1C30: E2 4A 06      JP PO,loc_064A
1C33: C5            PUSH BC
1C34: 24            INC H
1C35: 8B            ADC A,E
1C36: 8B            ADC A,E
1C37: DF            RST 18h
1C38: 56            LD D,(HL)
1C39: 4A            LD C,D
1C3A: C8            RET Z
1C3B: 64            LD H,H
1C3C: DE AB         SBC A,ABh
1C3E: 80            ADD A,B
1C3F: E3            EX (SP),HL
1C40: 02            LD (BC),A
1C41: 0C            INC C
1C42: C5            PUSH BC
1C43: 24            INC H
1C44: 8B            ADC A,E
1C45: DF            RST 18h
1C46: 74            LD (HL),H
1C47: 4A            LD C,D
1C48: C8            RET Z
1C49: 6E            LD L,(HL)
1C4A: 06 DE         LD B,DEh
1C4C: 97            SUB A
1C4D: C8            RET Z
1C4E: 6E            LD L,(HL)
1C4F: DF            RST 18h

loc_1C50:
1C50: C2 4A 0C      JP NZ,loc_0C4A
1C53: 8B            ADC A,E
1C54: DF            RST 18h
1C55: 65            LD H,L
1C56: 4A            LD C,D
1C57: 97            SUB A
1C58: 06 97         LD B,97h
1C5A: 97            SUB A
1C5B: DE 97         SBC A,97h
1C5D: DF            RST 18h
1C5E: AC            XOR H
1C5F: 49            LD C,C
1C60: C8            RET Z
1C61: 5F            LD E,A
1C62: 0C            INC C
1C63: C7            RST 00h
1C64: 8B            ADC A,E
1C65: C8            RET Z
1C66: 6E            LD L,(HL)
1C67: DF            RST 18h
1C68: 52            LD D,D
1C69: 4A            LD C,D
1C6A: 06 C6         LD B,C6h
1C6C: C6 8B         ADD A,8Bh
1C6E: 8B            ADC A,E
1C6F: 0C            INC C
1C70: DE 06         SBC A,06h
1C72: 8B            ADC A,E
1C73: 8B            ADC A,E
1C74: DF            RST 18h
1C75: 9D            SBC A,L
1C76: 4A            LD C,D
1C77: 0C            INC C
1C78: C7            RST 00h
1C79: 8B            ADC A,E
1C7A: DF            RST 18h
1C7B: 3F            CCF
1C7C: 4A            LD C,D
1C7D: 97            SUB A
1C7E: 06 97         LD B,97h

loc_1C80:
1C80: 97            SUB A
1C81: DE 97         SBC A,97h
1C83: DF            RST 18h
1C84: 86            ADD A,(HL)
1C85: 49            LD C,C
1C86: C8            RET Z
1C87: 5F            LD E,A
1C88: 0C            INC C
1C89: C7            RST 00h
1C8A: 8B            ADC A,E
1C8B: C8            RET Z
1C8C: 6E            LD L,(HL)
1C8D: DF            RST 18h
1C8E: 2C            INC L
1C8F: 4A            LD C,D
1C90: 06 C6         LD B,C6h
1C92: C6 8B         ADD A,8Bh
1C94: 8B            ADC A,E
1C95: 0C            INC C
1C96: DE 06         SBC A,06h
1C98: 8B            ADC A,E
1C99: 8B            ADC A,E
1C9A: DF            RST 18h
1C9B: 77            LD (HL),A
1C9C: 4A            LD C,D
1C9D: 0C            INC C
1C9E: C7            RST 00h
1C9F: 8B            ADC A,E
1CA0: DF            RST 18h
1CA1: 19            ADD HL,DE
1CA2: 4A            LD C,D
1CA3: 97            SUB A
1CA4: 06 97         LD B,97h
1CA6: 97            SUB A
1CA7: DE 97         SBC A,97h
1CA9: DF            RST 18h
1CAA: 60            LD H,B
1CAB: 49            LD C,C
1CAC: C8            RET Z
1CAD: 5F            LD E,A
1CAE: 0C            INC C
1CAF: C7            RST 00h
1CB0: 8B            ADC A,E
1CB1: C8            RET Z
1CB2: 6E            LD L,(HL)
1CB3: DF            RST 18h
1CB4: 06 4A         LD B,4Ah
1CB6: 06 C6         LD B,C6h
1CB8: C6 8B         ADD A,8Bh
1CBA: 8B            ADC A,E
1CBB: E5            PUSH HL
1CBC: 01 31 00      LD BC,0031h
1CBF: 0C            INC C
1CC0: DE 06         SBC A,06h
1CC2: C5            PUSH BC
1CC3: 30 8B         JR NC,loc_1C50
1CC5: 8B            ADC A,E
1CC6: DF            RST 18h
1CC7: 4B            LD C,E
1CC8: 4A            LD C,D
1CC9: 0C            INC C
1CCA: C7            RST 00h
1CCB: 8B            ADC A,E
1CCC: DF            RST 18h
1CCD: ED 49         OUT (C),C
1CCF: 97            SUB A

loc_1CD0:
1CD0: 06 97         LD B,97h
1CD2: 97            SUB A
1CD3: DE 97         SBC A,97h
1CD5: DF            RST 18h
1CD6: 34            INC (HL)
1CD7: 49            LD C,C
1CD8: C8            RET Z
1CD9: 5F            LD E,A
1CDA: C7            RST 00h
1CDB: 8B            ADC A,E
1CDC: 8B            ADC A,E
1CDD: C8            RET Z
1CDE: 6E            LD L,(HL)
1CDF: DF            RST 18h
1CE0: DA 49 C6      JP C,C649h
1CE3: C6 8B         ADD A,8Bh
1CE5: DF            RST 18h
1CE6: A8            XOR B
1CE7: 49            LD C,C
1CE8: C8            RET Z
1CE9: 64            LD H,H
1CEA: C7            RST 00h
1CEB: AB            XOR E
1CEC: 80            ADD A,B
1CED: E6 E6         AND E6h
1CEF: 0C            INC C
1CF0: DE 06         SBC A,06h
1CF2: C5            PUSH BC
1CF3: 30 8B         JR NC,loc_1C80
1CF5: 8B            ADC A,E
1CF6: DF            RST 18h

loc_1CF7:
1CF7: 1B            DEC DE
1CF8: 4A            LD C,D
1CF9: 0C            INC C
1CFA: C7            RST 00h
1CFB: 8B            ADC A,E
1CFC: DF            RST 18h
1CFD: BD            CP L
1CFE: 49            LD C,C
1CFF: 06 97         LD B,97h
1D01: DF            RST 18h
1D02: 8C            ADC A,H
1D03: 49            LD C,C
1D04: C8            RET Z
1D05: 64            LD H,H
1D06: AB            XOR E
1D07: 80            ADD A,B
1D08: 8B            ADC A,E
1D09: DF            RST 18h
1D0A: B0            OR B
1D0B: 49            LD C,C
1D0C: C8            RET Z
1D0D: 6E            LD L,(HL)
1D0E: 97            SUB A
1D0F: DE 97         SBC A,97h
1D11: DF            RST 18h
1D12: F8            RET M
1D13: 48            LD C,B
1D14: C8            RET Z
1D15: 5F            LD E,A
1D16: C7            RST 00h
1D17: 8B            ADC A,E

loc_1D18:
1D18: 8B            ADC A,E
1D19: C8            RET Z
1D1A: 6E            LD L,(HL)
1D1B: DF            RST 18h
1D1C: 9E            SBC A,(HL)
1D1D: 49            LD C,C
1D1E: C6 C6         ADD A,C6h
1D20: 8B            ADC A,E
1D21: 8B            ADC A,E
1D22: DF            RST 18h
1D23: E7            RST 20h
1D24: 48            LD C,B
1D25: C8            RET Z
1D26: 64            LD H,H
1D27: 12            LD (DE),A
1D28: 86            ADD A,(HL)
1D29: 06 C7         LD B,C7h
1D2B: AB            XOR E
1D2C: 80            ADD A,B
1D2D: 0C            INC C
1D2E: 8B            ADC A,E
1D2F: 86            ADD A,(HL)
1D30: 83            ADD A,E
1D31: DE C8         SBC A,C8h
1D33: 5F            LD E,A
1D34: 06 C7         LD B,C7h
1D36: 8B            ADC A,E
1D37: 8B            ADC A,E
1D38: DE 8B         SBC A,8Bh
1D3A: DF            RST 18h
1D3B: 7F            LD A,A
1D3C: 49            LD C,C
1D3D: C8            RET Z
1D3E: 6E            LD L,(HL)

loc_1D3F:
1D3F: E3            EX (SP),HL
1D40: 07            RLCA
1D41: 0C            INC C
1D42: C5            PUSH BC
1D43: 30 8B         JR NC,loc_1CD0
1D45: 06 8B         LD B,8Bh
1D47: 8B            ADC A,E
1D48: DF            RST 18h
1D49: C9            RET
1D4A: 49            LD C,C
1D4B: 0C            INC C
1D4C: C7            RST 00h
1D4D: 8B            ADC A,E
1D4E: DF            RST 18h
1D4F: 6B            LD L,E
1D50: 49            LD C,C
1D51: 06 97         LD B,97h
1D53: 97            SUB A
1D54: 0C            INC C
1D55: 97            SUB A
1D56: 06 97         LD B,97h
1D58: 97            SUB A
1D59: DF            RST 18h
1D5A: B0            OR B

loc_1D5B:
1D5B: 48            LD C,B
1D5C: 0C            INC C
1D5D: C7            RST 00h
1D5E: 8B            ADC A,E

loc_1D5F:
1D5F: DF            RST 18h
1D60: 5A            LD E,D
1D61: 49            LD C,C
1D62: 06 C6         LD B,C6h
1D64: C6 8B         ADD A,8Bh
1D66: 8B            ADC A,E
1D67: E6 0C         AND 0Ch
1D69: C5            PUSH BC
1D6A: 30 8B         JR NC,loc_1CF7
1D6C: 06 8B         LD B,8Bh
1D6E: 8B            ADC A,E
1D6F: DF            RST 18h
1D70: 9A            SBC A,D
1D71: 48            LD C,B
1D72: C8            RET Z
1D73: 5F            LD E,A
1D74: 0C            INC C
1D75: C7            RST 00h
1D76: C7            RST 00h
1D77: 8B            ADC A,E
1D78: 06 8B         LD B,8Bh
1D7A: 8B            ADC A,E
1D7B: 18 DE         JR loc_1D5B
1D7D: 06 8B         LD B,8Bh
1D7F: 8B            ADC A,E
1D80: DE 8B         SBC A,8Bh
1D82: DF            RST 18h
1D83: 37            SCF

sub_1D84:
1D84: 49            LD C,C
1D85: C8            RET Z

loc_1D86:
1D86: 6E            LD L,(HL)
1D87: E3            EX (SP),HL
1D88: 07            RLCA
1D89: 0C            INC C
1D8A: C5            PUSH BC
1D8B: 30 8B         JR NC,loc_1D18
1D8D: 06 8B         LD B,8Bh
1D8F: 8B            ADC A,E
1D90: DF            RST 18h
1D91: 81            ADD A,C
1D92: 49            LD C,C
1D93: 0C            INC C
1D94: C7            RST 00h
1D95: 8B            ADC A,E
1D96: DF            RST 18h
1D97: 23            INC HL
1D98: 49            LD C,C
1D99: 06 97         LD B,97h
1D9B: 97            SUB A
1D9C: 0C            INC C
1D9D: 97            SUB A
1D9E: 06 97         LD B,97h
1DA0: 97            SUB A
1DA1: DF            RST 18h
1DA2: 68            LD L,B
1DA3: 48            LD C,B
1DA4: 0C            INC C
1DA5: C7            RST 00h
1DA6: 8B            ADC A,E
1DA7: DF            RST 18h
1DA8: 12            LD (DE),A
1DA9: 49            LD C,C
1DAA: 06 C6         LD B,C6h
1DAC: C6 8B         ADD A,8Bh
1DAE: 8B            ADC A,E
1DAF: E6 0C         AND 0Ch
1DB1: C5            PUSH BC
1DB2: 30 8B         JR NC,loc_1D3F
1DB4: 06 8B         LD B,8Bh
1DB6: 8B            ADC A,E
1DB7: DF            RST 18h
1DB8: 52            LD D,D
1DB9: 48            LD C,B
1DBA: C8            RET Z
1DBB: 5F            LD E,A
1DBC: 0C            INC C
1DBD: C7            RST 00h
1DBE: C7            RST 00h
1DBF: 8B            ADC A,E
1DC0: DE 06         SBC A,06h
1DC2: 8B            ADC A,E
1DC3: 8B            ADC A,E
1DC4: DE 8B         SBC A,8Bh
1DC6: 0C            INC C
1DC7: 8B            ADC A,E
1DC8: 8B            ADC A,E
1DC9: DF            RST 18h
1DCA: F0            RET P
1DCB: 48            LD C,B
1DCC: C8            RET Z
1DCD: 6E            LD L,(HL)
1DCE: E3            EX (SP),HL
1DCF: 05            DEC B
1DD0: 0C            INC C
1DD1: C5            PUSH BC
1DD2: 30 8B         JR NC,loc_1D5F
1DD4: 06 8B         LD B,8Bh
1DD6: 8B            ADC A,E
1DD7: DF            RST 18h
1DD8: 3A 49 0C      LD A,(0C49h)
1DDB: C7            RST 00h
1DDC: 8B            ADC A,E
1DDD: DF            RST 18h
1DDE: DC 48 06      CALL C,loc_0648
1DE1: 97            SUB A
1DE2: 97            SUB A
1DE3: 0C            INC C
1DE4: 97            SUB A
1DE5: 06 97         LD B,97h
1DE7: 97            SUB A
1DE8: DF            RST 18h
1DE9: 21 48 0C      LD HL,0C48h
1DEC: C7            RST 00h
1DED: 8B            ADC A,E
1DEE: DF            RST 18h
1DEF: CB 48         BIT 1,B
1DF1: 06 C6         LD B,C6h
1DF3: C6 8B         ADD A,8Bh
1DF5: 8B            ADC A,E
1DF6: E6 0C         AND 0Ch
1DF8: C5            PUSH BC
1DF9: 30 8B         JR NC,loc_1D86
1DFB: 06 8B         LD B,8Bh
1DFD: 8B            ADC A,E
1DFE: DF            RST 18h
1DFF: 13            INC DE
1E00: 49            LD C,C

loc_1E01:
1E01: 0C            INC C
1E02: C7            RST 00h
1E03: 8B            ADC A,E
1E04: DF            RST 18h

loc_1E05:
1E05: B5            OR L
1E06: 48            LD C,B
1E07: 06 97         LD B,97h
1E09: 97            SUB A
1E0A: 0C            INC C
1E0B: 97            SUB A
1E0C: 06 97         LD B,97h
1E0E: 97            SUB A
1E0F: DF            RST 18h
1E10: FA 47 0C      JP M,loc_0C47
1E13: C7            RST 00h
1E14: 8B            ADC A,E
1E15: DF            RST 18h
1E16: 78            LD A,B
1E17: 48            LD C,B
1E18: C8            RET Z
1E19: 64            LD H,H
1E1A: B7            OR A
1E1B: 80            ADD A,B
1E1C: 97            SUB A

loc_1E1D:
1E1D: DF            RST 18h
1E1E: 9C            SBC A,H
1E1F: 48            LD C,B
1E20: C8            RET Z
1E21: 6E            LD L,(HL)
1E22: 06 C6         LD B,C6h
1E24: C6 8B         ADD A,8Bh
1E26: 8B            ADC A,E
1E27: 0C            INC C
1E28: C7            RST 00h

loc_1E29:
1E29: 8B            ADC A,E
1E2A: 06 97         LD B,97h
1E2C: 97            SUB A
1E2D: 0C            INC C
1E2E: 8B            ADC A,E
1E2F: 06 97         LD B,97h

loc_1E31:
1E31: 97            SUB A
1E32: DF            RST 18h
1E33: D7            RST 10h
1E34: 47            LD B,A
1E35: C8            RET Z
1E36: 5F            LD E,A
1E37: 0C            INC C
1E38: C7            RST 00h
1E39: 8B            ADC A,E
1E3A: DF            RST 18h
1E3B: 7F            LD A,A
1E3C: 48            LD C,B

loc_1E3D:
1E3D: C8            RET Z

loc_1E3E:
1E3E: 6E            LD L,(HL)
1E3F: 06 C6         LD B,C6h
1E41: C6 8B         ADD A,8Bh
1E43: 8B            ADC A,E
1E44: 0C            INC C
1E45: 8B            ADC A,E
1E46: 06 8B         LD B,8Bh
1E48: 8B            ADC A,E

loc_1E49:
1E49: 0C            INC C
1E4A: C7            RST 00h
1E4B: 8B            ADC A,E
1E4C: 06 97         LD B,97h
1E4E: 97            SUB A
1E4F: 0C            INC C
1E50: 8B            ADC A,E

loc_1E51:
1E51: 06 97         LD B,97h
1E53: 97            SUB A
1E54: DF            RST 18h
1E55: B5            OR L
1E56: 47            LD B,A
1E57: C8            RET Z
1E58: 5F            LD E,A
1E59: C7            RST 00h
1E5A: 8B            ADC A,E
1E5B: 8B            ADC A,E
1E5C: DF            RST 18h
1E5D: 31 48 C8      LD SP,C848h
1E60: 64            LD H,H
1E61: DE B7         SBC A,B7h
1E63: 80            ADD A,B
1E64: E0            RET PO
1E65: DA FD E7      JP C,E7FDh
1E68: DF            RST 18h
1E69: D5            PUSH DE
1E6A: 48            LD C,B
1E6B: C8            RET Z
1E6C: 6E            LD L,(HL)
1E6D: E8            RET PE
1E6E: 64            LD H,H
1E6F: 0C            INC C

loc_1E70:
1E70: DE 06         SBC A,06h
1E72: DE C5         SBC A,C5h
1E74: 18 8B         JR loc_1E01
1E76: 18 C5         JR loc_1E3D
1E78: 18 8B         JR loc_1E05
1E7A: 8B            ADC A,E
1E7B: 8B            ADC A,E
1E7C: 8B            ADC A,E
1E7D: 8B            ADC A,E

loc_1E7E:
1E7E: 8B            ADC A,E
1E7F: 8B            ADC A,E

loc_1E80:
1E80: 12            LD (DE),A

loc_1E81:
1E81: 8B            ADC A,E
1E82: 06 8B         LD B,8Bh
1E84: 18 8B         JR loc_1E11

loc_1E86:
1E86: 8B            ADC A,E
1E87: 8B            ADC A,E
1E88: 8B            ADC A,E
1E89: 8B            ADC A,E
1E8A: 8B            ADC A,E
1E8B: 8B            ADC A,E
1E8C: 12            LD (DE),A
1E8D: 8B            ADC A,E
1E8E: 06 8B         LD B,8Bh
1E90: 18 8B         JR loc_1E1D
1E92: 8B            ADC A,E
1E93: 8B            ADC A,E
1E94: 8B            ADC A,E
1E95: 8B            ADC A,E
1E96: 8B            ADC A,E

loc_1E97:
1E97: 8B            ADC A,E
1E98: 12            LD (DE),A
1E99: 8B            ADC A,E
1E9A: 06 8B         LD B,8Bh
1E9C: 18 8B         JR loc_1E29
1E9E: 8B            ADC A,E
1E9F: 8B            ADC A,E
1EA0: 12            LD (DE),A
1EA1: 8B            ADC A,E
1EA2: 06 8B         LD B,8Bh
1EA4: 18 8B         JR loc_1E31
1EA6: 8B            ADC A,E
1EA7: 8B            ADC A,E
1EA8: 8B            ADC A,E
1EA9: 12            LD (DE),A
1EAA: 8B            ADC A,E

loc_1EAB:
1EAB: 06 AB         LD B,ABh
1EAD: 80            ADD A,B
1EAE: 0C            INC C
1EAF: 8B            ADC A,E
1EB0: 8B            ADC A,E
1EB1: 18 8B         JR loc_1E3E
1EB3: 06 8B         LD B,8Bh
1EB5: 8B            ADC A,E
1EB6: DE 8B         SBC A,8Bh
1EB8: E3            EX (SP),HL
1EB9: 07            RLCA
1EBA: 18 C5         JR loc_1E81
1EBC: 18 8B         JR loc_1E49
1EBE: 8B            ADC A,E
1EBF: 8B            ADC A,E
1EC0: 8B            ADC A,E
1EC1: E6 18         AND 18h
1EC3: C5            PUSH BC
1EC4: 18 8B         JR loc_1E51
1EC6: 0C            INC C
1EC7: 8B            ADC A,E
1EC8: 06 8B         LD B,8Bh
1ECA: 8B            ADC A,E
1ECB: 18 DE         JR loc_1EAB
1ECD: DE E3         SBC A,E3h
1ECF: 07            RLCA
1ED0: 18 C5         JR loc_1E97
1ED2: 18 8B         JR loc_1E5F
1ED4: 8B            ADC A,E
1ED5: 8B            ADC A,E
1ED6: 8B            ADC A,E
1ED7: E6 18         AND 18h
1ED9: C5            PUSH BC
1EDA: 18 8B         JR loc_1E67
1EDC: 8B            ADC A,E
1EDD: 8B            ADC A,E
1EDE: 8B            ADC A,E
1EDF: E3            EX (SP),HL
1EE0: 06 18         LD B,18h
1EE2: C5            PUSH BC
1EE3: 18 8B         JR loc_1E70
1EE5: 0C            INC C
1EE6: DE 8B         SBC A,8Bh
1EE8: 18 8B         JR loc_1E75
1EEA: 0C            INC C
1EEB: DE 8B         SBC A,8Bh
1EED: E6 0C         AND 0Ch
1EEF: DE C5         SBC A,C5h
1EF1: 18 8B         JR loc_1E7E
1EF3: 18 8B         JR loc_1E80
1EF5: 8B            ADC A,E
1EF6: 0C            INC C
1EF7: 8B            ADC A,E
1EF8: 8B            ADC A,E
1EF9: 18 8B         JR loc_1E86
1EFB: 8B            ADC A,E
1EFC: 8B            ADC A,E
1EFD: 06 8B         LD B,8Bh
1EFF: 8B            ADC A,E
1F00: DE 8B         SBC A,8Bh
1F02: E0            RET PO
1F03: 73            LD (HL),E
1F04: FF            RST 38h
1F05: E7            RST 20h
1F06: 00            NOP
1F07: FF            RST 38h
1F08: 1F            RRA
1F09: 00            NOP
1F0A: 01 FF EE      LD BC,EEFFh
1F0D: 00            NOP
1F0E: 02            LD (BC),A
1F0F: FF            RST 38h
1F10: D2 01 03      JP NC,loc_0301
1F13: FF            RST 38h
1F14: B7            OR A
1F15: 02            LD (BC),A
1F16: 04            INC B
1F17: FF            RST 38h
1F18: 9E            SBC A,(HL)

loc_1F19:
1F19: 03            INC BC
1F1A: 05            DEC B
1F1B: FF            RST 38h
1F1C: 75            LD (HL),L
1F1D: 04            INC B
1F1E: 06 FF         LD B,FFh
1F20: 54            LD D,H
1F21: 05            DEC B
1F22: 07            RLCA
1F23: FF            RST 38h
1F24: 74            LD (HL),H
1F25: 06 FF         LD B,FFh
1F27: D0            RET NC
1F28: 8C            ADC A,H
1F29: DF            RST 18h
1F2A: 2C            INC L
1F2B: 40            LD B,B
1F2C: C8            RET Z
1F2D: 58            LD E,B
1F2E: E8            RET PE
1F2F: 6E            LD L,(HL)
1F30: DB C8         IN A,(C8h)
1F32: 18 DE         JR loc_1F12
1F34: E3            EX (SP),HL
1F35: 07            RLCA
1F36: 60            LD H,B
1F37: DE E6         SBC A,E6h
1F39: 18 DE         JR loc_1F19
1F3B: 0C            INC C
1F3C: DE C5         SBC A,C5h
1F3E: 30 A4         JR NC,loc_1EE4
1F40: 80            ADD A,B
1F41: 84            ADD A,H
1F42: 83            ADD A,E
1F43: 81            ADD A,C
1F44: A4            AND H
1F45: 80            ADD A,B
1F46: 84            ADD A,H
1F47: 81            ADD A,C
1F48: C8            RET Z
1F49: 4B            LD C,E
1F4A: 81            ADD A,C
1F4B: C8            RET Z

loc_1F4C:
1F4C: 41            LD B,C

loc_1F4D:
1F4D: 81            ADD A,C
1F4E: C8            RET Z
1F4F: 37            SCF
1F50: 81            ADD A,C

loc_1F51:
1F51: C8            RET Z
1F52: 2D            DEC L
1F53: 81            ADD A,C
1F54: C8            RET Z
1F55: 23            INC HL
1F56: 81            ADD A,C
1F57: C8            RET Z
1F58: 53            LD D,E
1F59: A3            AND E
1F5A: 80            ADD A,B
1F5B: 83            ADD A,E
1F5C: 81            ADD A,C
1F5D: 83            ADD A,E
1F5E: 81            ADD A,C
1F5F: 84            ADD A,H
1F60: 83            ADD A,E
1F61: DE 81         SBC A,81h
1F63: 60            LD H,B
1F64: DE 18         SBC A,18h

loc_1F66:
1F66: DE 0C         SBC A,0Ch
1F68: DE A4         SBC A,A4h
1F6A: 80            ADD A,B
1F6B: 84            ADD A,H
1F6C: 83            ADD A,E
1F6D: 81            ADD A,C
1F6E: A4            AND H
1F6F: 80            ADD A,B
1F70: 84            ADD A,H
1F71: 81            ADD A,C
1F72: C8            RET Z
1F73: 4B            LD C,E
1F74: 81            ADD A,C
1F75: C8            RET Z
1F76: 41            LD B,C
1F77: 81            ADD A,C
1F78: C8            RET Z
1F79: 37            SCF
1F7A: 81            ADD A,C
1F7B: C8            RET Z
1F7C: 2D            DEC L
1F7D: 81            ADD A,C
1F7E: C8            RET Z
1F7F: 23            INC HL
1F80: 81            ADD A,C
1F81: C8            RET Z
1F82: 53            LD D,E
1F83: A3            AND E
1F84: 80            ADD A,B
1F85: 83            ADD A,E
1F86: 81            ADD A,C
1F87: 83            ADD A,E
1F88: 81            ADD A,C
1F89: 84            ADD A,H
1F8A: 83            ADD A,E
1F8B: DE 81         SBC A,81h
1F8D: 60            LD H,B
1F8E: DE 18         SBC A,18h
1F90: DE 0C         SBC A,0Ch
1F92: DE 81         SBC A,81h
1F94: 84            ADD A,H
1F95: 83            ADD A,E
1F96: 81            ADD A,C
1F97: A1            AND C
1F98: 80            ADD A,B
1F99: 60            LD H,B
1F9A: 81            ADD A,C
1F9B: DE 18         SBC A,18h
1F9D: DE 0C         SBC A,0Ch
1F9F: 84            ADD A,H
1FA0: 84            ADD A,H
1FA1: 84            ADD A,H
1FA2: 83            ADD A,E
1FA3: 81            ADD A,C
1FA4: C7            RST 00h
1FA5: 8B            ADC A,E
1FA6: 8D            ADC A,L

loc_1FA7:
1FA7: 8F            ADC A,A
1FA8: DE AD         SBC A,ADh
1FAA: 80            ADD A,B
1FAB: 18 8D         JR loc_1F3A
1FAD: C8            RET Z
1FAE: 46            LD B,(HL)
1FAF: 8D            ADC A,L
1FB0: C8            RET Z
1FB1: 3C            INC A
1FB2: 8D            ADC A,L
1FB3: C8            RET Z
1FB4: 53            LD D,E
1FB5: 0C            INC C
1FB6: 90            SUB B
1FB7: 90            SUB B
1FB8: 18 92         JR loc_1F4C
1FBA: 0C            INC C
1FBB: 90            SUB B
1FBC: AD            XOR L
1FBD: 80            ADD A,B
1FBE: 30 8D         JR NC,loc_1F4D
1FC0: C8            RET Z
1FC1: 46            LD B,(HL)
1FC2: 18 8D         JR loc_1F51
1FC4: C8            RET Z
1FC5: 3C            INC A
1FC6: 8D            ADC A,L
1FC7: 0C            INC C
1FC8: DE C8         SBC A,C8h
1FCA: 53            LD D,E
1FCB: 90            SUB B

loc_1FCC:
1FCC: 90            SUB B
1FCD: 90            SUB B
1FCE: 90            SUB B
1FCF: 8F            ADC A,A
1FD0: 8F            ADC A,A
1FD1: 8D            ADC A,L
1FD2: 8D            ADC A,L
1FD3: 8D            ADC A,L
1FD4: 8F            ADC A,A
1FD5: AD            XOR L
1FD6: 80            ADD A,B
1FD7: 18 8D         JR loc_1F66
1FD9: C8            RET Z
1FDA: 46            LD B,(HL)
1FDB: 8D            ADC A,L

loc_1FDC:
1FDC: C8            RET Z
1FDD: 3C            INC A
1FDE: 8D            ADC A,L
1FDF: C8            RET Z
1FE0: 53            LD D,E
1FE1: 0C            INC C
1FE2: 92            SUB D
1FE3: 92            SUB D
1FE4: 8F            ADC A,A
1FE5: 8B            ADC A,E
1FE6: DE AC         SBC A,ACh
1FE8: 80            ADD A,B

loc_1FE9:
1FE9: 8C            ADC A,H
1FEA: 88            ADC A,B
1FEB: 8C            ADC A,H
1FEC: 8D            ADC A,L
1FED: 8F            ADC A,A
1FEE: 90            SUB B
1FEF: 92            SUB D
1FF0: 94            SUB H
1FF1: 60            LD H,B
1FF2: DE DE         SBC A,DEh
1FF4: DE DE         SBC A,DEh
1FF6: E0            RET PO
1FF7: 3D            DEC A
1FF8: FF            RST 38h
1FF9: E7            RST 20h
1FFA: DF            RST 18h
1FFB: 1B            DEC DE
1FFC: 42            LD B,D
1FFD: C8            RET Z
1FFE: 64            LD H,H
1FFF: E8            RET PE
2000: 6E            LD L,(HL)
2001: DB C8         IN A,(C8h)
2003: 0C            INC C
2004: DE C5         SBC A,C5h
2006: 24            INC H
2007: A1            AND C
2008: 80            ADD A,B
2009: E3            EX (SP),HL
200A: 02            LD (BC),A
200B: 0C            INC C
200C: C5            PUSH BC
200D: 24            INC H
200E: 81            ADD A,C
200F: 81            ADD A,C

sub_2010:
2010: 84            ADD A,H
2011: 86            ADD A,(HL)
2012: 81            ADD A,C
2013: DE DE         SBC A,DEh
2015: C7            RST 00h
2016: AB            XOR E
2017: 80            ADD A,B
2018: 24            INC H
2019: 8B            ADC A,E
201A: 0C            INC C

loc_201B:
201B: A8            XOR B
201C: 80            ADD A,B
201D: 18 88         JR loc_1FA7
201F: 0C            INC C
2020: 8F            ADC A,A
2021: AD            XOR L
2022: 80            ADD A,B
2023: 8D            ADC A,L
2024: 8D            ADC A,L
2025: 90            SUB B
2026: 92            SUB D
2027: 8D            ADC A,L
2028: DE DE         SBC A,DEh
202A: 84            ADD A,H
202B: 24            INC H
202C: 84            ADD A,H
202D: 0C            INC C
202E: 86            ADD A,(HL)
202F: 24            INC H
2030: 86            ADD A,(HL)
2031: 0C            INC C
2032: AD            XOR L
2033: 80            ADD A,B
2034: 8D            ADC A,L

loc_2035:
2035: 8D            ADC A,L
2036: 90            SUB B
2037: 92            SUB D
2038: 8D            ADC A,L
2039: DE DE         SBC A,DEh

loc_203B:
203B: AB            XOR E
203C: 80            ADD A,B
203D: 24            INC H
203E: 8B            ADC A,E
203F: 0C            INC C

loc_2040:
2040: A8            XOR B
2041: 80            ADD A,B
2042: 18 88         JR loc_1FCC
2044: 0C            INC C
2045: 8F            ADC A,A
2046: AD            XOR L
2047: 80            ADD A,B
2048: 8D            ADC A,L
2049: 8D            ADC A,L
204A: 90            SUB B
204B: 92            SUB D
204C: 8D            ADC A,L
204D: DE DE         SBC A,DEh
204F: 84            ADD A,H
2050: E5            PUSH HL
2051: 01 0E 00      LD BC,000Eh
2054: 24            INC H
2055: C5            PUSH BC
2056: 18 84         JR loc_1FDC
2058: 0C            INC C
2059: 86            ADD A,(HL)
205A: 24            INC H
205B: 86            ADD A,(HL)
205C: 0C            INC C
205D: AD            XOR L
205E: 80            ADD A,B

loc_205F:
205F: E6 E6         AND E6h
2061: 24            INC H
2062: C5            PUSH BC
2063: 18 84         JR loc_1FE9
2065: 0C            INC C
2066: 86            ADD A,(HL)
2067: 24            INC H
2068: 86            ADD A,(HL)
2069: 0C            INC C
206A: A9            XOR C
206B: 80            ADD A,B
206C: 60            LD H,B
206D: 89            ADC A,C
206E: 0C            INC C
206F: DE 89         SBC A,89h
2071: 89            ADC A,C
2072: 89            ADC A,C
2073: 89            ADC A,C
2074: 8B            ADC A,E
2075: DE 8B         SBC A,8Bh
2077: 8D            ADC A,L
2078: DE DE         SBC A,DEh
207A: 8D            ADC A,L
207B: DE 8B         SBC A,8Bh
207D: DE 89         SBC A,89h

loc_207F:
207F: 18 DE         JR loc_205F
2081: 0C            INC C
2082: DE 89         SBC A,89h
2084: DE 8B         SBC A,8Bh
2086: DE 8B         SBC A,8Bh
2088: 8D            ADC A,L

loc_2089:
2089: DE DE         SBC A,DEh
208B: 8D            ADC A,L
208C: DE 8B         SBC A,8Bh
208E: DE 89         SBC A,89h
2090: 30 89         JR NC,loc_201B
2092: 0C            INC C
2093: DE 89         SBC A,89h
2095: 8B            ADC A,E
2096: 8B            ADC A,E
2097: 8D            ADC A,L
2098: DE DE         SBC A,DEh
209A: 8D            ADC A,L
209B: DE 8B         SBC A,8Bh
209D: DE 89         SBC A,89h
209F: 18 DE         JR loc_207F
20A1: 0C            INC C
20A2: DE 89         SBC A,89h
20A4: DE 89         SBC A,89h
20A6: 89            ADC A,C
20A7: 89            ADC A,C
20A8: 18 8B         JR loc_2035
20AA: 0C            INC C
20AB: DE 8B         SBC A,8Bh
20AD: DE 8B         SBC A,8Bh
20AF: DE 8B         SBC A,8Bh
20B1: 18 88         JR loc_203B
20B3: 0C            INC C

loc_20B4:
20B4: DE A8         SBC A,A8h
20B6: 80            ADD A,B
20B7: 88            ADC A,B
20B8: 8C            ADC A,H

loc_20B9:
20B9: 8D            ADC A,L
20BA: 8F            ADC A,A
20BB: 24            INC H
20BC: 89            ADC A,C
20BD: 0C            INC C
20BE: 89            ADC A,C
20BF: 24            INC H
20C0: 89            ADC A,C
20C1: 0C            INC C
20C2: 84            ADD A,H
20C3: 24            INC H

loc_20C4:
20C4: 88            ADC A,B
20C5: 0C            INC C
20C6: A8            XOR B
20C7: 80            ADD A,B
20C8: 88            ADC A,B
20C9: 8C            ADC A,H
20CA: 8D            ADC A,L
20CB: 8F            ADC A,A
20CC: 24            INC H
20CD: 89            ADC A,C
20CE: 0C            INC C
20CF: A9            XOR C
20D0: 80            ADD A,B

loc_20D1:
20D1: 24            INC H
20D2: 89            ADC A,C
20D3: 0C            INC C
20D4: 84            ADD A,H
20D5: DE 88         SBC A,88h
20D7: 88            ADC A,B
20D8: 88            ADC A,B

loc_20D9:
20D9: 88            ADC A,B
20DA: 88            ADC A,B
20DB: 8C            ADC A,H
20DC: AD            XOR L
20DD: 80            ADD A,B
20DE: E0            RET PO
20DF: 2A FF E7      LD HL,(E7FFh)
20E2: DF            RST 18h
20E3: B7            OR A
20E4: 41            LD B,C
20E5: C8            RET Z
20E6: 55            LD D,L
20E7: E8            RET PE
20E8: 6E            LD L,(HL)

loc_20E9:
20E9: DB C8         IN A,(C8h)
20EB: 0C            INC C
20EC: DE C5         SBC A,C5h
20EE: 24            INC H
20EF: A1            AND C
20F0: 80            ADD A,B
20F1: E3            EX (SP),HL
20F2: 02            LD (BC),A
20F3: 0C            INC C
20F4: C5            PUSH BC
20F5: 24            INC H
20F6: 81            ADD A,C
20F7: 81            ADD A,C
20F8: 84            ADD A,H

loc_20F9:
20F9: 86            ADD A,(HL)

sub_20FA:
20FA: 81            ADD A,C
20FB: DE DE         SBC A,DEh
20FD: C7            RST 00h
20FE: AB            XOR E
20FF: 80            ADD A,B
2100: 24            INC H
2101: 8B            ADC A,E
2102: 0C            INC C

loc_2103:
2103: A8            XOR B
2104: 80            ADD A,B
2105: 18 88         JR loc_208F
2107: 0C            INC C
2108: 8F            ADC A,A
2109: AD            XOR L
210A: 80            ADD A,B
210B: 8D            ADC A,L
210C: 8D            ADC A,L
210D: 90            SUB B
210E: 92            SUB D
210F: 8D            ADC A,L
2110: DE DE         SBC A,DEh
2112: 84            ADD A,H
2113: 24            INC H
2114: 84            ADD A,H
2115: 0C            INC C
2116: 86            ADD A,(HL)
2117: 24            INC H
2118: 86            ADD A,(HL)
2119: 0C            INC C
211A: AD            XOR L
211B: 80            ADD A,B
211C: 8D            ADC A,L

loc_211D:
211D: 8D            ADC A,L
211E: 90            SUB B
211F: 92            SUB D
2120: 8D            ADC A,L
2121: DE DE         SBC A,DEh

loc_2123:
2123: AB            XOR E
2124: 80            ADD A,B
2125: 24            INC H
2126: 8B            ADC A,E
2127: 0C            INC C
2128: A8            XOR B
2129: 80            ADD A,B
212A: 18 88         JR loc_20B4
212C: 0C            INC C
212D: 8F            ADC A,A
212E: AD            XOR L
212F: 80            ADD A,B
2130: 8D            ADC A,L
2131: 8D            ADC A,L
2132: 90            SUB B
2133: 92            SUB D
2134: 8D            ADC A,L
2135: DE DE         SBC A,DEh

loc_2137:
2137: 84            ADD A,H
2138: E5            PUSH HL
2139: 01 0E 00      LD BC,000Eh
213C: 24            INC H
213D: C5            PUSH BC
213E: 18 84         JR loc_20C4
2140: 0C            INC C
2141: 86            ADD A,(HL)
2142: 24            INC H
2143: 86            ADD A,(HL)
2144: 0C            INC C
2145: AD            XOR L
2146: 80            ADD A,B

loc_2147:
2147: E6 E6         AND E6h
2149: 24            INC H
214A: C5            PUSH BC
214B: 18 84         JR loc_20D1
214D: 0C            INC C
214E: 86            ADD A,(HL)
214F: 24            INC H
2150: 86            ADD A,(HL)
2151: 0C            INC C
2152: A9            XOR C
2153: 80            ADD A,B
2154: 60            LD H,B
2155: 89            ADC A,C
2156: 0C            INC C
2157: DE 89         SBC A,89h
2159: 89            ADC A,C
215A: 89            ADC A,C
215B: 89            ADC A,C
215C: 8B            ADC A,E
215D: DE 8B         SBC A,8Bh
215F: 8D            ADC A,L
2160: DE DE         SBC A,DEh
2162: 8D            ADC A,L
2163: DE 8B         SBC A,8Bh
2165: DE 89         SBC A,89h

loc_2167:
2167: 18 DE         JR loc_2147
2169: 0C            INC C
216A: DE 89         SBC A,89h
216C: DE 8B         SBC A,8Bh
216E: DE 8B         SBC A,8Bh
2170: 8D            ADC A,L
2171: DE DE         SBC A,DEh

loc_2173:
2173: 8D            ADC A,L
2174: DE 8B         SBC A,8Bh
2176: DE 89         SBC A,89h
2178: 30 89         JR NC,loc_2103
217A: 0C            INC C
217B: DE 89         SBC A,89h
217D: 8B            ADC A,E
217E: 8B            ADC A,E
217F: 8D            ADC A,L
2180: DE DE         SBC A,DEh
2182: 8D            ADC A,L
2183: DE 8B         SBC A,8Bh
2185: DE 89         SBC A,89h
2187: 18 DE         JR loc_2167
2189: 0C            INC C
218A: DE 89         SBC A,89h
218C: DE 89         SBC A,89h
218E: 89            ADC A,C
218F: 89            ADC A,C
2190: 18 8B         JR loc_211D
2192: 0C            INC C
2193: DE 8B         SBC A,8Bh
2195: DE 8B         SBC A,8Bh
2197: DE 8B         SBC A,8Bh
2199: 18 88         JR loc_2123
219B: 0C            INC C

loc_219C:
219C: DE A8         SBC A,A8h
219E: 80            ADD A,B
219F: 88            ADC A,B
21A0: 8C            ADC A,H
21A1: 8D            ADC A,L
21A2: 8F            ADC A,A
21A3: 24            INC H
21A4: 89            ADC A,C
21A5: 0C            INC C
21A6: 89            ADC A,C
21A7: 24            INC H
21A8: 89            ADC A,C
21A9: 0C            INC C
21AA: 84            ADD A,H
21AB: 24            INC H
21AC: 88            ADC A,B
21AD: 0C            INC C
21AE: A8            XOR B
21AF: 80            ADD A,B
21B0: 88            ADC A,B
21B1: 8C            ADC A,H
21B2: 8D            ADC A,L
21B3: 8F            ADC A,A

loc_21B4:
21B4: 24            INC H

loc_21B5:
21B5: 89            ADC A,C
21B6: 0C            INC C
21B7: A9            XOR C

loc_21B8:
21B8: 80            ADD A,B
21B9: 24            INC H
21BA: 89            ADC A,C
21BB: 0C            INC C
21BC: 84            ADD A,H
21BD: 88            ADC A,B
21BE: 88            ADC A,B
21BF: DE AC         SBC A,ACh

loc_21C1:
21C1: 80            ADD A,B
21C2: 8C            ADC A,H
21C3: 8D            ADC A,L
21C4: 8F            ADC A,A
21C5: AD            XOR L
21C6: 80            ADD A,B
21C7: E0            RET PO
21C8: 29            ADD HL,HL
21C9: FF            RST 38h
21CA: E7            RST 20h
21CB: DF            RST 18h
21CC: E2 3D C8      JP PO,C83Dh
21CF: 55            LD D,L
21D0: E8            RET PE
21D1: 6E            LD L,(HL)
21D2: DB AA         IN A,(AAh)
21D4: 18 DE         JR loc_21B4
21D6: E3            EX (SP),HL
21D7: 02            LD (BC),A
21D8: 30 DE         JR NC,loc_21B8
21DA: 0C            INC C
21DB: DE C5         SBC A,C5h
21DD: 48            LD C,B
21DE: 81            ADD A,C
21DF: DE C7         SBC A,C7h
21E1: C7            RST 00h
21E2: AB            XOR E
21E3: 80            ADD A,B
21E4: 24            INC H
21E5: 8B            ADC A,E
21E6: 0C            INC C
21E7: A8            XOR B
21E8: 80            ADD A,B
21E9: 18 88         JR loc_2173
21EB: 0C            INC C
21EC: 8F            ADC A,A
21ED: DE 30         SBC A,30h
21EF: DE 0C         SBC A,0Ch

loc_21F1:
21F1: DE C6         SBC A,C6h
21F3: C6 81         ADD A,81h
21F5: DE C7         SBC A,C7h
21F7: C7            RST 00h

loc_21F8:
21F8: 8B            ADC A,E
21F9: 24            INC H
21FA: 8B            ADC A,E
21FB: 0C            INC C
21FC: 8D            ADC A,L
21FD: 24            INC H
21FE: 8D            ADC A,L
21FF: 0C            INC C
2200: DE 30         SBC A,30h
2202: DE 0C         SBC A,0Ch
2204: DE C6         SBC A,C6h
2206: C6 81         ADD A,81h
2208: DE C7         SBC A,C7h
220A: C7            RST 00h
220B: AB            XOR E
220C: 80            ADD A,B
220D: 24            INC H
220E: 8B            ADC A,E
220F: 0C            INC C
2210: A8            XOR B
2211: 80            ADD A,B
2212: 18 88         JR loc_219C
2214: 0C            INC C
2215: 8F            ADC A,A
2216: DE 30         SBC A,30h
2218: DE 0C         SBC A,0Ch

loc_221A:
221A: DE C6         SBC A,C6h
221C: C6 81         ADD A,81h
221E: DE C7         SBC A,C7h
2220: C7            RST 00h
2221: 8B            ADC A,E
2222: E5            PUSH HL
2223: 01 0D 00      LD BC,000Dh
2226: 24            INC H
2227: C5            PUSH BC
2228: 30 8B         JR NC,loc_21B5
222A: 0C            INC C
222B: 8D            ADC A,L
222C: 24            INC H
222D: 8D            ADC A,L

loc_222E:
222E: 0C            INC C
222F: DE E6         SBC A,E6h
2231: E6 24         AND 24h
2233: C5            PUSH BC
2234: 30 8B         JR NC,loc_21C1
2236: 0C            INC C
2237: 8D            ADC A,L
2238: 24            INC H

loc_2239:
2239: 8D            ADC A,L
223A: 0C            INC C
223B: B0            OR B
223C: 80            ADD A,B
223D: 60            LD H,B
223E: 90            SUB B
223F: 0C            INC C
2240: DE 8D         SBC A,8Dh
2242: 8D            ADC A,L
2243: 8D            ADC A,L
2244: 8D            ADC A,L
2245: 8F            ADC A,A
2246: DE 90         SBC A,90h
2248: DE DE         SBC A,DEh
224A: DE DE         SBC A,DEh
224C: DE 8F         SBC A,8Fh
224E: DE 8D         SBC A,8Dh
2250: 18 DE         JR loc_2230

loc_2252:
2252: 0C            INC C
2253: DE DE         SBC A,DEh
2255: DE 8F         SBC A,8Fh
2257: DE 90         SBC A,90h

loc_2259:
2259: DE DE         SBC A,DEh
225B: DE DE         SBC A,DEh
225D: DE 8F         SBC A,8Fh
225F: DE AD         SBC A,ADh
2261: 80            ADD A,B
2262: 30 8D         JR NC,loc_21F1
2264: 0C            INC C
2265: DE DE         SBC A,DEh
2267: 18 8F         JR loc_21F8
2269: 0C            INC C
226A: 90            SUB B
226B: DE DE         SBC A,DEh
226D: DE DE         SBC A,DEh
226F: 8F            ADC A,A
2270: DE 8D         SBC A,8Dh
2272: 18 DE         JR loc_2252
2274: 0C            INC C
2275: DE 8D         SBC A,8Dh
2277: DE 8D         SBC A,8Dh

loc_2279:
2279: 18 DE         JR loc_2259
227B: 0C            INC C
227C: 8F            ADC A,A
227D: DE DE         SBC A,DEh
227F: DE DE         SBC A,DEh
2281: DE DE         SBC A,DEh
2283: 8F            ADC A,A
2284: 8F            ADC A,A
2285: DE DE         SBC A,DEh
2287: AF            XOR A
2288: 80            ADD A,B
2289: 30 8F         JR NC,loc_221A
228B: 0C            INC C
228C: A4            AND H
228D: 80            ADD A,B
228E: A4            AND H
228F: 80            ADD A,B

loc_2290:
2290: 84            ADD A,H
2291: B0            OR B
2292: 80            ADD A,B
2293: 30 90         JR NC,loc_2225
2295: 0C            INC C
2296: A3            AND E
2297: 80            ADD A,B
2298: A3            AND E
2299: 80            ADD A,B
229A: 83            ADD A,E
229B: AF            XOR A

loc_229C:
229C: 80            ADD A,B
229D: 30 8F         JR NC,loc_222E

loc_229F:
229F: 0C            INC C
22A0: A4            AND H
22A1: 80            ADD A,B
22A2: A4            AND H

loc_22A3:
22A3: 80            ADD A,B
22A4: 84            ADD A,H
22A5: B0            OR B
22A6: 80            ADD A,B
22A7: 30 90         JR NC,loc_2239
22A9: 0C            INC C
22AA: DE 90         SBC A,90h
22AC: 90            SUB B
22AD: 8F            ADC A,A
22AE: 90            SUB B
22AF: 92            SUB D
22B0: 94            SUB H
22B1: DE E0         SBC A,E0h
22B3: 23            INC HL
22B4: FF            RST 38h
22B5: E7            RST 20h
22B6: DF            RST 18h
22B7: F7            RST 30h
22B8: 3C            INC A
22B9: C8            RET Z
22BA: 55            LD D,L
22BB: E8            RET PE
22BC: 6E            LD L,(HL)
22BD: DB AA         IN A,(AAh)
22BF: 18 DE         JR loc_229F
22C1: E3            EX (SP),HL
22C2: 02            LD (BC),A
22C3: 30 DE         JR NC,loc_22A3
22C5: 0C            INC C
22C6: DE C5         SBC A,C5h
22C8: 3C            INC A
22C9: 88            ADC A,B
22CA: DE C7         SBC A,C7h
22CC: A6            AND (HL)
22CD: 80            ADD A,B
22CE: 24            INC H
22CF: 86            ADD A,(HL)
22D0: 0C            INC C
22D1: A3            AND E

loc_22D2:
22D2: 80            ADD A,B
22D3: 18 83         JR loc_2258
22D5: 0C            INC C
22D6: 8B            ADC A,E
22D7: DE 30         SBC A,30h
22D9: DE 0C         SBC A,0Ch
22DB: DE 94         SBC A,94h
22DD: DE 88         SBC A,88h
22DF: 24            INC H
22E0: 88            ADC A,B
22E1: 0C            INC C
22E2: 8A            ADC A,D
22E3: 24            INC H
22E4: 8A            ADC A,D
22E5: 0C            INC C
22E6: DE 30         SBC A,30h
22E8: DE 0C         SBC A,0Ch
22EA: DE 94         SBC A,94h
22EC: DE A6         SBC A,A6h
22EE: 80            ADD A,B
22EF: 24            INC H
22F0: 86            ADD A,(HL)
22F1: 0C            INC C
22F2: A3            AND E
22F3: 80            ADD A,B
22F4: 18 83         JR loc_2279
22F6: 0C            INC C
22F7: 8B            ADC A,E
22F8: DE 30         SBC A,30h
22FA: DE 0C         SBC A,0Ch
22FC: DE 94         SBC A,94h
22FE: DE 88         SBC A,88h
2300: E5            PUSH HL
2301: 01 0D 00      LD BC,000Dh
2304: 24            INC H
2305: C5            PUSH BC
2306: 30 88         JR NC,loc_2290
2308: 0C            INC C
2309: 8A            ADC A,D
230A: 24            INC H
230B: 8A            ADC A,D
230C: 0C            INC C

loc_230D:
230D: DE E6         SBC A,E6h
230F: E6 24         AND 24h
2311: C5            PUSH BC
2312: 30 88         JR NC,loc_229C
2314: 0C            INC C
2315: 8A            ADC A,D
2316: 24            INC H
2317: 8A            ADC A,D
2318: 0C            INC C
2319: AD            XOR L
231A: 80            ADD A,B
231B: 60            LD H,B
231C: 8D            ADC A,L
231D: 0C            INC C
231E: DE 89         SBC A,89h
2320: 89            ADC A,C
2321: 89            ADC A,C
2322: 89            ADC A,C
2323: 8B            ADC A,E
2324: DE 8D         SBC A,8Dh
2326: DE DE         SBC A,DEh
2328: DE DE         SBC A,DEh
232A: DE 8B         SBC A,8Bh
232C: DE 89         SBC A,89h
232E: 18 DE         JR loc_230E

loc_2330:
2330: 0C            INC C
2331: DE DE         SBC A,DEh
2333: DE 8B         SBC A,8Bh
2335: DE 8D         SBC A,8Dh

loc_2337:
2337: DE DE         SBC A,DEh
2339: DE DE         SBC A,DEh
233B: DE 8B         SBC A,8Bh
233D: DE A9         SBC A,A9h
233F: 80            ADD A,B
2340: 30 89         JR NC,loc_22CB
2342: 0C            INC C
2343: DE DE         SBC A,DEh
2345: 18 8B         JR loc_22D2
2347: 0C            INC C
2348: 8D            ADC A,L
2349: DE DE         SBC A,DEh
234B: DE DE         SBC A,DEh
234D: 8B            ADC A,E
234E: DE 89         SBC A,89h
2350: 18 DE         JR loc_2330
2352: 0C            INC C
2353: DE 89         SBC A,89h
2355: DE 89         SBC A,89h
2357: 18 DE         JR loc_2337
2359: 0C            INC C
235A: 8B            ADC A,E
235B: DE DE         SBC A,DEh
235D: DE DE         SBC A,DEh
235F: DE DE         SBC A,DEh

loc_2361:
2361: 8B            ADC A,E
2362: 8C            ADC A,H
2363: DE DE         SBC A,DEh
2365: AC            XOR H
2366: 80            ADD A,B
2367: 30 8C         JR NC,loc_22F5
2369: 0C            INC C
236A: DE A9         SBC A,A9h
236C: 80            ADD A,B
236D: A9            XOR C
236E: 80            ADD A,B

loc_236F:
236F: 89            ADC A,C
2370: 30 89         JR NC,loc_22FB
2372: 0C            INC C
2373: DE A8         SBC A,A8h
2375: 80            ADD A,B
2376: A8            XOR B
2377: 80            ADD A,B
2378: 88            ADC A,B
2379: 30 88         JR NC,loc_2303

loc_237B:
237B: 0C            INC C
237C: DE A9         SBC A,A9h

loc_237E:
237E: 80            ADD A,B
237F: A9            XOR C
2380: 80            ADD A,B
2381: 89            ADC A,C
2382: 30 89         JR NC,loc_230D
2384: 0C            INC C
2385: DE 8D         SBC A,8Dh
2387: 8D            ADC A,L
2388: 8C            ADC A,H
2389: 8D            ADC A,L
238A: 8F            ADC A,A
238B: 90            SUB B
238C: DE E0         SBC A,E0h
238E: 33            INC SP
238F: FF            RST 38h
2390: E7            RST 20h
2391: DF            RST 18h
2392: 1C            INC E
2393: 3C            INC A
2394: C8            RET Z
2395: 55            LD D,L
2396: E8            RET PE
2397: 6E            LD L,(HL)
2398: DB AA         IN A,(AAh)
239A: 18 DE         JR loc_237A
239C: E3            EX (SP),HL
239D: 02            LD (BC),A
239E: 30 DE         JR NC,loc_237E
23A0: 0C            INC C
23A1: DE C5         SBC A,C5h
23A3: 3C            INC A
23A4: 84            ADD A,H
23A5: DE C7         SBC A,C7h
23A7: A3            AND E
23A8: 80            ADD A,B

loc_23A9:
23A9: 24            INC H
23AA: 83            ADD A,E
23AB: 0C            INC C
23AC: C7            RST 00h
23AD: AB            XOR E
23AE: 80            ADD A,B
23AF: 18 8B         JR loc_233C
23B1: 0C            INC C
23B2: 94            SUB H
23B3: DE 30         SBC A,30h
23B5: DE 0C         SBC A,0Ch
23B7: DE C6         SBC A,C6h
23B9: C6 84         ADD A,84h
23BB: DE C7         SBC A,C7h
23BD: 84            ADD A,H
23BE: 24            INC H
23BF: 84            ADD A,H
23C0: 0C            INC C
23C1: 86            ADD A,(HL)
23C2: 24            INC H
23C3: 86            ADD A,(HL)
23C4: 0C            INC C
23C5: DE 30         SBC A,30h
23C7: DE 0C         SBC A,0Ch
23C9: DE 90         SBC A,90h
23CB: DE A3         SBC A,A3h
23CD: 80            ADD A,B
23CE: 24            INC H
23CF: 83            ADD A,E
23D0: 0C            INC C
23D1: C7            RST 00h
23D2: AB            XOR E
23D3: 80            ADD A,B

loc_23D4:
23D4: 18 8B         JR loc_2361
23D6: 0C            INC C
23D7: 94            SUB H
23D8: DE 30         SBC A,30h
23DA: DE 0C         SBC A,0Ch
23DC: DE C6         SBC A,C6h
23DE: C6 84         ADD A,84h
23E0: DE C7         SBC A,C7h

loc_23E2:
23E2: 84            ADD A,H
23E3: E5            PUSH HL
23E4: 01 0D 00      LD BC,000Dh
23E7: 24            INC H
23E8: C5            PUSH BC
23E9: 30 84         JR NC,loc_236F
23EB: 0C            INC C
23EC: 86            ADD A,(HL)
23ED: 24            INC H
23EE: 86            ADD A,(HL)
23EF: 0C            INC C
23F0: DE E6         SBC A,E6h
23F2: E6 24         AND 24h

loc_23F4:
23F4: C5            PUSH BC
23F5: 30 84         JR NC,loc_237B
23F7: 0C            INC C
23F8: 86            ADD A,(HL)
23F9: 24            INC H
23FA: 86            ADD A,(HL)
23FB: 0C            INC C
23FC: A9            XOR C
23FD: 80            ADD A,B
23FE: 60            LD H,B
23FF: 89            ADC A,C
2400: 0C            INC C
2401: DE 84         SBC A,84h
2403: 84            ADD A,H
2404: 84            ADD A,H
2405: 84            ADD A,H
2406: 86            ADD A,(HL)
2407: DE 88         SBC A,88h
2409: DE DE         SBC A,DEh
240B: DE DE         SBC A,DEh
240D: DE 86         SBC A,86h
240F: DE 84         SBC A,84h
2411: 18 DE         JR loc_23F1

loc_2413:
2413: 0C            INC C
2414: DE DE         SBC A,DEh
2416: DE 86         SBC A,86h
2418: DE 88         SBC A,88h

loc_241A:
241A: DE DE         SBC A,DEh
241C: DE DE         SBC A,DEh
241E: DE 86         SBC A,86h
2420: DE A4         SBC A,A4h
2422: 80            ADD A,B
2423: 30 84         JR NC,loc_23A9
2425: 0C            INC C
2426: DE DE         SBC A,DEh
2428: 18 86         JR loc_23B0
242A: 0C            INC C
242B: 88            ADC A,B
242C: DE DE         SBC A,DEh
242E: DE DE         SBC A,DEh
2430: 86            ADD A,(HL)
2431: DE 84         SBC A,84h
2433: 18 DE         JR loc_2413
2435: 0C            INC C
2436: DE 84         SBC A,84h
2438: DE 84         SBC A,84h
243A: 18 DE         JR loc_241A
243C: 0C            INC C
243D: 86            ADD A,(HL)
243E: DE DE         SBC A,DEh
2440: DE DE         SBC A,DEh
2442: DE DE         SBC A,DEh
2444: 86            ADD A,(HL)
2445: 88            ADC A,B
2446: DE DE         SBC A,DEh
2448: A8            XOR B
2449: 80            ADD A,B
244A: 30 88         JR NC,loc_23D4
244C: 0C            INC C
244D: DE DE         SBC A,DEh
244F: AD            XOR L
2450: 80            ADD A,B
2451: AD            XOR L
2452: 80            ADD A,B
2453: 30 8D         JR NC,loc_23E2
2455: 0C            INC C
2456: DE DE         SBC A,DEh
2458: AC            XOR H
2459: 80            ADD A,B
245A: AC            XOR H
245B: 80            ADD A,B
245C: 30 8C         JR NC,loc_23EA
245E: 0C            INC C
245F: DE DE         SBC A,DEh
2461: AD            XOR L
2462: 80            ADD A,B
2463: AD            XOR L
2464: 80            ADD A,B
2465: 30 8D         JR NC,loc_23F4
2467: 0C            INC C
2468: 88            ADC A,B
2469: 88            ADC A,B
246A: 88            ADC A,B
246B: 88            ADC A,B
246C: 88            ADC A,B
246D: 88            ADC A,B
246E: 88            ADC A,B
246F: DE E0         SBC A,E0h
2471: 2B            DEC HL
2472: FF            RST 38h
2473: E7            RST 20h
2474: DF            RST 18h
2475: 45            LD B,L
2476: 42            LD B,D
2477: C8            RET Z

loc_2478:
2478: 6E            LD L,(HL)
2479: E8            RET PE
247A: 64            LD H,H
247B: DF            RST 18h
247C: 12            LD (DE),A
247D: 42            LD B,D
247E: C8            RET Z
247F: 69            LD L,C
2480: 0C            INC C
2481: DE C5         SBC A,C5h
2483: 24            INC H
2484: AB            XOR E
2485: 80            ADD A,B
2486: E3            EX (SP),HL
2487: 04            INC B
2488: 0C            INC C
2489: C5            PUSH BC
248A: 24            INC H
248B: 8B            ADC A,E
248C: DF            RST 18h
248D: 2D            DEC L
248E: 42            LD B,D
248F: C8            RET Z
2490: 6E            LD L,(HL)
2491: 97            SUB A
2492: DF            RST 18h
2493: 7F            LD A,A
2494: 42            LD B,D
2495: 8B            ADC A,E
2496: DF            RST 18h
2497: 23            INC HL
2498: 42            LD B,D
2499: 97            SUB A
249A: 97            SUB A

loc_249B:
249B: 97            SUB A
249C: DF            RST 18h
249D: 75            LD (HL),L
249E: 42            LD B,D
249F: 8B            ADC A,E
24A0: DF            RST 18h
24A1: 19            ADD HL,DE
24A2: 42            LD B,D
24A3: 97            SUB A
24A4: 97            SUB A
24A5: 97            SUB A
24A6: DF            RST 18h
24A7: 6B            LD L,E
24A8: 42            LD B,D
24A9: 8B            ADC A,E
24AA: DF            RST 18h
24AB: 0F            RRCA
24AC: 42            LD B,D
24AD: 97            SUB A
24AE: 97            SUB A
24AF: 97            SUB A
24B0: DF            RST 18h
24B1: 61            LD H,C
24B2: 42            LD B,D
24B3: 8B            ADC A,E
24B4: DF            RST 18h
24B5: 05            DEC B
24B6: 42            LD B,D

loc_24B7:
24B7: 97            SUB A
24B8: 97            SUB A
24B9: 97            SUB A
24BA: DF            RST 18h
24BB: 57            LD D,A
24BC: 42            LD B,D
24BD: 8B            ADC A,E
24BE: DF            RST 18h
24BF: FB            EI
24C0: 41            LD B,C
24C1: 97            SUB A
24C2: 97            SUB A
24C3: 97            SUB A
24C4: DF            RST 18h
24C5: 4D            LD C,L
24C6: 42            LD B,D
24C7: 8B            ADC A,E
24C8: DF            RST 18h
24C9: F1            POP AF
24CA: 41            LD B,C
24CB: 97            SUB A
24CC: 97            SUB A
24CD: 97            SUB A
24CE: DF            RST 18h
24CF: 43            LD B,E
24D0: 42            LD B,D
24D1: 8B            ADC A,E
24D2: DF            RST 18h
24D3: E7            RST 20h
24D4: 41            LD B,C
24D5: 97            SUB A
24D6: 97            SUB A
24D7: 97            SUB A
24D8: DF            RST 18h
24D9: 31 41 C8      LD SP,C841h
24DC: 5F            LD E,A
24DD: C7            RST 00h
24DE: 8B            ADC A,E
24DF: DF            RST 18h
24E0: AE            XOR (HL)
24E1: 41            LD B,C
24E2: C8            RET Z
24E3: 69            LD L,C
24E4: C6 C6         ADD A,C6h
24E6: AB            XOR E
24E7: 80            ADD A,B
24E8: E6 0C         AND 0Ch
24EA: C5            PUSH BC
24EB: 30 8B         JR NC,loc_2478
24ED: DF            RST 18h
24EE: CC 41 C8      CALL Z,C841h
24F1: 64            LD H,H
24F2: DE DE         SBC A,DEh
24F4: DE DE         SBC A,DEh
24F6: DE DE         SBC A,DEh
24F8: DE DE         SBC A,DEh
24FA: DF            RST 18h
24FB: 0F            RRCA
24FC: 41            LD B,C
24FD: C8            RET Z
24FE: 5F            LD E,A
24FF: C7            RST 00h
2500: 8B            ADC A,E
2501: 8B            ADC A,E
2502: 8B            ADC A,E
2503: 8B            ADC A,E
2504: 8B            ADC A,E
2505: DE 8B         SBC A,8Bh
2507: E3            EX (SP),HL
2508: 08            EX AF,AF'
2509: DF            RST 18h
250A: B0            OR B
250B: 41            LD B,C
250C: 0C            INC C
250D: C5            PUSH BC
250E: 30 8B         JR NC,loc_249B
2510: 8B            ADC A,E
2511: DF            RST 18h
2512: 00            NOP
2513: 42            LD B,D
2514: C7            RST 00h
2515: 8B            ADC A,E
2516: DF            RST 18h
2517: A3            AND E
2518: 41            LD B,C
2519: 97            SUB A
251A: 97            SUB A
251B: 97            SUB A
251C: DF            RST 18h
251D: F5            PUSH AF
251E: 41            LD B,C
251F: 8B            ADC A,E
2520: DF            RST 18h
2521: 99            SBC A,C
2522: 41            LD B,C
2523: 97            SUB A
2524: E6 DF         AND DFh
2526: 94            SUB H
2527: 41            LD B,C
2528: 0C            INC C
2529: C5            PUSH BC
252A: 30 8B         JR NC,loc_24B7
252C: 8B            ADC A,E
252D: DF            RST 18h
252E: E4 41 C7      CALL PO,C741h
2531: 8B            ADC A,E
2532: DF            RST 18h
2533: 87            ADD A,A
2534: 41            LD B,C
2535: 97            SUB A

loc_2536:
2536: 97            SUB A
2537: 97            SUB A
2538: DF            RST 18h
2539: D1            POP DE
253A: 40            LD B,B
253B: C8            RET Z
253C: 5F            LD E,A
253D: C7            RST 00h
253E: 8B            ADC A,E
253F: DF            RST 18h
2540: 7A            LD A,D
2541: 41            LD B,C
2542: C6 C6         ADD A,C6h
2544: 8B            ADC A,E
2545: 8B            ADC A,E
2546: 8B            ADC A,E

loc_2547:
2547: DF            RST 18h
2548: CA 41 C7      JP Z,C741h
254B: 8B            ADC A,E
254C: DF            RST 18h
254D: 6D            LD L,L
254E: 41            LD B,C

loc_254F:
254F: 97            SUB A
2550: 97            SUB A
2551: 97            SUB A
2552: DF            RST 18h
2553: B7            OR A
2554: 40            LD B,B
2555: C8            RET Z
2556: 5F            LD E,A
2557: C7            RST 00h
2558: 8B            ADC A,E
2559: DF            RST 18h
255A: 60            LD H,B
255B: 41            LD B,C
255C: C6 C6         ADD A,C6h
255E: 8B            ADC A,E
255F: 8B            ADC A,E
2560: 8B            ADC A,E
2561: DF            RST 18h
2562: B0            OR B
2563: 41            LD B,C
2564: C7            RST 00h
2565: 8B            ADC A,E
2566: DF            RST 18h
2567: 53            LD D,E

loc_2568:
2568: 41            LD B,C
2569: 97            SUB A
256A: 97            SUB A
256B: 97            SUB A
256C: DF            RST 18h
256D: 9D            SBC A,L

loc_256E:
256E: 40            LD B,B
256F: C8            RET Z
2570: 5F            LD E,A
2571: C7            RST 00h
2572: 8B            ADC A,E
2573: DF            RST 18h
2574: 46            LD B,(HL)
2575: 41            LD B,C
2576: C6 C6         ADD A,C6h
2578: 8B            ADC A,E
2579: 8B            ADC A,E
257A: 8B            ADC A,E
257B: DF            RST 18h
257C: 96            SUB (HL)
257D: 41            LD B,C
257E: C7            RST 00h
257F: 8B            ADC A,E

loc_2580:
2580: DF            RST 18h
2581: 39            ADD HL,SP
2582: 41            LD B,C
2583: 97            SUB A
2584: 97            SUB A
2585: DF            RST 18h
2586: 84            ADD A,H
2587: 40            LD B,B
2588: C8            RET Z

loc_2589:
2589: 5F            LD E,A
258A: C7            RST 00h
258B: 8B            ADC A,E
258C: 8B            ADC A,E
258D: DF            RST 18h
258E: 00            NOP
258F: 41            LD B,C
2590: C8            RET Z
2591: 69            LD L,C
2592: B7            OR A
2593: 80            ADD A,B
2594: E0            RET PO
2595: F1            POP AF
2596: FE E7         CP E7h
2598: DF            RST 18h
2599: A5            AND L
259A: 41            LD B,C
259B: C8            RET Z
259C: 6E            LD L,(HL)
259D: E8            RET PE
259E: 64            LD H,H
259F: 0C            INC C
25A0: DE C5         SBC A,C5h
25A2: 18 AB         JR loc_254F
25A4: 80            ADD A,B
25A5: E3            EX (SP),HL
25A6: 08            EX AF,AF'
25A7: 18 C5         JR loc_256E
25A9: 18 8B         JR loc_2536
25AB: 8B            ADC A,E
25AC: 8B            ADC A,E
25AD: 8B            ADC A,E
25AE: 8B            ADC A,E
25AF: 8B            ADC A,E
25B0: 8B            ADC A,E
25B1: 0C            INC C
25B2: 8B            ADC A,E
25B3: 8B            ADC A,E
25B4: E6 60         AND 60h
25B6: DE 0C         SBC A,0Ch
25B8: DE C5         SBC A,C5h
25BA: 18 8B         JR loc_2547
25BC: 8B            ADC A,E
25BD: 8B            ADC A,E
25BE: 8B            ADC A,E
25BF: 8B            ADC A,E
25C0: DE 8B         SBC A,8Bh
25C2: 8B            ADC A,E
25C3: DE DE         SBC A,DEh
25C5: 8B            ADC A,E
25C6: DE 8B         SBC A,8Bh
25C8: DE 8B         SBC A,8Bh

loc_25CA:
25CA: 18 DE         JR loc_25AA
25CC: 0C            INC C
25CD: DE 8B         SBC A,8Bh
25CF: DE 8B         SBC A,8Bh
25D1: DE 8B         SBC A,8Bh
25D3: 8B            ADC A,E
25D4: DE DE         SBC A,DEh
25D6: 8B            ADC A,E
25D7: DE 8B         SBC A,8Bh
25D9: DE 8B         SBC A,8Bh
25DB: 30 8B         JR NC,loc_2568
25DD: 0C            INC C
25DE: DE 8B         SBC A,8Bh
25E0: 8B            ADC A,E
25E1: 8B            ADC A,E
25E2: 8B            ADC A,E
25E3: DE DE         SBC A,DEh
25E5: 8B            ADC A,E
25E6: DE 8B         SBC A,8Bh
25E8: DE 8B         SBC A,8Bh
25EA: 18 DE         JR loc_25CA
25EC: 0C            INC C
25ED: DE 8B         SBC A,8Bh
25EF: DE 8B         SBC A,8Bh
25F1: 8B            ADC A,E
25F2: 8B            ADC A,E
25F3: 18 8B         JR loc_2580
25F5: 0C            INC C
25F6: DE 8B         SBC A,8Bh
25F8: DE 8B         SBC A,8Bh
25FA: DE 8B         SBC A,8Bh
25FC: 18 8B         JR loc_2589

loc_25FE:
25FE: 0C            INC C

loc_25FF:
25FF: DE AB         SBC A,ABh
2601: 80            ADD A,B
2602: 8B            ADC A,E
2603: 8B            ADC A,E
2604: 8B            ADC A,E
2605: 8B            ADC A,E
2606: 24            INC H
2607: 8B            ADC A,E
2608: 0C            INC C
2609: 8B            ADC A,E
260A: 24            INC H
260B: 8B            ADC A,E
260C: 0C            INC C
260D: 8B            ADC A,E
260E: 24            INC H
260F: 8B            ADC A,E
2610: 0C            INC C
2611: AB            XOR E
2612: 80            ADD A,B
2613: 8B            ADC A,E
2614: 8B            ADC A,E
2615: 8B            ADC A,E
2616: 8B            ADC A,E
2617: 24            INC H
2618: 8B            ADC A,E
2619: 0C            INC C
261A: AB            XOR E
261B: 80            ADD A,B
261C: 24            INC H
261D: 8B            ADC A,E
261E: 0C            INC C
261F: 8B            ADC A,E
2620: 8B            ADC A,E
2621: 8B            ADC A,E
2622: DE AB         SBC A,ABh

loc_2624:
2624: 80            ADD A,B

loc_2625:
2625: 8B            ADC A,E
2626: 8B            ADC A,E
2627: 8B            ADC A,E
2628: 8B            ADC A,E
2629: E0            RET PO
262A: 7B            LD A,E
262B: FF            RST 38h
262C: 00            NOP
262D: FF            RST 38h
262E: 1F            RRA
262F: 00            NOP
2630: 01 FF B1      LD BC,B1FFh
2633: 00            NOP

loc_2634:
2634: 02            LD (BC),A
2635: FF            RST 38h

loc_2636:
2636: E9            JP (HL)
2637: 01 03 FF      LD BC,FF03h
263A: AD            XOR L

loc_263B:
263B: 03            INC BC
263C: 04            INC B
263D: FF            RST 38h
263E: 7B            LD A,E
263F: 04            INC B
2640: 05            DEC B
2641: FF            RST 38h
2642: 40            LD B,B
2643: 05            DEC B
2644: 06 FF         LD B,FFh
2646: 1E 06         LD E,06h
2648: 07            RLCA

loc_2649:
2649: FF            RST 38h
264A: CF            RST 08h
264B: 06 FF         LD B,FFh
264D: D0            RET NC
264E: A0            AND B
264F: DF            RST 18h
2650: CE 3C         ADC A,3Ch

loc_2652:
2652: C8            RET Z
2653: 5A            LD E,D
2654: E8            RET PE
2655: 6E            LD L,(HL)
2656: DB F0         IN A,(F0h)
2658: 60            LD H,B
2659: DE DE         SBC A,DEh
265B: DE DE         SBC A,DEh
265D: E3            EX (SP),HL
265E: 02            LD (BC),A
265F: 0C            INC C
2660: C5            PUSH BC
2661: 30 88         JR NC,loc_25EB
2663: 87            ADD A,A
2664: DE A8         SBC A,A8h
2666: 80            ADD A,B
2667: 88            ADC A,B
2668: 87            ADD A,A
2669: 18 DE         JR loc_2649
266B: 0C            INC C
266C: 88            ADC A,B
266D: 87            ADD A,A
266E: DE A8         SBC A,A8h
2670: 80            ADD A,B
2671: 88            ADC A,B
2672: 87            ADD A,A
2673: 18 8A         JR loc_25FF
2675: 0C            INC C
2676: 88            ADC A,B
2677: 86            ADD A,(HL)

loc_2678:
2678: 85            ADD A,L
2679: A1            AND C
267A: 80            ADD A,B
267B: 30 81         JR NC,loc_25FE
267D: 0C            INC C
267E: 86            ADD A,(HL)
267F: A5            AND L
2680: 80            ADD A,B
2681: 85            ADD A,L
2682: A8            XOR B
2683: 80            ADD A,B
2684: 88            ADC A,B
2685: 86            ADD A,(HL)
2686: 85            ADD A,L
2687: 81            ADD A,C
2688: 88            ADC A,B
2689: 87            ADD A,A
268A: DE A8         SBC A,A8h
268C: 80            ADD A,B
268D: 88            ADC A,B
268E: 87            ADD A,A
268F: 18 DE         JR loc_266F
2691: 0C            INC C
2692: 88            ADC A,B
2693: 87            ADD A,A
2694: DE A8         SBC A,A8h
2696: 80            ADD A,B
2697: 88            ADC A,B
2698: 87            ADD A,A
2699: 18 8A         JR loc_2625
269B: 0C            INC C
269C: 88            ADC A,B
269D: 86            ADD A,(HL)
269E: 85            ADD A,L
269F: A1            AND C
26A0: 80            ADD A,B

loc_26A1:
26A1: 30 81         JR NC,loc_2624
26A3: 0C            INC C
26A4: 86            ADD A,(HL)
26A5: A5            AND L
26A6: 80            ADD A,B
26A7: 85            ADD A,L
26A8: A8            XOR B
26A9: 80            ADD A,B
26AA: 30 88         JR NC,loc_2634
26AC: 24            INC H
26AD: 84            ADD A,H
26AE: 0C            INC C
26AF: A3            AND E
26B0: 80            ADD A,B
26B1: 30 83         JR NC,loc_2636
26B3: 24            INC H
26B4: 82            ADD A,D
26B5: 0C            INC C
26B6: A1            AND C
26B7: 80            ADD A,B
26B8: 18 81         JR loc_263B
26BA: C7            RST 00h
26BB: 89            ADC A,C
26BC: 24            INC H
26BD: 90            SUB B
26BE: 0C            INC C
26BF: AF            XOR A
26C0: 80            ADD A,B
26C1: 30 8F         JR NC,loc_2652
26C3: E5            PUSH HL
26C4: 01 0D 00      LD BC,000Dh
26C7: 60            LD H,B
26C8: DE DE         SBC A,DEh
26CA: DE DE         SBC A,DEh
26CC: DE DE         SBC A,DEh
26CE: DE DE         SBC A,DEh
26D0: DE E6         SBC A,E6h
26D2: E6 60         AND 60h
26D4: DE C5         SBC A,C5h
26D6: 30 84         JR NC,loc_265C
26D8: 83            ADD A,E
26D9: 83            ADD A,E
26DA: 81            ADD A,C
26DB: 84            ADD A,H
26DC: 83            ADD A,E
26DD: 83            ADD A,E
26DE: 81            ADD A,C
26DF: E0            RET PO
26E0: 78            LD A,B
26E1: FF            RST 38h
26E2: E7            RST 20h
26E3: DF            RST 18h
26E4: 06 3B         LD B,3Bh
26E6: C8            RET Z
26E7: 64            LD H,H
26E8: DB B4         IN A,(B4h)
26EA: E8            RET PE
26EB: 64            LD H,H
26EC: 0C            INC C
26ED: C5            PUSH BC
26EE: 18 88         JR loc_2678
26F0: 88            ADC A,B
26F1: 8D            ADC A,L
26F2: AF            XOR A
26F3: 80            ADD A,B
26F4: 8F            ADC A,A
26F5: 88            ADC A,B
26F6: 8D            ADC A,L
26F7: 8F            ADC A,A
26F8: 88            ADC A,B
26F9: 88            ADC A,B
26FA: 8D            ADC A,L
26FB: AF            XOR A
26FC: 80            ADD A,B
26FD: 8F            ADC A,A
26FE: 88            ADC A,B
26FF: 8D            ADC A,L
2700: 8F            ADC A,A
2701: 86            ADD A,(HL)
2702: 86            ADD A,(HL)
2703: 8B            ADC A,E
2704: AD            XOR L
2705: 80            ADD A,B
2706: 8D            ADC A,L
2707: 86            ADD A,(HL)
2708: 8B            ADC A,E
2709: 8D            ADC A,L
270A: 86            ADD A,(HL)
270B: 86            ADD A,(HL)
270C: 8B            ADC A,E

loc_270D:
270D: AD            XOR L
270E: 80            ADD A,B
270F: 8D            ADC A,L
2710: 86            ADD A,(HL)
2711: 8B            ADC A,E
2712: 8D            ADC A,L
2713: E3            EX (SP),HL
2714: 02            LD (BC),A
2715: 0C            INC C
2716: C5            PUSH BC
2717: 18 88         JR loc_26A1
2719: 88            ADC A,B
271A: 8D            ADC A,L
271B: AF            XOR A
271C: 80            ADD A,B
271D: 8F            ADC A,A
271E: 88            ADC A,B
271F: 8D            ADC A,L
2720: 8F            ADC A,A
2721: 88            ADC A,B
2722: 88            ADC A,B
2723: 8D            ADC A,L
2724: AF            XOR A
2725: 80            ADD A,B
2726: 8F            ADC A,A
2727: 88            ADC A,B
2728: 8D            ADC A,L
2729: 8F            ADC A,A
272A: 86            ADD A,(HL)
272B: 86            ADD A,(HL)
272C: 8B            ADC A,E
272D: AD            XOR L
272E: 80            ADD A,B
272F: 8D            ADC A,L
2730: 86            ADD A,(HL)
2731: 8B            ADC A,E
2732: 8D            ADC A,L
2733: 86            ADD A,(HL)
2734: 86            ADD A,(HL)
2735: 8B            ADC A,E
2736: AD            XOR L
2737: 80            ADD A,B
2738: 8D            ADC A,L
2739: 86            ADD A,(HL)
273A: 8B            ADC A,E
273B: 8D            ADC A,L
273C: 88            ADC A,B
273D: 88            ADC A,B
273E: 8D            ADC A,L
273F: AF            XOR A
2740: 80            ADD A,B
2741: 8F            ADC A,A
2742: 88            ADC A,B
2743: 8D            ADC A,L
2744: 8F            ADC A,A
2745: 88            ADC A,B
2746: 88            ADC A,B
2747: 8D            ADC A,L
2748: AF            XOR A
2749: 80            ADD A,B
274A: 8F            ADC A,A
274B: 88            ADC A,B
274C: 8D            ADC A,L
274D: 8F            ADC A,A
274E: 86            ADD A,(HL)
274F: 86            ADD A,(HL)
2750: 8B            ADC A,E
2751: AD            XOR L
2752: 80            ADD A,B
2753: 8D            ADC A,L
2754: 86            ADD A,(HL)
2755: 8B            ADC A,E
2756: 8D            ADC A,L
2757: 86            ADD A,(HL)
2758: 86            ADD A,(HL)
2759: 8B            ADC A,E
275A: AD            XOR L
275B: 80            ADD A,B
275C: 8D            ADC A,L

loc_275D:
275D: 86            ADD A,(HL)
275E: 8B            ADC A,E
275F: 8D            ADC A,L
2760: 84            ADD A,H
2761: 84            ADD A,H
2762: 89            ADC A,C
2763: AB            XOR E
2764: 80            ADD A,B
2765: 8B            ADC A,E
2766: 84            ADD A,H
2767: 89            ADC A,C
2768: 8B            ADC A,E
2769: 82            ADD A,D
276A: 82            ADD A,D
276B: 87            ADD A,A
276C: A9            XOR C
276D: 80            ADD A,B
276E: 89            ADC A,C
276F: 82            ADD A,D
2770: 87            ADD A,A
2771: 89            ADC A,C
2772: 84            ADD A,H
2773: 84            ADD A,H
2774: 89            ADC A,C
2775: AB            XOR E
2776: 80            ADD A,B
2777: 8B            ADC A,E
2778: 84            ADD A,H
2779: 89            ADC A,C
277A: 8B            ADC A,E
277B: E5            PUSH HL
277C: 01 50 00      LD BC,0050h
277F: 60            LD H,B
2780: DE 0C         SBC A,0Ch
2782: C5            PUSH BC
2783: 18 88         JR loc_270D
2785: 88            ADC A,B
2786: 8D            ADC A,L
2787: AF            XOR A
2788: 80            ADD A,B
2789: 8F            ADC A,A
278A: 88            ADC A,B
278B: 8D            ADC A,L
278C: 8F            ADC A,A
278D: 88            ADC A,B
278E: 88            ADC A,B
278F: 8D            ADC A,L
2790: AF            XOR A
2791: 80            ADD A,B
2792: 8F            ADC A,A
2793: 88            ADC A,B
2794: 8D            ADC A,L
2795: 8F            ADC A,A
2796: 86            ADD A,(HL)
2797: 86            ADD A,(HL)
2798: 8B            ADC A,E
2799: AD            XOR L
279A: 80            ADD A,B
279B: 8D            ADC A,L
279C: 86            ADD A,(HL)
279D: 8B            ADC A,E
279E: 8D            ADC A,L
279F: 86            ADD A,(HL)
27A0: 86            ADD A,(HL)
27A1: 8B            ADC A,E
27A2: AD            XOR L
27A3: 80            ADD A,B
27A4: 8D            ADC A,L
27A5: 86            ADD A,(HL)
27A6: 8B            ADC A,E
27A7: 8D            ADC A,L
27A8: 88            ADC A,B
27A9: 88            ADC A,B
27AA: 8D            ADC A,L
27AB: AF            XOR A
27AC: 80            ADD A,B
27AD: 8F            ADC A,A
27AE: 88            ADC A,B
27AF: 8D            ADC A,L
27B0: 8F            ADC A,A
27B1: 88            ADC A,B
27B2: 88            ADC A,B
27B3: 8D            ADC A,L

loc_27B4:
27B4: AF            XOR A
27B5: 80            ADD A,B
27B6: 8F            ADC A,A
27B7: 88            ADC A,B
27B8: 8D            ADC A,L
27B9: 8F            ADC A,A
27BA: 86            ADD A,(HL)
27BB: 86            ADD A,(HL)
27BC: 8B            ADC A,E
27BD: AD            XOR L
27BE: 80            ADD A,B
27BF: 8D            ADC A,L
27C0: 86            ADD A,(HL)
27C1: 8B            ADC A,E
27C2: 8D            ADC A,L
27C3: 86            ADD A,(HL)
27C4: 86            ADD A,(HL)
27C5: 8B            ADC A,E
27C6: AD            XOR L
27C7: 80            ADD A,B
27C8: 8D            ADC A,L
27C9: 86            ADD A,(HL)
27CA: 8B            ADC A,E
27CB: 8D            ADC A,L
27CC: E6 E6         AND E6h
27CE: 60            LD H,B
27CF: DE 0C         SBC A,0Ch
27D1: C5            PUSH BC
27D2: 18 89         JR loc_275D
27D4: 89            ADC A,C
27D5: 8E            ADC A,(HL)
27D6: B0            OR B
27D7: 80            ADD A,B
27D8: 90            SUB B
27D9: 89            ADC A,C
27DA: 8E            ADC A,(HL)
27DB: 90            SUB B
27DC: 88            ADC A,B
27DD: 88            ADC A,B
27DE: 8E            ADC A,(HL)
27DF: AF            XOR A
27E0: 80            ADD A,B
27E1: 8F            ADC A,A
27E2: 88            ADC A,B
27E3: 8E            ADC A,(HL)
27E4: 8F            ADC A,A
27E5: 86            ADD A,(HL)
27E6: 86            ADD A,(HL)
27E7: 8B            ADC A,E
27E8: AD            XOR L
27E9: 80            ADD A,B
27EA: 8D            ADC A,L
27EB: 86            ADD A,(HL)

loc_27EC:
27EC: 8B            ADC A,E
27ED: 8D            ADC A,L
27EE: 84            ADD A,H
27EF: 84            ADD A,H
27F0: 8F            ADC A,A
27F1: AB            XOR E
27F2: 80            ADD A,B
27F3: 8B            ADC A,E
27F4: 84            ADD A,H
27F5: 86            ADD A,(HL)
27F6: 88            ADC A,B
27F7: 89            ADC A,C
27F8: 89            ADC A,C
27F9: 8E            ADC A,(HL)
27FA: B0            OR B
27FB: 80            ADD A,B
27FC: 90            SUB B
27FD: 89            ADC A,C
27FE: 8E            ADC A,(HL)
27FF: 90            SUB B
2800: 88            ADC A,B
2801: 88            ADC A,B
2802: 8E            ADC A,(HL)
2803: AF            XOR A
2804: 80            ADD A,B
2805: 8F            ADC A,A
2806: 88            ADC A,B
2807: 8E            ADC A,(HL)
2808: 8F            ADC A,A
2809: 86            ADD A,(HL)
280A: 86            ADD A,(HL)
280B: 8B            ADC A,E
280C: AD            XOR L
280D: 80            ADD A,B
280E: 8D            ADC A,L
280F: 86            ADD A,(HL)
2810: 8B            ADC A,E
2811: 8D            ADC A,L
2812: 84            ADD A,H
2813: 84            ADD A,H
2814: 8F            ADC A,A
2815: AB            XOR E
2816: 80            ADD A,B
2817: 8B            ADC A,E
2818: 84            ADD A,H
2819: 86            ADD A,(HL)
281A: 88            ADC A,B
281B: E0            RET PO
281C: D0            RET NC
281D: FE E7         CP E7h
281F: DF            RST 18h
2820: 4E            LD C,(HL)
2821: 3A C8 4B      LD A,(4BC8h)
2824: DB C8         IN A,(C8h)
2826: E8            RET PE
2827: 64            LD H,H
2828: 0C            INC C
2829: C5            PUSH BC
282A: 18 88         JR loc_27B4
282C: 88            ADC A,B
282D: 8D            ADC A,L
282E: AF            XOR A
282F: 80            ADD A,B
2830: 8F            ADC A,A
2831: 88            ADC A,B
2832: 8D            ADC A,L
2833: 8F            ADC A,A
2834: 88            ADC A,B
2835: 88            ADC A,B
2836: 8D            ADC A,L
2837: AF            XOR A
2838: 80            ADD A,B
2839: 8F            ADC A,A
283A: 88            ADC A,B
283B: 8D            ADC A,L
283C: 8F            ADC A,A
283D: 06 86         LD B,86h
283F: 86            ADD A,(HL)
2840: 86            ADD A,(HL)
2841: 86            ADD A,(HL)
2842: 86            ADD A,(HL)
2843: 86            ADD A,(HL)
2844: 86            ADD A,(HL)
2845: 86            ADD A,(HL)
2846: 86            ADD A,(HL)
2847: 86            ADD A,(HL)
2848: 86            ADD A,(HL)
2849: 86            ADD A,(HL)
284A: 86            ADD A,(HL)
284B: 86            ADD A,(HL)
284C: 86            ADD A,(HL)
284D: 86            ADD A,(HL)
284E: 86            ADD A,(HL)
284F: 86            ADD A,(HL)
2850: 86            ADD A,(HL)
2851: 86            ADD A,(HL)
2852: 86            ADD A,(HL)
2853: 86            ADD A,(HL)
2854: 86            ADD A,(HL)
2855: 86            ADD A,(HL)
2856: 86            ADD A,(HL)
2857: 86            ADD A,(HL)
2858: 86            ADD A,(HL)
2859: 86            ADD A,(HL)
285A: 86            ADD A,(HL)
285B: 86            ADD A,(HL)
285C: 86            ADD A,(HL)
285D: 86            ADD A,(HL)
285E: E3            EX (SP),HL
285F: 02            LD (BC),A
2860: 06 C5         LD B,C5h
2862: 18 88         JR loc_27EC
2864: 88            ADC A,B
2865: 88            ADC A,B
2866: 88            ADC A,B
2867: 88            ADC A,B
2868: 88            ADC A,B
2869: 88            ADC A,B
286A: 88            ADC A,B
286B: 88            ADC A,B
286C: 88            ADC A,B
286D: 88            ADC A,B
286E: 88            ADC A,B
286F: 88            ADC A,B
2870: 88            ADC A,B
2871: 88            ADC A,B
2872: 88            ADC A,B
2873: 88            ADC A,B
2874: 88            ADC A,B
2875: 88            ADC A,B
2876: 88            ADC A,B
2877: 88            ADC A,B
2878: 88            ADC A,B
2879: 88            ADC A,B
287A: 88            ADC A,B
287B: 88            ADC A,B
287C: 88            ADC A,B
287D: 88            ADC A,B
287E: 88            ADC A,B
287F: 88            ADC A,B
2880: 88            ADC A,B
2881: 88            ADC A,B
2882: 88            ADC A,B
2883: 86            ADD A,(HL)
2884: 86            ADD A,(HL)
2885: 86            ADD A,(HL)
2886: 86            ADD A,(HL)
2887: 86            ADD A,(HL)
2888: 86            ADD A,(HL)
2889: 86            ADD A,(HL)
288A: 86            ADD A,(HL)

loc_288B:
288B: 86            ADD A,(HL)
288C: 86            ADD A,(HL)
288D: 86            ADD A,(HL)
288E: 86            ADD A,(HL)
288F: 86            ADD A,(HL)
2890: 86            ADD A,(HL)
2891: 86            ADD A,(HL)
2892: 86            ADD A,(HL)
2893: 86            ADD A,(HL)
2894: 86            ADD A,(HL)
2895: 86            ADD A,(HL)
2896: 86            ADD A,(HL)
2897: 86            ADD A,(HL)
2898: 86            ADD A,(HL)
2899: 86            ADD A,(HL)
289A: 86            ADD A,(HL)
289B: 86            ADD A,(HL)
289C: 86            ADD A,(HL)
289D: 86            ADD A,(HL)
289E: 86            ADD A,(HL)
289F: 86            ADD A,(HL)
28A0: 86            ADD A,(HL)
28A1: 86            ADD A,(HL)
28A2: 86            ADD A,(HL)
28A3: 0C            INC C
28A4: 88            ADC A,B
28A5: 88            ADC A,B
28A6: 8D            ADC A,L
28A7: AF            XOR A
28A8: 80            ADD A,B
28A9: 8F            ADC A,A
28AA: 88            ADC A,B
28AB: 8D            ADC A,L
28AC: 8F            ADC A,A
28AD: 88            ADC A,B
28AE: 88            ADC A,B
28AF: 8D            ADC A,L
28B0: AF            XOR A
28B1: 80            ADD A,B
28B2: 8F            ADC A,A
28B3: 88            ADC A,B
28B4: 8D            ADC A,L
28B5: 8F            ADC A,A
28B6: 86            ADD A,(HL)
28B7: 86            ADD A,(HL)
28B8: 8B            ADC A,E
28B9: AD            XOR L
28BA: 80            ADD A,B
28BB: 8D            ADC A,L
28BC: 86            ADD A,(HL)
28BD: 8B            ADC A,E
28BE: 8D            ADC A,L
28BF: 86            ADD A,(HL)
28C0: 86            ADD A,(HL)
28C1: 8B            ADC A,E
28C2: AD            XOR L
28C3: 80            ADD A,B
28C4: 8D            ADC A,L
28C5: 86            ADD A,(HL)
28C6: 8B            ADC A,E
28C7: 8D            ADC A,L
28C8: 06 84         LD B,84h
28CA: 84            ADD A,H
28CB: 84            ADD A,H
28CC: 84            ADD A,H
28CD: 84            ADD A,H
28CE: 84            ADD A,H
28CF: 84            ADD A,H
28D0: 84            ADD A,H
28D1: 84            ADD A,H
28D2: 84            ADD A,H
28D3: 84            ADD A,H
28D4: 84            ADD A,H
28D5: 84            ADD A,H
28D6: 84            ADD A,H
28D7: 84            ADD A,H
28D8: 84            ADD A,H
28D9: 82            ADD A,D
28DA: 82            ADD A,D
28DB: 82            ADD A,D
28DC: 82            ADD A,D
28DD: 82            ADD A,D
28DE: 82            ADD A,D
28DF: 82            ADD A,D
28E0: 82            ADD A,D
28E1: 82            ADD A,D
28E2: 82            ADD A,D
28E3: 82            ADD A,D
28E4: 82            ADD A,D
28E5: 82            ADD A,D
28E6: 82            ADD A,D
28E7: 82            ADD A,D
28E8: 82            ADD A,D
28E9: 84            ADD A,H
28EA: 84            ADD A,H
28EB: 84            ADD A,H
28EC: 84            ADD A,H
28ED: 84            ADD A,H
28EE: 84            ADD A,H
28EF: 84            ADD A,H
28F0: 84            ADD A,H
28F1: 84            ADD A,H
28F2: 84            ADD A,H
28F3: 84            ADD A,H
28F4: 84            ADD A,H
28F5: 84            ADD A,H
28F6: 84            ADD A,H
28F7: 84            ADD A,H
28F8: 84            ADD A,H
28F9: E5            PUSH HL
28FA: 01 7B 00      LD BC,007Bh
28FD: 60            LD H,B
28FE: DE 0C         SBC A,0Ch
2900: C5            PUSH BC
2901: 18 88         JR loc_288B
2903: 88            ADC A,B
2904: 8D            ADC A,L
2905: AF            XOR A

loc_2906:
2906: 80            ADD A,B
2907: 8F            ADC A,A
2908: 88            ADC A,B
2909: 8D            ADC A,L
290A: 8F            ADC A,A
290B: 88            ADC A,B
290C: 88            ADC A,B
290D: 8D            ADC A,L
290E: AF            XOR A
290F: 80            ADD A,B
2910: 8F            ADC A,A
2911: 88            ADC A,B
2912: 8D            ADC A,L
2913: 8F            ADC A,A
2914: 06 86         LD B,86h
2916: 86            ADD A,(HL)
2917: 86            ADD A,(HL)
2918: 86            ADD A,(HL)
2919: 86            ADD A,(HL)
291A: 86            ADD A,(HL)
291B: 86            ADD A,(HL)
291C: 86            ADD A,(HL)
291D: 86            ADD A,(HL)
291E: 86            ADD A,(HL)
291F: 86            ADD A,(HL)
2920: 86            ADD A,(HL)
2921: 86            ADD A,(HL)
2922: 86            ADD A,(HL)
2923: 86            ADD A,(HL)
2924: 86            ADD A,(HL)
2925: 86            ADD A,(HL)
2926: 86            ADD A,(HL)
2927: 86            ADD A,(HL)
2928: 86            ADD A,(HL)
2929: 86            ADD A,(HL)
292A: 86            ADD A,(HL)
292B: 86            ADD A,(HL)
292C: 86            ADD A,(HL)
292D: 86            ADD A,(HL)
292E: 86            ADD A,(HL)
292F: 86            ADD A,(HL)
2930: 86            ADD A,(HL)
2931: 86            ADD A,(HL)
2932: 86            ADD A,(HL)
2933: 86            ADD A,(HL)
2934: 86            ADD A,(HL)
2935: 88            ADC A,B
2936: 88            ADC A,B
2937: 88            ADC A,B
2938: 88            ADC A,B
2939: 88            ADC A,B
293A: 88            ADC A,B
293B: 88            ADC A,B
293C: 88            ADC A,B
293D: 88            ADC A,B
293E: 88            ADC A,B
293F: 88            ADC A,B
2940: 88            ADC A,B
2941: 88            ADC A,B
2942: 88            ADC A,B
2943: 88            ADC A,B
2944: 88            ADC A,B
2945: 88            ADC A,B
2946: 88            ADC A,B
2947: 88            ADC A,B
2948: 88            ADC A,B
2949: 88            ADC A,B
294A: 88            ADC A,B
294B: 88            ADC A,B
294C: 88            ADC A,B
294D: 88            ADC A,B
294E: 88            ADC A,B
294F: 88            ADC A,B
2950: 88            ADC A,B
2951: 88            ADC A,B
2952: 88            ADC A,B
2953: 88            ADC A,B
2954: 88            ADC A,B
2955: 86            ADD A,(HL)
2956: 86            ADD A,(HL)
2957: 86            ADD A,(HL)
2958: 86            ADD A,(HL)
2959: 86            ADD A,(HL)
295A: 86            ADD A,(HL)
295B: 86            ADD A,(HL)
295C: 86            ADD A,(HL)
295D: 86            ADD A,(HL)
295E: 86            ADD A,(HL)
295F: 86            ADD A,(HL)
2960: 86            ADD A,(HL)
2961: 86            ADD A,(HL)
2962: 86            ADD A,(HL)
2963: 86            ADD A,(HL)
2964: 86            ADD A,(HL)
2965: 86            ADD A,(HL)
2966: 86            ADD A,(HL)
2967: 86            ADD A,(HL)
2968: 86            ADD A,(HL)
2969: 86            ADD A,(HL)
296A: 86            ADD A,(HL)
296B: 86            ADD A,(HL)
296C: 86            ADD A,(HL)
296D: 86            ADD A,(HL)
296E: 86            ADD A,(HL)
296F: 86            ADD A,(HL)
2970: 86            ADD A,(HL)
2971: 86            ADD A,(HL)
2972: 86            ADD A,(HL)
2973: 86            ADD A,(HL)
2974: 86            ADD A,(HL)
2975: E6 E6         AND E6h
2977: 60            LD H,B
2978: DE 0C         SBC A,0Ch
297A: C5            PUSH BC
297B: 18 89         JR loc_2906
297D: 89            ADC A,C
297E: 8E            ADC A,(HL)
297F: B0            OR B
2980: 80            ADD A,B
2981: 90            SUB B
2982: 89            ADC A,C
2983: 8E            ADC A,(HL)
2984: 90            SUB B
2985: 88            ADC A,B
2986: 88            ADC A,B
2987: 8E            ADC A,(HL)
2988: AF            XOR A
2989: 80            ADD A,B
298A: 8F            ADC A,A
298B: 88            ADC A,B
298C: 8E            ADC A,(HL)
298D: 8F            ADC A,A
298E: 06 86         LD B,86h
2990: 86            ADD A,(HL)
2991: 86            ADD A,(HL)
2992: 86            ADD A,(HL)
2993: 86            ADD A,(HL)
2994: 86            ADD A,(HL)
2995: 86            ADD A,(HL)
2996: 86            ADD A,(HL)
2997: 86            ADD A,(HL)
2998: 86            ADD A,(HL)
2999: 86            ADD A,(HL)
299A: 86            ADD A,(HL)
299B: 86            ADD A,(HL)
299C: 86            ADD A,(HL)
299D: 86            ADD A,(HL)
299E: 86            ADD A,(HL)
299F: 84            ADD A,H
29A0: 84            ADD A,H
29A1: 84            ADD A,H

loc_29A2:
29A2: 84            ADD A,H
29A3: 84            ADD A,H
29A4: 84            ADD A,H

loc_29A5:
29A5: 84            ADD A,H
29A6: 84            ADD A,H
29A7: 84            ADD A,H
29A8: 84            ADD A,H

loc_29A9:
29A9: 84            ADD A,H
29AA: 84            ADD A,H
29AB: 84            ADD A,H
29AC: 84            ADD A,H
29AD: 84            ADD A,H
29AE: 84            ADD A,H
29AF: 0C            INC C
29B0: 89            ADC A,C
29B1: 89            ADC A,C
29B2: 8E            ADC A,(HL)
29B3: B0            OR B
29B4: 80            ADD A,B
29B5: 90            SUB B
29B6: 89            ADC A,C
29B7: 8E            ADC A,(HL)
29B8: 90            SUB B
29B9: 88            ADC A,B
29BA: 88            ADC A,B
29BB: 8E            ADC A,(HL)
29BC: AF            XOR A
29BD: 80            ADD A,B
29BE: 8F            ADC A,A
29BF: 88            ADC A,B
29C0: 8E            ADC A,(HL)
29C1: 8F            ADC A,A
29C2: 06 86         LD B,86h
29C4: 86            ADD A,(HL)
29C5: 86            ADD A,(HL)
29C6: 86            ADD A,(HL)
29C7: 86            ADD A,(HL)
29C8: 86            ADD A,(HL)
29C9: 86            ADD A,(HL)

loc_29CA:
29CA: 86            ADD A,(HL)
29CB: 86            ADD A,(HL)
29CC: 86            ADD A,(HL)
29CD: 86            ADD A,(HL)
29CE: 86            ADD A,(HL)
29CF: 86            ADD A,(HL)
29D0: 86            ADD A,(HL)
29D1: 86            ADD A,(HL)
29D2: 86            ADD A,(HL)
29D3: 84            ADD A,H
29D4: 84            ADD A,H
29D5: 84            ADD A,H
29D6: 84            ADD A,H
29D7: 84            ADD A,H
29D8: 84            ADD A,H
29D9: 84            ADD A,H
29DA: 84            ADD A,H
29DB: 84            ADD A,H
29DC: 84            ADD A,H
29DD: 84            ADD A,H
29DE: 84            ADD A,H

loc_29DF:
29DF: 84            ADD A,H
29E0: 84            ADD A,H
29E1: 84            ADD A,H
29E2: 84            ADD A,H
29E3: E0            RET PO
29E4: 44            LD B,H
29E5: FE E7         CP E7h
29E7: DF            RST 18h
29E8: 36 39         LD (HL),39h
29EA: C8            RET Z
29EB: 5A            LD E,D
29EC: E8            RET PE
29ED: 6E            LD L,(HL)
29EE: DB DC         IN A,(DCh)
29F0: 60            LD H,B
29F1: DE DE         SBC A,DEh
29F3: DE 30         SBC A,30h
29F5: DE 18         SBC A,18h
29F7: DE 0C         SBC A,0Ch
29F9: DE 06         SBC A,06h
29FB: DE C5         SBC A,C5h
29FD: 30 A3         JR NC,loc_29A2
29FF: 80            ADD A,B
2A00: E3            EX (SP),HL
2A01: 02            LD (BC),A
2A02: 0C            INC C
2A03: C5            PUSH BC

loc_2A04:
2A04: 30 A3         JR NC,loc_29A9
2A06: 80            ADD A,B
2A07: 83            ADD A,E
2A08: A3            AND E
2A09: 80            ADD A,B
2A0A: A3            AND E
2A0B: 80            ADD A,B
2A0C: A3            AND E
2A0D: 80            ADD A,B
2A0E: 83            ADD A,E
2A0F: A3            AND E
2A10: 80            ADD A,B
2A11: 06 83         LD B,83h
2A13: A3            AND E
2A14: 80            ADD A,B
2A15: 0C            INC C
2A16: A3            AND E
2A17: 80            ADD A,B
2A18: 83            ADD A,E
2A19: A3            AND E
2A1A: 80            ADD A,B
2A1B: A3            AND E
2A1C: 80            ADD A,B
2A1D: A3            AND E
2A1E: 80            ADD A,B
2A1F: 83            ADD A,E
2A20: 18 83         JR loc_29A5
2A22: 0C            INC C
2A23: A1            AND C
2A24: 80            ADD A,B
2A25: A1            AND C

loc_2A26:
2A26: 80            ADD A,B
2A27: 18 A1         JR loc_29CA
2A29: 80            ADD A,B
2A2A: A1            AND C
2A2B: 80            ADD A,B
2A2C: 81            ADD A,C

loc_2A2D:
2A2D: 0C            INC C
2A2E: A1            AND C
2A2F: 80            ADD A,B
2A30: A1            AND C
2A31: 80            ADD A,B
2A32: 81            ADD A,C
2A33: A1            AND C
2A34: 80            ADD A,B
2A35: A1            AND C
2A36: 80            ADD A,B
2A37: A1            AND C
2A38: 80            ADD A,B
2A39: 81            ADD A,C
2A3A: 06 DE         LD B,DEh
2A3C: A3            AND E
2A3D: 80            ADD A,B
2A3E: 0C            INC C
2A3F: A3            AND E
2A40: 80            ADD A,B
2A41: 83            ADD A,E
2A42: A3            AND E
2A43: 80            ADD A,B
2A44: A3            AND E
2A45: 80            ADD A,B
2A46: A3            AND E
2A47: 80            ADD A,B

loc_2A48:
2A48: 83            ADD A,E
2A49: A3            AND E
2A4A: 80            ADD A,B
2A4B: 06 83         LD B,83h
2A4D: A3            AND E
2A4E: 80            ADD A,B
2A4F: 0C            INC C
2A50: A3            AND E
2A51: 80            ADD A,B
2A52: 83            ADD A,E
2A53: A3            AND E
2A54: 80            ADD A,B
2A55: A3            AND E
2A56: 80            ADD A,B
2A57: A3            AND E
2A58: 80            ADD A,B
2A59: 83            ADD A,E
2A5A: 18 83         JR loc_29DF
2A5C: 0C            INC C
2A5D: A1            AND C
2A5E: 80            ADD A,B
2A5F: A1            AND C
2A60: 80            ADD A,B
2A61: 18 A1         JR loc_2A04
2A63: 80            ADD A,B
2A64: A1            AND C
2A65: 80            ADD A,B
2A66: 81            ADD A,C
2A67: 0C            INC C
2A68: A1            AND C
2A69: 80            ADD A,B
2A6A: A1            AND C
2A6B: 80            ADD A,B
2A6C: 81            ADD A,C
2A6D: A1            AND C
2A6E: 80            ADD A,B
2A6F: A1            AND C
2A70: 80            ADD A,B
2A71: A1            AND C
2A72: 80            ADD A,B
2A73: 81            ADD A,C
2A74: 06 DE         LD B,DEh
2A76: C7            RST 00h
2A77: AB            XOR E
2A78: 80            ADD A,B
2A79: 30 AB         JR NC,loc_2A26
2A7B: 80            ADD A,B

loc_2A7C:
2A7C: 24            INC H
2A7D: 8B            ADC A,E
2A7E: 06 84         LD B,84h
2A80: A9            XOR C
2A81: 80            ADD A,B
2A82: 30 A9         JR NC,loc_2A2D
2A84: 80            ADD A,B

loc_2A85:
2A85: 24            INC H
2A86: 89            ADC A,C
2A87: 06 DE         LD B,DEh
2A89: AB            XOR E
2A8A: 80            ADD A,B
2A8B: 60            LD H,B
2A8C: 8B            ADC A,E
2A8D: E5            PUSH HL
2A8E: 01 18 00      LD BC,0018h
2A91: 60            LD H,B
2A92: DE DE         SBC A,DEh
2A94: DE DE         SBC A,DEh
2A96: DE DE         SBC A,DEh
2A98: DE DE         SBC A,DEh
2A9A: 30 DE         JR NC,loc_2A7A
2A9C: 18 DE         JR loc_2A7C
2A9E: 0C            INC C
2A9F: DE 06         SBC A,06h
2AA1: DE C5         SBC A,C5h
2AA3: 30 A3         JR NC,loc_2A48
2AA5: 80            ADD A,B
2AA6: E6 E6         AND E6h
2AA8: 60            LD H,B
2AA9: DE C5         SBC A,C5h
2AAB: 30 80         JR NC,loc_2A2D
2AAD: 80            ADD A,B
2AAE: C7            RST 00h
2AAF: 8A            ADC A,D
2AB0: 88            ADC A,B
2AB1: 8C            ADC A,H
2AB2: 8C            ADC A,H
2AB3: 8A            ADC A,D
2AB4: 88            ADC A,B
2AB5: E0            RET PO
2AB6: 3A FF E7      LD A,(E7FFh)
2AB9: DF            RST 18h
2ABA: 64            LD H,H
2ABB: 38 C8         JR C,loc_2A85
2ABD: 5A            LD E,D
2ABE: E8            RET PE
2ABF: 6E            LD L,(HL)
2AC0: DB DC         IN A,(DCh)
2AC2: 60            LD H,B
2AC3: DE DE         SBC A,DEh
2AC5: DE 30         SBC A,30h
2AC7: DE 18         SBC A,18h
2AC9: DE 0C         SBC A,0Ch
2ACB: DE C5         SBC A,C5h
2ACD: 24            INC H
2ACE: AA            XOR D
2ACF: 80            ADD A,B
2AD0: E3            EX (SP),HL
2AD1: 02            LD (BC),A
2AD2: 0C            INC C
2AD3: C5            PUSH BC
2AD4: 24            INC H
2AD5: AA            XOR D
2AD6: 80            ADD A,B
2AD7: AA            XOR D
2AD8: 80            ADD A,B
2AD9: 8A            ADC A,D
2ADA: AA            XOR D
2ADB: 80            ADD A,B
2ADC: AA            XOR D
2ADD: 80            ADD A,B
2ADE: AA            XOR D
2ADF: 80            ADD A,B
2AE0: 8A            ADC A,D
2AE1: AA            XOR D
2AE2: 80            ADD A,B
2AE3: AA            XOR D
2AE4: 80            ADD A,B
2AE5: AA            XOR D
2AE6: 80            ADD A,B
2AE7: 8A            ADC A,D
2AE8: AA            XOR D
2AE9: 80            ADD A,B
2AEA: AA            XOR D
2AEB: 80            ADD A,B
2AEC: AA            XOR D
2AED: 80            ADD A,B
2AEE: AA            XOR D

loc_2AEF:
2AEF: 80            ADD A,B
2AF0: 8A            ADC A,D
2AF1: A8            XOR B
2AF2: 80            ADD A,B
2AF3: A8            XOR B
2AF4: 80            ADD A,B

loc_2AF5:
2AF5: 88            ADC A,B
2AF6: A8            XOR B
2AF7: 80            ADD A,B
2AF8: A8            XOR B
2AF9: 80            ADD A,B
2AFA: A8            XOR B
2AFB: 80            ADD A,B
2AFC: A8            XOR B
2AFD: 80            ADD A,B
2AFE: 88            ADC A,B
2AFF: A8            XOR B
2B00: 80            ADD A,B
2B01: A8            XOR B
2B02: 80            ADD A,B
2B03: A8            XOR B
2B04: 80            ADD A,B
2B05: A8            XOR B
2B06: 80            ADD A,B
2B07: A8            XOR B
2B08: 80            ADD A,B
2B09: A8            XOR B
2B0A: 80            ADD A,B
2B0B: 88            ADC A,B
2B0C: AA            XOR D
2B0D: 80            ADD A,B
2B0E: AA            XOR D
2B0F: 80            ADD A,B
2B10: AA            XOR D
2B11: 80            ADD A,B
2B12: 8A            ADC A,D
2B13: AA            XOR D
2B14: 80            ADD A,B
2B15: AA            XOR D
2B16: 80            ADD A,B
2B17: AA            XOR D
2B18: 80            ADD A,B
2B19: 8A            ADC A,D
2B1A: AA            XOR D
2B1B: 80            ADD A,B
2B1C: AA            XOR D
2B1D: 80            ADD A,B
2B1E: AA            XOR D
2B1F: 80            ADD A,B
2B20: 8A            ADC A,D
2B21: AA            XOR D
2B22: 80            ADD A,B
2B23: AA            XOR D
2B24: 80            ADD A,B
2B25: AA            XOR D
2B26: 80            ADD A,B

loc_2B27:
2B27: AA            XOR D
2B28: 80            ADD A,B
2B29: 8A            ADC A,D
2B2A: A8            XOR B
2B2B: 80            ADD A,B
2B2C: A8            XOR B
2B2D: 80            ADD A,B
2B2E: 88            ADC A,B

loc_2B2F:
2B2F: A8            XOR B
2B30: 80            ADD A,B
2B31: A8            XOR B
2B32: 80            ADD A,B
2B33: A8            XOR B
2B34: 80            ADD A,B
2B35: A8            XOR B
2B36: 80            ADD A,B
2B37: 88            ADC A,B
2B38: A8            XOR B
2B39: 80            ADD A,B
2B3A: A8            XOR B

loc_2B3B:
2B3B: 80            ADD A,B

loc_2B3C:
2B3C: A8            XOR B
2B3D: 80            ADD A,B
2B3E: A8            XOR B
2B3F: 80            ADD A,B
2B40: A8            XOR B
2B41: 80            ADD A,B
2B42: A8            XOR B
2B43: 80            ADD A,B
2B44: 88            ADC A,B
2B45: A6            AND (HL)

loc_2B46:
2B46: 80            ADD A,B
2B47: 30 A6         JR NC,loc_2AEF
2B49: 80            ADD A,B
2B4A: 24            INC H
2B4B: 86            ADD A,(HL)
2B4C: 0C            INC C
2B4D: A4            AND H
2B4E: 80            ADD A,B
2B4F: 30 A4         JR NC,loc_2AF5
2B51: 80            ADD A,B
2B52: 24            INC H
2B53: 84            ADD A,H
2B54: 0C            INC C
2B55: A6            AND (HL)

loc_2B56:
2B56: 80            ADD A,B
2B57: 60            LD H,B
2B58: 86            ADD A,(HL)
2B59: E5            PUSH HL
2B5A: 01 16 00      LD BC,0016h
2B5D: 60            LD H,B
2B5E: DE DE         SBC A,DEh
2B60: DE DE         SBC A,DEh

loc_2B62:
2B62: DE DE         SBC A,DEh
2B64: DE DE         SBC A,DEh
2B66: 30 DE         JR NC,loc_2B46
2B68: 18 DE         JR loc_2B48
2B6A: 0C            INC C
2B6B: DE C5         SBC A,C5h
2B6D: 24            INC H
2B6E: AA            XOR D
2B6F: 80            ADD A,B
2B70: E6 E6         AND E6h

loc_2B72:
2B72: 60            LD H,B
2B73: DE C5         SBC A,C5h
2B75: 24            INC H
2B76: 87            ADD A,A
2B77: 88            ADC A,B
2B78: 86            ADD A,(HL)

loc_2B79:
2B79: 84            ADD A,H
2B7A: 87            ADD A,A
2B7B: 88            ADC A,B
2B7C: 86            ADD A,(HL)
2B7D: 84            ADD A,H
2B7E: E0            RET PO
2B7F: 43            LD B,E
2B80: FF            RST 38h
2B81: E7            RST 20h
2B82: DF            RST 18h
2B83: AB            XOR E
2B84: 39            ADD HL,SP
2B85: C8            RET Z
2B86: 5F            LD E,A
2B87: E8            RET PE
2B88: 6E            LD L,(HL)
2B89: DB F0         IN A,(F0h)
2B8B: 60            LD H,B
2B8C: DE DF         SBC A,DFh
2B8E: A0            AND B
2B8F: 39            ADD HL,SP

loc_2B90:
2B90: C8            RET Z
2B91: 5F            LD E,A
2B92: E8            RET PE
2B93: 6E            LD L,(HL)
2B94: DB F0         IN A,(F0h)
2B96: DE DE         SBC A,DEh
2B98: DE E3         SBC A,E3h
2B9A: 02            LD (BC),A
2B9B: 0C            INC C
2B9C: C5            PUSH BC
2B9D: 30 88         JR NC,loc_2B27
2B9F: 87            ADD A,A
2BA0: 83            ADD A,E
2BA1: A8            XOR B
2BA2: 80            ADD A,B
2BA3: 88            ADC A,B
2BA4: A7            AND A
2BA5: 80            ADD A,B
2BA6: 18 87         JR loc_2B2F
2BA8: 0C            INC C
2BA9: 88            ADC A,B
2BAA: 87            ADD A,A
2BAB: 83            ADD A,E
2BAC: A8            XOR B
2BAD: 80            ADD A,B
2BAE: 88            ADC A,B

loc_2BAF:
2BAF: 87            ADD A,A
2BB0: 18 8A         JR loc_2B3C
2BB2: 0C            INC C
2BB3: 88            ADC A,B
2BB4: 86            ADD A,(HL)
2BB5: 85            ADD A,L
2BB6: A1            AND C
2BB7: 80            ADD A,B
2BB8: 30 81         JR NC,loc_2B3B
2BBA: 0C            INC C
2BBB: 86            ADD A,(HL)
2BBC: A5            AND L
2BBD: 80            ADD A,B
2BBE: 85            ADD A,L
2BBF: A8            XOR B
2BC0: 80            ADD A,B
2BC1: 88            ADC A,B
2BC2: 86            ADD A,(HL)
2BC3: 85            ADD A,L
2BC4: 81            ADD A,C
2BC5: 88            ADC A,B
2BC6: 87            ADD A,A
2BC7: 83            ADD A,E
2BC8: A8            XOR B
2BC9: 80            ADD A,B
2BCA: 88            ADC A,B
2BCB: A7            AND A
2BCC: 80            ADD A,B
2BCD: 18 87         JR loc_2B56
2BCF: 0C            INC C
2BD0: 88            ADC A,B
2BD1: 87            ADD A,A
2BD2: 83            ADD A,E

loc_2BD3:
2BD3: A8            XOR B
2BD4: 80            ADD A,B
2BD5: 88            ADC A,B
2BD6: 87            ADD A,A
2BD7: 18 8A         JR loc_2B63
2BD9: 0C            INC C
2BDA: 88            ADC A,B
2BDB: 86            ADD A,(HL)
2BDC: 85            ADD A,L
2BDD: A1            AND C
2BDE: 80            ADD A,B
2BDF: 30 81         JR NC,loc_2B62
2BE1: 0C            INC C
2BE2: 86            ADD A,(HL)
2BE3: A5            AND L
2BE4: 80            ADD A,B
2BE5: 85            ADD A,L
2BE6: A8            XOR B
2BE7: 80            ADD A,B
2BE8: 30 88         JR NC,loc_2B72
2BEA: 24            INC H
2BEB: 84            ADD A,H
2BEC: 0C            INC C
2BED: A3            AND E
2BEE: 80            ADD A,B
2BEF: 30 83         JR NC,loc_2B74
2BF1: 24            INC H
2BF2: 82            ADD A,D
2BF3: 0C            INC C
2BF4: A1            AND C
2BF5: 80            ADD A,B
2BF6: 18 81         JR loc_2B79
2BF8: C7            RST 00h
2BF9: 89            ADC A,C
2BFA: 24            INC H
2BFB: 90            SUB B
2BFC: 0C            INC C
2BFD: AF            XOR A

loc_2BFE:
2BFE: 80            ADD A,B
2BFF: 30 8F         JR NC,loc_2B90
2C01: E5            PUSH HL
2C02: 01 0D 00      LD BC,000Dh
2C05: 60            LD H,B
2C06: DE DE         SBC A,DEh
2C08: DE DE         SBC A,DEh
2C0A: DE DE         SBC A,DEh
2C0C: DE DE         SBC A,DEh
2C0E: DE E6         SBC A,E6h

loc_2C10:
2C10: E6 60         AND 60h
2C12: DE DE         SBC A,DEh
2C14: DE DE         SBC A,DEh
2C16: DE DF         SBC A,DFh
2C18: 96            SUB (HL)
2C19: 33            INC SP
2C1A: C8            RET Z
2C1B: 5F            LD E,A
2C1C: DB AA         IN A,(AAh)
2C1E: 18 DE         JR loc_2BFE
2C20: 0C            INC C
2C21: DE 06         SBC A,06h
2C23: C5            PUSH BC
2C24: 30 89         JR NC,loc_2BAF
2C26: 8B            ADC A,E
2C27: 8C            ADC A,H
2C28: 8E            ADC A,(HL)
2C29: 90            SUB B
2C2A: 8E            ADC A,(HL)
2C2B: 8B            ADC A,E
2C2C: 8E            ADC A,(HL)
2C2D: 89            ADC A,C
2C2E: 8B            ADC A,E
2C2F: 12            LD (DE),A
2C30: 88            ADC A,B
2C31: 06 AE         LD B,AEh
2C33: 80            ADD A,B
2C34: 0C            INC C
2C35: 8E            ADC A,(HL)
2C36: 8F            ADC A,A
2C37: 12            LD (DE),A
2C38: 8C            ADC A,H

loc_2C39:
2C39: 06 89         LD B,89h
2C3B: 88            ADC A,B
2C3C: 86            ADD A,(HL)
2C3D: 88            ADC A,B
2C3E: 83            ADD A,E
2C3F: 86            ADD A,(HL)
2C40: 8A            ADC A,D
2C41: 8F            ADC A,A
2C42: AD            XOR L
2C43: 80            ADD A,B
2C44: 18 8D         JR loc_2BD3
2C46: 06 8F         LD B,8Fh
2C48: AD            XOR L
2C49: 80            ADD A,B
2C4A: 8D            ADC A,L
2C4B: 8A            ADC A,D
2C4C: 8B            ADC A,E
2C4D: 88            ADC A,B
2C4E: 8A            ADC A,D
2C4F: 86            ADD A,(HL)
2C50: 8D            ADC A,L
2C51: 88            ADC A,B
2C52: 84            ADD A,H
2C53: 8D            ADC A,L
2C54: 88            ADC A,B
2C55: 84            ADD A,H
2C56: 8D            ADC A,L
2C57: 88            ADC A,B
2C58: 84            ADD A,H
2C59: 88            ADC A,B
2C5A: 84            ADD A,H
2C5B: 8D            ADC A,L
2C5C: 88            ADC A,B
2C5D: 84            ADD A,H
2C5E: 88            ADC A,B
2C5F: 8D            ADC A,L
2C60: E0            RET PO
2C61: 2A FF E7      LD HL,(E7FFh)
2C64: DF            RST 18h
2C65: 55            LD D,L
2C66: 3A C8 6E      LD A,(6EC8h)
2C69: E8            RET PE
2C6A: 64            LD H,H
2C6B: E3            EX (SP),HL
2C6C: 09            ADD HL,BC
2C6D: DF            RST 18h
2C6E: 20 3A         JR NZ,loc_2CAA
2C70: C8            RET Z
2C71: 69            LD L,C
2C72: 18 C5         JR loc_2C39
2C74: 24            INC H
2C75: 8B            ADC A,E
2C76: C8            RET Z
2C77: 6E            LD L,(HL)
2C78: DF            RST 18h
2C79: 99            SBC A,C
2C7A: 3A 0C 8B      LD A,(8B0Ch)
2C7D: DF            RST 18h
2C7E: 3C            INC A
2C7F: 3A 97 97      LD A,(9797h)
2C82: 97            SUB A
2C83: DF            RST 18h
2C84: 8E            ADC A,(HL)
2C85: 3A 8B DF      LD A,(DF8Bh)
2C88: 32 3A 97      LD (973Ah),A
2C8B: 97            SUB A
2C8C: 97            SUB A
2C8D: DF            RST 18h
2C8E: 84            ADD A,H
2C8F: 3A 8B DF      LD A,(DF8Bh)
2C92: 28 3A         JR Z,loc_2CCE
2C94: 97            SUB A
2C95: 97            SUB A
2C96: 97            SUB A
2C97: DF            RST 18h
2C98: 7A            LD A,D

loc_2C99:
2C99: 3A 8B DF      LD A,(DF8Bh)
2C9C: 1E 3A         LD E,3Ah
2C9E: 97            SUB A
2C9F: 97            SUB A
2CA0: 97            SUB A
2CA1: DF            RST 18h
2CA2: 70            LD (HL),B
2CA3: 3A 8B DF      LD A,(DF8Bh)
2CA6: 14            INC D
2CA7: 3A 97 97      LD A,(9797h)

loc_2CAA:
2CAA: 97            SUB A
2CAB: DF            RST 18h
2CAC: 66            LD H,(HL)
2CAD: 3A 8B DF      LD A,(DF8Bh)
2CB0: 0A            LD A,(BC)
2CB1: 3A 97 97      LD A,(9797h)

loc_2CB4:
2CB4: 97            SUB A
2CB5: DF            RST 18h
2CB6: 5C            LD E,H
2CB7: 3A 8B DF      LD A,(DF8Bh)
2CBA: 00            NOP
2CBB: 3A 97 97      LD A,(9797h)
2CBE: 97            SUB A
2CBF: DF            RST 18h
2CC0: 52            LD D,D
2CC1: 3A 8B DF      LD A,(DF8Bh)
2CC4: 46            LD B,(HL)
2CC5: 39            ADD HL,SP
2CC6: C8            RET Z
2CC7: 5F            LD E,A
2CC8: C7            RST 00h
2CC9: 8B            ADC A,E
2CCA: E6 E3         AND E3h
2CCC: 04            INC B
2CCD: DF            RST 18h

loc_2CCE:
2CCE: C0            RET NZ
2CCF: 39            ADD HL,SP
2CD0: C8            RET Z
2CD1: 69            LD L,C
2CD2: 18 C5         JR loc_2C99
2CD4: 24            INC H
2CD5: 8B            ADC A,E
2CD6: C8            RET Z
2CD7: 5F            LD E,A
2CD8: DF            RST 18h
2CD9: 31 39 0C      LD SP,0C39h
2CDC: C7            RST 00h
2CDD: 8B            ADC A,E
2CDE: C8            RET Z
2CDF: 6E            LD L,(HL)
2CE0: DF            RST 18h
2CE1: D9            EXX
2CE2: 39            ADD HL,SP
2CE3: C6 C6         ADD A,C6h
2CE5: 8B            ADC A,E
2CE6: 8B            ADC A,E

loc_2CE7:
2CE7: 8B            ADC A,E
2CE8: DF            RST 18h
2CE9: 21 39 C8      LD HL,C839h
2CEC: 5F            LD E,A
2CED: C7            RST 00h
2CEE: 8B            ADC A,E
2CEF: DF            RST 18h
2CF0: CA 39 C8      JP Z,C839h
2CF3: 6E            LD L,(HL)
2CF4: 97            SUB A
2CF5: 97            SUB A
2CF6: 97            SUB A
2CF7: DF            RST 18h
2CF8: 12            LD (DE),A
2CF9: 39            ADD HL,SP
2CFA: C8            RET Z
2CFB: 5F            LD E,A
2CFC: C7            RST 00h
2CFD: 8B            ADC A,E
2CFE: DF            RST 18h
2CFF: BB            CP E
2D00: 39            ADD HL,SP
2D01: C8            RET Z
2D02: 6E            LD L,(HL)
2D03: C6 C6         ADD A,C6h
2D05: 8B            ADC A,E
2D06: 8B            ADC A,E
2D07: 8B            ADC A,E
2D08: DF            RST 18h
2D09: 09            ADD HL,BC
2D0A: 3A C7 8B      LD A,(8BC7h)
2D0D: DF            RST 18h
2D0E: FC 38 C8      CALL M,C838h
2D11: 5F            LD E,A
2D12: C7            RST 00h
2D13: 8B            ADC A,E
2D14: E6 E0         AND E0h
2D16: 55            LD D,L
2D17: FF            RST 38h
2D18: E7            RST 20h
2D19: DF            RST 18h
2D1A: 24            INC H
2D1B: 3A C8 6E      LD A,(6EC8h)
2D1E: E8            RET PE
2D1F: 64            LD H,H
2D20: 18 C5         JR loc_2CE7
2D22: 18 8B         JR loc_2CAF
2D24: 0C            INC C
2D25: DE 8B         SBC A,8Bh
2D27: 18 8B         JR loc_2CB4
2D29: DE 8B         SBC A,8Bh
2D2B: 0C            INC C
2D2C: DE 8B         SBC A,8Bh
2D2E: 8B            ADC A,E
2D2F: 8B            ADC A,E
2D30: 18 DE         JR loc_2D10
2D32: E0            RET PO
2D33: ED FF         DB EDh,FFh
2D35: 00            NOP
2D36: FF            RST 38h
2D37: 1F            RRA
2D38: 00            NOP
2D39: 01 FF C4      LD BC,C4FFh
2D3C: 00            NOP
2D3D: 02            LD (BC),A
2D3E: FF            RST 38h
2D3F: 07            RLCA
2D40: 02            LD (BC),A
2D41: 03            INC BC
2D42: FF            RST 38h
2D43: 58            LD E,B
2D44: 03            INC BC
2D45: 04            INC B
2D46: FF            RST 38h
2D47: 1C            INC E
2D48: 04            INC B
2D49: 05            DEC B
2D4A: FF            RST 38h
2D4B: DF            RST 18h
2D4C: 04            INC B
2D4D: 06 FF         LD B,FFh
2D4F: 63            LD H,E
2D50: 05            DEC B
2D51: 07            RLCA
2D52: FF            RST 38h
2D53: BE            CP (HL)
2D54: 05            DEC B
2D55: FF            RST 38h
2D56: D0            RET NC
2D57: 7D            LD A,L
2D58: DF            RST 18h
2D59: A1            AND C
2D5A: 2B            DEC HL
2D5B: C8            RET Z
2D5C: 5A            LD E,D
2D5D: DB FF         IN A,(FFh)
2D5F: E8            RET PE
2D60: 5A            LD E,D
2D61: 19            ADD HL,DE
2D62: DE 60         SBC A,60h
2D64: DE DE         SBC A,DEh
2D66: DE DE         SBC A,DEh
2D68: DE DE         SBC A,DEh
2D6A: DE DE         SBC A,DEh
2D6C: DE DE         SBC A,DEh
2D6E: DE 30         SBC A,30h
2D70: DE 18         SBC A,18h
2D72: DE 0C         SBC A,0Ch
2D74: DE 06         SBC A,06h
2D76: DE C5         SBC A,C5h
2D78: 48            LD C,B
2D79: A3            AND E
2D7A: 80            ADD A,B
2D7B: 83            ADD A,E
2D7C: C7            RST 00h
2D7D: 8B            ADC A,E
2D7E: 86            ADD A,(HL)
2D7F: 8B            ADC A,E
2D80: 8F            ADC A,A
2D81: 8B            ADC A,E
2D82: 86            ADD A,(HL)
2D83: 8B            ADC A,E
2D84: 8D            ADC A,L
2D85: 8A            ADC A,D
2D86: 86            ADD A,(HL)
2D87: 8D            ADC A,L
2D88: 90            SUB B
2D89: 8B            ADC A,E
2D8A: 88            ADC A,B
2D8B: 90            SUB B
2D8C: 8F            ADC A,A
2D8D: 8B            ADC A,E
2D8E: 86            ADD A,(HL)
2D8F: 8B            ADC A,E
2D90: 88            ADC A,B
2D91: 86            ADD A,(HL)
2D92: 8D            ADC A,L
2D93: 8A            ADC A,D

loc_2D94:
2D94: 86            ADD A,(HL)
2D95: 8D            ADC A,L
2D96: 8A            ADC A,D
2D97: 86            ADD A,(HL)
2D98: 8A            ADC A,D
2D99: 8D            ADC A,L
2D9A: 92            SUB D
2D9B: 8D            ADC A,L
2D9C: 8F            ADC A,A
2D9D: 8B            ADC A,E

loc_2D9E:
2D9E: 86            ADD A,(HL)
2D9F: 8B            ADC A,E
2DA0: 8F            ADC A,A
2DA1: 8B            ADC A,E
2DA2: 86            ADD A,(HL)
2DA3: 8F            ADC A,A
2DA4: 92            SUB D
2DA5: 8D            ADC A,L
2DA6: 8A            ADC A,D
2DA7: 92            SUB D
2DA8: 8A            ADC A,D
2DA9: 8D            ADC A,L
2DAA: 90            SUB B
2DAB: 8B            ADC A,E
2DAC: 88            ADC A,B
2DAD: 8B            ADC A,E
2DAE: 90            SUB B
2DAF: 88            ADC A,B
2DB0: 8B            ADC A,E
2DB1: 90            SUB B
2DB2: 92            SUB D
2DB3: 8A            ADC A,D
2DB4: 8D            ADC A,L
2DB5: 8A            ADC A,D
2DB6: 92            SUB D
2DB7: 8A            ADC A,D
2DB8: 8D            ADC A,L
2DB9: 8A            ADC A,D
2DBA: 92            SUB D
2DBB: 8D            ADC A,L
2DBC: 8F            ADC A,A
2DBD: 8B            ADC A,E
2DBE: 86            ADD A,(HL)
2DBF: 8B            ADC A,E
2DC0: 8F            ADC A,A
2DC1: 8B            ADC A,E
2DC2: 86            ADD A,(HL)
2DC3: 8B            ADC A,E
2DC4: 8D            ADC A,L
2DC5: 8A            ADC A,D
2DC6: 86            ADD A,(HL)
2DC7: 8D            ADC A,L
2DC8: 90            SUB B
2DC9: 8B            ADC A,E
2DCA: 88            ADC A,B
2DCB: 90            SUB B
2DCC: 8F            ADC A,A
2DCD: 8B            ADC A,E
2DCE: 86            ADD A,(HL)
2DCF: 8B            ADC A,E
2DD0: 88            ADC A,B
2DD1: 86            ADD A,(HL)
2DD2: 8D            ADC A,L
2DD3: 8A            ADC A,D
2DD4: 86            ADD A,(HL)
2DD5: 8D            ADC A,L
2DD6: 8A            ADC A,D
2DD7: 86            ADD A,(HL)
2DD8: 8A            ADC A,D
2DD9: 8D            ADC A,L
2DDA: 92            SUB D
2DDB: 8D            ADC A,L
2DDC: 8F            ADC A,A
2DDD: 8B            ADC A,E
2DDE: 86            ADD A,(HL)
2DDF: 8B            ADC A,E
2DE0: 8F            ADC A,A
2DE1: 8B            ADC A,E
2DE2: 86            ADD A,(HL)
2DE3: 8F            ADC A,A
2DE4: 92            SUB D
2DE5: 8D            ADC A,L
2DE6: 8A            ADC A,D
2DE7: 92            SUB D
2DE8: 8A            ADC A,D
2DE9: 8D            ADC A,L
2DEA: 90            SUB B
2DEB: 8B            ADC A,E
2DEC: 88            ADC A,B
2DED: 8B            ADC A,E
2DEE: 90            SUB B
2DEF: 88            ADC A,B
2DF0: 8B            ADC A,E
2DF1: 90            SUB B
2DF2: 92            SUB D
2DF3: 8A            ADC A,D
2DF4: 8D            ADC A,L
2DF5: 8A            ADC A,D
2DF6: 92            SUB D
2DF7: 8A            ADC A,D
2DF8: 8D            ADC A,L
2DF9: 8A            ADC A,D
2DFA: 92            SUB D
2DFB: 8D            ADC A,L
2DFC: E0            RET PO
2DFD: 66            LD H,(HL)
2DFE: FF            RST 38h
2DFF: DF            RST 18h
2E00: EA 33 C8      JP PE,C833h
2E03: 5F            LD E,A
2E04: DB 8C         IN A,(8Ch)
2E06: E8            RET PE
2E07: 6E            LD L,(HL)
2E08: 01 DE 06      LD BC,06DEh
2E0B: C5            PUSH BC
2E0C: 18 86         JR loc_2D94
2E0E: 86            ADD A,(HL)
2E0F: DE A8         SBC A,A8h
2E11: 80            ADD A,B
2E12: 0C            INC C
2E13: C5            PUSH BC
2E14: 18 88         JR loc_2D9E
2E16: 88            ADC A,B
2E17: 8B            ADC A,E
2E18: 8B            ADC A,E
2E19: 8D            ADC A,L
2E1A: 8D            ADC A,L
2E1B: 06 90         LD B,90h
2E1D: 90            SUB B
2E1E: DE AF         SBC A,AFh
2E20: 80            ADD A,B
2E21: 0C            INC C
2E22: 8F            ADC A,A
2E23: 8B            ADC A,E
2E24: DE 8B         SBC A,8Bh
2E26: 06 88         LD B,88h
2E28: 8B            ADC A,E
2E29: 0C            INC C
2E2A: DE 06         SBC A,06h
2E2C: 86            ADD A,(HL)
2E2D: 86            ADD A,(HL)
2E2E: DE A8         SBC A,A8h
2E30: 80            ADD A,B
2E31: 0C            INC C
2E32: 88            ADC A,B
2E33: 88            ADC A,B
2E34: 8B            ADC A,E
2E35: 8B            ADC A,E
2E36: 8D            ADC A,L
2E37: 8D            ADC A,L
2E38: 06 90         LD B,90h
2E3A: 90            SUB B
2E3B: DE AF         SBC A,AFh
2E3D: 80            ADD A,B
2E3E: 0C            INC C
2E3F: 8F            ADC A,A
2E40: 8B            ADC A,E
2E41: DE 8B         SBC A,8Bh
2E43: 06 88         LD B,88h
2E45: 8B            ADC A,E
2E46: 0C            INC C
2E47: DE 06         SBC A,06h
2E49: 86            ADD A,(HL)
2E4A: 86            ADD A,(HL)
2E4B: DE A8         SBC A,A8h
2E4D: 80            ADD A,B
2E4E: 0C            INC C
2E4F: 88            ADC A,B
2E50: 88            ADC A,B
2E51: 8B            ADC A,E
2E52: 8B            ADC A,E
2E53: 8D            ADC A,L
2E54: 8D            ADC A,L
2E55: 06 90         LD B,90h
2E57: 90            SUB B
2E58: DE AF         SBC A,AFh
2E5A: 80            ADD A,B
2E5B: 0C            INC C
2E5C: 8F            ADC A,A
2E5D: 8B            ADC A,E
2E5E: DE 8B         SBC A,8Bh
2E60: 06 88         LD B,88h
2E62: 8B            ADC A,E
2E63: 0C            INC C
2E64: DE 06         SBC A,06h
2E66: 86            ADD A,(HL)
2E67: 86            ADD A,(HL)
2E68: DE A8         SBC A,A8h
2E6A: 80            ADD A,B
2E6B: 0C            INC C
2E6C: 88            ADC A,B
2E6D: 88            ADC A,B
2E6E: 8B            ADC A,E
2E6F: 8B            ADC A,E
2E70: 8D            ADC A,L

loc_2E71:
2E71: 8D            ADC A,L

loc_2E72:
2E72: 06 90         LD B,90h
2E74: 90            SUB B
2E75: DE AF         SBC A,AFh
2E77: 80            ADD A,B
2E78: 0C            INC C
2E79: 8F            ADC A,A

loc_2E7A:
2E7A: 8B            ADC A,E
2E7B: DE 8B         SBC A,8Bh
2E7D: 06 88         LD B,88h
2E7F: 8B            ADC A,E

loc_2E80:
2E80: 0C            INC C
2E81: DE 06         SBC A,06h

loc_2E83:
2E83: 86            ADD A,(HL)
2E84: 86            ADD A,(HL)
2E85: DE A4         SBC A,A4h
2E87: 80            ADD A,B
2E88: 0C            INC C
2E89: 84            ADD A,H
2E8A: 06 84         LD B,84h
2E8C: 84            ADD A,H
2E8D: DE A3         SBC A,A3h
2E8F: 80            ADD A,B
2E90: 83            ADD A,E
2E91: 84            ADD A,H
2E92: 18 DE         JR loc_2E72
2E94: 0C            INC C

loc_2E95:
2E95: DE 06         SBC A,06h
2E97: 8F            ADC A,A

loc_2E98:
2E98: 90            SUB B
2E99: 0C            INC C
2E9A: 83            ADD A,E
2E9B: 06 83         LD B,83h
2E9D: 83            ADD A,E
2E9E: DE A6         SBC A,A6h
2EA0: 80            ADD A,B
2EA1: 86            ADD A,(HL)
2EA2: 83            ADD A,E
2EA3: 18 DE         JR loc_2E83
2EA5: 06 8F         LD B,8Fh
2EA7: 8E            ADC A,(HL)
2EA8: DE AD         SBC A,ADh

loc_2EAA:
2EAA: 80            ADD A,B
2EAB: 0C            INC C
2EAC: 8D            ADC A,L
2EAD: 06 8D         LD B,8Dh
2EAF: 8D            ADC A,L
2EB0: DE AB         SBC A,ABh
2EB2: 80            ADD A,B

loc_2EB3:
2EB3: 8B            ADC A,E
2EB4: 8D            ADC A,L
2EB5: 18 DE         JR loc_2E95
2EB7: 0C            INC C
2EB8: DE 06         SBC A,06h
2EBA: C6 C6         ADD A,C6h
2EBC: 81            ADD A,C
2EBD: 83            ADD A,E
2EBE: 0C            INC C
2EBF: C7            RST 00h
2EC0: C7            RST 00h
2EC1: 83            ADD A,E
2EC2: 06 83         LD B,83h
2EC4: 83            ADD A,E
2EC5: DE A3         SBC A,A3h
2EC7: 80            ADD A,B
2EC8: 83            ADD A,E
2EC9: 83            ADD A,E
2ECA: 18 DE         JR loc_2EAA
2ECC: 0C            INC C
2ECD: DE 06         SBC A,06h
2ECF: 8D            ADC A,L
2ED0: 8F            ADC A,A
2ED1: 88            ADC A,B
2ED2: 88            ADC A,B
2ED3: DE 88         SBC A,88h
2ED5: 18 88         JR loc_2E5F
2ED7: 86            ADD A,(HL)
2ED8: 06 84         LD B,84h
2EDA: 84            ADD A,H
2EDB: DE 84         SBC A,84h
2EDD: 12            LD (DE),A
2EDE: 8F            ADC A,A
2EDF: 06 8F         LD B,8Fh
2EE1: 0C            INC C
2EE2: DE A8         SBC A,A8h
2EE4: 80            ADD A,B
2EE5: 88            ADC A,B
2EE6: 06 94         LD B,94h
2EE8: 94            SUB H
2EE9: 18 86         JR loc_2E71
2EEB: 06 88         LD B,88h
2EED: 88            ADC A,B
2EEE: DE 88         SBC A,88h
2EF0: 18 88         JR loc_2E7A
2EF2: 12            LD (DE),A
2EF3: 86            ADD A,(HL)
2EF4: 06 86         LD B,86h
2EF6: 0C            INC C
2EF7: DE A4         SBC A,A4h
2EF9: 80            ADD A,B
2EFA: 18 84         JR loc_2E80
2EFC: 06 84         LD B,84h
2EFE: 84            ADD A,H
2EFF: 0C            INC C
2F00: A6            AND (HL)
2F01: 80            ADD A,B
2F02: 86            ADD A,(HL)
2F03: 06 86         LD B,86h
2F05: 86            ADD A,(HL)
2F06: 86            ADD A,(HL)
2F07: 86            ADD A,(HL)
2F08: DE 86         SBC A,86h
2F0A: 88            ADC A,B
2F0B: 88            ADC A,B
2F0C: DE 88         SBC A,88h
2F0E: 18 88         JR loc_2E98
2F10: 86            ADD A,(HL)
2F11: 06 84         LD B,84h
2F13: 84            ADD A,H
2F14: DE 84         SBC A,84h
2F16: 12            LD (DE),A
2F17: 8F            ADC A,A
2F18: 06 8F         LD B,8Fh
2F1A: 0C            INC C
2F1B: DE A8         SBC A,A8h
2F1D: 80            ADD A,B
2F1E: 88            ADC A,B
2F1F: 06 94         LD B,94h
2F21: 94            SUB H
2F22: 18 86         JR loc_2EAA
2F24: 06 88         LD B,88h
2F26: 88            ADC A,B
2F27: DE 88         SBC A,88h
2F29: 18 88         JR loc_2EB3
2F2B: 12            LD (DE),A
2F2C: 86            ADD A,(HL)
2F2D: 06 86         LD B,86h
2F2F: 0C            INC C
2F30: DE A4         SBC A,A4h
2F32: 80            ADD A,B
2F33: 18 84         JR loc_2EB9
2F35: 06 84         LD B,84h
2F37: 84            ADD A,H
2F38: 0C            INC C
2F39: A6            AND (HL)
2F3A: 80            ADD A,B
2F3B: 86            ADD A,(HL)
2F3C: 06 86         LD B,86h
2F3E: 86            ADD A,(HL)
2F3F: 86            ADD A,(HL)
2F40: 86            ADD A,(HL)
2F41: DE 86         SBC A,86h
2F43: E0            RET PO
2F44: CE FE         ADC A,FEh
2F46: DF            RST 18h
2F47: 27            DAA
2F48: 33            INC SP
2F49: C8            RET Z
2F4A: 4B            LD C,E
2F4B: DB 96         IN A,(96h)
2F4D: E8            RET PE
2F4E: 6E            LD L,(HL)
2F4F: 19            ADD HL,DE
2F50: DE 0C         SBC A,0Ch
2F52: DE 06         SBC A,06h
2F54: C5            PUSH BC
2F55: 24            INC H
2F56: 8B            ADC A,E
2F57: 88            ADC A,B
2F58: DE 8B         SBC A,8Bh
2F5A: 88            ADC A,B
2F5B: DE DE         SBC A,DEh
2F5D: 8B            ADC A,E
2F5E: DE 8B         SBC A,8Bh
2F60: DE 8B         SBC A,8Bh
2F62: 88            ADC A,B
2F63: DE DE         SBC A,DEh
2F65: 8B            ADC A,E
2F66: DE 8B         SBC A,8Bh
2F68: DE 8B         SBC A,8Bh
2F6A: 88            ADC A,B
2F6B: 8B            ADC A,E
2F6C: DE 8B         SBC A,8Bh
2F6E: 88            ADC A,B
2F6F: 8B            ADC A,E
2F70: 86            ADD A,(HL)
2F71: 86            ADD A,(HL)
2F72: DE 88         SBC A,88h
2F74: 0C            INC C
2F75: DE 06         SBC A,06h
2F77: 8B            ADC A,E
2F78: 88            ADC A,B
2F79: DE 8B         SBC A,8Bh
2F7B: 88            ADC A,B
2F7C: DE DE         SBC A,DEh
2F7E: 8B            ADC A,E
2F7F: DE 8B         SBC A,8Bh
2F81: DE 8B         SBC A,8Bh
2F83: 88            ADC A,B
2F84: DE 0C         SBC A,0Ch
2F86: DE 06         SBC A,06h
2F88: 88            ADC A,B
2F89: 88            ADC A,B
2F8A: DE 8B         SBC A,8Bh
2F8C: 88            ADC A,B
2F8D: DE DE         SBC A,DEh
2F8F: 8B            ADC A,E
2F90: 88            ADC A,B
2F91: 88            ADC A,B
2F92: 8B            ADC A,E
2F93: 8B            ADC A,E
2F94: DE 88         SBC A,88h
2F96: 0C            INC C
2F97: DE 06         SBC A,06h
2F99: 8B            ADC A,E
2F9A: 88            ADC A,B
2F9B: DE 8B         SBC A,8Bh
2F9D: 88            ADC A,B
2F9E: DE DE         SBC A,DEh
2FA0: 8B            ADC A,E
2FA1: DE 8B         SBC A,8Bh
2FA3: DE 8B         SBC A,8Bh
2FA5: 88            ADC A,B
2FA6: DE DE         SBC A,DEh
2FA8: 8B            ADC A,E
2FA9: DE 8B         SBC A,8Bh
2FAB: DE 8B         SBC A,8Bh
2FAD: 88            ADC A,B
2FAE: 8B            ADC A,E
2FAF: DE 8B         SBC A,8Bh
2FB1: 88            ADC A,B
2FB2: 8B            ADC A,E
2FB3: 86            ADD A,(HL)
2FB4: 86            ADD A,(HL)
2FB5: DE 88         SBC A,88h
2FB7: 0C            INC C
2FB8: DE 06         SBC A,06h
2FBA: 8B            ADC A,E
2FBB: 88            ADC A,B
2FBC: DE 8B         SBC A,8Bh
2FBE: 88            ADC A,B
2FBF: DE DE         SBC A,DEh
2FC1: 8B            ADC A,E
2FC2: DE 8B         SBC A,8Bh
2FC4: DE 8B         SBC A,8Bh
2FC6: 88            ADC A,B
2FC7: DE 0C         SBC A,0Ch
2FC9: DE 06         SBC A,06h
2FCB: 88            ADC A,B
2FCC: 88            ADC A,B
2FCD: DE 8B         SBC A,8Bh
2FCF: 88            ADC A,B
2FD0: DE DE         SBC A,DEh
2FD2: 8B            ADC A,E
2FD3: 88            ADC A,B
2FD4: 88            ADC A,B
2FD5: 8B            ADC A,E
2FD6: 8B            ADC A,E
2FD7: DE 88         SBC A,88h
2FD9: DE 8B         SBC A,8Bh
2FDB: 8B            ADC A,E
2FDC: DE 88         SBC A,88h
2FDE: 8B            ADC A,E
2FDF: DE 8B         SBC A,8Bh
2FE1: DE 8B         SBC A,8Bh
2FE3: 88            ADC A,B
2FE4: DE 8B         SBC A,8Bh
2FE6: DE 88         SBC A,88h
2FE8: 8B            ADC A,E
2FE9: DE 8A         SBC A,8Ah
2FEB: DE 8A         SBC A,8Ah
2FED: 8A            ADC A,D
2FEE: DE 86         SBC A,86h
2FF0: 8A            ADC A,D
2FF1: 8A            ADC A,D
2FF2: 8A            ADC A,D
2FF3: DE 8A         SBC A,8Ah
2FF5: 8A            ADC A,D
2FF6: DE 86         SBC A,86h
2FF8: 8A            ADC A,D
2FF9: DE 8B         SBC A,8Bh
2FFB: 8B            ADC A,E
2FFC: DE 8B         SBC A,8Bh
2FFE: 88            ADC A,B
2FFF: DE 8B         SBC A,8Bh
3001: DE 8B         SBC A,8Bh
3003: DE 8B         SBC A,8Bh
3005: 8B            ADC A,E
3006: DE 88         SBC A,88h
3008: 8B            ADC A,E
3009: DE 8F         SBC A,8Fh
300B: DE 8F         SBC A,8Fh
300D: 8F            ADC A,A
300E: 8A            ADC A,D
300F: DE 8F         SBC A,8Fh
3011: DE 8F         SBC A,8Fh
3013: DE 8F         SBC A,8Fh
3015: 8F            ADC A,A
3016: 8F            ADC A,A
3017: 8A            ADC A,D
3018: 8F            ADC A,A
3019: 88            ADC A,B
301A: 88            ADC A,B
301B: DE 88         SBC A,88h
301D: 12            LD (DE),A
301E: 88            ADC A,B
301F: 06 88         LD B,88h
3021: 86            ADD A,(HL)
3022: 86            ADD A,(HL)
3023: DE 86         SBC A,86h
3025: 0C            INC C
3026: 84            ADD A,H
3027: 84            ADD A,H
3028: 12            LD (DE),A
3029: 83            ADD A,E
302A: 06 83         LD B,83h
302C: 0C            INC C
302D: DE C7         SBC A,C7h
302F: 88            ADC A,B

loc_3030:
3030: 06 88         LD B,88h
3032: 88            ADC A,B
3033: 86            ADD A,(HL)
3034: DE 86         SBC A,86h
3036: 86            ADD A,(HL)
3037: DE 86         SBC A,86h
3039: 94            SUB H
303A: 94            SUB H
303B: DE 94         SBC A,94h
303D: 0C            INC C
303E: 94            SUB H
303F: 94            SUB H
3040: 12            LD (DE),A
3041: 92            SUB D
3042: 06 92         LD B,92h
3044: 92            SUB D
3045: 92            SUB D
3046: 0C            INC C
3047: 90            SUB B
3048: 06 90         LD B,90h
304A: 90            SUB B
304B: 90            SUB B
304C: 90            SUB B
304D: DE 90         SBC A,90h
304F: 92            SUB D
3050: DE DE         SBC A,DEh
3052: 92            SUB D
3053: 92            SUB D
3054: 92            SUB D
3055: DE 92         SBC A,92h
3057: DE 92         SBC A,92h
3059: 94            SUB H
305A: 94            SUB H
305B: DE 94         SBC A,94h
305D: 12            LD (DE),A
305E: 94            SUB H
305F: 06 94         LD B,94h
3061: 92            SUB D
3062: 92            SUB D
3063: DE 92         SBC A,92h
3065: 0C            INC C
3066: 90            SUB B
3067: 90            SUB B
3068: 12            LD (DE),A
3069: 8F            ADC A,A
306A: 06 8F         LD B,8Fh
306C: 0C            INC C
306D: DE 88         SBC A,88h
306F: 06 88         LD B,88h
3071: 88            ADC A,B
3072: 86            ADD A,(HL)
3073: DE 86         SBC A,86h
3075: 86            ADD A,(HL)
3076: DE 86         SBC A,86h
3078: 94            SUB H
3079: 94            SUB H
307A: DE 94         SBC A,94h
307C: 0C            INC C
307D: 94            SUB H
307E: 94            SUB H
307F: 12            LD (DE),A
3080: 92            SUB D
3081: 06 92         LD B,92h
3083: 92            SUB D
3084: 92            SUB D
3085: 0C            INC C
3086: 90            SUB B
3087: 06 90         LD B,90h
3089: 90            SUB B
308A: 90            SUB B
308B: 90            SUB B
308C: DE 90         SBC A,90h
308E: 92            SUB D
308F: DE DE         SBC A,DEh
3091: 92            SUB D
3092: 92            SUB D
3093: 92            SUB D
3094: DE 92         SBC A,92h
3096: DE 92         SBC A,92h
3098: E0            RET PO
3099: B8            CP B
309A: FE DF         CP DFh
309C: E6 2E         AND 2Eh
309E: C8            RET Z
309F: 5A            LD E,D
30A0: DB B4         IN A,(B4h)
30A2: E8            RET PE
30A3: 64            LD H,H
30A4: 19            ADD HL,DE

loc_30A5:
30A5: DE 18         SBC A,18h
30A7: DE 0C         SBC A,0Ch
30A9: C5            PUSH BC
30AA: 3C            INC A
30AB: 83            ADD A,E

loc_30AC:
30AC: 12            LD (DE),A
30AD: 81            ADD A,C
30AE: 06 84         LD B,84h
30B0: 0C            INC C
30B1: DE 12         SBC A,12h
30B3: 83            ADD A,E
30B4: 06 C7         LD B,C7h
30B6: 8B            ADC A,E
30B7: 18 DE         JR loc_3097
30B9: DE DE         SBC A,DEh
30BB: 12            LD (DE),A
30BC: 8D            ADC A,L
30BD: 06 8F         LD B,8Fh
30BF: 60            LD H,B
30C0: DE 30         SBC A,30h
30C2: DE 06         SBC A,06h
30C4: 88            ADC A,B
30C5: 8B            ADC A,E
30C6: 0C            INC C
30C7: DE 12         SBC A,12h
30C9: 8D            ADC A,L
30CA: 06 8F         LD B,8Fh
30CC: 18 DE         JR loc_30AC
30CE: 0C            INC C

loc_30CF:
30CF: 8F            ADC A,A

loc_30D0:
30D0: 12            LD (DE),A
30D1: 8D            ADC A,L
30D2: 06 90         LD B,90h
30D4: 0C            INC C
30D5: DE 12         SBC A,12h
30D7: 8F            ADC A,A

sub_30D8:
30D8: 06 8B         LD B,8Bh

loc_30DA:
30DA: 18 DE         JR loc_30BA
30DC: DE DE         SBC A,DEh

loc_30DE:
30DE: 12            LD (DE),A
30DF: 8D            ADC A,L

loc_30E0:
30E0: 06 8F         LD B,8Fh

loc_30E2:
30E2: 60            LD H,B
30E3: DE 30         SBC A,30h
30E5: DE 06         SBC A,06h
30E7: 88            ADC A,B

loc_30E8:
30E8: 8B            ADC A,E
30E9: 0C            INC C
30EA: DE 12         SBC A,12h
30EC: 8D            ADC A,L
30ED: 06 8F         LD B,8Fh
30EF: 18 DE         JR loc_30CF

loc_30F1:
30F1: 0C            INC C
30F2: 8F            ADC A,A
30F3: DE 8D         SBC A,8Dh
30F5: 06 DE         LD B,DEh
30F7: 8B            ADC A,E
30F8: 0C            INC C
30F9: DE AA         SBC A,AAh

loc_30FB:
30FB: 80            ADD A,B
30FC: 8A            ADC A,D
30FD: 86            ADD A,(HL)
30FE: 18 DE         JR loc_30DE
3100: 30 DE         JR NC,loc_30E0

sub_3102:
3102: 18 DE         JR loc_30E2
3104: 0C            INC C
3105: 8F            ADC A,A
3106: DE 8D         SBC A,8Dh
3108: 06 DE         LD B,DEh
310A: 92            SUB D
310B: 0C            INC C
310C: DE B0         SBC A,B0h
310E: 80            ADD A,B
310F: 24            INC H
3110: 90            SUB B
3111: 0C            INC C
3112: AF            XOR A
3113: 80            ADD A,B
3114: 18 8F         JR loc_30A5
3116: 06 83         LD B,83h
3118: 86            ADD A,(HL)
3119: DE 88         SBC A,88h
311B: 18 DE         JR loc_30FB
311D: 8F            ADC A,A
311E: 8D            ADC A,L
311F: 90            SUB B
3120: 12            LD (DE),A
3121: 8F            ADC A,A
3122: 06 AB         LD B,ABh
3124: 80            ADD A,B
3125: 0C            INC C
3126: 8B            ADC A,E
3127: AD            XOR L
3128: 80            ADD A,B
3129: 18 8D         JR loc_30B8
312B: DE DE         SBC A,DEh
312D: 8F            ADC A,A
312E: 12            LD (DE),A
312F: 92            SUB D
3130: 06 92         LD B,92h
3132: 0C            INC C
3133: DE B0         SBC A,B0h
3135: 80            ADD A,B
3136: 24            INC H
3137: 90            SUB B
3138: 0C            INC C
3139: B2            OR D
313A: 80            ADD A,B
313B: 18 92         JR loc_30CF
313D: DE DE         SBC A,DEh
313F: 8F            ADC A,A
3140: 8D            ADC A,L
3141: 90            SUB B
3142: 12            LD (DE),A
3143: 8F            ADC A,A
3144: 06 AB         LD B,ABh
3146: 80            ADD A,B
3147: 0C            INC C
3148: 8B            ADC A,E
3149: AD            XOR L
314A: 80            ADD A,B
314B: 18 8D         JR loc_30DA
314D: DE DE         SBC A,DEh
314F: 8F            ADC A,A
3150: 12            LD (DE),A
3151: 92            SUB D
3152: 06 92         LD B,92h
3154: 0C            INC C
3155: DE B0         SBC A,B0h
3157: 80            ADD A,B
3158: 24            INC H
3159: 90            SUB B
315A: 0C            INC C
315B: B2            OR D
315C: 80            ADD A,B
315D: 18 92         JR loc_30F1
315F: DE E0         SBC A,E0h
3161: 45            LD B,L
3162: FF            RST 38h
3163: DF            RST 18h
3164: 1E 2E         LD E,2Eh
3166: C8            RET Z

loc_3167:
3167: 5A            LD E,D
3168: DB B4         IN A,(B4h)
316A: E8            RET PE
316B: 64            LD H,H
316C: 19            ADD HL,DE
316D: DE 18         SBC A,18h
316F: DE 0C         SBC A,0Ch
3171: C5            PUSH BC
3172: 30 8B         JR NC,loc_30FF
3174: 12            LD (DE),A
3175: 8A            ADC A,D
3176: 06 8D         LD B,8Dh
3178: 0C            INC C
3179: DE 12         SBC A,12h
317B: 8B            ADC A,E

loc_317C:
317C: 06 88         LD B,88h
317E: 18 DE         JR loc_315E
3180: DE DE         SBC A,DEh
3182: 12            LD (DE),A
3183: 8A            ADC A,D
3184: 06 8B         LD B,8Bh
3186: 60            LD H,B
3187: DE 30         SBC A,30h
3189: DE 06         SBC A,06h
318B: 83            ADD A,E
318C: 88            ADC A,B
318D: 0C            INC C
318E: DE 12         SBC A,12h
3190: 8A            ADC A,D

loc_3191:
3191: 06 8B         LD B,8Bh
3193: 18 DE         JR loc_3173
3195: 0C            INC C

loc_3196:
3196: 8B            ADC A,E
3197: 12            LD (DE),A
3198: 8A            ADC A,D
3199: 06 8D         LD B,8Dh
319B: 0C            INC C
319C: DE 12         SBC A,12h

loc_319E:
319E: 8B            ADC A,E
319F: 06 88         LD B,88h
31A1: 18 DE         JR loc_3181
31A3: DE DE         SBC A,DEh

loc_31A5:
31A5: 12            LD (DE),A
31A6: 8A            ADC A,D

loc_31A7:
31A7: 06 8B         LD B,8Bh

loc_31A9:
31A9: 60            LD H,B
31AA: DE 30         SBC A,30h
31AC: DE 06         SBC A,06h
31AE: 83            ADD A,E
31AF: 88            ADC A,B
31B0: 0C            INC C
31B1: DE 12         SBC A,12h

loc_31B3:
31B3: 8A            ADC A,D
31B4: 06 8B         LD B,8Bh
31B6: 18 DE         JR loc_3196
31B8: 0C            INC C
31B9: 8B            ADC A,E
31BA: DE 8A         SBC A,8Ah
31BC: 06 DE         LD B,DEh
31BE: 88            ADC A,B
31BF: 0C            INC C
31C0: DE A6         SBC A,A6h

loc_31C2:
31C2: 80            ADD A,B
31C3: 86            ADD A,(HL)
31C4: 83            ADD A,E
31C5: 18 DE         JR loc_31A5

loc_31C7:
31C7: 30 DE         JR NC,loc_31A7
31C9: 18 DE         JR loc_31A9
31CB: 0C            INC C
31CC: 8B            ADC A,E
31CD: DE 8A         SBC A,8Ah
31CF: 06 DE         LD B,DEh
31D1: 8F            ADC A,A
31D2: 0C            INC C

loc_31D3:
31D3: DE AD         SBC A,ADh
31D5: 80            ADD A,B
31D6: 24            INC H
31D7: 8D            ADC A,L
31D8: 0C            INC C
31D9: AA            XOR D
31DA: 80            ADD A,B
31DB: 18 8A         JR loc_3167
31DD: 06 8F         LD B,8Fh
31DF: 92            SUB D
31E0: DE 94         SBC A,94h
31E2: 18 DE         JR loc_31C2
31E4: 8B            ADC A,E
31E5: 8A            ADC A,D
31E6: 8B            ADC A,E
31E7: 12            LD (DE),A
31E8: 8B            ADC A,E
31E9: 06 A8         LD B,A8h
31EB: 80            ADD A,B
31EC: 0C            INC C
31ED: 88            ADC A,B
31EE: AA            XOR D
31EF: 80            ADD A,B
31F0: 18 8A         JR loc_317C
31F2: DE DE         SBC A,DEh
31F4: 8B            ADC A,E
31F5: 12            LD (DE),A
31F6: 8D            ADC A,L
31F7: 06 8D         LD B,8Dh
31F9: 0C            INC C

sub_31FA:
31FA: DE AB         SBC A,ABh

sub_31FC:
31FC: 80            ADD A,B
31FD: 24            INC H
31FE: 8B            ADC A,E
31FF: 0C            INC C
3200: AD            XOR L
3201: 80            ADD A,B
3202: 18 8D         JR loc_3191
3204: DE DE         SBC A,DEh
3206: 8B            ADC A,E
3207: 8A            ADC A,D
3208: 8B            ADC A,E
3209: 12            LD (DE),A
320A: 8B            ADC A,E
320B: 06 A8         LD B,A8h
320D: 80            ADD A,B
320E: 0C            INC C
320F: 88            ADC A,B
3210: AA            XOR D
3211: 80            ADD A,B
3212: 18 8A         JR loc_319E
3214: DE DE         SBC A,DEh
3216: 8B            ADC A,E
3217: 12            LD (DE),A
3218: 8D            ADC A,L
3219: 06 8D         LD B,8Dh
321B: 0C            INC C
321C: DE AB         SBC A,ABh
321E: 80            ADD A,B
321F: 24            INC H
3220: 8B            ADC A,E
3221: 0C            INC C

loc_3222:
3222: AD            XOR L
3223: 80            ADD A,B
3224: 18 8D         JR loc_31B3
3226: DE E0         SBC A,E0h
3228: 46            LD B,(HL)
3229: FF            RST 38h
322A: DF            RST 18h

loc_322B:
322B: DF            RST 18h
322C: 33            INC SP

loc_322D:
322D: C8            RET Z
322E: 50            LD D,B
322F: E8            RET PE
3230: 64            LD H,H
3231: DB C8         IN A,(C8h)
3233: 01 DE DF      LD BC,DFDEh
3236: D4 33 06      CALL NC,sub_0633
3239: C5            PUSH BC
323A: 18 8B         JR loc_31C7

loc_323C:
323C: 8B            ADC A,E
323D: DE 8B         SBC A,8Bh
323F: 60            LD H,B
3240: DE DE         SBC A,DEh
3242: 30 DE         JR NC,loc_3222
3244: 06 C5         LD B,C5h
3246: 18 8B         JR loc_31D3
3248: 8B            ADC A,E
3249: DE 8B         SBC A,8Bh
324B: 18 DE         JR loc_322B
324D: 30 DE         JR NC,loc_322D
324F: 06 8B         LD B,8Bh
3251: 8B            ADC A,E

loc_3252:
3252: 0C            INC C
3253: DE 06         SBC A,06h

loc_3255:
3255: 8B            ADC A,E
3256: 8B            ADC A,E

loc_3257:
3257: DE 8B         SBC A,8Bh
3259: 60            LD H,B

loc_325A:
325A: DE DE         SBC A,DEh

loc_325C:
325C: 30 DE         JR NC,loc_323C
325E: 06 8B         LD B,8Bh
3260: 8B            ADC A,E
3261: DE 8B         SBC A,8Bh
3263: 18 DE         JR loc_3243
3265: 30 DE         JR NC,loc_3245
3267: 06 8B         LD B,8Bh
3269: 8B            ADC A,E

loc_326A:
326A: DE 8B         SBC A,8Bh
326C: 8B            ADC A,E
326D: 8B            ADC A,E
326E: DE 8B         SBC A,8Bh
3270: 30 DE         JR NC,loc_3250
3272: 18 DE         JR loc_3252
3274: 8B            ADC A,E
3275: 30 DE         JR NC,loc_3255
3277: 18 DE         JR loc_3257
3279: 8B            ADC A,E
327A: 30 DE         JR NC,loc_325A
327C: 18 DE         JR loc_325C
327E: 8B            ADC A,E
327F: 30 DE         JR NC,loc_325F
3281: 06 DE         LD B,DEh
3283: 8B            ADC A,E
3284: 8B            ADC A,E
3285: 8B            ADC A,E
3286: 8B            ADC A,E
3287: 8B            ADC A,E
3288: DE 8B         SBC A,8Bh
328A: 18 DE         JR loc_326A
328C: 8B            ADC A,E
328D: DE 8B         SBC A,8Bh
328F: DE 8B         SBC A,8Bh
3291: DE 8B         SBC A,8Bh
3293: DE 8B         SBC A,8Bh
3295: DE 8B         SBC A,8Bh
3297: DE 8B         SBC A,8Bh
3299: DE 8B         SBC A,8Bh
329B: DE 8B         SBC A,8Bh
329D: DE 8B         SBC A,8Bh
329F: DE 8B         SBC A,8Bh
32A1: DE 8B         SBC A,8Bh
32A3: DE 8B         SBC A,8Bh
32A5: DE 8B         SBC A,8Bh
32A7: DE 8B         SBC A,8Bh
32A9: DE 06         SBC A,06h
32AB: 8B            ADC A,E
32AC: 8B            ADC A,E
32AD: DE 8B         SBC A,8Bh
32AF: E0            RET PO
32B0: 8F            ADC A,A
32B1: FF            RST 38h
32B2: DF            RST 18h
32B3: 07            RLCA
32B4: 34            INC (HL)
32B5: C8            RET Z
32B6: 6E            LD L,(HL)
32B7: E8            RET PE
32B8: 64            LD H,H
32B9: 0D            DEC C
32BA: DE DF         SBC A,DFh
32BC: D2 33 C8      JP NC,C833h
32BF: 64            LD H,H
32C0: 06 DE         LD B,DEh
32C2: C5            PUSH BC
32C3: 24            INC H
32C4: AB            XOR E
32C5: 80            ADD A,B
32C6: 0C            INC C
32C7: C5            PUSH BC
32C8: 24            INC H
32C9: 8B            ADC A,E
32CA: DF            RST 18h
32CB: EF            RST 28h
32CC: 33            INC SP
32CD: C8            RET Z
32CE: 6E            LD L,(HL)
32CF: 97            SUB A
32D0: C8            RET Z
32D1: 6E            LD L,(HL)
32D2: DF            RST 18h
32D3: 3F            CCF
32D4: 34            INC (HL)
32D5: 8B            ADC A,E
32D6: DF            RST 18h
32D7: E3            EX (SP),HL
32D8: 33            INC SP
32D9: 97            SUB A
32DA: 97            SUB A
32DB: 97            SUB A
32DC: DF            RST 18h
32DD: 35            DEC (HL)
32DE: 34            INC (HL)
32DF: 8B            ADC A,E
32E0: DF            RST 18h
32E1: D9            EXX
32E2: 33            INC SP
32E3: 06 97         LD B,97h
32E5: DF            RST 18h
32E6: A8            XOR B
32E7: 33            INC SP
32E8: C8            RET Z
32E9: 64            LD H,H
32EA: AB            XOR E
32EB: 80            ADD A,B
32EC: 0C            INC C
32ED: 8B            ADC A,E
32EE: DF            RST 18h
32EF: CB 33         SLL E
32F1: C8            RET Z
32F2: 6E            LD L,(HL)
32F3: 97            SUB A
32F4: DF            RST 18h
32F5: 1D            DEC E
32F6: 34            INC (HL)
32F7: 8B            ADC A,E
32F8: DF            RST 18h
32F9: C1            POP BC
32FA: 33            INC SP
32FB: 97            SUB A
32FC: 97            SUB A
32FD: 97            SUB A
32FE: DF            RST 18h
32FF: 13            INC DE
3300: 34            INC (HL)
3301: 8B            ADC A,E
3302: DF            RST 18h
3303: B7            OR A
3304: 33            INC SP
3305: 06 97         LD B,97h
3307: DF            RST 18h
3308: 86            ADD A,(HL)
3309: 33            INC SP
330A: C8            RET Z
330B: 64            LD H,H
330C: AB            XOR E
330D: 80            ADD A,B
330E: E0            RET PO
330F: B7            OR A
3310: FF            RST 38h
3311: DF            RST 18h
3312: 50            LD D,B
3313: 33            INC SP
3314: C8            RET Z
3315: 4B            LD C,E
3316: E8            RET PE
3317: 64            LD H,H
3318: 01 DE 06      LD BC,06DEh
331B: C5            PUSH BC
331C: 18 86         JR loc_32A4
331E: 86            ADD A,(HL)
331F: DE A8         SBC A,A8h
3321: 80            ADD A,B
3322: 0C            INC C
3323: C5            PUSH BC
3324: 18 88         JR loc_32AE
3326: 88            ADC A,B
3327: 8B            ADC A,E
3328: 8B            ADC A,E
3329: 8D            ADC A,L
332A: 8D            ADC A,L
332B: 06 90         LD B,90h
332D: 90            SUB B
332E: DE AF         SBC A,AFh
3330: 80            ADD A,B
3331: 0C            INC C
3332: 8F            ADC A,A
3333: 8B            ADC A,E
3334: DE 8B         SBC A,8Bh
3336: 06 88         LD B,88h
3338: 8B            ADC A,E
3339: 0C            INC C
333A: DE 06         SBC A,06h
333C: 86            ADD A,(HL)
333D: 86            ADD A,(HL)
333E: DE A8         SBC A,A8h
3340: 80            ADD A,B
3341: 0C            INC C
3342: 88            ADC A,B
3343: 88            ADC A,B
3344: 8B            ADC A,E
3345: 8B            ADC A,E
3346: 8D            ADC A,L
3347: 8D            ADC A,L
3348: 06 90         LD B,90h
334A: 90            SUB B
334B: DE AF         SBC A,AFh
334D: 80            ADD A,B
334E: 0C            INC C
334F: 8F            ADC A,A
3350: 8B            ADC A,E
3351: DE 8B         SBC A,8Bh
3353: 06 88         LD B,88h
3355: 8B            ADC A,E
3356: 0C            INC C
3357: DE 06         SBC A,06h
3359: 86            ADD A,(HL)
335A: 86            ADD A,(HL)
335B: DE A8         SBC A,A8h
335D: 80            ADD A,B
335E: 0C            INC C
335F: 88            ADC A,B
3360: 88            ADC A,B
3361: 8B            ADC A,E
3362: 8B            ADC A,E
3363: 8D            ADC A,L
3364: 8D            ADC A,L
3365: 06 90         LD B,90h
3367: 90            SUB B
3368: DE AF         SBC A,AFh
336A: 80            ADD A,B
336B: 0C            INC C
336C: 8F            ADC A,A
336D: 8B            ADC A,E
336E: DE 8B         SBC A,8Bh
3370: 06 88         LD B,88h
3372: 8B            ADC A,E
3373: 0C            INC C
3374: DE 06         SBC A,06h
3376: 86            ADD A,(HL)
3377: 86            ADD A,(HL)
3378: DE A8         SBC A,A8h
337A: 80            ADD A,B
337B: 0C            INC C
337C: 88            ADC A,B
337D: 88            ADC A,B
337E: 8B            ADC A,E
337F: 8B            ADC A,E
3380: 8D            ADC A,L

loc_3381:
3381: 8D            ADC A,L

loc_3382:
3382: 06 90         LD B,90h
3384: 90            SUB B
3385: DE AF         SBC A,AFh
3387: 80            ADD A,B
3388: 0C            INC C
3389: 8F            ADC A,A

loc_338A:
338A: 8B            ADC A,E
338B: DE 8B         SBC A,8Bh
338D: 06 88         LD B,88h
338F: 8B            ADC A,E

loc_3390:
3390: 0C            INC C
3391: DE 06         SBC A,06h

loc_3393:
3393: 86            ADD A,(HL)
3394: 86            ADD A,(HL)
3395: DE A4         SBC A,A4h
3397: 80            ADD A,B
3398: 0C            INC C
3399: 84            ADD A,H
339A: 06 84         LD B,84h
339C: 84            ADD A,H
339D: DE A3         SBC A,A3h
339F: 80            ADD A,B
33A0: 83            ADD A,E
33A1: 84            ADD A,H
33A2: 18 DE         JR loc_3382
33A4: 0C            INC C

loc_33A5:
33A5: DE 06         SBC A,06h
33A7: 8F            ADC A,A

loc_33A8:
33A8: 90            SUB B
33A9: 0C            INC C
33AA: 83            ADD A,E
33AB: 06 83         LD B,83h
33AD: 83            ADD A,E
33AE: DE A6         SBC A,A6h
33B0: 80            ADD A,B
33B1: 86            ADD A,(HL)
33B2: 83            ADD A,E
33B3: 18 DE         JR loc_3393
33B5: 06 8F         LD B,8Fh
33B7: 8E            ADC A,(HL)
33B8: DE AD         SBC A,ADh

loc_33BA:
33BA: 80            ADD A,B
33BB: 0C            INC C
33BC: 8D            ADC A,L
33BD: 06 8D         LD B,8Dh
33BF: 8D            ADC A,L
33C0: DE AB         SBC A,ABh
33C2: 80            ADD A,B

loc_33C3:
33C3: 8B            ADC A,E
33C4: 8D            ADC A,L
33C5: 18 DE         JR loc_33A5
33C7: 0C            INC C
33C8: DE 06         SBC A,06h
33CA: C6 C6         ADD A,C6h
33CC: 81            ADD A,C
33CD: 83            ADD A,E
33CE: 0C            INC C
33CF: C7            RST 00h
33D0: C7            RST 00h
33D1: 83            ADD A,E
33D2: 06 83         LD B,83h
33D4: 83            ADD A,E
33D5: DE A3         SBC A,A3h
33D7: 80            ADD A,B
33D8: 83            ADD A,E
33D9: 83            ADD A,E
33DA: 18 DE         JR loc_33BA
33DC: 0C            INC C
33DD: DE 06         SBC A,06h
33DF: 8D            ADC A,L
33E0: 8F            ADC A,A
33E1: 88            ADC A,B
33E2: 88            ADC A,B
33E3: DE 88         SBC A,88h
33E5: 18 88         JR loc_336F
33E7: 86            ADD A,(HL)
33E8: 06 84         LD B,84h
33EA: 84            ADD A,H
33EB: DE 84         SBC A,84h
33ED: 12            LD (DE),A
33EE: 8F            ADC A,A
33EF: 06 8F         LD B,8Fh
33F1: 0C            INC C
33F2: DE A8         SBC A,A8h
33F4: 80            ADD A,B
33F5: 88            ADC A,B
33F6: 06 94         LD B,94h
33F8: 94            SUB H
33F9: 18 86         JR loc_3381
33FB: 06 88         LD B,88h
33FD: 88            ADC A,B
33FE: DE 88         SBC A,88h
3400: 18 88         JR loc_338A
3402: 12            LD (DE),A
3403: 86            ADD A,(HL)
3404: 06 86         LD B,86h
3406: 0C            INC C
3407: DE A4         SBC A,A4h
3409: 80            ADD A,B
340A: 18 84         JR loc_3390
340C: 06 84         LD B,84h
340E: 84            ADD A,H
340F: 0C            INC C
3410: A6            AND (HL)
3411: 80            ADD A,B
3412: 86            ADD A,(HL)
3413: 06 86         LD B,86h
3415: 86            ADD A,(HL)
3416: 86            ADD A,(HL)
3417: 86            ADD A,(HL)
3418: DE 86         SBC A,86h
341A: 88            ADC A,B
341B: 88            ADC A,B
341C: DE 88         SBC A,88h
341E: 18 88         JR loc_33A8
3420: 86            ADD A,(HL)
3421: 06 84         LD B,84h
3423: 84            ADD A,H
3424: DE 84         SBC A,84h
3426: 12            LD (DE),A
3427: 8F            ADC A,A
3428: 06 8F         LD B,8Fh
342A: 0C            INC C
342B: DE A8         SBC A,A8h
342D: 80            ADD A,B
342E: 88            ADC A,B
342F: 06 94         LD B,94h
3431: 94            SUB H
3432: 18 86         JR loc_33BA
3434: 06 88         LD B,88h
3436: 88            ADC A,B
3437: DE 88         SBC A,88h
3439: 18 88         JR loc_33C3
343B: 12            LD (DE),A
343C: 86            ADD A,(HL)
343D: 06 86         LD B,86h
343F: 0C            INC C
3440: DE A4         SBC A,A4h
3442: 80            ADD A,B
3443: 18 84         JR loc_33C9
3445: 06 84         LD B,84h
3447: 84            ADD A,H
3448: 0C            INC C

loc_3449:
3449: A6            AND (HL)
344A: 80            ADD A,B
344B: 86            ADD A,(HL)
344C: 06 86         LD B,86h
344E: 86            ADD A,(HL)
344F: 86            ADD A,(HL)
3450: 86            ADD A,(HL)
3451: DE 86         SBC A,86h
3453: E0            RET PO
3454: CE FE         ADC A,FEh
3456: 00            NOP
3457: FF            RST 38h
3458: 1F            RRA
3459: 00            NOP
345A: 01 FF 61      LD BC,61FFh
345D: 00            NOP
345E: 02            LD (BC),A
345F: FF            RST 38h
3460: F8            RET M
3461: 00            NOP
3462: 03            INC BC
3463: FF            RST 38h
3464: 8F            ADC A,A
3465: 01 04 FF      LD BC,FF04h
3468: F5            PUSH AF
3469: 01 05 FF      LD BC,FF05h
346C: 49            LD C,C
346D: 02            LD (BC),A
346E: 06 FF         LD B,FFh
3470: 9C            SBC A,H
3471: 02            LD (BC),A
3472: 07            RLCA
3473: FF            RST 38h

sub_3474:
3474: 07            RLCA
3475: 03            INC BC
3476: FF            RST 38h
3477: D0            RET NC
3478: 84            ADD A,H
3479: DF            RST 18h
347A: 64            LD H,H
347B: 31 C8 5F      LD SP,5FC8h
347E: DB A0         IN A,(A0h)
3480: E8            RET PE
3481: 6E            LD L,(HL)
3482: 60            LD H,B
3483: DE DE         SBC A,DEh
3485: DE DE         SBC A,DEh
3487: DE DE         SBC A,DEh
3489: DE DE         SBC A,DEh
348B: 0C            INC C
348C: C5            PUSH BC
348D: 3C            INC A
348E: 83            ADD A,E
348F: C7            RST 00h
3490: 88            ADC A,B
3491: 8C            ADC A,H
3492: AF            XOR A
3493: 80            ADD A,B
3494: 8F            ADC A,A
3495: AD            XOR L
3496: 80            ADD A,B
3497: 8D            ADC A,L
3498: 8C            ADC A,H
3499: 8F            ADC A,A
349A: 88            ADC A,B
349B: 8F            ADC A,A
349C: B2            OR D
349D: 80            ADD A,B
349E: 92            SUB D
349F: B1            OR C
34A0: 80            ADD A,B
34A1: 91            SUB C
34A2: 92            SUB D
34A3: 8F            ADC A,A
34A4: 88            ADC A,B
34A5: 8C            ADC A,H
34A6: AF            XOR A
34A7: 80            ADD A,B
34A8: 8F            ADC A,A
34A9: AD            XOR L
34AA: 80            ADD A,B
34AB: 8D            ADC A,L
34AC: 8C            ADC A,H
34AD: 06 86         LD B,86h
34AF: 88            ADC A,B
34B0: 0C            INC C
34B1: 8A            ADC A,D
34B2: 06 8C         LD B,8Ch
34B4: 8D            ADC A,L
34B5: 0C            INC C
34B6: AF            XOR A
34B7: 80            ADD A,B
34B8: 30 8F         JR NC,loc_3449
34BA: E0            RET PO
34BB: D0            RET NC
34BC: FF            RST 38h
34BD: DF            RST 18h
34BE: 00            NOP
34BF: 2D            DEC L
34C0: C8            RET Z
34C1: 62            LD H,D
34C2: DB A0         IN A,(A0h)
34C4: E8            RET PE
34C5: 78            LD A,B
34C6: 0C            INC C
34C7: C5            PUSH BC
34C8: 18 88         JR loc_3452
34CA: 88            ADC A,B
34CB: 88            ADC A,B
34CC: 83            ADD A,E
34CD: 86            ADD A,(HL)
34CE: 86            ADD A,(HL)
34CF: 83            ADD A,E
34D0: 8A            ADC A,D
34D1: 88            ADC A,B
34D2: 88            ADC A,B
34D3: 88            ADC A,B
34D4: 83            ADD A,E
34D5: 86            ADD A,(HL)
34D6: 83            ADD A,E
34D7: 8A            ADC A,D
34D8: 86            ADD A,(HL)
34D9: 88            ADC A,B
34DA: 88            ADC A,B
34DB: 88            ADC A,B
34DC: 83            ADD A,E
34DD: 86            ADD A,(HL)
34DE: 86            ADD A,(HL)
34DF: 83            ADD A,E
34E0: 8A            ADC A,D
34E1: 83            ADD A,E
34E2: 83            ADD A,E
34E3: 86            ADD A,(HL)
34E4: 86            ADD A,(HL)
34E5: 06 86         LD B,86h
34E7: 88            ADC A,B
34E8: 0C            INC C
34E9: 88            ADC A,B
34EA: 88            ADC A,B
34EB: 88            ADC A,B
34EC: 88            ADC A,B

loc_34ED:
34ED: 88            ADC A,B
34EE: 88            ADC A,B
34EF: 83            ADD A,E
34F0: 86            ADD A,(HL)
34F1: 86            ADD A,(HL)
34F2: 83            ADD A,E
34F3: 8A            ADC A,D
34F4: 88            ADC A,B
34F5: 88            ADC A,B
34F6: 88            ADC A,B
34F7: 83            ADD A,E
34F8: 86            ADD A,(HL)
34F9: 83            ADD A,E
34FA: 8A            ADC A,D
34FB: 86            ADD A,(HL)
34FC: 88            ADC A,B
34FD: 88            ADC A,B
34FE: 88            ADC A,B
34FF: 83            ADD A,E
3500: 86            ADD A,(HL)
3501: 86            ADD A,(HL)
3502: 83            ADD A,E
3503: 8A            ADC A,D
3504: 83            ADD A,E
3505: 83            ADD A,E
3506: 86            ADD A,(HL)
3507: 86            ADD A,(HL)
3508: 06 86         LD B,86h
350A: 88            ADC A,B
350B: 0C            INC C
350C: 88            ADC A,B
350D: 88            ADC A,B
350E: 88            ADC A,B
350F: 88            ADC A,B
3510: 88            ADC A,B
3511: 88            ADC A,B
3512: 83            ADD A,E
3513: 86            ADD A,(HL)
3514: 86            ADD A,(HL)
3515: 83            ADD A,E
3516: 8A            ADC A,D
3517: 88            ADC A,B
3518: 88            ADC A,B
3519: 88            ADC A,B
351A: 83            ADD A,E
351B: 86            ADD A,(HL)
351C: 83            ADD A,E
351D: 8A            ADC A,D
351E: 86            ADD A,(HL)
351F: 88            ADC A,B
3520: 88            ADC A,B
3521: 88            ADC A,B
3522: 83            ADD A,E
3523: 86            ADD A,(HL)
3524: 86            ADD A,(HL)
3525: 83            ADD A,E
3526: 8A            ADC A,D
3527: 83            ADD A,E
3528: 83            ADD A,E
3529: 86            ADD A,(HL)
352A: 86            ADD A,(HL)
352B: 06 86         LD B,86h
352D: 88            ADC A,B
352E: 0C            INC C
352F: 88            ADC A,B
3530: 88            ADC A,B
3531: 88            ADC A,B
3532: 88            ADC A,B

sub_3533:
3533: 88            ADC A,B
3534: 88            ADC A,B
3535: 83            ADD A,E
3536: 86            ADD A,(HL)
3537: 86            ADD A,(HL)
3538: 83            ADD A,E
3539: 8A            ADC A,D
353A: 88            ADC A,B
353B: 88            ADC A,B
353C: 88            ADC A,B
353D: 83            ADD A,E
353E: 86            ADD A,(HL)
353F: 83            ADD A,E
3540: 8A            ADC A,D
3541: 86            ADD A,(HL)
3542: 88            ADC A,B
3543: 88            ADC A,B
3544: 88            ADC A,B
3545: 83            ADD A,E
3546: 86            ADD A,(HL)
3547: 86            ADD A,(HL)
3548: 83            ADD A,E
3549: 8A            ADC A,D
354A: 83            ADD A,E
354B: 83            ADD A,E
354C: 86            ADD A,(HL)
354D: 86            ADD A,(HL)
354E: 06 86         LD B,86h
3550: 88            ADC A,B
3551: 0C            INC C
3552: 88            ADC A,B
3553: 88            ADC A,B
3554: 88            ADC A,B
3555: E0            RET PO
3556: 70            LD (HL),B
3557: FF            RST 38h
3558: DF            RST 18h
3559: BD            CP L
355A: 2C            INC L
355B: C8            RET Z
355C: 5F            LD E,A
355D: DB A0         IN A,(A0h)
355F: E8            RET PE
3560: 6E            LD L,(HL)
3561: 0C            INC C
3562: C5            PUSH BC
3563: 18 88         JR loc_34ED
3565: 88            ADC A,B
3566: 88            ADC A,B
3567: 83            ADD A,E
3568: 86            ADD A,(HL)
3569: 86            ADD A,(HL)
356A: 83            ADD A,E
356B: 8A            ADC A,D
356C: 88            ADC A,B
356D: 88            ADC A,B
356E: 88            ADC A,B
356F: 83            ADD A,E
3570: 86            ADD A,(HL)
3571: 83            ADD A,E
3572: 8A            ADC A,D
3573: 86            ADD A,(HL)
3574: 88            ADC A,B
3575: 88            ADC A,B
3576: 88            ADC A,B
3577: 83            ADD A,E
3578: 86            ADD A,(HL)
3579: 86            ADD A,(HL)
357A: 83            ADD A,E
357B: 8A            ADC A,D

sub_357C:
357C: 83            ADD A,E
357D: 83            ADD A,E
357E: 86            ADD A,(HL)
357F: 86            ADD A,(HL)
3580: 06 86         LD B,86h
3582: 88            ADC A,B
3583: 0C            INC C
3584: 88            ADC A,B
3585: 88            ADC A,B
3586: 88            ADC A,B
3587: 88            ADC A,B
3588: 88            ADC A,B
3589: 88            ADC A,B
358A: 83            ADD A,E
358B: 86            ADD A,(HL)
358C: 86            ADD A,(HL)
358D: 83            ADD A,E
358E: 8A            ADC A,D
358F: 88            ADC A,B
3590: 88            ADC A,B
3591: 88            ADC A,B
3592: 83            ADD A,E
3593: 86            ADD A,(HL)
3594: 83            ADD A,E
3595: 8A            ADC A,D
3596: 86            ADD A,(HL)

loc_3597:
3597: 88            ADC A,B
3598: 88            ADC A,B
3599: 88            ADC A,B
359A: 83            ADD A,E
359B: 86            ADD A,(HL)
359C: 86            ADD A,(HL)
359D: 83            ADD A,E
359E: 8A            ADC A,D
359F: 83            ADD A,E
35A0: 83            ADD A,E
35A1: 86            ADD A,(HL)

loc_35A2:
35A2: 86            ADD A,(HL)
35A3: 06 86         LD B,86h
35A5: 88            ADC A,B
35A6: 0C            INC C
35A7: 88            ADC A,B
35A8: 88            ADC A,B
35A9: 88            ADC A,B
35AA: 88            ADC A,B
35AB: 88            ADC A,B
35AC: 88            ADC A,B
35AD: 83            ADD A,E
35AE: 86            ADD A,(HL)
35AF: 86            ADD A,(HL)
35B0: 83            ADD A,E
35B1: 8A            ADC A,D
35B2: 88            ADC A,B
35B3: 88            ADC A,B
35B4: 88            ADC A,B
35B5: 83            ADD A,E
35B6: 86            ADD A,(HL)
35B7: 83            ADD A,E
35B8: 8A            ADC A,D
35B9: 86            ADD A,(HL)
35BA: 88            ADC A,B
35BB: 88            ADC A,B
35BC: 88            ADC A,B
35BD: 83            ADD A,E
35BE: 86            ADD A,(HL)
35BF: 86            ADD A,(HL)

loc_35C0:
35C0: 83            ADD A,E
35C1: 8A            ADC A,D

loc_35C2:
35C2: 83            ADD A,E
35C3: 83            ADD A,E
35C4: 86            ADD A,(HL)
35C5: 86            ADD A,(HL)
35C6: 06 86         LD B,86h
35C8: 88            ADC A,B
35C9: 0C            INC C
35CA: 88            ADC A,B
35CB: 88            ADC A,B

loc_35CC:
35CC: 88            ADC A,B

loc_35CD:
35CD: 88            ADC A,B
35CE: 88            ADC A,B
35CF: 88            ADC A,B
35D0: 83            ADD A,E
35D1: 86            ADD A,(HL)
35D2: 86            ADD A,(HL)
35D3: 83            ADD A,E
35D4: 8A            ADC A,D
35D5: 88            ADC A,B
35D6: 88            ADC A,B
35D7: 88            ADC A,B

loc_35D8:
35D8: 83            ADD A,E
35D9: 86            ADD A,(HL)
35DA: 83            ADD A,E
35DB: 8A            ADC A,D
35DC: 86            ADD A,(HL)
35DD: 88            ADC A,B

loc_35DE:
35DE: 88            ADC A,B
35DF: 88            ADC A,B
35E0: 83            ADD A,E
35E1: 86            ADD A,(HL)
35E2: 86            ADD A,(HL)
35E3: 83            ADD A,E
35E4: 8A            ADC A,D
35E5: 83            ADD A,E
35E6: 83            ADD A,E
35E7: 86            ADD A,(HL)
35E8: 86            ADD A,(HL)

loc_35E9:
35E9: 06 86         LD B,86h

sub_35EB:
35EB: 88            ADC A,B
35EC: 0C            INC C
35ED: 88            ADC A,B
35EE: 88            ADC A,B
35EF: 88            ADC A,B
35F0: E0            RET PO

loc_35F1:
35F1: 70            LD (HL),B
35F2: FF            RST 38h
35F3: DF            RST 18h
35F4: E6 29         AND 29h
35F6: C8            RET Z
35F7: 5A            LD E,D
35F8: DB C8         IN A,(C8h)
35FA: E8            RET PE
35FB: 6E            LD L,(HL)
35FC: 60            LD H,B
35FD: DE DE         SBC A,DEh
35FF: DE DE         SBC A,DEh
3601: DE DE         SBC A,DEh
3603: DE DE         SBC A,DEh
3605: 18 C5         JR loc_35CC
3607: 3C            INC A

loc_3608:
3608: 83            ADD A,E
3609: 0C            INC C
360A: 83            ADD A,E
360B: A3            AND E
360C: 80            ADD A,B
360D: 83            ADD A,E
360E: A1            AND C

loc_360F:
360F: 80            ADD A,B

loc_3610:
3610: 81            ADD A,C
3611: 80            ADD A,B
3612: 18 83         JR loc_3597

loc_3614:
3614: 0C            INC C
3615: 83            ADD A,E
3616: A6            AND (HL)
3617: 80            ADD A,B
3618: 86            ADD A,(HL)
3619: A5            AND L
361A: 80            ADD A,B
361B: 85            ADD A,L
361C: 86            ADD A,(HL)
361D: 18 83         JR loc_35A2
361F: 0C            INC C

loc_3620:
3620: 83            ADD A,E
3621: A3            AND E
3622: 80            ADD A,B
3623: 83            ADD A,E

loc_3624:
3624: A1            AND C
3625: 80            ADD A,B
3626: 81            ADD A,C
3627: 80            ADD A,B

loc_3628:
3628: 18 C7         JR loc_35F1
362A: 8A            ADC A,D
362B: 0C            INC C
362C: 8D            ADC A,L
362D: AF            XOR A
362E: 80            ADD A,B

loc_362F:
362F: 30 8F         JR NC,loc_35C0
3631: 18 8F         JR loc_35C2

loc_3633:
3633: 0C            INC C

loc_3634:
3634: 8F            ADC A,A
3635: AF            XOR A

loc_3636:
3636: 80            ADD A,B
3637: 8F            ADC A,A
3638: AD            XOR L
3639: 80            ADD A,B
363A: 8D            ADC A,L
363B: 8C            ADC A,H
363C: 18 8F         JR loc_35CD

loc_363E:
363E: 0C            INC C
363F: 8F            ADC A,A
3640: B2            OR D
3641: 80            ADD A,B
3642: 92            SUB D
3643: B1            OR C
3644: 80            ADD A,B
3645: 91            SUB C
3646: 92            SUB D
3647: 18 8F         JR loc_35D8
3649: 0C            INC C
364A: 8F            ADC A,A
364B: AF            XOR A
364C: 80            ADD A,B
364D: 8F            ADC A,A
364E: AD            XOR L
364F: 80            ADD A,B
3650: 8D            ADC A,L
3651: 8C            ADC A,H
3652: 18 8A         JR loc_35DE
3654: 0C            INC C
3655: 8D            ADC A,L
3656: AF            XOR A

loc_3657:
3657: 80            ADD A,B
3658: 30 8F         JR NC,loc_35E9
365A: E0            RET PO

loc_365B:
365B: AA            XOR D
365C: FF            RST 38h
365D: DF            RST 18h
365E: 7C            LD A,H
365F: 29            ADD HL,HL
3660: C8            RET Z
3661: 5A            LD E,D
3662: DB C8         IN A,(C8h)
3664: E8            RET PE
3665: 6E            LD L,(HL)

loc_3666:
3666: 60            LD H,B

loc_3667:
3667: DE DE         SBC A,DEh
3669: DE DE         SBC A,DEh
366B: DE DE         SBC A,DEh
366D: DE DE         SBC A,DEh
366F: 18 C5         JR loc_3636

loc_3671:
3671: 3C            INC A
3672: 80            ADD A,B

loc_3673:
3673: 0C            INC C
3674: 80            ADD A,B
3675: C7            RST 00h
3676: AA            XOR D

loc_3677:
3677: 80            ADD A,B
3678: 30 8A         JR NC,loc_3604
367A: 18 8C         JR loc_3608
367C: 0C            INC C
367D: 8C            ADC A,H
367E: AD            XOR L
367F: 80            ADD A,B
3680: 30 8D         JR NC,loc_360F
3682: 18 8C         JR loc_3610
3684: 0C            INC C
3685: 8C            ADC A,H

loc_3686:
3686: AA            XOR D

loc_3687:
3687: 80            ADD A,B
3688: 30 8A         JR NC,loc_3614
368A: 18 87         JR loc_3613
368C: 0C            INC C
368D: 8A            ADC A,D

loc_368E:
368E: AC            XOR H
368F: 80            ADD A,B
3690: 30 8C         JR NC,loc_361E
3692: 18 8C         JR loc_3620
3694: 0C            INC C
3695: 8C            ADC A,H
3696: AA            XOR D
3697: 80            ADD A,B
3698: 30 8A         JR NC,loc_3624
369A: 18 8C         JR loc_3628
369C: 0C            INC C
369D: 8C            ADC A,H
369E: AD            XOR L
369F: 80            ADD A,B
36A0: 30 8D         JR NC,loc_362F
36A2: 18 8C         JR loc_3630
36A4: 0C            INC C
36A5: 8C            ADC A,H
36A6: AA            XOR D
36A7: 80            ADD A,B
36A8: 30 8A         JR NC,loc_3634
36AA: 18 87         JR loc_3633
36AC: 0C            INC C
36AD: 8A            ADC A,D
36AE: AC            XOR H
36AF: 80            ADD A,B
36B0: 30 8C         JR NC,loc_363E
36B2: E0            RET PO
36B3: BC            CP H
36B4: FF            RST 38h
36B5: DF            RST 18h
36B6: 24            INC H
36B7: 29            ADD HL,HL
36B8: C8            RET Z
36B9: 5A            LD E,D
36BA: DB C8         IN A,(C8h)
36BC: E8            RET PE
36BD: 6E            LD L,(HL)
36BE: 60            LD H,B
36BF: DE DE         SBC A,DEh
36C1: DE DE         SBC A,DEh
36C3: DE DE         SBC A,DEh
36C5: DE DE         SBC A,DEh
36C7: 18 C5         JR loc_368E
36C9: 30 88         JR NC,loc_3653
36CB: 0C            INC C
36CC: 88            ADC A,B
36CD: A6            AND (HL)
36CE: 80            ADD A,B
36CF: 30 86         JR NC,loc_3657
36D1: 18 88         JR loc_365B
36D3: 0C            INC C
36D4: 88            ADC A,B
36D5: AA            XOR D
36D6: 80            ADD A,B
36D7: 30 8A         JR NC,loc_3663
36D9: 18 88         JR loc_3663
36DB: 0C            INC C
36DC: 88            ADC A,B
36DD: A6            AND (HL)
36DE: 80            ADD A,B

loc_36DF:
36DF: 30 86         JR NC,loc_3667
36E1: 18 83         JR loc_3666
36E3: 0C            INC C
36E4: 86            ADD A,(HL)
36E5: A8            XOR B
36E6: 80            ADD A,B
36E7: 30 88         JR NC,loc_3671
36E9: 18 88         JR loc_3673
36EB: 0C            INC C
36EC: 88            ADC A,B
36ED: A6            AND (HL)
36EE: 80            ADD A,B
36EF: 30 86         JR NC,loc_3677
36F1: 18 88         JR loc_367B
36F3: 0C            INC C
36F4: 88            ADC A,B
36F5: AA            XOR D
36F6: 80            ADD A,B
36F7: 30 8A         JR NC,loc_3683
36F9: 18 88         JR loc_3683
36FB: 0C            INC C
36FC: 88            ADC A,B
36FD: A6            AND (HL)
36FE: 80            ADD A,B
36FF: 30 86         JR NC,loc_3687
3701: 18 83         JR loc_3686
3703: 0C            INC C
3704: 86            ADD A,(HL)
3705: A8            XOR B
3706: 80            ADD A,B
3707: 30 88         JR NC,loc_3691
3709: E0            RET PO
370A: BD            CP L
370B: FF            RST 38h
370C: DF            RST 18h
370D: AD            XOR L
370E: 2F            CPL
370F: C8            RET Z
3710: 6E            LD L,(HL)

loc_3711:
3711: E8            RET PE
3712: 64            LD H,H
3713: DF            RST 18h

loc_3714:
3714: 7A            LD A,D
3715: 2F            CPL
3716: C8            RET Z
3717: 64            LD H,H
3718: 18 C5         JR loc_36DF
371A: 24            INC H
371B: 8B            ADC A,E
371C: C8            RET Z
371D: 6E            LD L,(HL)
371E: DF            RST 18h
371F: F3            DI
3720: 2F            CPL
3721: 0C            INC C
3722: 8B            ADC A,E
3723: DF            RST 18h
3724: 96            SUB (HL)
3725: 2F            CPL
3726: 97            SUB A
3727: 97            SUB A
3728: 97            SUB A
3729: DF            RST 18h
372A: E0            RET PO
372B: 2E C8         LD L,C8h
372D: 5F            LD E,A
372E: 8B            ADC A,E
372F: DF            RST 18h
3730: 8A            ADC A,D
3731: 2F            CPL
3732: C8            RET Z
3733: 6E            LD L,(HL)
3734: 97            SUB A
3735: 97            SUB A
3736: 97            SUB A
3737: DF            RST 18h
3738: DA 2F 8B      JP C,8B2Fh
373B: DF            RST 18h
373C: 7E            LD A,(HL)
373D: 2F            CPL
373E: 97            SUB A
373F: 97            SUB A
3740: 97            SUB A
3741: DF            RST 18h
3742: C8            RET Z
3743: 2E C8         LD L,C8h
3745: 5F            LD E,A
3746: 8B            ADC A,E
3747: DF            RST 18h
3748: 72            LD (HL),D
3749: 2F            CPL
374A: C8            RET Z
374B: 6E            LD L,(HL)
374C: 97            SUB A
374D: 97            SUB A
374E: 97            SUB A
374F: DF            RST 18h
3750: C2 2F 8B      JP NZ,8B2Fh
3753: DF            RST 18h
3754: 66            LD H,(HL)
3755: 2F            CPL
3756: 97            SUB A
3757: 97            SUB A
3758: 97            SUB A
3759: DF            RST 18h
375A: B0            OR B
375B: 2E C8         LD L,C8h
375D: 5F            LD E,A
375E: 8B            ADC A,E
375F: DF            RST 18h
3760: 5A            LD E,D
3761: 2F            CPL
3762: C8            RET Z
3763: 6E            LD L,(HL)
3764: 97            SUB A
3765: 97            SUB A
3766: 97            SUB A
3767: DF            RST 18h
3768: AA            XOR D
3769: 2F            CPL
376A: 8B            ADC A,E
376B: DF            RST 18h
376C: 4E            LD C,(HL)
376D: 2F            CPL
376E: 97            SUB A
376F: 97            SUB A
3770: 97            SUB A
3771: DF            RST 18h
3772: 98            SBC A,B
3773: 2E C8         LD L,C8h
3775: 5F            LD E,A
3776: 8B            ADC A,E

sub_3777:
3777: 8B            ADC A,E
3778: E0            RET PO

loc_3779:
3779: 9A            SBC A,D
377A: FF            RST 38h
377B: DF            RST 18h
377C: C2 2F C8      JP NZ,C82Fh
377F: 6E            LD L,(HL)
3780: E8            RET PE
3781: 64            LD H,H
3782: 0C            INC C
3783: C5            PUSH BC
3784: 18 8B         JR loc_3711
3786: 8B            ADC A,E
3787: 18 8B         JR loc_3714
3789: 0C            INC C

loc_378A:
378A: 8B            ADC A,E
378B: 8B            ADC A,E
378C: 18 8B         JR loc_3719

loc_378E:
378E: E0            RET PO
378F: F3            DI
3790: FF            RST 38h
3791: 00            NOP
3792: FF            RST 38h
3793: 1F            RRA
3794: 00            NOP
3795: 01 FF B8      LD BC,B8FFh
3798: 00            NOP
3799: 02            LD (BC),A
379A: FF            RST 38h
379B: 4E            LD C,(HL)
379C: 01 03 FF      LD BC,FF03h
379F: FA 01 04      JP M,loc_0401
37A2: FF            RST 38h
37A3: 8E            ADC A,(HL)
37A4: 02            LD (BC),A

loc_37A5:
37A5: 05            DEC B
37A6: FF            RST 38h
37A7: 21 03 06      LD HL,0603h
37AA: FF            RST 38h
37AB: 6D            LD L,L
37AC: 03            INC BC
37AD: 07            RLCA
37AE: FF            RST 38h
37AF: 9F            SBC A,A
37B0: 04            INC B
37B1: FF            RST 38h
37B2: D0            RET NC
37B3: 7D            LD A,L
37B4: DF            RST 18h

loc_37B5:
37B5: B1            OR C
37B6: 29            ADD HL,HL
37B7: C8            RET Z
37B8: 5A            LD E,D
37B9: DB C8         IN A,(C8h)

loc_37BB:
37BB: E8            RET PE
37BC: 6E            LD L,(HL)
37BD: E3            EX (SP),HL
37BE: 02            LD (BC),A
37BF: 60            LD H,B
37C0: DE DE         SBC A,DEh
37C2: DE DE         SBC A,DEh
37C4: DF            RST 18h

loc_37C5:
37C5: A1            AND C
37C6: 29            ADD HL,HL
37C7: 24            INC H
37C8: C5            PUSH BC
37C9: 3C            INC A
37CA: 81            ADD A,C
37CB: 0C            INC C
37CC: C7            RST 00h
37CD: AB            XOR E
37CE: 80            ADD A,B
37CF: 18 8B         JR loc_375C

loc_37D1:
37D1: 0C            INC C
37D2: 8F            ADC A,A
37D3: A8            XOR B
37D4: 80            ADD A,B
37D5: 60            LD H,B
37D6: 88            ADC A,B

loc_37D7:
37D7: 0C            INC C
37D8: 8B            ADC A,E
37D9: AD            XOR L
37DA: 80            ADD A,B
37DB: 18 AD         JR loc_378A
37DD: 80            ADD A,B
37DE: 24            INC H
37DF: 8D            ADC A,L
37E0: 0C            INC C
37E1: 8B            ADC A,E
37E2: 86            ADD A,(HL)
37E3: A8            XOR B
37E4: 80            ADD A,B
37E5: 48            LD C,B

loc_37E6:
37E6: 88            ADC A,B
37E7: 24            INC H
37E8: 8D            ADC A,L
37E9: 0C            INC C
37EA: AB            XOR E
37EB: 80            ADD A,B
37EC: 18 8B         JR loc_3779

loc_37EE:
37EE: 0C            INC C
37EF: 8F            ADC A,A
37F0: A8            XOR B

loc_37F1:
37F1: 80            ADD A,B
37F2: 60            LD H,B
37F3: 88            ADC A,B
37F4: 0C            INC C
37F5: 8B            ADC A,E
37F6: AD            XOR L
37F7: 80            ADD A,B

loc_37F8:
37F8: 24            INC H
37F9: 8D            ADC A,L
37FA: 0C            INC C
37FB: 8F            ADC A,A
37FC: 8B            ADC A,E
37FD: 88            ADC A,B
37FE: 86            ADD A,(HL)
37FF: A8            XOR B
3800: 80            ADD A,B
3801: 88            ADC A,B
3802: A8            XOR B
3803: 80            ADD A,B
3804: 30 88         JR NC,loc_378E
3806: 18 DE         JR loc_37E6
3808: 0C            INC C
3809: DE B2         SBC A,B2h

loc_380B:
380B: 80            ADD A,B
380C: 24            INC H
380D: 92            SUB D

loc_380E:
380E: 0C            INC C
380F: B0            OR B
3810: 80            ADD A,B
3811: 24            INC H
3812: 90            SUB B
3813: 0C            INC C
3814: AD            XOR L
3815: 80            ADD A,B
3816: 30 8D         JR NC,loc_37A5
3818: 18 DE         JR loc_37F8
381A: 0C            INC C
381B: DE B2         SBC A,B2h
381D: 80            ADD A,B
381E: 24            INC H

loc_381F:
381F: 92            SUB D
3820: 0C            INC C
3821: B0            OR B
3822: 80            ADD A,B

loc_3823:
3823: 18 90         JR loc_37B5
3825: 0C            INC C
3826: 94            SUB H
3827: B0            OR B
3828: 80            ADD A,B
3829: 30 90         JR NC,loc_37BB

loc_382B:
382B: 18 DE         JR loc_380B
382D: 0C            INC C
382E: DE B0         SBC A,B0h
3830: 80            ADD A,B
3831: 24            INC H
3832: 90            SUB B
3833: 0C            INC C
3834: AD            XOR L
3835: 80            ADD A,B
3836: 18 8D         JR loc_37C5
3838: 0C            INC C
3839: 90            SUB B

loc_383A:
383A: B3            OR E
383B: 80            ADD A,B
383C: 30 93         JR NC,loc_37D1
383E: 24            INC H
383F: 94            SUB H
3840: 0C            INC C
3841: B2            OR D
3842: 80            ADD A,B
3843: 18 92         JR loc_37D7
3845: 0C            INC C
3846: 97            SUB A
3847: B4            OR H
3848: 80            ADD A,B
3849: 48            LD C,B

loc_384A:
384A: 94            SUB H
384B: 18 DE         JR loc_382B
384D: E6 E7         AND E7h
384F: DF            RST 18h

loc_3850:
3850: 16 29         LD D,29h
3852: C8            RET Z
3853: 5A            LD E,D
3854: DB C8         IN A,(C8h)
3856: E8            RET PE
3857: 6E            LD L,(HL)
3858: E3            EX (SP),HL
3859: 64            LD H,H
385A: 60            LD H,B
385B: DE DE         SBC A,DEh
385D: DE DE         SBC A,DEh
385F: DF            RST 18h
3860: 06 29         LD B,29h
3862: 24            INC H
3863: C5            PUSH BC
3864: 30 88         JR NC,loc_37EE
3866: 0C            INC C
3867: A6            AND (HL)

loc_3868:
3868: 80            ADD A,B
3869: 18 86         JR loc_37F1
386B: 0C            INC C

loc_386C:
386C: 8A            ADC A,D
386D: A3            AND E
386E: 80            ADD A,B
386F: 60            LD H,B
3870: 83            ADD A,E
3871: 0C            INC C
3872: 86            ADD A,(HL)
3873: A8            XOR B
3874: 80            ADD A,B
3875: 18 A8         JR loc_381F
3877: 80            ADD A,B
3878: 24            INC H
3879: 88            ADC A,B
387A: 0C            INC C
387B: 86            ADD A,(HL)
387C: 81            ADD A,C
387D: A3            AND E
387E: 80            ADD A,B
387F: 48            LD C,B

loc_3880:
3880: 83            ADD A,E
3881: 24            INC H
3882: 88            ADC A,B
3883: 0C            INC C
3884: A6            AND (HL)
3885: 80            ADD A,B
3886: 18 86         JR loc_380E
3888: 0C            INC C
3889: 8A            ADC A,D
388A: A3            AND E
388B: 80            ADD A,B
388C: 60            LD H,B
388D: 83            ADD A,E
388E: 0C            INC C
388F: 86            ADD A,(HL)
3890: A8            XOR B
3891: 80            ADD A,B

loc_3892:
3892: 24            INC H
3893: 88            ADC A,B
3894: 0C            INC C
3895: 8B            ADC A,E
3896: 88            ADC A,B
3897: 83            ADD A,E
3898: 81            ADD A,C
3899: A3            AND E
389A: 80            ADD A,B
389B: 83            ADD A,E
389C: A3            AND E
389D: 80            ADD A,B
389E: 30 83         JR NC,loc_3823
38A0: 18 DE         JR loc_3880
38A2: 0C            INC C
38A3: DE AD         SBC A,ADh

loc_38A5:
38A5: 80            ADD A,B
38A6: 24            INC H
38A7: 8D            ADC A,L
38A8: 0C            INC C
38A9: AB            XOR E
38AA: 80            ADD A,B
38AB: 24            INC H
38AC: 8B            ADC A,E
38AD: 0C            INC C
38AE: A8            XOR B
38AF: 80            ADD A,B
38B0: 30 88         JR NC,loc_383A
38B2: 18 DE         JR loc_3892
38B4: 0C            INC C
38B5: DE AD         SBC A,ADh
38B7: 80            ADD A,B
38B8: 24            INC H
38B9: 8D            ADC A,L
38BA: 0C            INC C
38BB: AB            XOR E
38BC: 80            ADD A,B
38BD: 18 8B         JR loc_384A
38BF: 0C            INC C
38C0: 8F            ADC A,A
38C1: AB            XOR E
38C2: 80            ADD A,B
38C3: 30 8B         JR NC,loc_3850

loc_38C5:
38C5: 18 DE         JR loc_38A5
38C7: 0C            INC C
38C8: DE AD         SBC A,ADh
38CA: 80            ADD A,B
38CB: 24            INC H
38CC: 8D            ADC A,L
38CD: 0C            INC C
38CE: AA            XOR D
38CF: 80            ADD A,B
38D0: 18 8A         JR loc_385C
38D2: 0C            INC C
38D3: 8D            ADC A,L
38D4: B0            OR B
38D5: 80            ADD A,B
38D6: 30 90         JR NC,loc_3868
38D8: 24            INC H
38D9: 8F            ADC A,A
38DA: 0C            INC C
38DB: AD            XOR L
38DC: 80            ADD A,B
38DD: 18 8D         JR loc_386C
38DF: 0C            INC C
38E0: 92            SUB D
38E1: AF            XOR A
38E2: 80            ADD A,B
38E3: 48            LD C,B
38E4: 8F            ADC A,A
38E5: 18 DE         JR loc_38C5
38E7: E6 E7         AND E7h
38E9: DF            RST 18h
38EA: 58            LD E,B
38EB: 29            ADD HL,HL
38EC: C8            RET Z
38ED: 64            LD H,H
38EE: DB 96         IN A,(96h)
38F0: E8            RET PE
38F1: 64            LD H,H
38F2: E3            EX (SP),HL
38F3: 64            LD H,H
38F4: 0C            INC C
38F5: C5            PUSH BC
38F6: 18 88         JR loc_3880
38F8: 88            ADC A,B
38F9: 88            ADC A,B
38FA: 88            ADC A,B
38FB: 88            ADC A,B
38FC: 88            ADC A,B
38FD: 88            ADC A,B
38FE: 88            ADC A,B
38FF: 88            ADC A,B
3900: 88            ADC A,B
3901: 88            ADC A,B
3902: 88            ADC A,B
3903: 88            ADC A,B
3904: 88            ADC A,B
3905: 88            ADC A,B
3906: 83            ADD A,E
3907: 88            ADC A,B
3908: 88            ADC A,B
3909: 88            ADC A,B
390A: 88            ADC A,B
390B: 88            ADC A,B
390C: 88            ADC A,B
390D: 88            ADC A,B
390E: 88            ADC A,B
390F: 88            ADC A,B
3910: 88            ADC A,B
3911: 88            ADC A,B
3912: 88            ADC A,B
3913: 88            ADC A,B
3914: 88            ADC A,B
3915: 88            ADC A,B
3916: 83            ADD A,E
3917: 88            ADC A,B
3918: 88            ADC A,B
3919: 88            ADC A,B
391A: 88            ADC A,B
391B: 88            ADC A,B
391C: 88            ADC A,B
391D: 88            ADC A,B
391E: 88            ADC A,B
391F: 88            ADC A,B
3920: 88            ADC A,B
3921: 88            ADC A,B
3922: 88            ADC A,B
3923: 88            ADC A,B
3924: 88            ADC A,B
3925: 88            ADC A,B
3926: 83            ADD A,E
3927: 88            ADC A,B
3928: 88            ADC A,B
3929: 88            ADC A,B
392A: 88            ADC A,B
392B: 88            ADC A,B
392C: 88            ADC A,B
392D: 88            ADC A,B

loc_392E:
392E: 88            ADC A,B
392F: 88            ADC A,B
3930: 88            ADC A,B
3931: 88            ADC A,B
3932: 88            ADC A,B
3933: 88            ADC A,B
3934: 88            ADC A,B
3935: 88            ADC A,B
3936: 83            ADD A,E
3937: 88            ADC A,B
3938: 88            ADC A,B
3939: 88            ADC A,B
393A: 88            ADC A,B
393B: 88            ADC A,B
393C: 88            ADC A,B
393D: 88            ADC A,B

loc_393E:
393E: 88            ADC A,B
393F: 88            ADC A,B
3940: 88            ADC A,B
3941: 88            ADC A,B
3942: 88            ADC A,B
3943: 88            ADC A,B
3944: 88            ADC A,B
3945: 88            ADC A,B
3946: 83            ADD A,E
3947: 88            ADC A,B
3948: 88            ADC A,B
3949: 88            ADC A,B
394A: 88            ADC A,B
394B: 88            ADC A,B
394C: 88            ADC A,B
394D: 88            ADC A,B
394E: 88            ADC A,B
394F: 88            ADC A,B
3950: 88            ADC A,B
3951: 88            ADC A,B
3952: 88            ADC A,B
3953: 88            ADC A,B
3954: 88            ADC A,B
3955: 88            ADC A,B
3956: 83            ADD A,E
3957: 8D            ADC A,L
3958: 8D            ADC A,L
3959: 8D            ADC A,L
395A: 8D            ADC A,L

loc_395B:
395B: 8D            ADC A,L
395C: 8D            ADC A,L
395D: 8D            ADC A,L
395E: 8D            ADC A,L
395F: 8D            ADC A,L
3960: 8D            ADC A,L
3961: 8D            ADC A,L
3962: 8D            ADC A,L
3963: 8D            ADC A,L
3964: 8D            ADC A,L
3965: 8D            ADC A,L
3966: 8D            ADC A,L
3967: 8B            ADC A,E
3968: 8B            ADC A,E
3969: 8B            ADC A,E
396A: 8B            ADC A,E
396B: 8B            ADC A,E

loc_396C:
396C: 8B            ADC A,E
396D: 8B            ADC A,E
396E: 8B            ADC A,E
396F: 8B            ADC A,E

loc_3970:
3970: 8B            ADC A,E
3971: 8B            ADC A,E
3972: 8B            ADC A,E
3973: 8B            ADC A,E
3974: 8B            ADC A,E
3975: 8B            ADC A,E
3976: 8B            ADC A,E
3977: 8A            ADC A,D
3978: 8A            ADC A,D
3979: 8A            ADC A,D
397A: 8A            ADC A,D
397B: 8A            ADC A,D
397C: 8A            ADC A,D
397D: 8A            ADC A,D
397E: 8A            ADC A,D
397F: 8A            ADC A,D
3980: 8A            ADC A,D
3981: 8A            ADC A,D
3982: 8A            ADC A,D
3983: 8A            ADC A,D
3984: 8A            ADC A,D
3985: 8A            ADC A,D
3986: 8A            ADC A,D

loc_3987:
3987: 88            ADC A,B
3988: 88            ADC A,B
3989: 88            ADC A,B
398A: 88            ADC A,B
398B: 88            ADC A,B
398C: 88            ADC A,B
398D: 88            ADC A,B
398E: 88            ADC A,B
398F: 88            ADC A,B
3990: 88            ADC A,B
3991: 88            ADC A,B
3992: 88            ADC A,B
3993: 88            ADC A,B
3994: 83            ADD A,E
3995: 86            ADD A,(HL)
3996: 87            ADD A,A

loc_3997:
3997: E6 E7         AND E7h
3999: DF            RST 18h
399A: 1C            INC E
399B: 27            DAA
399C: C8            RET Z

loc_399D:
399D: 55            LD D,L
399E: DB C8         IN A,(C8h)
39A0: E8            RET PE
39A1: 6E            LD L,(HL)
39A2: E3            EX (SP),HL
39A3: 02            LD (BC),A
39A4: 60            LD H,B
39A5: DE DE         SBC A,DEh

loc_39A7:
39A7: DE DE         SBC A,DEh
39A9: 24            INC H
39AA: C5            PUSH BC
39AB: 30 81         JR NC,loc_392E
39AD: 0C            INC C
39AE: C7            RST 00h
39AF: AB            XOR E
39B0: 80            ADD A,B
39B1: 18 8B         JR loc_393E

loc_39B3:
39B3: 0C            INC C
39B4: 8F            ADC A,A
39B5: A8            XOR B
39B6: 80            ADD A,B
39B7: 60            LD H,B
39B8: 88            ADC A,B

loc_39B9:
39B9: 0C            INC C
39BA: 8B            ADC A,E
39BB: AD            XOR L
39BC: 80            ADD A,B
39BD: 18 AD         JR loc_396C
39BF: 80            ADD A,B
39C0: 24            INC H
39C1: 8D            ADC A,L
39C2: 0C            INC C
39C3: 8B            ADC A,E
39C4: 86            ADD A,(HL)
39C5: A8            XOR B
39C6: 80            ADD A,B
39C7: 48            LD C,B

loc_39C8:
39C8: 88            ADC A,B
39C9: 24            INC H
39CA: 8D            ADC A,L
39CB: 0C            INC C
39CC: AB            XOR E
39CD: 80            ADD A,B
39CE: 18 8B         JR loc_395B

loc_39D0:
39D0: 0C            INC C
39D1: 8F            ADC A,A
39D2: A8            XOR B
39D3: 80            ADD A,B
39D4: 60            LD H,B
39D5: 88            ADC A,B
39D6: 0C            INC C
39D7: 8B            ADC A,E
39D8: AD            XOR L
39D9: 80            ADD A,B

loc_39DA:
39DA: 24            INC H
39DB: 8D            ADC A,L
39DC: 0C            INC C
39DD: 8F            ADC A,A
39DE: 8B            ADC A,E
39DF: 88            ADC A,B
39E0: 86            ADD A,(HL)
39E1: A8            XOR B
39E2: 80            ADD A,B
39E3: 88            ADC A,B
39E4: A8            XOR B
39E5: 80            ADD A,B
39E6: 30 88         JR NC,loc_3970
39E8: 18 DE         JR loc_39C8
39EA: 0C            INC C
39EB: DE B2         SBC A,B2h

loc_39ED:
39ED: 80            ADD A,B
39EE: 24            INC H
39EF: 92            SUB D
39F0: 0C            INC C
39F1: B0            OR B
39F2: 80            ADD A,B
39F3: 24            INC H
39F4: 90            SUB B
39F5: 0C            INC C
39F6: AD            XOR L
39F7: 80            ADD A,B
39F8: 30 8D         JR NC,loc_3987
39FA: 18 DE         JR loc_39DA
39FC: 0C            INC C
39FD: DE B2         SBC A,B2h
39FF: 80            ADD A,B
3A00: 24            INC H
3A01: 92            SUB D

loc_3A02:
3A02: 0C            INC C
3A03: B0            OR B
3A04: 80            ADD A,B
3A05: 18 90         JR loc_3997
3A07: 0C            INC C
3A08: 94            SUB H
3A09: B0            OR B
3A0A: 80            ADD A,B
3A0B: 30 90         JR NC,loc_399D

loc_3A0D:
3A0D: 18 DE         JR loc_39ED
3A0F: 0C            INC C
3A10: DE B0         SBC A,B0h
3A12: 80            ADD A,B
3A13: 24            INC H
3A14: 90            SUB B
3A15: 0C            INC C
3A16: AD            XOR L
3A17: 80            ADD A,B
3A18: 18 8D         JR loc_39A7
3A1A: 0C            INC C
3A1B: 90            SUB B
3A1C: B3            OR E
3A1D: 80            ADD A,B
3A1E: 30 93         JR NC,loc_39B3
3A20: 24            INC H
3A21: 94            SUB H
3A22: 0C            INC C
3A23: B2            OR D
3A24: 80            ADD A,B
3A25: 18 92         JR loc_39B9
3A27: 0C            INC C
3A28: 97            SUB A

loc_3A29:
3A29: B4            OR H
3A2A: 80            ADD A,B
3A2B: 48            LD C,B
3A2C: 94            SUB H
3A2D: 18 DE         JR loc_3A0D

loc_3A2F:
3A2F: E6 E7         AND E7h
3A31: DF            RST 18h
3A32: 84            ADD A,H
3A33: 26 C8         LD H,C8h
3A35: 55            LD D,L
3A36: DB C8         IN A,(C8h)
3A38: E8            RET PE
3A39: 6E            LD L,(HL)
3A3A: E3            EX (SP),HL

loc_3A3B:
3A3B: 64            LD H,H
3A3C: 60            LD H,B
3A3D: DE DE         SBC A,DEh
3A3F: DE DE         SBC A,DEh
3A41: 24            INC H
3A42: C5            PUSH BC
3A43: 24            INC H
3A44: 88            ADC A,B
3A45: 0C            INC C
3A46: A6            AND (HL)

loc_3A47:
3A47: 80            ADD A,B
3A48: 18 86         JR loc_39D0
3A4A: 0C            INC C

loc_3A4B:
3A4B: 8A            ADC A,D
3A4C: A3            AND E
3A4D: 80            ADD A,B
3A4E: 60            LD H,B
3A4F: 83            ADD A,E
3A50: 0C            INC C
3A51: 86            ADD A,(HL)
3A52: A8            XOR B
3A53: 80            ADD A,B
3A54: 18 A8         JR loc_39FE
3A56: 80            ADD A,B
3A57: 24            INC H
3A58: 88            ADC A,B
3A59: 0C            INC C
3A5A: 86            ADD A,(HL)
3A5B: 81            ADD A,C
3A5C: A3            AND E
3A5D: 80            ADD A,B
3A5E: 48            LD C,B

loc_3A5F:
3A5F: 83            ADD A,E
3A60: 24            INC H
3A61: 88            ADC A,B
3A62: 0C            INC C
3A63: A6            AND (HL)
3A64: 80            ADD A,B
3A65: 18 86         JR loc_39ED
3A67: 0C            INC C
3A68: 8A            ADC A,D
3A69: A3            AND E
3A6A: 80            ADD A,B
3A6B: 60            LD H,B
3A6C: 83            ADD A,E
3A6D: 0C            INC C
3A6E: 86            ADD A,(HL)
3A6F: A8            XOR B
3A70: 80            ADD A,B

loc_3A71:
3A71: 24            INC H
3A72: 88            ADC A,B
3A73: 0C            INC C
3A74: 8B            ADC A,E
3A75: 88            ADC A,B
3A76: 83            ADD A,E
3A77: 81            ADD A,C
3A78: A3            AND E
3A79: 80            ADD A,B
3A7A: 83            ADD A,E
3A7B: A3            AND E
3A7C: 80            ADD A,B
3A7D: 30 83         JR NC,loc_3A02
3A7F: 18 DE         JR loc_3A5F
3A81: 0C            INC C
3A82: DE AD         SBC A,ADh

loc_3A84:
3A84: 80            ADD A,B
3A85: 24            INC H
3A86: 8D            ADC A,L
3A87: 0C            INC C
3A88: AB            XOR E
3A89: 80            ADD A,B
3A8A: 24            INC H
3A8B: 8B            ADC A,E
3A8C: 0C            INC C
3A8D: A8            XOR B
3A8E: 80            ADD A,B
3A8F: 30 88         JR NC,loc_3A19
3A91: 18 DE         JR loc_3A71
3A93: 0C            INC C
3A94: DE AD         SBC A,ADh
3A96: 80            ADD A,B

loc_3A97:
3A97: 24            INC H
3A98: 8D            ADC A,L
3A99: 0C            INC C
3A9A: AB            XOR E
3A9B: 80            ADD A,B
3A9C: 18 8B         JR loc_3A29
3A9E: 0C            INC C
3A9F: 8F            ADC A,A
3AA0: AB            XOR E
3AA1: 80            ADD A,B
3AA2: 30 8B         JR NC,loc_3A2F

loc_3AA4:
3AA4: 18 DE         JR loc_3A84
3AA6: 0C            INC C
3AA7: DE AD         SBC A,ADh
3AA9: 80            ADD A,B
3AAA: 24            INC H
3AAB: 8D            ADC A,L
3AAC: 0C            INC C
3AAD: AA            XOR D
3AAE: 80            ADD A,B
3AAF: 18 8A         JR loc_3A3B
3AB1: 0C            INC C
3AB2: 8D            ADC A,L
3AB3: B0            OR B
3AB4: 80            ADD A,B
3AB5: 30 90         JR NC,loc_3A47
3AB7: 24            INC H
3AB8: 8F            ADC A,A
3AB9: 0C            INC C
3ABA: AD            XOR L

loc_3ABB:
3ABB: 80            ADD A,B
3ABC: 18 8D         JR loc_3A4B
3ABE: 0C            INC C
3ABF: 92            SUB D

loc_3AC0:
3AC0: AF            XOR A
3AC1: 80            ADD A,B

loc_3AC2:
3AC2: 48            LD C,B
3AC3: 8F            ADC A,A
3AC4: 18 DE         JR loc_3AA4
3AC6: E6 E7         AND E7h
3AC8: DF            RST 18h
3AC9: E9            JP (HL)
3ACA: 2A C8 55      LD HL,(55C8h)
3ACD: DB FF         IN A,(FFh)
3ACF: E8            RET PE
3AD0: 64            LD H,H
3AD1: 60            LD H,B
3AD2: DE E3         SBC A,E3h
3AD4: 64            LD H,H
3AD5: 60            LD H,B
3AD6: DE DE         SBC A,DEh
3AD8: DE DE         SBC A,DEh
3ADA: DE DE         SBC A,DEh
3ADC: DE DE         SBC A,DEh
3ADE: DE DE         SBC A,DEh
3AE0: 30 DE         JR NC,loc_3AC0
3AE2: 18 DE         JR loc_3AC2
3AE4: 0C            INC C
3AE5: C5            PUSH BC
3AE6: 24            INC H
3AE7: 88            ADC A,B
3AE8: 8B            ADC A,E
3AE9: 60            LD H,B
3AEA: AD            XOR L
3AEB: 80            ADD A,B
3AEC: 24            INC H
3AED: 8D            ADC A,L
3AEE: 0C            INC C
3AEF: 8D            ADC A,L
3AF0: 8F            ADC A,A
3AF1: 90            SUB B
3AF2: 92            SUB D
3AF3: 8D            ADC A,L
3AF4: 60            LD H,B
3AF5: AB            XOR E
3AF6: 80            ADD A,B
3AF7: 24            INC H
3AF8: 8B            ADC A,E
3AF9: 0C            INC C
3AFA: 8B            ADC A,E
3AFB: 8D            ADC A,L
3AFC: 8F            ADC A,A
3AFD: 90            SUB B
3AFE: 8B            ADC A,E
3AFF: 60            LD H,B
3B00: AA            XOR D
3B01: 80            ADD A,B
3B02: 24            INC H

loc_3B03:
3B03: 8A            ADC A,D
3B04: 0C            INC C
3B05: 8D            ADC A,L
3B06: 90            SUB B
3B07: 93            SUB E
3B08: 90            SUB B

loc_3B09:
3B09: 8D            ADC A,L
3B0A: 60            LD H,B
3B0B: A8            XOR B
3B0C: 80            ADD A,B
3B0D: 18 88         JR loc_3A97
3B0F: 86            ADD A,(HL)
3B10: 88            ADC A,B
3B11: 8F            ADC A,A
3B12: 88            ADC A,B
3B13: DE 30         SBC A,30h
3B15: DE E6         SBC A,E6h
3B17: E7            RST 20h
3B18: DF            RST 18h
3B19: 75            LD (HL),L

loc_3B1A:
3B1A: 2B            DEC HL
3B1B: C8            RET Z
3B1C: 64            LD H,H
3B1D: DB C8         IN A,(C8h)
3B1F: E8            RET PE
3B20: 64            LD H,H
3B21: E3            EX (SP),HL
3B22: 64            LD H,H
3B23: 30 DE         JR NC,loc_3B03
3B25: DF            RST 18h
3B26: 94            SUB H
3B27: 2B            DEC HL
3B28: C8            RET Z
3B29: 6E            LD L,(HL)
3B2A: 0C            INC C
3B2B: DE 06         SBC A,06h
3B2D: C5            PUSH BC
3B2E: 30 8B         JR NC,loc_3ABB
3B30: 8B            ADC A,E
3B31: 0C            INC C
3B32: 8B            ADC A,E

loc_3B33:
3B33: DF            RST 18h
3B34: 5A            LD E,D
3B35: 2B            DEC HL
3B36: C8            RET Z
3B37: 64            LD H,H
3B38: C7            RST 00h
3B39: 8B            ADC A,E
3B3A: 30 DE         JR NC,loc_3B1A
3B3C: DF            RST 18h
3B3D: 7D            LD A,L
3B3E: 2B            DEC HL
3B3F: C8            RET Z
3B40: 6E            LD L,(HL)
3B41: 0C            INC C

loc_3B42:
3B42: DE 06         SBC A,06h
3B44: 97            SUB A
3B45: 97            SUB A
3B46: DF            RST 18h
3B47: 47            LD B,A
3B48: 2B            DEC HL
3B49: C8            RET Z
3B4A: 64            LD H,H
3B4B: 0C            INC C
3B4C: 8B            ADC A,E
3B4D: DE 30         SBC A,30h
3B4F: DE DF         SBC A,DFh
3B51: 69            LD L,C
3B52: 2B            DEC HL
3B53: C8            RET Z
3B54: 6E            LD L,(HL)
3B55: 0C            INC C
3B56: DE 97         SBC A,97h
3B58: 06 97         LD B,97h
3B5A: 97            SUB A
3B5B: DF            RST 18h
3B5C: 32 2B C8      LD (C82Bh),A
3B5F: 64            LD H,H
3B60: 0C            INC C
3B61: 8B            ADC A,E
3B62: 30 DE         JR NC,loc_3B42
3B64: 0C            INC C
3B65: DE 8B         SBC A,8Bh
3B67: 8B            ADC A,E
3B68: DE 60         SBC A,60h
3B6A: DE 30         SBC A,30h
3B6C: DE DF         SBC A,DFh
3B6E: 4C            LD C,H
3B6F: 2B            DEC HL
3B70: C8            RET Z
3B71: 6E            LD L,(HL)
3B72: 0C            INC C
3B73: DE 06         SBC A,06h

loc_3B75:
3B75: 97            SUB A
3B76: 97            SUB A
3B77: DF            RST 18h
3B78: 16 2B         LD D,2Bh
3B7A: C8            RET Z
3B7B: 64            LD H,H
3B7C: 18 8B         JR loc_3B09
3B7E: 60            LD H,B
3B7F: DE 30         SBC A,30h
3B81: DE DF         SBC A,DFh
3B83: 37            SCF
3B84: 2B            DEC HL
3B85: C8            RET Z
3B86: 6E            LD L,(HL)
3B87: 0C            INC C
3B88: DE 06         SBC A,06h
3B8A: 97            SUB A
3B8B: 97            SUB A
3B8C: DF            RST 18h
3B8D: 01 2B C8      LD BC,C82Bh
3B90: 64            LD H,H
3B91: 18 8B         JR loc_3B1E
3B93: 60            LD H,B
3B94: DE 30         SBC A,30h
3B96: DE DF         SBC A,DFh
3B98: 22 2B C8      LD (C82Bh),HL
3B9B: 6E            LD L,(HL)
3B9C: 0C            INC C
3B9D: DE 06         SBC A,06h
3B9F: 97            SUB A

loc_3BA0:
3BA0: 97            SUB A
3BA1: DF            RST 18h
3BA2: EC 2A C8      CALL PE,C82Ah
3BA5: 64            LD H,H
3BA6: 18 8B         JR loc_3B33
3BA8: 60            LD H,B
3BA9: DE 30         SBC A,30h
3BAB: DE DF         SBC A,DFh
3BAD: 0D            DEC C
3BAE: 2B            DEC HL
3BAF: C8            RET Z
3BB0: 6E            LD L,(HL)
3BB1: 0C            INC C
3BB2: DE 06         SBC A,06h
3BB4: 97            SUB A
3BB5: 97            SUB A
3BB6: DF            RST 18h
3BB7: D7            RST 10h
3BB8: 2A C8 64      LD HL,(64C8h)
3BBB: 0C            INC C
3BBC: 8B            ADC A,E
3BBD: 97            SUB A
3BBE: 18 97         JR loc_3B57
3BC0: DF            RST 18h
3BC1: F9            LD SP,HL
3BC2: 2A C8 6E      LD HL,(6EC8h)
3BC5: 0C            INC C
3BC6: 97            SUB A
3BC7: 06 97         LD B,97h
3BC9: 97            SUB A
3BCA: 0C            INC C

loc_3BCB:
3BCB: 97            SUB A
3BCC: 06 97         LD B,97h
3BCE: 97            SUB A
3BCF: 0C            INC C
3BD0: 97            SUB A
3BD1: 06 97         LD B,97h
3BD3: 97            SUB A
3BD4: 0C            INC C
3BD5: 97            SUB A
3BD6: 06 97         LD B,97h
3BD8: 97            SUB A
3BD9: 0C            INC C
3BDA: 97            SUB A
3BDB: 06 97         LD B,97h
3BDD: 97            SUB A
3BDE: 0C            INC C
3BDF: 97            SUB A
3BE0: 06 97         LD B,97h
3BE2: 97            SUB A
3BE3: DF            RST 18h
3BE4: AA            XOR D
3BE5: 2A C8 64      LD HL,(64C8h)
3BE8: 18 8B         JR loc_3B75
3BEA: DF            RST 18h
3BEB: CF            RST 08h
3BEC: 2A C8 6E      LD HL,(6EC8h)
3BEF: 0C            INC C
3BF0: 97            SUB A
3BF1: 06 97         LD B,97h
3BF3: 97            SUB A
3BF4: 0C            INC C
3BF5: 97            SUB A
3BF6: 97            SUB A
3BF7: 06 97         LD B,97h
3BF9: 97            SUB A
3BFA: DE 97         SBC A,97h
3BFC: 0C            INC C
3BFD: 97            SUB A
3BFE: 06 97         LD B,97h
3C00: 97            SUB A
3C01: 0C            INC C
3C02: 97            SUB A
3C03: 06 97         LD B,97h
3C05: 97            SUB A
3C06: 97            SUB A
3C07: 97            SUB A
3C08: DE 97         SBC A,97h
3C0A: 97            SUB A
3C0B: DE 97         SBC A,97h
3C0D: 97            SUB A
3C0E: DF            RST 18h
3C0F: 7F            LD A,A
3C10: 2A C8 64      LD HL,(64C8h)
3C13: 18 8B         JR loc_3BA0
3C15: 97            SUB A
3C16: DF            RST 18h
3C17: A3            AND E
3C18: 2A C8 6E      LD HL,(6EC8h)
3C1B: 0C            INC C
3C1C: 97            SUB A
3C1D: 06 97         LD B,97h
3C1F: 97            SUB A

loc_3C20:
3C20: 0C            INC C
3C21: 97            SUB A

loc_3C22:
3C22: 06 97         LD B,97h
3C24: 97            SUB A

loc_3C25:
3C25: 0C            INC C
3C26: 97            SUB A

loc_3C27:
3C27: 06 97         LD B,97h
3C29: 97            SUB A
3C2A: 0C            INC C
3C2B: 97            SUB A
3C2C: 06 97         LD B,97h
3C2E: 97            SUB A
3C2F: 0C            INC C
3C30: 97            SUB A
3C31: 06 97         LD B,97h
3C33: 97            SUB A
3C34: 0C            INC C
3C35: 97            SUB A
3C36: 06 97         LD B,97h
3C38: 97            SUB A
3C39: DF            RST 18h
3C3A: 54            LD D,H
3C3B: 2A C8 64      LD HL,(64C8h)
3C3E: 18 8B         JR loc_3BCB
3C40: 30 DE         JR NC,loc_3C20
3C42: 18 DE         JR loc_3C22
3C44: 8B            ADC A,E
3C45: 30 DE         JR NC,loc_3C25
3C47: 18 DE         JR loc_3C27
3C49: 0C            INC C
3C4A: 8B            ADC A,E
3C4B: 8B            ADC A,E
3C4C: E6 E7         AND E7h
3C4E: DF            RST 18h
3C4F: EF            RST 28h
3C50: 2A C8 6E      LD HL,(6EC8h)
3C53: E8            RET PE
3C54: 64            LD H,H
3C55: E3            EX (SP),HL
3C56: 64            LD H,H
3C57: 18 C5         JR loc_3C1E
3C59: 18 8B         JR loc_3BE6
3C5B: 8B            ADC A,E
3C5C: 8B            ADC A,E
3C5D: 8B            ADC A,E
3C5E: E6 E7         AND E7h
3C60: 00            NOP
3C61: FF            RST 38h
3C62: 1F            RRA
3C63: 00            NOP
3C64: 01 FF E9      LD BC,E9FFh
3C67: 00            NOP
3C68: 02            LD (BC),A
3C69: FF            RST 38h
3C6A: B1            OR C
3C6B: 01 03 FF      LD BC,FF03h
3C6E: F6 01         OR 01h
3C70: 04            INC B
3C71: FF            RST 38h
3C72: 2A 02 05      LD HL,(0502h)
3C75: FF            RST 38h
3C76: 5E            LD E,(HL)
3C77: 02            LD (BC),A
3C78: 06 FF         LD B,FFh
3C7A: 90            SUB B
3C7B: 02            LD (BC),A
3C7C: 07            RLCA
3C7D: FF            RST 38h
3C7E: 2F            CPL
3C7F: 03            INC BC

loc_3C80:
3C80: FF            RST 38h
3C81: D0            RET NC
3C82: 7D            LD A,L
3C83: DF            RST 18h
3C84: 42            LD B,D
3C85: 26 C8         LD H,C8h
3C87: 50            LD D,B
3C88: E8            RET PE
3C89: 78            LD A,B
3C8A: DB C8         IN A,(C8h)
3C8C: 18 DE         JR loc_3C6C
3C8E: 0C            INC C
3C8F: C5            PUSH BC
3C90: 24            INC H
3C91: 83            ADD A,E
3C92: 06 88         LD B,88h
3C94: 8A            ADC A,D
3C95: 0C            INC C
3C96: 92            SUB D
3C97: AF            XOR A
3C98: 80            ADD A,B
3C99: 8F            ADC A,A
3C9A: 06 88         LD B,88h
3C9C: 8A            ADC A,D
3C9D: 0C            INC C
3C9E: 8D            ADC A,L
3C9F: 8F            ADC A,A
3CA0: 83            ADD A,E
3CA1: 06 88         LD B,88h
3CA3: 8A            ADC A,D
3CA4: 92            SUB D
3CA5: 94            SUB H
3CA6: 0C            INC C
3CA7: B2            OR D
3CA8: 80            ADD A,B
3CA9: 92            SUB D
3CAA: 06 94         LD B,94h
3CAC: 96            SUB (HL)
3CAD: 94            SUB H
3CAE: 92            SUB D
3CAF: 8F            ADC A,A
3CB0: 8D            ADC A,L
3CB1: 0C            INC C
3CB2: 83            ADD A,E
3CB3: 06 88         LD B,88h
3CB5: 8A            ADC A,D
3CB6: 0C            INC C
3CB7: 92            SUB D
3CB8: AF            XOR A
3CB9: 80            ADD A,B
3CBA: 8F            ADC A,A
3CBB: 06 88         LD B,88h
3CBD: 8A            ADC A,D
3CBE: 0C            INC C
3CBF: 8D            ADC A,L
3CC0: 8F            ADC A,A
3CC1: 83            ADD A,E
3CC2: 06 88         LD B,88h
3CC4: 8A            ADC A,D
3CC5: 92            SUB D
3CC6: 94            SUB H
3CC7: 0C            INC C
3CC8: B2            OR D
3CC9: 80            ADD A,B
3CCA: 92            SUB D
3CCB: 06 94         LD B,94h
3CCD: 96            SUB (HL)
3CCE: 94            SUB H
3CCF: 92            SUB D
3CD0: 8F            ADC A,A
3CD1: 8D            ADC A,L
3CD2: 0C            INC C
3CD3: 88            ADC A,B
3CD4: 06 8D         LD B,8Dh
3CD6: 8F            ADC A,A
3CD7: 0C            INC C
3CD8: 97            SUB A
3CD9: B4            OR H
3CDA: 80            ADD A,B
3CDB: 94            SUB H
3CDC: 06 8D         LD B,8Dh
3CDE: 8F            ADC A,A
3CDF: 0C            INC C
3CE0: 92            SUB D

loc_3CE1:
3CE1: 94            SUB H
3CE2: 88            ADC A,B
3CE3: 06 8D         LD B,8Dh
3CE5: 8F            ADC A,A
3CE6: 0C            INC C
3CE7: 97            SUB A
3CE8: B4            OR H
3CE9: 80            ADD A,B
3CEA: 94            SUB H
3CEB: 06 8D         LD B,8Dh
3CED: 8F            ADC A,A
3CEE: 0C            INC C
3CEF: 92            SUB D

sub_3CF0:
3CF0: 94            SUB H
3CF1: 83            ADD A,E
3CF2: 06 88         LD B,88h
3CF4: 8A            ADC A,D
3CF5: 0C            INC C
3CF6: 92            SUB D
3CF7: AF            XOR A
3CF8: 80            ADD A,B
3CF9: 8F            ADC A,A
3CFA: 06 88         LD B,88h

loc_3CFC:
3CFC: 8A            ADC A,D
3CFD: 0C            INC C
3CFE: 8D            ADC A,L
3CFF: 8F            ADC A,A
3D00: 83            ADD A,E
3D01: 06 88         LD B,88h
3D03: 8A            ADC A,D
3D04: 92            SUB D
3D05: 94            SUB H
3D06: 0C            INC C
3D07: B2            OR D
3D08: 80            ADD A,B

loc_3D09:
3D09: 92            SUB D
3D0A: 06 94         LD B,94h
3D0C: 96            SUB (HL)
3D0D: 94            SUB H
3D0E: 92            SUB D
3D0F: 8F            ADC A,A
3D10: 8D            ADC A,L
3D11: 0C            INC C
3D12: 8B            ADC A,E
3D13: 06 DE         LD B,DEh
3D15: AB            XOR E
3D16: 80            ADD A,B
3D17: 0C            INC C
3D18: 8B            ADC A,E
3D19: 8A            ADC A,D
3D1A: DE DE         SBC A,DEh
3D1C: 18 DE         JR loc_3CFC
3D1E: 0C            INC C
3D1F: 88            ADC A,B
3D20: 06 DE         LD B,DEh
3D22: A8            XOR B
3D23: 80            ADD A,B
3D24: 0C            INC C
3D25: 88            ADC A,B
3D26: 8A            ADC A,D
3D27: DE DE         SBC A,DEh
3D29: 18 DE         JR loc_3D09
3D2B: 0C            INC C
3D2C: 8B            ADC A,E
3D2D: 06 DE         LD B,DEh
3D2F: AB            XOR E
3D30: 80            ADD A,B
3D31: 0C            INC C
3D32: 8B            ADC A,E
3D33: 8A            ADC A,D
3D34: DE DE         SBC A,DEh
3D36: DE A8         SBC A,A8h

loc_3D38:
3D38: 80            ADD A,B
3D39: 88            ADC A,B
3D3A: 06 8A         LD B,8Ah
3D3C: 8D            ADC A,L
3D3D: 8E            ADC A,(HL)
3D3E: 91            SUB C
3D3F: 94            SUB H
3D40: 96            SUB (HL)
3D41: 97            SUB A
3D42: C6 C6         ADD A,C6h
3D44: 81            ADD A,C
3D45: C7            RST 00h
3D46: 8B            ADC A,E
3D47: 8A            ADC A,D
3D48: 88            ADC A,B
3D49: 86            ADD A,(HL)
3D4A: 85            ADD A,L
3D4B: 83            ADD A,E
3D4C: E0            RET PO
3D4D: 41            LD B,C
3D4E: FF            RST 38h
3D4F: DF            RST 18h
3D50: 9A            SBC A,D
3D51: 24            INC H
3D52: C8            RET Z
3D53: 64            LD H,H
3D54: E8            RET PE
3D55: 64            LD H,H
3D56: DB C8         IN A,(C8h)
3D58: 18 DE         JR loc_3D38
3D5A: 0C            INC C
3D5B: C5            PUSH BC
3D5C: 18 83         JR loc_3CE1
3D5E: 06 88         LD B,88h
3D60: 8A            ADC A,D
3D61: 0C            INC C
3D62: 92            SUB D
3D63: AF            XOR A
3D64: 80            ADD A,B
3D65: 8F            ADC A,A
3D66: 06 88         LD B,88h
3D68: 8A            ADC A,D
3D69: 0C            INC C
3D6A: 8D            ADC A,L
3D6B: 8F            ADC A,A
3D6C: 83            ADD A,E
3D6D: 06 88         LD B,88h
3D6F: 8A            ADC A,D
3D70: 92            SUB D
3D71: 94            SUB H
3D72: 0C            INC C
3D73: B2            OR D
3D74: 80            ADD A,B
3D75: 92            SUB D
3D76: 06 94         LD B,94h
3D78: 96            SUB (HL)
3D79: 94            SUB H
3D7A: 92            SUB D
3D7B: 8F            ADC A,A
3D7C: 8D            ADC A,L
3D7D: 0C            INC C
3D7E: 83            ADD A,E
3D7F: 06 88         LD B,88h
3D81: 8A            ADC A,D
3D82: 0C            INC C
3D83: 92            SUB D
3D84: AF            XOR A
3D85: 80            ADD A,B
3D86: 8F            ADC A,A

sub_3D87:
3D87: 06 88         LD B,88h
3D89: 8A            ADC A,D
3D8A: 0C            INC C
3D8B: 8D            ADC A,L
3D8C: 8F            ADC A,A
3D8D: 83            ADD A,E
3D8E: 06 88         LD B,88h
3D90: 8A            ADC A,D
3D91: 92            SUB D
3D92: 94            SUB H
3D93: 0C            INC C
3D94: B2            OR D
3D95: 80            ADD A,B
3D96: 92            SUB D
3D97: 06 94         LD B,94h
3D99: 96            SUB (HL)
3D9A: 94            SUB H
3D9B: 92            SUB D
3D9C: 8F            ADC A,A
3D9D: 8D            ADC A,L
3D9E: 0C            INC C
3D9F: 88            ADC A,B
3DA0: 06 8D         LD B,8Dh
3DA2: 8F            ADC A,A
3DA3: 0C            INC C
3DA4: 97            SUB A
3DA5: B4            OR H
3DA6: 80            ADD A,B
3DA7: 94            SUB H
3DA8: 06 8D         LD B,8Dh
3DAA: 8F            ADC A,A
3DAB: 0C            INC C
3DAC: 92            SUB D
3DAD: 94            SUB H
3DAE: 88            ADC A,B
3DAF: 06 8D         LD B,8Dh
3DB1: 8F            ADC A,A
3DB2: 0C            INC C
3DB3: 97            SUB A
3DB4: B4            OR H
3DB5: 80            ADD A,B
3DB6: 94            SUB H
3DB7: 06 8D         LD B,8Dh

loc_3DB9:
3DB9: 8F            ADC A,A
3DBA: 0C            INC C
3DBB: 92            SUB D
3DBC: 94            SUB H
3DBD: 83            ADD A,E
3DBE: 06 88         LD B,88h
3DC0: 8A            ADC A,D
3DC1: 0C            INC C
3DC2: 92            SUB D
3DC3: AF            XOR A
3DC4: 80            ADD A,B
3DC5: 8F            ADC A,A
3DC6: 06 88         LD B,88h

loc_3DC8:
3DC8: 8A            ADC A,D
3DC9: 0C            INC C
3DCA: 8D            ADC A,L
3DCB: 8F            ADC A,A
3DCC: 83            ADD A,E
3DCD: 06 88         LD B,88h
3DCF: 8A            ADC A,D
3DD0: 92            SUB D
3DD1: 94            SUB H
3DD2: 0C            INC C
3DD3: B2            OR D
3DD4: 80            ADD A,B

loc_3DD5:
3DD5: 92            SUB D
3DD6: 06 94         LD B,94h
3DD8: 96            SUB (HL)
3DD9: 94            SUB H
3DDA: 92            SUB D
3DDB: 8F            ADC A,A
3DDC: 8D            ADC A,L
3DDD: 0C            INC C
3DDE: 8B            ADC A,E
3DDF: 06 DE         LD B,DEh
3DE1: AB            XOR E
3DE2: 80            ADD A,B
3DE3: 0C            INC C
3DE4: 8B            ADC A,E
3DE5: 8A            ADC A,D
3DE6: DE DE         SBC A,DEh
3DE8: 18 DE         JR loc_3DC8
3DEA: 0C            INC C
3DEB: 88            ADC A,B
3DEC: 06 DE         LD B,DEh
3DEE: A8            XOR B
3DEF: 80            ADD A,B
3DF0: 0C            INC C
3DF1: 88            ADC A,B
3DF2: 8A            ADC A,D
3DF3: DE DE         SBC A,DEh
3DF5: 18 DE         JR loc_3DD5
3DF7: 0C            INC C
3DF8: 8B            ADC A,E
3DF9: 06 DE         LD B,DEh
3DFB: AB            XOR E
3DFC: 80            ADD A,B
3DFD: 0C            INC C
3DFE: 8B            ADC A,E
3DFF: 8A            ADC A,D
3E00: DE DE         SBC A,DEh
3E02: DE A8         SBC A,A8h

loc_3E04:
3E04: 80            ADD A,B
3E05: 88            ADC A,B
3E06: 06 8A         LD B,8Ah
3E08: 8D            ADC A,L
3E09: 8E            ADC A,(HL)
3E0A: 91            SUB C
3E0B: 94            SUB H
3E0C: 96            SUB (HL)
3E0D: 97            SUB A
3E0E: C6 C6         ADD A,C6h
3E10: 81            ADD A,C
3E11: C7            RST 00h
3E12: 8B            ADC A,E
3E13: 8A            ADC A,D
3E14: 88            ADC A,B
3E15: 86            ADD A,(HL)
3E16: 85            ADD A,L
3E17: 83            ADD A,E
3E18: E0            RET PO
3E19: 41            LD B,C
3E1A: FF            RST 38h
3E1B: DF            RST 18h

loc_3E1C:
3E1C: AA            XOR D
3E1D: 24            INC H
3E1E: C8            RET Z
3E1F: 50            LD D,B
3E20: E8            RET PE
3E21: 78            LD A,B
3E22: DB C8         IN A,(C8h)
3E24: 18 DE         JR loc_3E04
3E26: 60            LD H,B
3E27: DE DE         SBC A,DEh

loc_3E29:
3E29: DE DE         SBC A,DEh
3E2B: DE DE         SBC A,DEh
3E2D: DE DE         SBC A,DEh
3E2F: 0C            INC C
3E30: C5            PUSH BC
3E31: 30 86         JR NC,loc_3DB9
3E33: 06 DE         LD B,DEh
3E35: A6            AND (HL)
3E36: 80            ADD A,B
3E37: 0C            INC C
3E38: 86            ADD A,(HL)
3E39: 85            ADD A,L
3E3A: DE DE         SBC A,DEh
3E3C: 18 DE         JR loc_3E1C
3E3E: 0C            INC C
3E3F: 83            ADD A,E
3E40: 06 DE         LD B,DEh
3E42: A3            AND E
3E43: 80            ADD A,B
3E44: 0C            INC C
3E45: 83            ADD A,E
3E46: 85            ADD A,L
3E47: DE DE         SBC A,DEh
3E49: 18 DE         JR loc_3E29
3E4B: 0C            INC C
3E4C: 86            ADD A,(HL)

loc_3E4D:
3E4D: 06 DE         LD B,DEh
3E4F: A6            AND (HL)
3E50: 80            ADD A,B
3E51: 0C            INC C
3E52: 86            ADD A,(HL)
3E53: 85            ADD A,L
3E54: DE DE         SBC A,DEh
3E56: DE A3         SBC A,A3h
3E58: 80            ADD A,B
3E59: 83            ADD A,E
3E5A: DE 18         SBC A,18h
3E5C: DE 30         SBC A,30h
3E5E: DE E0         SBC A,E0h
3E60: C6 FF         ADD A,FFh
3E62: E6 E7         AND E7h
3E64: DF            RST 18h
3E65: 95            SUB L
3E66: 1A            LD A,(DE)
3E67: C8            RET Z
3E68: 55            LD D,L

loc_3E69:
3E69: DB FF         IN A,(FFh)
3E6B: E8            RET PE
3E6C: 64            LD H,H
3E6D: 18 DE         JR loc_3E4D
3E6F: 60            LD H,B
3E70: C5            PUSH BC
3E71: 3C            INC A
3E72: A3            AND E
3E73: 80            ADD A,B
3E74: A3            AND E
3E75: 80            ADD A,B
3E76: A3            AND E
3E77: 80            ADD A,B
3E78: 83            ADD A,E
3E79: A3            AND E
3E7A: 80            ADD A,B
3E7B: 83            ADD A,E
3E7C: A3            AND E
3E7D: 80            ADD A,B
3E7E: 83            ADD A,E
3E7F: 24            INC H
3E80: 86            ADD A,(HL)
3E81: 0C            INC C
3E82: 85            ADD A,L
3E83: 30 DE         JR NC,loc_3E63

loc_3E85:
3E85: 24            INC H
3E86: 83            ADD A,E
3E87: 0C            INC C
3E88: 85            ADD A,L

loc_3E89:
3E89: 30 DE         JR NC,loc_3E69
3E8B: 24            INC H
3E8C: 86            ADD A,(HL)
3E8D: 0C            INC C
3E8E: 85            ADD A,L
3E8F: DE DE         SBC A,DEh
3E91: DE A3         SBC A,A3h
3E93: 80            ADD A,B
3E94: 83            ADD A,E
3E95: A5            AND L
3E96: 80            ADD A,B
3E97: 48            LD C,B
3E98: 85            ADD A,L
3E99: E0            RET PO
3E9A: D5            PUSH DE

loc_3E9B:
3E9B: FF            RST 38h
3E9C: DF            RST 18h
3E9D: 5D            LD E,L
3E9E: 1A            LD A,(DE)
3E9F: C8            RET Z
3EA0: 55            LD D,L

loc_3EA1:
3EA1: DB FF         IN A,(FFh)
3EA3: E8            RET PE
3EA4: 64            LD H,H
3EA5: 18 DE         JR loc_3E85
3EA7: 60            LD H,B
3EA8: C5            PUSH BC
3EA9: 30 AA         JR NC,loc_3E55
3EAB: 80            ADD A,B
3EAC: AA            XOR D
3EAD: 80            ADD A,B
3EAE: AA            XOR D
3EAF: 80            ADD A,B
3EB0: 8A            ADC A,D
3EB1: AB            XOR E
3EB2: 80            ADD A,B
3EB3: 8B            ADC A,E
3EB4: AA            XOR D
3EB5: 80            ADD A,B
3EB6: 8A            ADC A,D
3EB7: 24            INC H
3EB8: 8F            ADC A,A
3EB9: 0C            INC C
3EBA: 8E            ADC A,(HL)
3EBB: 30 DE         JR NC,loc_3E9B

loc_3EBD:
3EBD: 24            INC H
3EBE: 8B            ADC A,E
3EBF: 0C            INC C
3EC0: 8E            ADC A,(HL)
3EC1: 30 DE         JR NC,loc_3EA1
3EC3: 24            INC H
3EC4: 8F            ADC A,A
3EC5: 0C            INC C
3EC6: 8E            ADC A,(HL)
3EC7: DE DE         SBC A,DEh
3EC9: DE AB         SBC A,ABh
3ECB: 80            ADD A,B
3ECC: 8B            ADC A,E
3ECD: AE            XOR (HL)
3ECE: 80            ADD A,B
3ECF: 48            LD C,B
3ED0: 8E            ADC A,(HL)

loc_3ED1:
3ED1: E0            RET PO
3ED2: D5            PUSH DE
3ED3: FF            RST 38h
3ED4: DF            RST 18h
3ED5: 25            DEC H
3ED6: 1A            LD A,(DE)

loc_3ED7:
3ED7: C8            RET Z
3ED8: 55            LD D,L
3ED9: DB FF         IN A,(FFh)
3EDB: E8            RET PE
3EDC: 64            LD H,H

loc_3EDD:
3EDD: 18 DE         JR loc_3EBD
3EDF: 60            LD H,B
3EE0: C5            PUSH BC
3EE1: 30 A6         JR NC,loc_3E89
3EE3: 80            ADD A,B
3EE4: 86            ADD A,(HL)
3EE5: B2            OR D
3EE6: 80            ADD A,B
3EE7: 92            SUB D

loc_3EE8:
3EE8: 8F            ADC A,A
3EE9: 92            SUB D
3EEA: A6            AND (HL)
3EEB: 80            ADD A,B
3EEC: 86            ADD A,(HL)
3EED: 24            INC H
3EEE: 8B            ADC A,E
3EEF: 0C            INC C
3EF0: 8A            ADC A,D
3EF1: 30 DE         JR NC,loc_3ED1
3EF3: 24            INC H
3EF4: 88            ADC A,B
3EF5: 0C            INC C
3EF6: 8A            ADC A,D
3EF7: 30 DE         JR NC,loc_3ED7
3EF9: 24            INC H
3EFA: 8B            ADC A,E
3EFB: 0C            INC C
3EFC: 8A            ADC A,D
3EFD: DE DE         SBC A,DEh
3EFF: DE A8         SBC A,A8h
3F01: 80            ADD A,B
3F02: 88            ADC A,B
3F03: AA            XOR D
3F04: 80            ADD A,B
3F05: 48            LD C,B
3F06: 8A            ADC A,D
3F07: E0            RET PO
3F08: D7            RST 10h
3F09: FF            RST 38h
3F0A: DF            RST 18h
3F0B: AF            XOR A

loc_3F0C:
3F0C: 27            DAA
3F0D: C8            RET Z
3F0E: 6E            LD L,(HL)
3F0F: E8            RET PE
3F10: 64            LD H,H
3F11: DF            RST 18h
3F12: F8            RET M
3F13: 26 C8         LD H,C8h
3F15: 64            LD H,H
3F16: 18 C5         JR loc_3EDD
3F18: 18 88         JR loc_3EA2
3F1A: E3            EX (SP),HL
3F1B: 03            INC BC
3F1C: DF            RST 18h
3F1D: 71            LD (HL),C
3F1E: 27            DAA
3F1F: C8            RET Z
3F20: 64            LD H,H
3F21: 18 C5         JR loc_3EE8
3F23: 24            INC H
3F24: 8B            ADC A,E
3F25: C8            RET Z
3F26: 6E            LD L,(HL)
3F27: DF            RST 18h

loc_3F28:
3F28: EA 27 0C      JP PE,loc_0C27
3F2B: 8B            ADC A,E
3F2C: DF            RST 18h
3F2D: 8D            ADC A,L
3F2E: 27            DAA
3F2F: 97            SUB A
3F30: 97            SUB A
3F31: 97            SUB A
3F32: DF            RST 18h
3F33: D7            RST 10h
3F34: 26 C8         LD H,C8h
3F36: 5F            LD E,A
3F37: C7            RST 00h
3F38: 8B            ADC A,E
3F39: DF            RST 18h
3F3A: 80            ADD A,B
3F3B: 27            DAA
3F3C: C8            RET Z
3F3D: 6E            LD L,(HL)
3F3E: C6 C6         ADD A,C6h
3F40: 8B            ADC A,E
3F41: 8B            ADC A,E
3F42: 8B            ADC A,E
3F43: DF            RST 18h
3F44: CE 27         ADC A,27h
3F46: C7            RST 00h

loc_3F47:
3F47: 8B            ADC A,E
3F48: DF            RST 18h
3F49: 71            LD (HL),C
3F4A: 27            DAA
3F4B: 97            SUB A
3F4C: 97            SUB A
3F4D: 97            SUB A

loc_3F4E:
3F4E: DF            RST 18h
3F4F: BB            CP E
3F50: 26 C8         LD H,C8h
3F52: 5F            LD E,A

loc_3F53:
3F53: C7            RST 00h
3F54: 8B            ADC A,E
3F55: DF            RST 18h
3F56: 64            LD H,H
3F57: 27            DAA
3F58: C8            RET Z
3F59: 6E            LD L,(HL)
3F5A: C6 C6         ADD A,C6h
3F5C: 8B            ADC A,E
3F5D: 8B            ADC A,E
3F5E: 8B            ADC A,E
3F5F: DF            RST 18h
3F60: B2            OR D
3F61: 27            DAA
3F62: C7            RST 00h
3F63: 8B            ADC A,E
3F64: DF            RST 18h
3F65: 55            LD D,L
3F66: 27            DAA
3F67: 97            SUB A
3F68: 97            SUB A
3F69: 97            SUB A
3F6A: DF            RST 18h
3F6B: 9F            SBC A,A
3F6C: 26 C8         LD H,C8h
3F6E: 5F            LD E,A
3F6F: C7            RST 00h
3F70: 8B            ADC A,E
3F71: DF            RST 18h
3F72: 48            LD C,B
3F73: 27            DAA
3F74: C8            RET Z
3F75: 6E            LD L,(HL)
3F76: C6 C6         ADD A,C6h
3F78: 8B            ADC A,E
3F79: 0C            INC C
3F7A: E5            PUSH HL
3F7B: 01 1A 00      LD BC,001Ah
3F7E: C5            PUSH BC
3F7F: 30 8B         JR NC,loc_3F0C
3F81: 8B            ADC A,E
3F82: DF            RST 18h
3F83: 8F            ADC A,A
3F84: 27            DAA
3F85: C7            RST 00h
3F86: 8B            ADC A,E
3F87: DF            RST 18h
3F88: 32 27 97      LD (9727h),A
3F8B: 97            SUB A
3F8C: 97            SUB A
3F8D: DF            RST 18h

loc_3F8E:
3F8E: 7C            LD A,H
3F8F: 26 C8         LD H,C8h
3F91: 5F            LD E,A
3F92: C7            RST 00h
3F93: 8B            ADC A,E

loc_3F94:
3F94: 8B            ADC A,E
3F95: E6 E6         AND E6h
3F97: 18 DE         JR loc_3F77
3F99: 0C            INC C
3F9A: C5            PUSH BC
3F9B: 30 8B         JR NC,loc_3F28
3F9D: DE 8B         SBC A,8Bh
3F9F: DE DF         SBC A,DFh
3FA1: 69            LD L,C
3FA2: 26 C8         LD H,C8h
3FA4: 5F            LD E,A
3FA5: C7            RST 00h
3FA6: C7            RST 00h
3FA7: 8B            ADC A,E
3FA8: 8B            ADC A,E
3FA9: E0            RET PO
3FAA: 70            LD (HL),B
3FAB: FF            RST 38h
3FAC: E7            RST 20h
3FAD: DF            RST 18h
3FAE: 90            SUB B

loc_3FAF:
3FAF: 27            DAA
3FB0: C8            RET Z
3FB1: 6E            LD L,(HL)
3FB2: E8            RET PE
3FB3: 64            LD H,H
3FB4: 18 DE         JR loc_3F94
3FB6: E3            EX (SP),HL
3FB7: 0A            LD A,(BC)
3FB8: 0C            INC C
3FB9: C5            PUSH BC
3FBA: 18 8B         JR loc_3F47
3FBC: DE 8B         SBC A,8Bh
3FBE: 8B            ADC A,E
3FBF: DE 8B         SBC A,8Bh
3FC1: 18 8B         JR loc_3F4E
3FC3: E6 0C         AND 0Ch
3FC5: C5            PUSH BC
3FC6: 18 8B         JR loc_3F53
3FC8: DE 8B         SBC A,8Bh
3FCA: 8B            ADC A,E
3FCB: DE 8B         SBC A,8Bh
3FCD: 8B            ADC A,E
3FCE: 8B            ADC A,E
3FCF: 18 DE         JR loc_3FAF
3FD1: DE DE         SBC A,DEh
3FD3: DE E0         SBC A,E0h
3FD5: E1            POP HL
3FD6: FF            RST 38h
3FD7: E7            RST 20h
3FD8: 00            NOP
3FD9: FF            RST 38h
3FDA: 1F            RRA
3FDB: 00            NOP
3FDC: 01 FF 5A      LD BC,5AFFh
3FDF: 00            NOP
3FE0: 02            LD (BC),A
3FE1: FF            RST 38h
3FE2: 9C            SBC A,H
3FE3: 00            NOP
3FE4: 03            INC BC
3FE5: FF            RST 38h
3FE6: B2            OR D
3FE7: 00            NOP
3FE8: 04            INC B
3FE9: FF            RST 38h
3FEA: C8            RET Z
3FEB: 00            NOP
3FEC: 05            DEC B
3FED: FF            RST 38h
3FEE: E4 00 06      CALL PO,sub_0600
3FF1: FF            RST 38h
3FF2: 00            NOP
3FF3: 01 07 FF      LD BC,FF07h
3FF6: 53            LD D,E
3FF7: 01 FF D0      LD BC,D0FFh
3FFA: 96            SUB (HL)
3FFB: DF            RST 18h
3FFC: 46            LD B,(HL)
3FFD: 22 C8 69      LD (69C8h),HL
4000: DB C8         IN A,(C8h)
4002: E8            RET PE
4003: 64            LD H,H
4004: 0C            INC C
4005: C5            PUSH BC
4006: 18 86         JR loc_3F8E
4008: 06 8B         LD B,8Bh

loc_400A:
400A: 8D            ADC A,L
400B: 90            SUB B

loc_400C:
400C: 92            SUB D
400D: 8B            ADC A,E
400E: 8D            ADC A,L
400F: 0C            INC C
4010: 88            ADC A,B
4011: 06 8D         LD B,8Dh
4013: 8F            ADC A,A
4014: 92            SUB D
4015: 94            SUB H
4016: 8D            ADC A,L
4017: 8F            ADC A,A
4018: 0C            INC C

loc_4019:
4019: 89            ADC A,C
401A: 06 8E         LD B,8Eh
401C: 90            SUB B
401D: 93            SUB E
401E: 95            SUB L
401F: 8E            ADC A,(HL)

sub_4020:
4020: 90            SUB B
4021: 0C            INC C
4022: 8B            ADC A,E
4023: 06 90         LD B,90h
4025: 92            SUB D
4026: 95            SUB L
4027: 97            SUB A
4028: 90            SUB B
4029: 92            SUB D
402A: 30 DE         JR NC,loc_400A
402C: 18 DE         JR loc_400C

loc_402E:
402E: 06 DE         LD B,DEh
4030: 8B            ADC A,E
4031: DB FA         IN A,(FAh)
4033: DE 8D         SBC A,8Dh
4035: 60            LD H,B
4036: DE E7         SBC A,E7h
4038: DF            RST 18h
4039: 35            DEC (HL)
403A: 22 C8 5F      LD (5FC8h),HL
403D: DB C8         IN A,(C8h)
403F: E8            RET PE

sub_4040:
4040: 64            LD H,H
4041: 0C            INC C
4042: C5            PUSH BC
4043: 24            INC H
4044: 86            ADD A,(HL)
4045: 06 8B         LD B,8Bh

loc_4047:
4047: 8D            ADC A,L
4048: 90            SUB B

loc_4049:
4049: 92            SUB D
404A: 8B            ADC A,E
404B: 8D            ADC A,L
404C: 0C            INC C
404D: 88            ADC A,B
404E: 06 8D         LD B,8Dh
4050: 8F            ADC A,A
4051: 92            SUB D

loc_4052:
4052: 94            SUB H
4053: 8D            ADC A,L
4054: 8F            ADC A,A
4055: 0C            INC C
4056: 89            ADC A,C
4057: 06 8E         LD B,8Eh
4059: 90            SUB B
405A: 93            SUB E

loc_405B:
405B: 95            SUB L
405C: 8E            ADC A,(HL)
405D: 90            SUB B
405E: 0C            INC C
405F: 8B            ADC A,E
4060: 06 90         LD B,90h
4062: 92            SUB D
4063: 95            SUB L
4064: 97            SUB A
4065: 90            SUB B
4066: 92            SUB D
4067: 30 DE         JR NC,loc_4047
4069: 18 DE         JR loc_4049
406B: DF            RST 18h

loc_406C:
406C: EA 1E C8      JP PE,C81Eh
406F: 5A            LD E,D
4070: DB C8         IN A,(C8h)
4072: E8            RET PE
4073: 64            LD H,H
4074: 06 DE         LD B,DEh

loc_4076:
4076: C6 C6         ADD A,C6h
4078: 8B            ADC A,E
4079: DB FA         IN A,(FAh)
407B: DE 8D         SBC A,8Dh
407D: E7            RST 20h
407E: DF            RST 18h
407F: D7            RST 10h
4080: 1E C8         LD E,C8h
4082: 5A            LD E,D
4083: DB C8         IN A,(C8h)
4085: E8            RET PE

loc_4086:
4086: 64            LD H,H
4087: 60            LD H,B
4088: DE DE         SBC A,DEh
408A: 30 DE         JR NC,loc_406A
408C: 18 DE         JR loc_406C
408E: 06 DE         LD B,DEh
4090: C5            PUSH BC
4091: 30 86         JR NC,loc_4019
4093: DB FA         IN A,(FAh)
4095: DE 88         SBC A,88h
4097: E7            RST 20h
4098: DF            RST 18h
4099: BD            CP L
409A: 1E C8         LD E,C8h
409C: 5A            LD E,D
409D: DB C8         IN A,(C8h)
409F: E8            RET PE

loc_40A0:
40A0: 64            LD H,H
40A1: 60            LD H,B
40A2: DE DE         SBC A,DEh
40A4: 30 DE         JR NC,loc_4084
40A6: 18 DE         JR loc_4086
40A8: 06 DE         LD B,DEh
40AA: C5            PUSH BC
40AB: 30 81         JR NC,loc_402E
40AD: DB FA         IN A,(FAh)
40AF: DE 85         SBC A,85h
40B1: E7            RST 20h
40B2: DF            RST 18h
40B3: 7F            LD A,A
40B4: 1F            RRA
40B5: C8            RET Z
40B6: 5A            LD E,D
40B7: DB C8         IN A,(C8h)
40B9: E8            RET PE
40BA: 64            LD H,H
40BB: 60            LD H,B
40BC: DE DE         SBC A,DEh

loc_40BE:
40BE: 30 DE         JR NC,loc_409E

loc_40C0:
40C0: 18 DE         JR loc_40A0
40C2: 06 DE         LD B,DEh
40C4: C5            PUSH BC

loc_40C5:
40C5: 30 8B         JR NC,loc_4052
40C7: DB FA         IN A,(FAh)
40C9: DE AD         SBC A,ADh
40CB: 80            ADD A,B
40CC: 18 8D         JR loc_405B
40CE: DE 30         SBC A,30h
40D0: DE E7         SBC A,E7h
40D2: DF            RST 18h
40D3: 5F            LD E,A
40D4: 1F            RRA
40D5: C8            RET Z
40D6: 5A            LD E,D
40D7: DB C8         IN A,(C8h)
40D9: E8            RET PE
40DA: 64            LD H,H
40DB: 60            LD H,B
40DC: DE DE         SBC A,DEh
40DE: 30 DE         JR NC,loc_40BE
40E0: 18 DE         JR loc_40C0
40E2: 06 DE         LD B,DEh
40E4: C5            PUSH BC
40E5: 30 86         JR NC,loc_406D
40E7: DB FA         IN A,(FAh)
40E9: DE A8         SBC A,A8h
40EB: 80            ADD A,B
40EC: 18 88         JR loc_4076
40EE: DE 30         SBC A,30h
40F0: DE E7         SBC A,E7h
40F2: DF            RST 18h
40F3: C7            RST 00h
40F4: 25            DEC H
40F5: C8            RET Z
40F6: 6E            LD L,(HL)
40F7: E8            RET PE
40F8: 64            LD H,H
40F9: DF            RST 18h
40FA: 94            SUB H
40FB: 25            DEC H
40FC: C8            RET Z
40FD: 64            LD H,H
40FE: 18 C5         JR loc_40C5
4100: 24            INC H
4101: 8B            ADC A,E
4102: C8            RET Z
4103: 6E            LD L,(HL)
4104: DF            RST 18h
4105: 0D            DEC C
4106: 26 0C         LD H,0Ch
4108: 8B            ADC A,E
4109: DF            RST 18h
410A: B0            OR B
410B: 25            DEC H

loc_410C:
410C: 97            SUB A
410D: 97            SUB A
410E: 97            SUB A
410F: DF            RST 18h
4110: 02            LD (BC),A
4111: 26 8B         LD H,8Bh
4113: DF            RST 18h
4114: A6            AND (HL)
4115: 25            DEC H
4116: 97            SUB A

loc_4117:
4117: 97            SUB A
4118: 97            SUB A
4119: DF            RST 18h
411A: F8            RET M
411B: 25            DEC H
411C: 8B            ADC A,E
411D: DF            RST 18h
411E: 9C            SBC A,H
411F: 25            DEC H
4120: 97            SUB A
4121: 97            SUB A
4122: 97            SUB A
4123: DF            RST 18h
4124: EE 25         XOR 25h
4126: 8B            ADC A,E
4127: DF            RST 18h
4128: 92            SUB D
4129: 25            DEC H
412A: 97            SUB A
412B: DF            RST 18h
412C: E6 25         AND 25h
412E: 04            INC B
412F: 90            SUB B
4130: 90            SUB B
4131: 8B            ADC A,E
4132: 8B            ADC A,E
4133: 86            ADD A,(HL)
4134: 86            ADD A,(HL)
4135: 90            SUB B
4136: 90            SUB B
4137: 8B            ADC A,E
4138: 8B            ADC A,E
4139: 86            ADD A,(HL)
413A: 86            ADD A,(HL)
413B: 90            SUB B
413C: 90            SUB B
413D: 8B            ADC A,E
413E: 8B            ADC A,E
413F: 86            ADD A,(HL)
4140: 86            ADD A,(HL)
4141: 06 DE         LD B,DEh
4143: 8B            ADC A,E
4144: DE 8B         SBC A,8Bh
4146: 60            LD H,B
4147: DE E7         SBC A,E7h
4149: DF            RST 18h
414A: F4 25 C8      CALL P,C825h
414D: 6E            LD L,(HL)
414E: E8            RET PE
414F: 64            LD H,H
4150: 18 C5         JR loc_4117
4152: 18 8B         JR loc_40DF
4154: 8B            ADC A,E
4155: 8B            ADC A,E
4156: 8B            ADC A,E
4157: 8B            ADC A,E
4158: 8B            ADC A,E
4159: 8B            ADC A,E
415A: 8B            ADC A,E
415B: 8B            ADC A,E
415C: 8B            ADC A,E
415D: 8B            ADC A,E
415E: 06 DE         LD B,DEh
4160: 8B            ADC A,E
4161: DE 8B         SBC A,8Bh
4163: 60            LD H,B
4164: DE E7         SBC A,E7h
4166: 00            NOP
4167: FF            RST 38h

loc_4168:
4168: 1F            RRA
4169: 00            NOP
416A: 01 FF D6      LD BC,D6FFh
416D: 00            NOP
416E: 02            LD (BC),A
416F: FF            RST 38h
4170: 22 01 03      LD (0301h),HL
4173: FF            RST 38h
4174: F4 01 04      CALL P,loc_0401
4177: FF            RST 38h
4178: C7            RST 00h
4179: 02            LD (BC),A
417A: 05            DEC B

loc_417B:
417B: FF            RST 38h
417C: F4 02 06      CALL P,sub_0602
417F: FF            RST 38h
4180: 21 03 07      LD HL,0703h

loc_4183:
4183: FF            RST 38h
4184: CE 03         ADC A,03h

loc_4186:
4186: FF            RST 38h
4187: D0            RET NC
4188: 6E            LD L,(HL)
4189: DF            RST 18h
418A: 7C            LD A,H
418B: 1E C8         LD E,C8h
418D: 64            LD H,H
418E: DB FA         IN A,(FAh)
4190: E8            RET PE
4191: 64            LD H,H
4192: E3            EX (SP),HL
4193: 02            LD (BC),A
4194: 24            INC H
4195: C5            PUSH BC
4196: 3C            INC A
4197: 83            ADD A,E
4198: 0C            INC C
4199: 81            ADD A,C
419A: 83            ADD A,E
419B: A8            XOR B
419C: 80            ADD A,B
419D: 88            ADC A,B
419E: A3            AND E
419F: 80            ADD A,B
41A0: 30 A3         JR NC,loc_4145
41A2: 80            ADD A,B
41A3: 0C            INC C
41A4: 83            ADD A,E
41A5: C7            RST 00h
41A6: 88            ADC A,B
41A7: 8A            ADC A,D
41A8: 8B            ADC A,E

loc_41A9:
41A9: 24            INC H
41AA: 8D            ADC A,L
41AB: 0C            INC C
41AC: 8B            ADC A,E
41AD: 8D            ADC A,L
41AE: B2            OR D
41AF: 80            ADD A,B
41B0: 92            SUB D
41B1: AD            XOR L
41B2: 80            ADD A,B
41B3: 8D            ADC A,L
41B4: AF            XOR A
41B5: 80            ADD A,B
41B6: 8F            ADC A,A
41B7: B0            OR B
41B8: 80            ADD A,B
41B9: 90            SUB B
41BA: 8F            ADC A,A
41BB: 06 88         LD B,88h
41BD: 8A            ADC A,D
41BE: 8B            ADC A,E
41BF: 8D            ADC A,L
41C0: 24            INC H
41C1: 8F            ADC A,A
41C2: 0C            INC C
41C3: 8D            ADC A,L
41C4: 8F            ADC A,A
41C5: B4            OR H

loc_41C6:
41C6: 80            ADD A,B
41C7: 94            SUB H
41C8: AF            XOR A
41C9: 80            ADD A,B
41CA: 30 AF         JR NC,loc_417B
41CC: 80            ADD A,B
41CD: 0C            INC C
41CE: 8F            ADC A,A

loc_41CF:
41CF: 97            SUB A
41D0: 96            SUB (HL)
41D1: 92            SUB D
41D2: 24            INC H
41D3: 8D            ADC A,L
41D4: 0C            INC C
41D5: AF            XOR A
41D6: 80            ADD A,B
41D7: 18 8F         JR loc_4168
41D9: 92            SUB D
41DA: E5            PUSH HL
41DB: 01 0D 00      LD BC,000Dh
41DE: 24            INC H

loc_41DF:
41DF: C5            PUSH BC
41E0: 30 8A         JR NC,loc_416C
41E2: 0C            INC C
41E3: AB            XOR E
41E4: 80            ADD A,B
41E5: 18 8B         JR loc_4172
41E7: 8F            ADC A,A
41E8: E6 E6         AND E6h
41EA: 24            INC H
41EB: C5            PUSH BC
41EC: 3C            INC A
41ED: 8A            ADC A,D
41EE: 0C            INC C
41EF: 8B            ADC A,E
41F0: 8A            ADC A,D
41F1: 88            ADC A,B
41F2: 86            ADD A,(HL)
41F3: 84            ADD A,H
41F4: 24            INC H

loc_41F5:
41F5: 83            ADD A,E

loc_41F6:
41F6: 0C            INC C
41F7: A8            XOR B
41F8: 80            ADD A,B
41F9: 18 88         JR loc_4183
41FB: 86            ADD A,(HL)
41FC: 24            INC H
41FD: 81            ADD A,C
41FE: 0C            INC C
41FF: A3            AND E
4200: 80            ADD A,B
4201: 18 83         JR loc_4186
4203: 86            ADD A,(HL)
4204: 0C            INC C
4205: 85            ADD A,L
4206: A1            AND C
4207: 80            ADD A,B
4208: 81            ADD A,C
4209: C7            RST 00h
420A: A8            XOR B
420B: 80            ADD A,B
420C: 88            ADC A,B
420D: 91            SUB C
420E: 8D            ADC A,L
420F: 88            ADC A,B
4210: 8F            ADC A,A
4211: AB            XOR E
4212: 80            ADD A,B
4213: 8B            ADC A,E
4214: A8            XOR B
4215: 80            ADD A,B
4216: 88            ADC A,B
4217: 8B            ADC A,E
4218: 18 8F         JR loc_41A9
421A: 0C            INC C
421B: 8E            ADC A,(HL)
421C: 8B            ADC A,E
421D: 92            SUB D
421E: B0            OR B
421F: 80            ADD A,B
4220: 90            SUB B
4221: 92            SUB D
4222: 90            SUB B
4223: 8E            ADC A,(HL)
4224: 8D            ADC A,L

loc_4225:
4225: 8E            ADC A,(HL)
4226: 90            SUB B
4227: A9            XOR C
4228: 80            ADD A,B
4229: 89            ADC A,C

loc_422A:
422A: 86            ADD A,(HL)
422B: 89            ADC A,C
422C: 8D            ADC A,L
422D: 24            INC H
422E: 90            SUB B
422F: 0C            INC C
4230: 8E            ADC A,(HL)
4231: 8D            ADC A,L
4232: B0            OR B
4233: 80            ADD A,B
4234: 18 90         JR loc_41C6

loc_4236:
4236: 24            INC H
4237: 8F            ADC A,A
4238: 0C            INC C
4239: B2            OR D
423A: 80            ADD A,B
423B: 18 92         JR loc_41CF
423D: 96            SUB (HL)
423E: E0            RET PO
423F: 53            LD D,E
4240: FF            RST 38h
4241: E7            RST 20h

loc_4242:
4242: DF            RST 18h
4243: C3 1D C8      JP C81Dh
4246: 64            LD H,H
4247: DB FA         IN A,(FAh)
4249: E8            RET PE
424A: 64            LD H,H
424B: E3            EX (SP),HL
424C: 02            LD (BC),A
424D: 60            LD H,B
424E: C5            PUSH BC
424F: 18 A4         JR loc_41F5
4251: 80            ADD A,B
4252: 18 84         JR loc_41D8
4254: 8B            ADC A,E
4255: 88            ADC A,B
4256: 84            ADD A,H
4257: 60            LD H,B
4258: A3            AND E
4259: 80            ADD A,B
425A: 18 83         JR loc_41DF
425C: 8A            ADC A,D
425D: 86            ADD A,(HL)
425E: 8A            ADC A,D
425F: 60            LD H,B
4260: 81            ADD A,C
4261: 18 C7         JR loc_422A
4263: 86            ADD A,(HL)
4264: 88            ADC A,B
4265: 8A            ADC A,D
4266: 8D            ADC A,L
4267: 48            LD C,B
4268: 8B            ADC A,E
4269: 18 8B         JR loc_41F6

loc_426B:
426B: E5            PUSH HL
426C: 01 0D 00      LD BC,000Dh
426F: 30 C5         JR NC,loc_4236
4271: 0C            INC C
4272: AB            XOR E
4273: 80            ADD A,B
4274: 0C            INC C
4275: 8B            ADC A,E
4276: 8A            ADC A,D
4277: 8B            ADC A,E
4278: 8F            ADC A,A
4279: E6 E6         AND E6h
427B: 30 C5         JR NC,loc_4242
427D: 0C            INC C
427E: AB            XOR E
427F: 80            ADD A,B
4280: 0C            INC C
4281: 8B            ADC A,E
4282: 83            ADD A,E
4283: 86            ADD A,(HL)
4284: 87            ADD A,A
4285: 60            LD H,B
4286: 88            ADC A,B
4287: 86            ADD A,(HL)
4288: 85            ADD A,L
4289: 84            ADD A,H
428A: 84            ADD A,H
428B: 89            ADC A,C
428C: 8E            ADC A,(HL)
428D: 86            ADD A,(HL)
428E: E0            RET PO
428F: BC            CP H
4290: FF            RST 38h
4291: E7            RST 20h
4292: DF            RST 18h
4293: 4F            LD C,A
4294: 1E C8         LD E,C8h
4296: 5A            LD E,D
4297: DB B4         IN A,(B4h)
4299: E8            RET PE
429A: 64            LD H,H
429B: E3            EX (SP),HL
429C: 04            INC B
429D: 06 C5         LD B,C5h
429F: 30 84         JR NC,loc_4225
42A1: 88            ADC A,B
42A2: 8B            ADC A,E
42A3: 8F            ADC A,A
42A4: 84            ADD A,H
42A5: 88            ADC A,B
42A6: 8B            ADC A,E
42A7: 8F            ADC A,A
42A8: 84            ADD A,H
42A9: 88            ADC A,B
42AA: 8B            ADC A,E
42AB: 8F            ADC A,A
42AC: 84            ADD A,H
42AD: 88            ADC A,B
42AE: 8B            ADC A,E
42AF: 8F            ADC A,A
42B0: 84            ADD A,H
42B1: 88            ADC A,B
42B2: 8B            ADC A,E
42B3: 8F            ADC A,A
42B4: 84            ADD A,H
42B5: 88            ADC A,B
42B6: 8B            ADC A,E
42B7: 8F            ADC A,A
42B8: 84            ADD A,H
42B9: 88            ADC A,B
42BA: 8B            ADC A,E
42BB: 8F            ADC A,A
42BC: 84            ADD A,H
42BD: 88            ADC A,B
42BE: 8B            ADC A,E
42BF: 8F            ADC A,A
42C0: 83            ADD A,E
42C1: 86            ADD A,(HL)
42C2: 8A            ADC A,D
42C3: 8D            ADC A,L
42C4: 83            ADD A,E
42C5: 86            ADD A,(HL)
42C6: 8A            ADC A,D
42C7: 8D            ADC A,L
42C8: 83            ADD A,E
42C9: 86            ADD A,(HL)
42CA: 8A            ADC A,D
42CB: 8D            ADC A,L
42CC: 83            ADD A,E
42CD: 86            ADD A,(HL)
42CE: 8A            ADC A,D
42CF: 8D            ADC A,L
42D0: 83            ADD A,E
42D1: 86            ADD A,(HL)
42D2: 8A            ADC A,D
42D3: 8D            ADC A,L
42D4: 83            ADD A,E
42D5: 86            ADD A,(HL)
42D6: 8A            ADC A,D
42D7: 8D            ADC A,L
42D8: 83            ADD A,E
42D9: 86            ADD A,(HL)
42DA: 8A            ADC A,D
42DB: 8D            ADC A,L
42DC: 83            ADD A,E
42DD: 86            ADD A,(HL)
42DE: 8A            ADC A,D
42DF: 8D            ADC A,L
42E0: E6 06         AND 06h
42E2: C5            PUSH BC
42E3: 30 86         JR NC,loc_426B
42E5: 88            ADC A,B
42E6: 8B            ADC A,E
42E7: 8F            ADC A,A
42E8: 86            ADD A,(HL)
42E9: 88            ADC A,B
42EA: 8B            ADC A,E
42EB: 8F            ADC A,A
42EC: 86            ADD A,(HL)
42ED: 88            ADC A,B
42EE: 8B            ADC A,E
42EF: 8F            ADC A,A
42F0: 86            ADD A,(HL)
42F1: 88            ADC A,B
42F2: 8B            ADC A,E
42F3: 8F            ADC A,A
42F4: 86            ADD A,(HL)
42F5: 8A            ADC A,D
42F6: 8D            ADC A,L
42F7: 8F            ADC A,A
42F8: 86            ADD A,(HL)
42F9: 8A            ADC A,D
42FA: 8D            ADC A,L
42FB: 8F            ADC A,A
42FC: 86            ADD A,(HL)
42FD: 8A            ADC A,D
42FE: 8D            ADC A,L
42FF: 8F            ADC A,A
4300: 86            ADD A,(HL)
4301: 8A            ADC A,D

loc_4302:
4302: 8D            ADC A,L
4303: 8F            ADC A,A
4304: 81            ADD A,C
4305: 85            ADD A,L
4306: 88            ADC A,B
4307: 8D            ADC A,L
4308: 81            ADD A,C
4309: 85            ADD A,L
430A: 88            ADC A,B
430B: 8D            ADC A,L
430C: 81            ADD A,C
430D: 85            ADD A,L
430E: 88            ADC A,B
430F: 8D            ADC A,L
4310: 81            ADD A,C
4311: 85            ADD A,L
4312: 88            ADC A,B
4313: 8D            ADC A,L
4314: 84            ADD A,H
4315: 88            ADC A,B
4316: 8B            ADC A,E
4317: 8F            ADC A,A
4318: 84            ADD A,H
4319: 88            ADC A,B
431A: 8B            ADC A,E
431B: 8F            ADC A,A
431C: 84            ADD A,H
431D: 88            ADC A,B
431E: 8B            ADC A,E
431F: 8F            ADC A,A
4320: 84            ADD A,H
4321: 88            ADC A,B
4322: 8B            ADC A,E
4323: 8F            ADC A,A
4324: 84            ADD A,H
4325: 87            ADD A,A
4326: 8B            ADC A,E
4327: 8E            ADC A,(HL)
4328: 84            ADD A,H
4329: 87            ADD A,A
432A: 8B            ADC A,E
432B: 8E            ADC A,(HL)
432C: 84            ADD A,H
432D: 87            ADD A,A
432E: 8B            ADC A,E
432F: 8E            ADC A,(HL)
4330: 84            ADD A,H
4331: 87            ADD A,A
4332: 8B            ADC A,E
4333: 8E            ADC A,(HL)
4334: 84            ADD A,H
4335: 87            ADD A,A
4336: 8B            ADC A,E
4337: 8D            ADC A,L
4338: 84            ADD A,H
4339: 87            ADD A,A
433A: 8B            ADC A,E
433B: 8D            ADC A,L
433C: 84            ADD A,H
433D: 87            ADD A,A
433E: 8B            ADC A,E
433F: 8D            ADC A,L
4340: 84            ADD A,H
4341: 87            ADD A,A
4342: 8B            ADC A,E
4343: 8D            ADC A,L
4344: 84            ADD A,H
4345: 86            ADD A,(HL)
4346: 89            ADC A,C
4347: 8D            ADC A,L
4348: 84            ADD A,H
4349: 86            ADD A,(HL)
434A: 89            ADC A,C
434B: 8D            ADC A,L
434C: 84            ADD A,H
434D: 86            ADD A,(HL)
434E: 89            ADC A,C
434F: 8D            ADC A,L
4350: 84            ADD A,H
4351: 86            ADD A,(HL)
4352: 89            ADC A,C
4353: 8D            ADC A,L
4354: 84            ADD A,H
4355: 88            ADC A,B
4356: 8B            ADC A,E
4357: 8F            ADC A,A
4358: 84            ADD A,H
4359: 88            ADC A,B
435A: 8B            ADC A,E
435B: 8F            ADC A,A
435C: 84            ADD A,H
435D: 88            ADC A,B
435E: 8B            ADC A,E
435F: 8F            ADC A,A
4360: 84            ADD A,H
4361: 88            ADC A,B
4362: 8B            ADC A,E
4363: 8F            ADC A,A
4364: E0            RET PO
4365: 36 FF         LD (HL),FFh
4367: E7            RST 20h
4368: DF            RST 18h
4369: 79            LD A,C
436A: 1D            DEC E
436B: C8            RET Z
436C: 5A            LD E,D
436D: DB B4         IN A,(B4h)
436F: E8            RET PE
4370: 64            LD H,H
4371: E3            EX (SP),HL
4372: 04            INC B
4373: 06 C5         LD B,C5h
4375: 30 8B         JR NC,loc_4302
4377: 84            ADD A,H
4378: 8F            ADC A,A
4379: 88            ADC A,B
437A: 8B            ADC A,E
437B: 84            ADD A,H
437C: 8F            ADC A,A
437D: 88            ADC A,B
437E: 8B            ADC A,E
437F: 84            ADD A,H
4380: 8F            ADC A,A
4381: 88            ADC A,B
4382: 8B            ADC A,E
4383: 84            ADD A,H
4384: 8F            ADC A,A

loc_4385:
4385: 88            ADC A,B
4386: 8B            ADC A,E
4387: 84            ADD A,H
4388: 8F            ADC A,A
4389: 88            ADC A,B
438A: 8B            ADC A,E
438B: 84            ADD A,H
438C: 8F            ADC A,A
438D: 88            ADC A,B
438E: 8B            ADC A,E
438F: 84            ADD A,H
4390: 8F            ADC A,A
4391: 88            ADC A,B
4392: 8B            ADC A,E
4393: 84            ADD A,H
4394: 8F            ADC A,A
4395: 88            ADC A,B
4396: 8A            ADC A,D
4397: 83            ADD A,E
4398: 8D            ADC A,L
4399: 86            ADD A,(HL)
439A: 8A            ADC A,D
439B: 83            ADD A,E
439C: 8D            ADC A,L
439D: 86            ADD A,(HL)
439E: 8A            ADC A,D
439F: 83            ADD A,E
43A0: 8D            ADC A,L
43A1: 86            ADD A,(HL)
43A2: 8A            ADC A,D
43A3: 83            ADD A,E
43A4: 8D            ADC A,L
43A5: 86            ADD A,(HL)
43A6: 8A            ADC A,D
43A7: 83            ADD A,E
43A8: 8D            ADC A,L
43A9: 86            ADD A,(HL)
43AA: 8A            ADC A,D
43AB: 83            ADD A,E
43AC: 8D            ADC A,L
43AD: 86            ADD A,(HL)
43AE: 8A            ADC A,D
43AF: 83            ADD A,E
43B0: 8D            ADC A,L
43B1: 86            ADD A,(HL)
43B2: 8A            ADC A,D
43B3: 83            ADD A,E
43B4: 8D            ADC A,L
43B5: 86            ADD A,(HL)
43B6: E6 06         AND 06h
43B8: C5            PUSH BC
43B9: 3C            INC A
43BA: 83            ADD A,E
43BB: C7            RST 00h
43BC: 8B            ADC A,E
43BD: 86            ADD A,(HL)
43BE: 88            ADC A,B
43BF: 8F            ADC A,A
43C0: 8B            ADC A,E
43C1: 86            ADD A,(HL)
43C2: 88            ADC A,B
43C3: 8F            ADC A,A
43C4: 8B            ADC A,E
43C5: 86            ADD A,(HL)
43C6: 88            ADC A,B
43C7: 8F            ADC A,A
43C8: 8B            ADC A,E
43C9: 86            ADD A,(HL)
43CA: 88            ADC A,B
43CB: 8F            ADC A,A
43CC: 8D            ADC A,L
43CD: 86            ADD A,(HL)
43CE: 8A            ADC A,D
43CF: 8F            ADC A,A
43D0: 8D            ADC A,L
43D1: 86            ADD A,(HL)
43D2: 8A            ADC A,D
43D3: 8F            ADC A,A
43D4: 8D            ADC A,L
43D5: 86            ADD A,(HL)
43D6: 8A            ADC A,D
43D7: 8F            ADC A,A
43D8: 8D            ADC A,L
43D9: 86            ADD A,(HL)
43DA: 8A            ADC A,D
43DB: 88            ADC A,B
43DC: 81            ADD A,C
43DD: 8D            ADC A,L
43DE: 85            ADD A,L
43DF: 88            ADC A,B
43E0: 81            ADD A,C
43E1: 8D            ADC A,L
43E2: 85            ADD A,L
43E3: 88            ADC A,B

loc_43E4:
43E4: 81            ADD A,C
43E5: 8D            ADC A,L
43E6: 85            ADD A,L
43E7: 88            ADC A,B
43E8: 81            ADD A,C
43E9: 8D            ADC A,L

loc_43EA:
43EA: 85            ADD A,L
43EB: 8B            ADC A,E
43EC: 84            ADD A,H
43ED: 8F            ADC A,A
43EE: 88            ADC A,B
43EF: 8B            ADC A,E
43F0: 84            ADD A,H
43F1: 8F            ADC A,A
43F2: 88            ADC A,B
43F3: 8B            ADC A,E
43F4: 84            ADD A,H
43F5: 8F            ADC A,A

loc_43F6:
43F6: 88            ADC A,B
43F7: 8B            ADC A,E
43F8: 84            ADD A,H
43F9: 8F            ADC A,A
43FA: 88            ADC A,B
43FB: 8B            ADC A,E
43FC: 84            ADD A,H
43FD: 8E            ADC A,(HL)
43FE: 87            ADD A,A
43FF: 8B            ADC A,E
4400: 84            ADD A,H
4401: 8E            ADC A,(HL)
4402: 87            ADD A,A
4403: 8B            ADC A,E
4404: 84            ADD A,H
4405: 8E            ADC A,(HL)
4406: 87            ADD A,A
4407: 8B            ADC A,E
4408: 84            ADD A,H
4409: 8E            ADC A,(HL)
440A: 87            ADD A,A
440B: 8D            ADC A,L
440C: 84            ADD A,H
440D: 87            ADD A,A
440E: 84            ADD A,H
440F: 8D            ADC A,L
4410: 84            ADD A,H
4411: 87            ADD A,A

loc_4412:
4412: 84            ADD A,H
4413: 8D            ADC A,L
4414: 84            ADD A,H
4415: 87            ADD A,A
4416: 84            ADD A,H
4417: 8D            ADC A,L

loc_4418:
4418: 84            ADD A,H
4419: 87            ADD A,A
441A: 84            ADD A,H
441B: 89            ADC A,C
441C: 8D            ADC A,L
441D: 84            ADD A,H
441E: 86            ADD A,(HL)
441F: 89            ADC A,C
4420: 8D            ADC A,L
4421: 84            ADD A,H
4422: 86            ADD A,(HL)

loc_4423:
4423: 89            ADC A,C
4424: 8D            ADC A,L
4425: 84            ADD A,H
4426: 86            ADD A,(HL)
4427: 89            ADC A,C
4428: 8D            ADC A,L
4429: 84            ADD A,H
442A: 86            ADD A,(HL)
442B: 8B            ADC A,E
442C: 84            ADD A,H
442D: 8F            ADC A,A
442E: 88            ADC A,B
442F: 8B            ADC A,E
4430: 84            ADD A,H
4431: 8F            ADC A,A
4432: 88            ADC A,B
4433: 8B            ADC A,E
4434: 84            ADD A,H
4435: 8F            ADC A,A
4436: 88            ADC A,B
4437: 8B            ADC A,E
4438: 84            ADD A,H
4439: 8F            ADC A,A
443A: 88            ADC A,B
443B: E0            RET PO
443C: 35            DEC (HL)
443D: FF            RST 38h
443E: E7            RST 20h
443F: DF            RST 18h
4440: C6 1B         ADD A,1Bh
4442: C8            RET Z
4443: 5A            LD E,D
4444: DB FA         IN A,(FAh)
4446: E8            RET PE
4447: 64            LD H,H
4448: E3            EX (SP),HL
4449: 02            LD (BC),A
444A: 60            LD H,B
444B: C5            PUSH BC
444C: 30 A8         JR NC,loc_43F6
444E: 80            ADD A,B
444F: 88            ADC A,B
4450: A6            AND (HL)
4451: 80            ADD A,B
4452: 86            ADD A,(HL)
4453: 88            ADC A,B
4454: 88            ADC A,B
4455: 86            ADD A,(HL)
4456: E5            PUSH HL
4457: 01 07 00      LD BC,0007h
445A: 60            LD H,B

loc_445B:
445B: C5            PUSH BC
445C: 30 86         JR NC,loc_43E4
445E: E6 E6         AND E6h
4460: 60            LD H,B
4461: C5            PUSH BC
4462: 30 86         JR NC,loc_43EA
4464: 8B            ADC A,E

loc_4465:
4465: 8A            ADC A,D
4466: 88            ADC A,B
4467: 88            ADC A,B
4468: 87            ADD A,A
4469: 87            ADD A,A
446A: 89            ADC A,C
446B: 88            ADC A,B
446C: E0            RET PO

loc_446D:
446D: DB FF         IN A,(FFh)
446F: E7            RST 20h
4470: DF            RST 18h
4471: 95            SUB L
4472: 1B            DEC DE

loc_4473:
4473: C8            RET Z

loc_4474:
4474: 5A            LD E,D
4475: DB FA         IN A,(FAh)
4477: E8            RET PE
4478: 64            LD H,H

loc_4479:
4479: E3            EX (SP),HL
447A: 02            LD (BC),A
447B: 60            LD H,B
447C: C5            PUSH BC
447D: 30 A4         JR NC,loc_4423
447F: 80            ADD A,B
4480: 84            ADD A,H
4481: A3            AND E
4482: 80            ADD A,B
4483: 83            ADD A,E
4484: 84            ADD A,H
4485: 84            ADD A,H
4486: 83            ADD A,E
4487: E5            PUSH HL

loc_4488:
4488: 01 07 00      LD BC,0007h
448B: 60            LD H,B
448C: C5            PUSH BC
448D: 30 83         JR NC,loc_4412
448F: E6 E6         AND E6h
4491: 60            LD H,B
4492: C5            PUSH BC
4493: 30 83         JR NC,loc_4418
4495: 88            ADC A,B
4496: 86            ADD A,(HL)
4497: 85            ADD A,L

loc_4498:
4498: 84            ADD A,H
4499: 84            ADD A,H
449A: 84            ADD A,H
449B: 86            ADD A,(HL)
449C: 84            ADD A,H
449D: E0            RET PO
449E: DB FF         IN A,(FFh)

loc_44A0:
44A0: E7            RST 20h
44A1: DF            RST 18h
44A2: 64            LD H,H
44A3: 1B            DEC DE
44A4: C8            RET Z
44A5: 64            LD H,H
44A6: DB FA         IN A,(FAh)
44A8: E8            RET PE
44A9: 64            LD H,H
44AA: E3            EX (SP),HL
44AB: 02            LD (BC),A
44AC: 30 C5         JR NC,loc_4473
44AE: 30 AB         JR NC,loc_445B
44B0: 80            ADD A,B
44B1: 0C            INC C
44B2: 8B            ADC A,E
44B3: AF            XOR A
44B4: 80            ADD A,B
44B5: 8F            ADC A,A

loc_44B6:
44B6: AB            XOR E
44B7: 80            ADD A,B
44B8: 30 AB         JR NC,loc_4465
44BA: 80            ADD A,B
44BB: 0C            INC C
44BC: 8B            ADC A,E
44BD: 88            ADC A,B

loc_44BE:
44BE: 88            ADC A,B
44BF: 88            ADC A,B
44C0: 30 AB         JR NC,loc_446D
44C2: 80            ADD A,B
44C3: 0C            INC C
44C4: 8B            ADC A,E
44C5: AD            XOR L
44C6: 80            ADD A,B
44C7: 8D            ADC A,L
44C8: AA            XOR D
44C9: 80            ADD A,B
44CA: 48            LD C,B
44CB: 8A            ADC A,D
44CC: 06 84         LD B,84h
44CE: 86            ADD A,(HL)
44CF: 88            ADC A,B
44D0: 8A            ADC A,D
44D1: 30 AB         JR NC,loc_447E

loc_44D3:
44D3: 80            ADD A,B
44D4: 0C            INC C
44D5: 8B            ADC A,E
44D6: AF            XOR A
44D7: 80            ADD A,B
44D8: 8F            ADC A,A
44D9: AB            XOR E

loc_44DA:
44DA: 80            ADD A,B
44DB: 30 AB         JR NC,loc_4488
44DD: 80            ADD A,B
44DE: 0C            INC C
44DF: 8B            ADC A,E
44E0: 94            SUB H
44E1: 92            SUB D
44E2: 8F            ADC A,A
44E3: 24            INC H
44E4: 8A            ADC A,D
44E5: 0C            INC C
44E6: AA            XOR D
44E7: 80            ADD A,B

loc_44E8:
44E8: 18 8A         JR loc_4474
44EA: 8D            ADC A,L
44EB: E5            PUSH HL
44EC: 01 0D 00      LD BC,000Dh

loc_44EF:
44EF: 24            INC H
44F0: C5            PUSH BC
44F1: 30 86         JR NC,loc_4479
44F3: 0C            INC C
44F4: A6            AND (HL)
44F5: 80            ADD A,B
44F6: 18 86         JR loc_447E
44F8: 8B            ADC A,E
44F9: E6 E6         AND E6h
44FB: 24            INC H
44FC: C5            PUSH BC
44FD: 3C            INC A
44FE: 86            ADD A,(HL)
44FF: 0C            INC C
4500: C7            RST 00h
4501: 83            ADD A,E
4502: 84            ADD A,H
4503: 86            ADD A,(HL)
4504: 88            ADC A,B
4505: 8A            ADC A,D
4506: 24            INC H
4507: 8A            ADC A,D
4508: 0C            INC C
4509: AB            XOR E
450A: 80            ADD A,B
450B: 18 8B         JR loc_4498
450D: 8B            ADC A,E
450E: 24            INC H
450F: 88            ADC A,B
4510: 0C            INC C
4511: AB            XOR E
4512: 80            ADD A,B
4513: 18 8B         JR loc_44A0
4515: 8F            ADC A,A
4516: 0C            INC C
4517: 8D            ADC A,L
4518: A8            XOR B
4519: 80            ADD A,B
451A: 88            ADC A,B
451B: A5            AND L
451C: 80            ADD A,B
451D: 85            ADD A,L
451E: 8D            ADC A,L
451F: 88            ADC A,B

loc_4520:
4520: 85            ADD A,L
4521: 8B            ADC A,E
4522: A8            XOR B
4523: 80            ADD A,B
4524: 88            ADC A,B
4525: A4            AND H
4526: 80            ADD A,B
4527: 84            ADD A,H
4528: 88            ADC A,B
4529: 18 8B         JR loc_44B6
452B: 0C            INC C
452C: 8B            ADC A,E
452D: 87            ADD A,A
452E: 8E            ADC A,(HL)

loc_452F:
452F: AB            XOR E
4530: 80            ADD A,B
4531: 30 8B         JR NC,loc_44BE
4533: 0C            INC C
4534: 89            ADC A,C
4535: 89            ADC A,C
4536: 89            ADC A,C
4537: A4            AND H
4538: 80            ADD A,B
4539: 84            ADD A,H
453A: 81            ADD A,C
453B: 86            ADD A,(HL)
453C: 89            ADC A,C
453D: 24            INC H
453E: 8D            ADC A,L
453F: 0C            INC C
4540: 89            ADC A,C
4541: 89            ADC A,C
4542: AD            XOR L
4543: 80            ADD A,B
4544: 18 8D         JR loc_44D3
4546: 24            INC H
4547: 8B            ADC A,E
4548: 0C            INC C
4549: AD            XOR L
454A: 80            ADD A,B
454B: 18 8D         JR loc_44DA
454D: 92            SUB D
454E: E0            RET PO
454F: 5B            LD E,E
4550: FF            RST 38h
4551: E7            RST 20h
4552: DF            RST 18h
4553: EB            EX DE,HL
4554: 21 C8 6E      LD HL,6EC8h
4557: E8            RET PE
4558: 64            LD H,H
4559: 18 C5         JR loc_4520
455B: 18 8B         JR loc_44E8
455D: 8B            ADC A,E
455E: C8            RET Z
455F: 5F            LD E,A
4560: DF            RST 18h
4561: A9            XOR C
4562: 20 8B         JR NZ,loc_44EF
4564: DF            RST 18h
4565: 29            ADD HL,HL
4566: 21 C8 64      LD HL,64C8h
4569: C6 C6         ADD A,C6h
456B: 8B            ADC A,E
456C: DF            RST 18h
456D: D1            POP DE
456E: 21 C8 6E      LD HL,6EC8h
4571: E0            RET PO
4572: E7            RST 20h
4573: FF            RST 38h
4574: E7            RST 20h
4575: 00            NOP
4576: FF            RST 38h
4577: 1F            RRA
4578: 00            NOP
4579: 01 FF 52      LD BC,52FFh
457C: 00            NOP
457D: 02            LD (BC),A
457E: FF            RST 38h
457F: 72            LD (HL),D
4580: 00            NOP
4581: 03            INC BC
4582: FF            RST 38h
4583: 8D            ADC A,L
4584: 00            NOP
4585: 04            INC B

loc_4586:
4586: FF            RST 38h
4587: BE            CP (HL)
4588: 00            NOP
4589: 05            DEC B
458A: FF            RST 38h
458B: BB            CP E
458C: 00            NOP
458D: 06 FF         LD B,FFh
458F: E4 00 07      CALL PO,sub_0700
4592: FF            RST 38h
4593: 4E            LD C,(HL)
4594: 01 FF D0      LD BC,D0FFh
4597: 82            ADD A,D
4598: DF            RST 18h
4599: 7D            LD A,L
459A: 1C            INC E
459B: C8            RET Z
459C: 64            LD H,H
459D: DB B4         IN A,(B4h)
459F: E8            RET PE
45A0: 73            LD (HL),E
45A1: 60            LD H,B
45A2: DE 0C         SBC A,0Ch
45A4: C5            PUSH BC
45A5: 18 88         JR loc_452F

loc_45A7:
45A7: 94            SUB H
45A8: 06 8B         LD B,8Bh
45AA: 97            SUB A
45AB: DE 8A         SBC A,8Ah
45AD: 96            SUB (HL)
45AE: DE 88         SBC A,88h
45B0: 94            SUB H
45B1: DE 86         SBC A,86h
45B3: 92            SUB D
45B4: DE 0C         SBC A,0Ch
45B6: 88            ADC A,B
45B7: 06 88         LD B,88h
45B9: 88            ADC A,B
45BA: 88            ADC A,B
45BB: 94            SUB H
45BC: DE 94         SBC A,94h
45BE: DE 94         SBC A,94h
45C0: 92            SUB D
45C1: DE 92         SBC A,92h
45C3: DE DB         SBC A,DBh
45C5: FF            RST 38h

loc_45C6:
45C6: 92            SUB D
45C7: 94            SUB H
45C8: DB B4         IN A,(B4h)
45CA: E0            RET PO
45CB: D8            RET C
45CC: FF            RST 38h
45CD: DF            RST 18h
45CE: 48            LD C,B
45CF: 1C            INC E
45D0: C8            RET Z
45D1: 64            LD H,H
45D2: DB B4         IN A,(B4h)
45D4: E8            RET PE
45D5: 73            LD (HL),E
45D6: 60            LD H,B
45D7: DE 0C         SBC A,0Ch
45D9: C5            PUSH BC
45DA: 24            INC H
45DB: 86            ADD A,(HL)
45DC: 83            ADD A,E
45DD: 30 DE         JR NC,loc_45BD
45DF: 18 DE         JR loc_45BF
45E1: 0C            INC C
45E2: 83            ADD A,E
45E3: 06 83         LD B,83h
45E5: 83            ADD A,E
45E6: 18 DE         JR loc_45C6
45E8: DE 0C         SBC A,0Ch
45EA: DE 06         SBC A,06h
45EC: 8B            ADC A,E
45ED: 8D            ADC A,L
45EE: E0            RET PO
45EF: E9            JP (HL)

loc_45F0:
45F0: FF            RST 38h
45F1: DF            RST 18h
45F2: 70            LD (HL),B
45F3: 20 C8         JR NZ,loc_45BD
45F5: 64            LD H,H
45F6: E8            RET PE

loc_45F7:
45F7: 64            LD H,H
45F8: 60            LD H,B
45F9: DE 06         SBC A,06h
45FB: C5            PUSH BC
45FC: 18 88         JR loc_4586
45FE: 88            ADC A,B
45FF: 88            ADC A,B
4600: 88            ADC A,B
4601: 88            ADC A,B
4602: 88            ADC A,B
4603: 88            ADC A,B
4604: 88            ADC A,B
4605: 88            ADC A,B
4606: 88            ADC A,B
4607: 88            ADC A,B
4608: 88            ADC A,B
4609: 88            ADC A,B
460A: 88            ADC A,B
460B: 88            ADC A,B
460C: 88            ADC A,B
460D: E0            RET PO
460E: EC FF DF      CALL PE,DFFFh
4611: 5D            LD E,L

loc_4612:
4612: 1C            INC E
4613: C8            RET Z

loc_4614:
4614: 50            LD D,B
4615: DB B4         IN A,(B4h)
4617: E8            RET PE
4618: 73            LD (HL),E
4619: 60            LD H,B
461A: DE 0C         SBC A,0Ch
461C: C5            PUSH BC
461D: 18 88         JR loc_45A7
461F: 94            SUB H
4620: 06 8B         LD B,8Bh
4622: 97            SUB A
4623: DE 8A         SBC A,8Ah
4625: 96            SUB (HL)
4626: DE 88         SBC A,88h
4628: 94            SUB H
4629: DE 86         SBC A,86h
462B: 92            SUB D
462C: DE 0C         SBC A,0Ch
462E: 88            ADC A,B
462F: 06 88         LD B,88h
4631: 88            ADC A,B
4632: 88            ADC A,B
4633: 94            SUB H
4634: DE 94         SBC A,94h
4636: DE 94         SBC A,94h
4638: 92            SUB D

loc_4639:
4639: DE 92         SBC A,92h
463B: DE DB         SBC A,DBh
463D: FF            RST 38h
463E: 92            SUB D

loc_463F:
463F: 94            SUB H
4640: DB B4         IN A,(B4h)
4642: E0            RET PO
4643: D8            RET C
4644: FF            RST 38h
4645: E7            RST 20h
4646: DF            RST 18h
4647: CF            RST 08h
4648: 10 C8         DJNZ loc_4612
464A: 5F            LD E,A
464B: E8            RET PE

loc_464C:
464C: 64            LD H,H
464D: DB FA         IN A,(FAh)
464F: 60            LD H,B
4650: DE DE         SBC A,DEh
4652: 60            LD H,B
4653: DE DE         SBC A,DEh
4655: DE DE         SBC A,DEh
4657: DE DE         SBC A,DEh
4659: 30 DE         JR NC,loc_4639
465B: 06 DE         LD B,DEh
465D: DF            RST 18h
465E: D8            RET C
465F: 1F            RRA
4660: DB AA         IN A,(AAh)
4662: C5            PUSH BC
4663: 30 8B         JR NC,loc_45F0
4665: 8B            ADC A,E
4666: 8B            ADC A,E
4667: 18 AB         JR loc_4614
4669: 80            ADD A,B
466A: 30 8B         JR NC,loc_45F7
466C: DF            RST 18h

loc_466D:
466D: A9            XOR C
466E: 10 DE         DJNZ loc_464E
4670: E0            RET PO
4671: E1            POP HL
4672: FF            RST 38h
4673: DF            RST 18h
4674: 46            LD B,(HL)
4675: 20 C8         JR NZ,loc_463F

loc_4677:
4677: 6E            LD L,(HL)
4678: E8            RET PE
4679: 64            LD H,H
467A: 18 DE         JR loc_465A
467C: DF            RST 18h
467D: 95            SUB L
467E: 20 06         JR NZ,loc_4686

sub_4680:
4680: DE C8         SBC A,C8h
4682: 2D            DEC L
4683: C5            PUSH BC
4684: 24            INC H
4685: 8B            ADC A,E

loc_4686:
4686: C8            RET Z
4687: 37            SCF
4688: 8B            ADC A,E
4689: C8            RET Z
468A: 3C            INC A
468B: 8B            ADC A,E
468C: C8            RET Z
468D: 46            LD B,(HL)
468E: 8B            ADC A,E
468F: C8            RET Z
4690: 50            LD D,B
4691: 8B            ADC A,E
4692: C8            RET Z
4693: 5A            LD E,D
4694: 8B            ADC A,E
4695: C8            RET Z
4696: 64            LD H,H
4697: 8B            ADC A,E
4698: DF            RST 18h
4699: 71            LD (HL),C
469A: 1F            RRA
469B: C8            RET Z
469C: 64            LD H,H
469D: 8B            ADC A,E
469E: 8B            ADC A,E
469F: DE 8B         SBC A,8Bh
46A1: DF            RST 18h
46A2: EC 1F C8      CALL PE,C81Fh
46A5: 64            LD H,H
46A6: 18 C5         JR loc_466D
46A8: 24            INC H
46A9: 8B            ADC A,E
46AA: C8            RET Z

loc_46AB:
46AB: 6E            LD L,(HL)
46AC: DF            RST 18h

loc_46AD:
46AD: 65            LD H,L
46AE: 20 0C         JR NZ,loc_46BC
46B0: 8B            ADC A,E
46B1: DF            RST 18h
46B2: 08            EX AF,AF'
46B3: 20 97         JR NZ,loc_464C
46B5: 97            SUB A
46B6: 97            SUB A
46B7: DF            RST 18h
46B8: 52            LD D,D
46B9: 1F            RRA
46BA: C8            RET Z

loc_46BB:
46BB: 64            LD H,H

loc_46BC:
46BC: 83            ADD A,E
46BD: DF            RST 18h
46BE: FC 1F C8      CALL M,C81Fh
46C1: 6E            LD L,(HL)
46C2: 97            SUB A

loc_46C3:
46C3: 97            SUB A
46C4: 97            SUB A
46C5: DF            RST 18h
46C6: 4C            LD C,H
46C7: 20 8B         JR NZ,loc_4654
46C9: DF            RST 18h

loc_46CA:
46CA: F0            RET P
46CB: 1F            RRA
46CC: 97            SUB A
46CD: 97            SUB A
46CE: 97            SUB A

loc_46CF:
46CF: DF            RST 18h
46D0: 3A 1F C8      LD A,(C81Fh)
46D3: 64            LD H,H
46D4: C7            RST 00h
46D5: 8B            ADC A,E
46D6: DF            RST 18h
46D7: E3            EX (SP),HL

loc_46D8:
46D8: 1F            RRA
46D9: C8            RET Z
46DA: 6E            LD L,(HL)
46DB: C6 C6         ADD A,C6h
46DD: 8B            ADC A,E
46DE: E0            RET PO
46DF: C2 FF DF      JP NZ,DFFFh
46E2: 5C            LD E,H
46E3: 20 C8         JR NZ,loc_46AD

loc_46E5:
46E5: 6E            LD L,(HL)
46E6: E8            RET PE
46E7: 64            LD H,H
46E8: 18 C5         JR loc_46AF
46EA: 18 8B         JR loc_4677
46EC: 8B            ADC A,E
46ED: 8B            ADC A,E
46EE: 8B            ADC A,E
46EF: E0            RET PO
46F0: FB            EI
46F1: FF            RST 38h
46F2: 00            NOP

loc_46F3:
46F3: FF            RST 38h
46F4: 1F            RRA
46F5: 00            NOP
46F6: 01 FF 41      LD BC,41FFh
46F9: 00            NOP
46FA: 02            LD (BC),A
46FB: FF            RST 38h
46FC: 5F            LD E,A

loc_46FD:
46FD: 00            NOP
46FE: 03            INC BC
46FF: FF            RST 38h
4700: 7E            LD A,(HL)
4701: 00            NOP
4702: 04            INC B

loc_4703:
4703: FF            RST 38h
4704: 9D            SBC A,L

loc_4705:
4705: 00            NOP
4706: 05            DEC B
4707: FF            RST 38h
4708: BD            CP L
4709: 00            NOP
470A: 06 FF         LD B,FFh
470C: BA            CP D
470D: 00            NOP
470E: 07            RLCA
470F: FF            RST 38h
4710: B7            OR A
4711: 00            NOP
4712: FF            RST 38h

loc_4713:
4713: D0            RET NC
4714: 96            SUB (HL)
4715: DF            RST 18h
4716: 40            LD B,B
4717: 18 C8         JR loc_46E1
4719: 5F            LD E,A
471A: E8            RET PE
471B: 64            LD H,H
471C: DB B4         IN A,(B4h)

loc_471E:
471E: 24            INC H
471F: C5            PUSH BC
4720: 3C            INC A
4721: 86            ADD A,(HL)
4722: 0C            INC C

loc_4723:
4723: A4            AND H
4724: 80            ADD A,B
4725: 18 84         JR loc_46AB
4727: 83            ADD A,E
4728: 24            INC H
4729: 81            ADD A,C
472A: 0C            INC C
472B: C7            RST 00h
472C: AB            XOR E
472D: 80            ADD A,B
472E: 18 8B         JR loc_46BB
4730: 8A            ADC A,D
4731: 24            INC H
4732: 8B            ADC A,E
4733: 0C            INC C
4734: AB            XOR E
4735: 80            ADD A,B
4736: 30 8B         JR NC,loc_46C3
4738: E7            RST 20h
4739: DF            RST 18h
473A: 1C            INC E
473B: 18 C8         JR loc_4705
473D: 5F            LD E,A
473E: E8            RET PE
473F: 64            LD H,H
4740: DB B4         IN A,(B4h)
4742: 24            INC H
4743: C5            PUSH BC
4744: 18 84         JR loc_46CA
4746: 0C            INC C
4747: A4            AND H
4748: 80            ADD A,B
4749: 30 84         JR NC,loc_46CF
474B: 24            INC H
474C: 86            ADD A,(HL)
474D: 0C            INC C
474E: A6            AND (HL)

loc_474F:
474F: 80            ADD A,B
4750: 18 86         JR loc_46D8
4752: 86            ADD A,(HL)
4753: 24            INC H
4754: 8B            ADC A,E
4755: 0C            INC C
4756: AB            XOR E
4757: 80            ADD A,B
4758: 30 8B         JR NC,loc_46E5
475A: E7            RST 20h
475B: DF            RST 18h
475C: FA 17 C8      JP M,C817h
475F: 5F            LD E,A
4760: E8            RET PE
4761: 64            LD H,H
4762: DB B4         IN A,(B4h)
4764: 24            INC H
4765: C5            PUSH BC
4766: 30 8B         JR NC,loc_46F3
4768: 0C            INC C
4769: AB            XOR E
476A: 80            ADD A,B
476B: 18 8B         JR loc_46F8
476D: 8B            ADC A,E
476E: 24            INC H
476F: 88            ADC A,B
4770: 0C            INC C
4771: A8            XOR B
4772: 80            ADD A,B
4773: 18 88         JR loc_46FD
4775: 86            ADD A,(HL)
4776: 24            INC H
4777: 88            ADC A,B
4778: 0C            INC C
4779: A6            AND (HL)
477A: 80            ADD A,B
477B: 30 86         JR NC,loc_4703
477D: E7            RST 20h
477E: DF            RST 18h
477F: D7            RST 10h
4780: 17            RLA
4781: C8            RET Z
4782: 5F            LD E,A
4783: E8            RET PE

loc_4784:
4784: 64            LD H,H
4785: DB B4         IN A,(B4h)
4787: 24            INC H
4788: C5            PUSH BC
4789: 30 88         JR NC,loc_4713
478B: 0C            INC C

loc_478C:
478C: A8            XOR B
478D: 80            ADD A,B
478E: 18 88         JR loc_4718
4790: 88            ADC A,B
4791: 24            INC H
4792: 86            ADD A,(HL)
4793: 0C            INC C
4794: A6            AND (HL)
4795: 80            ADD A,B
4796: 18 86         JR loc_471E

loc_4798:
4798: 86            ADD A,(HL)
4799: 24            INC H
479A: 84            ADD A,H
479B: 0C            INC C
479C: A3            AND E
479D: 80            ADD A,B
479E: 30 83         JR NC,loc_4723
47A0: E7            RST 20h
47A1: DF            RST 18h
47A2: B4            OR H
47A3: 17            RLA
47A4: C8            RET Z
47A5: 5F            LD E,A
47A6: E8            RET PE
47A7: 64            LD H,H
47A8: DB B4         IN A,(B4h)
47AA: 0C            INC C
47AB: C5            PUSH BC
47AC: 24            INC H
47AD: 8B            ADC A,E
47AE: 88            ADC A,B
47AF: 84            ADD A,H
47B0: 8B            ADC A,E

loc_47B1:
47B1: 88            ADC A,B
47B2: 84            ADD A,H
47B3: 8B            ADC A,E
47B4: 88            ADC A,B
47B5: 8D            ADC A,L
47B6: 88            ADC A,B
47B7: 86            ADD A,(HL)
47B8: 8D            ADC A,L

loc_47B9:
47B9: 88            ADC A,B
47BA: 86            ADD A,(HL)
47BB: 8D            ADC A,L
47BC: 8A            ADC A,D
47BD: 8B            ADC A,E
47BE: 88            ADC A,B
47BF: 84            ADD A,H
47C0: AB            XOR E
47C1: 80            ADD A,B
47C2: 30 8B         JR NC,loc_474F
47C4: E7            RST 20h

loc_47C5:
47C5: E7            RST 20h
47C6: E7            RST 20h
47C7: E7            RST 20h
47C8: 00            NOP
47C9: FF            RST 38h
47CA: 1F            RRA
47CB: 00            NOP
47CC: 01 FF AF      LD BC,AFFFh
47CF: 00            NOP
47D0: 02            LD (BC),A
47D1: FF            RST 38h
47D2: 33            INC SP
47D3: 02            LD (BC),A
47D4: 03            INC BC
47D5: FF            RST 38h
47D6: B8            CP B
47D7: 02            LD (BC),A
47D8: 04            INC B
47D9: FF            RST 38h
47DA: D1            POP DE
47DB: 02            LD (BC),A
47DC: 05            DEC B
47DD: FF            RST 38h
47DE: 47            LD B,A
47DF: 03            INC BC
47E0: 06 FF         LD B,FFh
47E2: D5            PUSH DE
47E3: 03            INC BC
47E4: 07            RLCA
47E5: FF            RST 38h
47E6: 35            DEC (HL)
47E7: 04            INC B
47E8: FF            RST 38h
47E9: D0            RET NC
47EA: 6E            LD L,(HL)
47EB: DF            RST 18h
47EC: AE            XOR (HL)

loc_47ED:
47ED: 1A            LD A,(DE)
47EE: C8            RET Z
47EF: 64            LD H,H
47F0: E8            RET PE
47F1: 64            LD H,H
47F2: DB F0         IN A,(F0h)
47F4: 24            INC H
47F5: C5            PUSH BC
47F6: 18 84         JR loc_477C
47F8: 0C            INC C
47F9: A7            AND A
47FA: 80            ADD A,B
47FB: 18 87         JR loc_4784

loc_47FD:
47FD: 8D            ADC A,L
47FE: 24            INC H
47FF: 8C            ADC A,H
4800: 0C            INC C
4801: A7            AND A
4802: 80            ADD A,B
4803: 18 87         JR loc_478C
4805: AA            XOR D
4806: 80            ADD A,B
4807: 60            LD H,B
4808: 8A            ADC A,D
4809: DE 24         SBC A,24h
480B: 84            ADD A,H
480C: 0C            INC C
480D: A7            AND A

loc_480E:
480E: 80            ADD A,B
480F: 18 87         JR loc_4798
4811: 0C            INC C
4812: 8C            ADC A,H
4813: AD            XOR L
4814: 80            ADD A,B
4815: 24            INC H
4816: 8D            ADC A,L
4817: 0C            INC C
4818: AF            XOR A
4819: 80            ADD A,B
481A: 8F            ADC A,A
481B: AD            XOR L
481C: 80            ADD A,B
481D: 8D            ADC A,L
481E: AC            XOR H
481F: 80            ADD A,B
4820: 60            LD H,B
4821: 8C            ADC A,H
4822: DE 24         SBC A,24h
4824: 84            ADD A,H
4825: 0C            INC C
4826: A7            AND A
4827: 80            ADD A,B
4828: 18 87         JR loc_47B1
482A: 8D            ADC A,L
482B: 24            INC H
482C: 8C            ADC A,H
482D: 0C            INC C
482E: A7            AND A

loc_482F:
482F: 80            ADD A,B
4830: 18 87         JR loc_47B9
4832: AA            XOR D
4833: 80            ADD A,B
4834: 60            LD H,B
4835: 8A            ADC A,D
4836: DE 24         SBC A,24h
4838: 84            ADD A,H
4839: 0C            INC C
483A: A7            AND A
483B: 80            ADD A,B
483C: 18 87         JR loc_47C5
483E: 0C            INC C
483F: 8C            ADC A,H
4840: AD            XOR L
4841: 80            ADD A,B
4842: 24            INC H
4843: 8D            ADC A,L
4844: 0C            INC C
4845: AF            XOR A
4846: 80            ADD A,B
4847: 8F            ADC A,A
4848: AD            XOR L
4849: 80            ADD A,B
484A: 8D            ADC A,L
484B: AC            XOR H
484C: 80            ADD A,B
484D: 60            LD H,B
484E: 8C            ADC A,H
484F: 18 DE         JR loc_482F
4851: DE 0C         SBC A,0Ch
4853: DE 84         SBC A,84h
4855: 87            ADD A,A
4856: 8A            ADC A,D
4857: 24            INC H
4858: 90            SUB B
4859: 0C            INC C
485A: AF            XOR A
485B: 80            ADD A,B
485C: 18 8F         JR loc_47ED
485E: 8B            ADC A,E
485F: 24            INC H
4860: 8E            ADC A,(HL)
4861: 0C            INC C
4862: AD            XOR L
4863: 80            ADD A,B
4864: 18 8D         JR loc_47F3
4866: 8E            ADC A,(HL)
4867: 24            INC H
4868: 90            SUB B
4869: 0C            INC C
486A: AF            XOR A
486B: 80            ADD A,B
486C: 18 8F         JR loc_47FD
486E: 90            SUB B
486F: 0C            INC C
4870: 8B            ADC A,E
4871: 88            ADC A,B
4872: 8B            ADC A,E
4873: 8E            ADC A,(HL)
4874: 91            SUB C
4875: 94            SUB H
4876: 97            SUB A
4877: C6 C6         ADD A,C6h
4879: 82            ADD A,D
487A: E0            RET PO
487B: 79            LD A,C
487C: FF            RST 38h
487D: DF            RST 18h
487E: 6C            LD L,H
487F: 19            ADD HL,DE
4880: C8            RET Z
4881: 64            LD H,H
4882: DB C8         IN A,(C8h)
4884: E8            RET PE
4885: 64            LD H,H
4886: 06 C5         LD B,C5h
4888: 18 84         JR loc_480E
488A: DE 0C         SBC A,0Ch
488C: 84            ADD A,H
488D: 06 84         LD B,84h
488F: DE 0C         SBC A,0Ch
4891: 84            ADD A,H
4892: 06 84         LD B,84h
4894: DE 0C         SBC A,0Ch
4896: 84            ADD A,H
4897: 06 84         LD B,84h
4899: DE 0C         SBC A,0Ch
489B: 84            ADD A,H
489C: 06 84         LD B,84h
489E: DE 0C         SBC A,0Ch
48A0: 84            ADD A,H
48A1: 06 84         LD B,84h
48A3: DE 0C         SBC A,0Ch
48A5: 84            ADD A,H
48A6: 06 84         LD B,84h
48A8: DE 0C         SBC A,0Ch
48AA: 84            ADD A,H
48AB: 06 84         LD B,84h
48AD: DE 0C         SBC A,0Ch
48AF: 84            ADD A,H
48B0: 06 84         LD B,84h
48B2: DE 0C         SBC A,0Ch
48B4: 84            ADD A,H
48B5: 06 84         LD B,84h
48B7: DE 0C         SBC A,0Ch
48B9: 84            ADD A,H
48BA: 06 84         LD B,84h
48BC: DE 0C         SBC A,0Ch
48BE: 84            ADD A,H
48BF: 06 84         LD B,84h
48C1: 87            ADD A,A
48C2: 86            ADD A,(HL)
48C3: 84            ADD A,H
48C4: 84            ADD A,H
48C5: DE 0C         SBC A,0Ch
48C7: 84            ADD A,H
48C8: 06 84         LD B,84h
48CA: 84            ADD A,H
48CB: DE 84         SBC A,84h
48CD: 84            ADD A,H
48CE: DE 0C         SBC A,0Ch
48D0: 84            ADD A,H
48D1: 06 84         LD B,84h
48D3: 87            ADD A,A
48D4: 8A            ADC A,D
48D5: 8D            ADC A,L
48D6: 84            ADD A,H
48D7: DE 0C         SBC A,0Ch
48D9: 84            ADD A,H
48DA: 06 84         LD B,84h
48DC: DE 0C         SBC A,0Ch
48DE: 84            ADD A,H
48DF: 06 84         LD B,84h
48E1: DE 0C         SBC A,0Ch
48E3: 84            ADD A,H
48E4: 06 84         LD B,84h
48E6: DE 0C         SBC A,0Ch
48E8: 84            ADD A,H
48E9: 06 84         LD B,84h
48EB: DE 0C         SBC A,0Ch
48ED: 84            ADD A,H
48EE: 06 84         LD B,84h
48F0: DE 0C         SBC A,0Ch
48F2: 84            ADD A,H
48F3: 06 84         LD B,84h
48F5: DE 0C         SBC A,0Ch
48F7: 84            ADD A,H
48F8: 06 84         LD B,84h
48FA: DE 0C         SBC A,0Ch
48FC: 84            ADD A,H
48FD: 06 84         LD B,84h
48FF: DE 0C         SBC A,0Ch
4901: 84            ADD A,H
4902: 06 84         LD B,84h
4904: DE 0C         SBC A,0Ch
4906: 84            ADD A,H
4907: 06 84         LD B,84h
4909: DE 0C         SBC A,0Ch
490B: 84            ADD A,H
490C: 06 84         LD B,84h
490E: 87            ADD A,A
490F: 86            ADD A,(HL)
4910: 84            ADD A,H
4911: 84            ADD A,H
4912: DE 0C         SBC A,0Ch
4914: 84            ADD A,H
4915: 06 84         LD B,84h
4917: 84            ADD A,H
4918: DE 84         SBC A,84h
491A: 84            ADD A,H
491B: DE 0C         SBC A,0Ch
491D: 84            ADD A,H
491E: 06 84         LD B,84h
4920: 87            ADD A,A
4921: 8A            ADC A,D
4922: 8D            ADC A,L
4923: 84            ADD A,H
4924: DE 0C         SBC A,0Ch
4926: 84            ADD A,H
4927: 06 84         LD B,84h
4929: DE 0C         SBC A,0Ch
492B: 84            ADD A,H
492C: 06 84         LD B,84h
492E: DE 0C         SBC A,0Ch
4930: 84            ADD A,H
4931: 06 84         LD B,84h
4933: DE 0C         SBC A,0Ch
4935: 84            ADD A,H
4936: 06 84         LD B,84h
4938: DE 0C         SBC A,0Ch
493A: 84            ADD A,H
493B: 06 84         LD B,84h
493D: DE 0C         SBC A,0Ch
493F: 84            ADD A,H
4940: 06 84         LD B,84h
4942: DE 0C         SBC A,0Ch
4944: 84            ADD A,H
4945: 06 84         LD B,84h
4947: DE 0C         SBC A,0Ch
4949: 84            ADD A,H
494A: 06 84         LD B,84h
494C: DE 0C         SBC A,0Ch
494E: 84            ADD A,H
494F: 06 84         LD B,84h
4951: DE 0C         SBC A,0Ch
4953: 84            ADD A,H
4954: 06 84         LD B,84h
4956: DE 0C         SBC A,0Ch
4958: 84            ADD A,H
4959: 06 84         LD B,84h
495B: 87            ADD A,A
495C: 86            ADD A,(HL)
495D: 84            ADD A,H
495E: 84            ADD A,H
495F: DE 0C         SBC A,0Ch
4961: 84            ADD A,H
4962: 06 84         LD B,84h
4964: 84            ADD A,H
4965: DE 84         SBC A,84h
4967: 84            ADD A,H
4968: DE 0C         SBC A,0Ch
496A: 84            ADD A,H
496B: 06 84         LD B,84h
496D: 87            ADD A,A
496E: 8A            ADC A,D
496F: 8D            ADC A,L
4970: 84            ADD A,H
4971: DE 0C         SBC A,0Ch
4973: 84            ADD A,H
4974: 06 84         LD B,84h
4976: DE 0C         SBC A,0Ch
4978: 84            ADD A,H
4979: 06 84         LD B,84h
497B: DE 0C         SBC A,0Ch
497D: 84            ADD A,H
497E: 06 84         LD B,84h
4980: DE 0C         SBC A,0Ch
4982: 84            ADD A,H
4983: 06 84         LD B,84h
4985: DE 0C         SBC A,0Ch
4987: 84            ADD A,H
4988: 06 84         LD B,84h
498A: DE 0C         SBC A,0Ch
498C: 84            ADD A,H
498D: 06 84         LD B,84h
498F: DE 0C         SBC A,0Ch
4991: 84            ADD A,H
4992: 06 84         LD B,84h
4994: DE 0C         SBC A,0Ch

loc_4996:
4996: 84            ADD A,H
4997: 06 84         LD B,84h
4999: DE 0C         SBC A,0Ch
499B: 84            ADD A,H
499C: 06 84         LD B,84h

loc_499E:
499E: DE 0C         SBC A,0Ch
49A0: 84            ADD A,H
49A1: 06 84         LD B,84h
49A3: DE 0C         SBC A,0Ch
49A5: 84            ADD A,H
49A6: 06 84         LD B,84h
49A8: 87            ADD A,A

loc_49A9:
49A9: 86            ADD A,(HL)
49AA: 84            ADD A,H
49AB: 84            ADD A,H
49AC: DE 0C         SBC A,0Ch
49AE: 84            ADD A,H
49AF: 06 84         LD B,84h
49B1: 84            ADD A,H

loc_49B2:
49B2: DE 84         SBC A,84h
49B4: 84            ADD A,H
49B5: DE 0C         SBC A,0Ch
49B7: 84            ADD A,H
49B8: 06 84         LD B,84h
49BA: 87            ADD A,A
49BB: 8A            ADC A,D
49BC: 8D            ADC A,L
49BD: 8B            ADC A,E
49BE: DE 0C         SBC A,0Ch
49C0: 8B            ADC A,E
49C1: 06 8B         LD B,8Bh
49C3: DE 0C         SBC A,0Ch
49C5: 8B            ADC A,E
49C6: 06 8B         LD B,8Bh
49C8: DE 0C         SBC A,0Ch
49CA: 8B            ADC A,E

loc_49CB:
49CB: 06 8B         LD B,8Bh
49CD: DE 0C         SBC A,0Ch
49CF: 8B            ADC A,E
49D0: 06 89         LD B,89h
49D2: DE 0C         SBC A,0Ch
49D4: 89            ADC A,C
49D5: 06 89         LD B,89h
49D7: DE 0C         SBC A,0Ch
49D9: 89            ADC A,C
49DA: 06 89         LD B,89h
49DC: DE 0C         SBC A,0Ch
49DE: 89            ADC A,C

loc_49DF:
49DF: 06 89         LD B,89h
49E1: DE 0C         SBC A,0Ch
49E3: 89            ADC A,C
49E4: 06 8B         LD B,8Bh
49E6: DE 0C         SBC A,0Ch
49E8: 8B            ADC A,E
49E9: 06 8B         LD B,8Bh
49EB: DE 0C         SBC A,0Ch
49ED: 8B            ADC A,E
49EE: 06 8B         LD B,8Bh
49F0: DE 0C         SBC A,0Ch
49F2: 8B            ADC A,E
49F3: 06 8B         LD B,8Bh
49F5: DE 0C         SBC A,0Ch
49F7: 8B            ADC A,E
49F8: 85            ADD A,L
49F9: 88            ADC A,B
49FA: 8B            ADC A,E
49FB: 8E            ADC A,(HL)

loc_49FC:
49FC: 91            SUB C
49FD: 94            SUB H
49FE: 97            SUB A
49FF: C6 C6         ADD A,C6h
4A01: 82            ADD A,D

loc_4A02:
4A02: E0            RET PO
4A03: 83            ADD A,E
4A04: FE DF         CP DFh
4A06: 94            SUB H
4A07: 18 C8         JR loc_49D1
4A09: 64            LD H,H
4A0A: E8            RET PE
4A0B: 64            LD H,H

loc_4A0C:
4A0C: DB F0         IN A,(F0h)
4A0E: 24            INC H
4A0F: C5            PUSH BC
4A10: 18 84         JR loc_4996
4A12: 0C            INC C
4A13: A7            AND A
4A14: 80            ADD A,B
4A15: 18 87         JR loc_499E
4A17: 90            SUB B
4A18: 24            INC H
4A19: 8F            ADC A,A
4A1A: 0C            INC C
4A1B: AA            XOR D
4A1C: 80            ADD A,B
4A1D: 18 8A         JR loc_49A9
4A1F: AD            XOR L
4A20: 80            ADD A,B
4A21: 60            LD H,B
4A22: 8D            ADC A,L
4A23: DE 24         SBC A,24h
4A25: 84            ADD A,H
4A26: 0C            INC C
4A27: A7            AND A
4A28: 80            ADD A,B
4A29: 18 87         JR loc_49B2
4A2B: 0C            INC C
4A2C: 8F            ADC A,A

loc_4A2D:
4A2D: B0            OR B
4A2E: 80            ADD A,B
4A2F: 24            INC H
4A30: 90            SUB B
4A31: 0C            INC C
4A32: B3            OR E
4A33: 80            ADD A,B
4A34: 93            SUB E
4A35: B1            OR C
4A36: 80            ADD A,B
4A37: 91            SUB C
4A38: B3            OR E
4A39: 80            ADD A,B
4A3A: 60            LD H,B
4A3B: 93            SUB E
4A3C: DE 24         SBC A,24h
4A3E: 84            ADD A,H
4A3F: 0C            INC C
4A40: A7            AND A
4A41: 80            ADD A,B
4A42: 18 87         JR loc_49CB
4A44: 90            SUB B
4A45: 24            INC H
4A46: 8F            ADC A,A
4A47: 0C            INC C
4A48: AA            XOR D
4A49: 80            ADD A,B
4A4A: 18 8A         JR loc_49D6
4A4C: AD            XOR L
4A4D: 80            ADD A,B
4A4E: 60            LD H,B
4A4F: 8D            ADC A,L
4A50: DE 24         SBC A,24h
4A52: 84            ADD A,H
4A53: 0C            INC C
4A54: A7            AND A
4A55: 80            ADD A,B
4A56: 18 87         JR loc_49DF
4A58: 0C            INC C
4A59: 8F            ADC A,A
4A5A: B0            OR B
4A5B: 80            ADD A,B
4A5C: 24            INC H
4A5D: 90            SUB B
4A5E: 0C            INC C
4A5F: B3            OR E
4A60: 80            ADD A,B
4A61: 93            SUB E
4A62: B1            OR C
4A63: 80            ADD A,B
4A64: 91            SUB C
4A65: B3            OR E
4A66: 80            ADD A,B
4A67: 60            LD H,B
4A68: 93            SUB E
4A69: DE 24         SBC A,24h
4A6B: 8B            ADC A,E
4A6C: 0C            INC C
4A6D: AB            XOR E
4A6E: 80            ADD A,B
4A6F: 18 8B         JR loc_49FC
4A71: 8B            ADC A,E
4A72: 24            INC H
4A73: 89            ADC A,C
4A74: 0C            INC C
4A75: A9            XOR C
4A76: 80            ADD A,B
4A77: 18 89         JR loc_4A02
4A79: 89            ADC A,C

loc_4A7A:
4A7A: 24            INC H
4A7B: 8B            ADC A,E
4A7C: 0C            INC C
4A7D: AB            XOR E
4A7E: 80            ADD A,B
4A7F: 18 8B         JR loc_4A0C
4A81: 8B            ADC A,E
4A82: 0C            INC C
4A83: 85            ADD A,L
4A84: 85            ADD A,L
4A85: 88            ADC A,B
4A86: 8B            ADC A,E
4A87: 8E            ADC A,(HL)
4A88: 91            SUB C
4A89: 94            SUB H
4A8A: 97            SUB A
4A8B: E0            RET PO
4A8C: 82            ADD A,D
4A8D: FF            RST 38h
4A8E: DF            RST 18h
4A8F: 7B            LD A,E
4A90: 1B            DEC DE
4A91: C8            RET Z
4A92: 5A            LD E,D
4A93: DB FA         IN A,(FAh)
4A95: E8            RET PE
4A96: 6E            LD L,(HL)
4A97: 60            LD H,B
4A98: DE DE         SBC A,DEh
4A9A: 18 DE         JR loc_4A7A
4A9C: DF            RST 18h
4A9D: 6D            LD L,L
4A9E: 1B            DEC DE
4A9F: C5            PUSH BC
4AA0: 18 8B         JR loc_4A2D
4AA2: DE 8B         SBC A,8Bh
4AA4: DE 8B         SBC A,8Bh
4AA6: DE 8B         SBC A,8Bh
4AA8: E0            RET PO
4AA9: EE FF         XOR FFh
4AAB: DF            RST 18h
4AAC: CA 18 C8      JP Z,C818h
4AAF: 64            LD H,H
4AB0: E8            RET PE
4AB1: 64            LD H,H
4AB2: DB F0         IN A,(F0h)
4AB4: E3            EX (SP),HL
4AB5: 08            EX AF,AF'
4AB6: 06 C5         LD B,C5h
4AB8: 24            INC H
4AB9: 84            ADD A,H
4ABA: 87            ADD A,A
4ABB: 8A            ADC A,D
4ABC: 87            ADD A,A
4ABD: 8D            ADC A,L

loc_4ABE:
4ABE: 87            ADD A,A
4ABF: 8A            ADC A,D
4AC0: 8D            ADC A,L
4AC1: 90            SUB B
4AC2: 8D            ADC A,L
4AC3: 93            SUB E
4AC4: 90            SUB B
4AC5: 8D            ADC A,L
4AC6: 8A            ADC A,D
4AC7: 8D            ADC A,L
4AC8: 90            SUB B

loc_4AC9:
4AC9: 8A            ADC A,D
4ACA: 8D            ADC A,L
4ACB: 87            ADD A,A
4ACC: 8A            ADC A,D
4ACD: 84            ADD A,H
4ACE: 8D            ADC A,L
4ACF: 8A            ADC A,D
4AD0: 8D            ADC A,L
4AD1: 90            SUB B

loc_4AD2:
4AD2: 93            SUB E
4AD3: 96            SUB (HL)
4AD4: 93            SUB E
4AD5: 96            SUB (HL)
4AD6: C6 C6         ADD A,C6h
4AD8: 81            ADD A,C
4AD9: C7            RST 00h
4ADA: 8A            ADC A,D
4ADB: 8D            ADC A,L
4ADC: E6 06         AND 06h
4ADE: C5            PUSH BC
4ADF: 24            INC H
4AE0: 86            ADD A,(HL)
4AE1: 8B            ADC A,E
4AE2: 90            SUB B
4AE3: 86            ADD A,(HL)
4AE4: 8D            ADC A,L
4AE5: 8B            ADC A,E
4AE6: 8F            ADC A,A
4AE7: 8B            ADC A,E
4AE8: 86            ADD A,(HL)
4AE9: 8B            ADC A,E
4AEA: 8D            ADC A,L

loc_4AEB:
4AEB: 90            SUB B
4AEC: 8D            ADC A,L
4AED: 8B            ADC A,E
4AEE: 86            ADD A,(HL)
4AEF: 8D            ADC A,L
4AF0: 8E            ADC A,(HL)
4AF1: 90            SUB B
4AF2: 95            SUB L
4AF3: 8E            ADC A,(HL)
4AF4: 90            SUB B
4AF5: 89            ADC A,C

loc_4AF6:
4AF6: 8D            ADC A,L
4AF7: 89            ADC A,C
4AF8: 84            ADD A,H
4AF9: 89            ADC A,C
4AFA: 8D            ADC A,L
4AFB: 89            ADC A,C
4AFC: 8D            ADC A,L
4AFD: 90            SUB B
4AFE: 8D            ADC A,L

loc_4AFF:
4AFF: 89            ADC A,C
4B00: 8D            ADC A,L
4B01: 86            ADD A,(HL)
4B02: 8B            ADC A,E
4B03: 8D            ADC A,L
4B04: 86            ADD A,(HL)
4B05: 90            SUB B
4B06: 8F            ADC A,A
4B07: 8B            ADC A,E
4B08: 8D            ADC A,L
4B09: 86            ADD A,(HL)
4B0A: 8B            ADC A,E
4B0B: 88            ADC A,B
4B0C: 8D            ADC A,L
4B0D: 8B            ADC A,E
4B0E: 8D            ADC A,L
4B0F: 86            ADD A,(HL)
4B10: 81            ADD A,C
4B11: 84            ADD A,H
4B12: 85            ADD A,L
4B13: 88            ADC A,B
4B14: 8B            ADC A,E
4B15: 88            ADC A,B
4B16: 8E            ADC A,(HL)
4B17: 88            ADC A,B
4B18: 8B            ADC A,E
4B19: 88            ADC A,B
4B1A: 91            SUB C
4B1B: 8B            ADC A,E
4B1C: 8E            ADC A,(HL)
4B1D: 94            SUB H
4B1E: 97            SUB A
4B1F: C6 C6         ADD A,C6h
4B21: 82            ADD A,D
4B22: E0            RET PO
4B23: 91            SUB C
4B24: FF            RST 38h
4B25: DF            RST 18h
4B26: F0            RET P

loc_4B27:
4B27: 0B            DEC BC
4B28: C8            RET Z
4B29: 64            LD H,H
4B2A: E8            RET PE
4B2B: 64            LD H,H
4B2C: DB F0         IN A,(F0h)
4B2E: 24            INC H
4B2F: C5            PUSH BC
4B30: 24            INC H
4B31: 84            ADD A,H
4B32: 0C            INC C
4B33: A7            AND A
4B34: 80            ADD A,B
4B35: 18 87         JR loc_4ABE

loc_4B37:
4B37: 90            SUB B
4B38: 24            INC H
4B39: 8F            ADC A,A
4B3A: 0C            INC C
4B3B: AA            XOR D
4B3C: 80            ADD A,B
4B3D: 18 8A         JR loc_4AC9
4B3F: AD            XOR L
4B40: 80            ADD A,B
4B41: 60            LD H,B
4B42: 8D            ADC A,L
4B43: DE 24         SBC A,24h
4B45: 84            ADD A,H
4B46: 0C            INC C
4B47: A7            AND A
4B48: 80            ADD A,B
4B49: 18 87         JR loc_4AD2
4B4B: 0C            INC C
4B4C: 8F            ADC A,A
4B4D: B0            OR B
4B4E: 80            ADD A,B
4B4F: 24            INC H
4B50: 90            SUB B
4B51: 0C            INC C
4B52: B3            OR E
4B53: 80            ADD A,B
4B54: 93            SUB E
4B55: B1            OR C
4B56: 80            ADD A,B
4B57: 91            SUB C
4B58: B3            OR E
4B59: 80            ADD A,B
4B5A: 60            LD H,B
4B5B: 93            SUB E
4B5C: DE 24         SBC A,24h
4B5E: 84            ADD A,H
4B5F: 0C            INC C
4B60: A7            AND A
4B61: 80            ADD A,B
4B62: 18 87         JR loc_4AEB
4B64: 90            SUB B
4B65: 24            INC H
4B66: 8F            ADC A,A
4B67: 0C            INC C
4B68: AA            XOR D

loc_4B69:
4B69: 80            ADD A,B
4B6A: 18 8A         JR loc_4AF6
4B6C: AD            XOR L
4B6D: 80            ADD A,B
4B6E: 60            LD H,B
4B6F: 8D            ADC A,L
4B70: DE 24         SBC A,24h
4B72: 84            ADD A,H
4B73: 0C            INC C
4B74: A7            AND A
4B75: 80            ADD A,B
4B76: 18 87         JR loc_4AFF
4B78: 0C            INC C
4B79: 8F            ADC A,A
4B7A: B0            OR B
4B7B: 80            ADD A,B
4B7C: 24            INC H
4B7D: 90            SUB B
4B7E: 0C            INC C
4B7F: B3            OR E
4B80: 80            ADD A,B
4B81: 93            SUB E
4B82: B1            OR C
4B83: 80            ADD A,B
4B84: 91            SUB C
4B85: B3            OR E
4B86: 80            ADD A,B
4B87: 60            LD H,B
4B88: 93            SUB E
4B89: 18 DE         JR loc_4B69
4B8B: DE 0C         SBC A,0Ch
4B8D: DE 84         SBC A,84h
4B8F: 87            ADD A,A
4B90: 8A            ADC A,D
4B91: 24            INC H
4B92: 90            SUB B
4B93: 0C            INC C
4B94: AF            XOR A
4B95: 80            ADD A,B
4B96: 18 8F         JR loc_4B27
4B98: 8B            ADC A,E
4B99: 24            INC H
4B9A: 8E            ADC A,(HL)
4B9B: 0C            INC C
4B9C: AD            XOR L
4B9D: 80            ADD A,B
4B9E: 18 8D         JR loc_4B2D
4BA0: 8E            ADC A,(HL)
4BA1: 24            INC H
4BA2: 90            SUB B
4BA3: 0C            INC C
4BA4: AF            XOR A
4BA5: 80            ADD A,B
4BA6: 18 8F         JR loc_4B37
4BA8: 90            SUB B
4BA9: 0C            INC C
4BAA: 8B            ADC A,E
4BAB: 88            ADC A,B
4BAC: 8B            ADC A,E
4BAD: 8E            ADC A,(HL)
4BAE: 91            SUB C
4BAF: 94            SUB H
4BB0: 97            SUB A

loc_4BB1:
4BB1: C6 C6         ADD A,C6h
4BB3: 82            ADD A,D
4BB4: E0            RET PO
4BB5: 79            LD A,C
4BB6: FF            RST 38h
4BB7: DF            RST 18h
4BB8: 02            LD (BC),A
4BB9: 1B            DEC DE
4BBA: C8            RET Z
4BBB: 6E            LD L,(HL)
4BBC: E8            RET PE
4BBD: 64            LD H,H
4BBE: DF            RST 18h
4BBF: CF            RST 08h
4BC0: 1A            LD A,(DE)
4BC1: C8            RET Z
4BC2: 64            LD H,H
4BC3: 18 C5         JR loc_4B8A
4BC5: 24            INC H
4BC6: 8B            ADC A,E
4BC7: C8            RET Z
4BC8: 6E            LD L,(HL)
4BC9: DF            RST 18h
4BCA: 48            LD C,B
4BCB: 1B            DEC DE
4BCC: 0C            INC C
4BCD: 8B            ADC A,E
4BCE: DF            RST 18h
4BCF: EB            EX DE,HL
4BD0: 1A            LD A,(DE)
4BD1: 97            SUB A
4BD2: 97            SUB A
4BD3: 97            SUB A
4BD4: DF            RST 18h
4BD5: 3D            DEC A
4BD6: 1B            DEC DE
4BD7: 8B            ADC A,E
4BD8: DF            RST 18h
4BD9: E1            POP HL
4BDA: 1A            LD A,(DE)
4BDB: 97            SUB A
4BDC: 97            SUB A
4BDD: 97            SUB A
4BDE: DF            RST 18h
4BDF: 33            INC SP
4BE0: 1B            DEC DE
4BE1: 8B            ADC A,E

loc_4BE2:
4BE2: DF            RST 18h
4BE3: D7            RST 10h
4BE4: 1A            LD A,(DE)
4BE5: 97            SUB A
4BE6: 97            SUB A
4BE7: 97            SUB A
4BE8: DF            RST 18h

loc_4BE9:
4BE9: 29            ADD HL,HL
4BEA: 1B            DEC DE
4BEB: 8B            ADC A,E
4BEC: DF            RST 18h
4BED: CD 1A 97      CALL 971Ah
4BF0: 97            SUB A
4BF1: 97            SUB A
4BF2: DF            RST 18h
4BF3: 1F            RRA
4BF4: 1B            DEC DE
4BF5: 8B            ADC A,E
4BF6: DF            RST 18h
4BF7: C3 1A 97      JP 971Ah
4BFA: 97            SUB A
4BFB: 97            SUB A
4BFC: DF            RST 18h
4BFD: 15            DEC D
4BFE: 1B            DEC DE
4BFF: 8B            ADC A,E
4C00: DF            RST 18h
4C01: B9            CP C
4C02: 1A            LD A,(DE)
4C03: 97            SUB A
4C04: 97            SUB A
4C05: 97            SUB A
4C06: DF            RST 18h
4C07: 0B            DEC BC
4C08: 1B            DEC DE
4C09: 8B            ADC A,E
4C0A: DF            RST 18h
4C0B: AF            XOR A
4C0C: 1A            LD A,(DE)
4C0D: 97            SUB A
4C0E: 97            SUB A
4C0F: 97            SUB A

loc_4C10:
4C10: DF            RST 18h
4C11: 01 1B 8B      LD BC,8B1Bh
4C14: DF            RST 18h
4C15: A5            AND L
4C16: 1A            LD A,(DE)
4C17: 97            SUB A
4C18: E0            RET PO
4C19: A5            AND L
4C1A: FF            RST 38h
4C1B: DF            RST 18h
4C1C: 22 1B C8      LD (C81Bh),HL
4C1F: 6E            LD L,(HL)
4C20: E8            RET PE
4C21: 64            LD H,H
4C22: 18 C5         JR loc_4BE9
4C24: 18 8B         JR loc_4BB1
4C26: 8B            ADC A,E
4C27: 8B            ADC A,E
4C28: 8B            ADC A,E
4C29: E0            RET PO
4C2A: F8            RET M
4C2B: FF            RST 38h

loc_4C2C:
4C2C: 00            NOP
4C2D: FF            RST 38h
4C2E: 1F            RRA
4C2F: 00            NOP
4C30: 01 FF 06      LD BC,06FFh
4C33: 01 02 FF      LD BC,FF02h
4C36: E8            RET PE
4C37: 01 03 FF      LD BC,FF03h
4C3A: C5            PUSH BC
4C3B: 02            LD (BC),A
4C3C: 04            INC B
4C3D: FF            RST 38h
4C3E: AC            XOR H
4C3F: 03            INC BC
4C40: 05            DEC B
4C41: FF            RST 38h
4C42: 96            SUB (HL)
4C43: 04            INC B

loc_4C44:
4C44: 06 FF         LD B,FFh
4C46: FE 04         CP 04h
4C48: 07            RLCA
4C49: FF            RST 38h
4C4A: 5E            LD E,(HL)
4C4B: 05            DEC B
4C4C: FF            RST 38h
4C4D: D0            RET NC
4C4E: 82            ADD A,D
4C4F: DF            RST 18h
4C50: 4A            LD C,D
4C51: 16 C8         LD D,C8h
4C53: 5A            LD E,D
4C54: E8            RET PE
4C55: 64            LD H,H
4C56: DB DC         IN A,(DCh)
4C58: 0C            INC C

loc_4C59:
4C59: C5            PUSH BC
4C5A: 30 86         JR NC,loc_4BE2
4C5C: 86            ADD A,(HL)
4C5D: 84            ADD A,H
4C5E: 86            ADD A,(HL)
4C5F: 89            ADC A,C
4C60: 86            ADD A,(HL)
4C61: 84            ADD A,H
4C62: AB            XOR E
4C63: 80            ADD A,B
4C64: 8B            ADC A,E
4C65: 8B            ADC A,E
4C66: 89            ADC A,C
4C67: DE 89         SBC A,89h
4C69: 86            ADD A,(HL)
4C6A: 84            ADD A,H
4C6B: 86            ADD A,(HL)
4C6C: 86            ADD A,(HL)
4C6D: 86            ADD A,(HL)
4C6E: 84            ADD A,H
4C6F: 86            ADD A,(HL)
4C70: 89            ADC A,C
4C71: 86            ADD A,(HL)
4C72: 84            ADD A,H

loc_4C73:
4C73: A6            AND (HL)
4C74: 80            ADD A,B
4C75: 86            ADD A,(HL)
4C76: 86            ADD A,(HL)
4C77: C7            RST 00h
4C78: 8B            ADC A,E
4C79: 8B            ADC A,E
4C7A: 8C            ADC A,H
4C7B: 8C            ADC A,H
4C7C: 8D            ADC A,L
4C7D: 8D            ADC A,L
4C7E: 92            SUB D
4C7F: 92            SUB D
4C80: 90            SUB B
4C81: 92            SUB D
4C82: 95            SUB L
4C83: 92            SUB D
4C84: 90            SUB B
4C85: B7            OR A
4C86: 80            ADD A,B
4C87: 97            SUB A
4C88: 97            SUB A
4C89: 95            SUB L
4C8A: DE 95         SBC A,95h

loc_4C8C:
4C8C: 92            SUB D
4C8D: 90            SUB B
4C8E: 92            SUB D
4C8F: 92            SUB D
4C90: 92            SUB D
4C91: 90            SUB B
4C92: 92            SUB D
4C93: 95            SUB L
4C94: 92            SUB D
4C95: 90            SUB B
4C96: B2            OR D
4C97: 80            ADD A,B
4C98: 92            SUB D
4C99: 92            SUB D
4C9A: 8B            ADC A,E
4C9B: 8B            ADC A,E
4C9C: 8C            ADC A,H
4C9D: 8C            ADC A,H
4C9E: 8D            ADC A,L
4C9F: 8D            ADC A,L
4CA0: E3            EX (SP),HL
4CA1: 02            LD (BC),A
4CA2: 0C            INC C
4CA3: C5            PUSH BC

loc_4CA4:
4CA4: 30 86         JR NC,loc_4C2C
4CA6: 86            ADD A,(HL)
4CA7: 86            ADD A,(HL)
4CA8: 86            ADD A,(HL)
4CA9: 86            ADD A,(HL)
4CAA: 84            ADD A,H
4CAB: 84            ADD A,H
4CAC: A1            AND C
4CAD: 80            ADD A,B
4CAE: 81            ADD A,C
4CAF: 81            ADD A,C
4CB0: 81            ADD A,C
4CB1: 81            ADD A,C
4CB2: 81            ADD A,C
4CB3: 84            ADD A,H
4CB4: 84            ADD A,H
4CB5: 84            ADD A,H
4CB6: E5            PUSH HL
4CB7: 01 16 00      LD BC,0016h
4CBA: 0C            INC C
4CBB: C5            PUSH BC
4CBC: 30 86         JR NC,loc_4C44
4CBE: 86            ADD A,(HL)
4CBF: 86            ADD A,(HL)
4CC0: 86            ADD A,(HL)
4CC1: 86            ADD A,(HL)
4CC2: 88            ADC A,B
4CC3: 88            ADC A,B
4CC4: 81            ADD A,C
4CC5: 81            ADD A,C

loc_4CC6:
4CC6: 81            ADD A,C
4CC7: 81            ADD A,C
4CC8: 81            ADD A,C
4CC9: 81            ADD A,C
4CCA: 81            ADD A,C
4CCB: 81            ADD A,C
4CCC: 81            ADD A,C
4CCD: E6 E6         AND E6h
4CCF: 0C            INC C
4CD0: C5            PUSH BC
4CD1: 30 86         JR NC,loc_4C59
4CD3: 86            ADD A,(HL)
4CD4: 86            ADD A,(HL)
4CD5: 86            ADD A,(HL)
4CD6: 86            ADD A,(HL)
4CD7: A9            XOR C
4CD8: 80            ADD A,B
4CD9: 89            ADC A,C
4CDA: A8            XOR B
4CDB: 80            ADD A,B
4CDC: 88            ADC A,B
4CDD: 88            ADC A,B
4CDE: 88            ADC A,B
4CDF: 88            ADC A,B
4CE0: 88            ADC A,B
4CE1: 88            ADC A,B
4CE2: 88            ADC A,B
4CE3: 88            ADC A,B
4CE4: 88            ADC A,B
4CE5: 8D            ADC A,L
4CE6: 90            SUB B
4CE7: 8D            ADC A,L
4CE8: 90            SUB B
4CE9: 8D            ADC A,L
4CEA: 90            SUB B
4CEB: 94            SUB H
4CEC: E3            EX (SP),HL
4CED: 02            LD (BC),A
4CEE: 0C            INC C
4CEF: C5            PUSH BC

sub_4CF0:
4CF0: 30 81         JR NC,loc_4C73
4CF2: 81            ADD A,C
4CF3: C7            RST 00h
4CF4: 8B            ADC A,E
4CF5: DE DE         SBC A,DEh
4CF7: 92            SUB D
4CF8: DE B0         SBC A,B0h
4CFA: 80            ADD A,B
4CFB: 90            SUB B
4CFC: 90            SUB B
4CFD: 90            SUB B
4CFE: 90            SUB B
4CFF: 92            SUB D
4D00: 8B            ADC A,E
4D01: 8B            ADC A,E
4D02: 8C            ADC A,H
4D03: E5            PUSH HL
4D04: 01 19 00      LD BC,0019h
4D07: 0C            INC C
4D08: C5            PUSH BC
4D09: 30 81         JR NC,loc_4C8C
4D0B: 81            ADD A,C
4D0C: C7            RST 00h
4D0D: 8B            ADC A,E
4D0E: DE DE         SBC A,DEh
4D10: 92            SUB D
4D11: DE B0         SBC A,B0h
4D13: 80            ADD A,B
4D14: 90            SUB B
4D15: 90            SUB B
4D16: 90            SUB B
4D17: B4            OR H
4D18: 80            ADD A,B
4D19: 94            SUB H
4D1A: 94            SUB H
4D1B: 94            SUB H
4D1C: 94            SUB H
4D1D: E6 E6         AND E6h
4D1F: 0C            INC C
4D20: C5            PUSH BC
4D21: 30 81         JR NC,loc_4CA4
4D23: 81            ADD A,C
4D24: C7            RST 00h
4D25: 8B            ADC A,E
4D26: DE DE         SBC A,DEh
4D28: 92            SUB D
4D29: DE B4         SBC A,B4h
4D2B: 80            ADD A,B
4D2C: 94            SUB H
4D2D: 94            SUB H
4D2E: 94            SUB H
4D2F: 94            SUB H
4D30: 94            SUB H
4D31: 94            SUB H
4D32: 94            SUB H
4D33: 94            SUB H
4D34: E0            RET PO
4D35: 23            INC HL
4D36: FF            RST 38h
4D37: E7            RST 20h
4D38: DF            RST 18h
4D39: 61            LD H,C
4D3A: 15            DEC D
4D3B: C8            RET Z
4D3C: 5A            LD E,D
4D3D: E8            RET PE
4D3E: 64            LD H,H
4D3F: DB DC         IN A,(DCh)
4D41: 0C            INC C
4D42: C5            PUSH BC
4D43: 30 81         JR NC,loc_4CC6
4D45: 81            ADD A,C
4D46: C7            RST 00h
4D47: 8B            ADC A,E
4D48: 8D            ADC A,L
4D49: 90            SUB B
4D4A: 8D            ADC A,L
4D4B: 8B            ADC A,E
4D4C: B2            OR D
4D4D: 80            ADD A,B
4D4E: 92            SUB D
4D4F: 92            SUB D
4D50: 90            SUB B
4D51: DE 90         SBC A,90h
4D53: 8D            ADC A,L
4D54: 8B            ADC A,E
4D55: 8D            ADC A,L
4D56: 8D            ADC A,L
4D57: 8D            ADC A,L
4D58: 8B            ADC A,E
4D59: 8D            ADC A,L
4D5A: 90            SUB B
4D5B: 8D            ADC A,L
4D5C: 8B            ADC A,E
4D5D: AD            XOR L
4D5E: 80            ADD A,B
4D5F: 8D            ADC A,L
4D60: 8D            ADC A,L
4D61: 84            ADD A,H
4D62: 84            ADD A,H
4D63: 85            ADD A,L
4D64: 85            ADD A,L
4D65: 86            ADD A,(HL)
4D66: 86            ADD A,(HL)
4D67: 8D            ADC A,L
4D68: 8D            ADC A,L
4D69: 8B            ADC A,E
4D6A: 8D            ADC A,L
4D6B: 90            SUB B
4D6C: 8D            ADC A,L
4D6D: 8B            ADC A,E
4D6E: B2            OR D
4D6F: 80            ADD A,B
4D70: 92            SUB D
4D71: 92            SUB D
4D72: 90            SUB B
4D73: DE 90         SBC A,90h
4D75: 8D            ADC A,L
4D76: 8B            ADC A,E
4D77: 8D            ADC A,L
4D78: 8D            ADC A,L
4D79: 8D            ADC A,L
4D7A: 8B            ADC A,E
4D7B: 8D            ADC A,L
4D7C: 90            SUB B
4D7D: 8D            ADC A,L
4D7E: 8B            ADC A,E
4D7F: AD            XOR L
4D80: 80            ADD A,B
4D81: 8D            ADC A,L
4D82: 8D            ADC A,L
4D83: 84            ADD A,H
4D84: 84            ADD A,H
4D85: 85            ADD A,L
4D86: 85            ADD A,L
4D87: 86            ADD A,(HL)
4D88: 86            ADD A,(HL)
4D89: E3            EX (SP),HL
4D8A: 02            LD (BC),A
4D8B: 0C            INC C
4D8C: C5            PUSH BC
4D8D: 24            INC H
4D8E: 8B            ADC A,E
4D8F: 8B            ADC A,E
4D90: 8B            ADC A,E
4D91: 8B            ADC A,E
4D92: 8B            ADC A,E
4D93: 89            ADC A,C
4D94: 89            ADC A,C
4D95: A6            AND (HL)
4D96: 80            ADD A,B
4D97: 86            ADD A,(HL)
4D98: 86            ADD A,(HL)
4D99: 86            ADD A,(HL)
4D9A: 86            ADD A,(HL)
4D9B: 86            ADD A,(HL)
4D9C: 89            ADC A,C
4D9D: 89            ADC A,C
4D9E: 89            ADC A,C
4D9F: E5            PUSH HL
4DA0: 01 16 00      LD BC,0016h
4DA3: 0C            INC C
4DA4: C5            PUSH BC
4DA5: 24            INC H
4DA6: 8B            ADC A,E
4DA7: 8B            ADC A,E
4DA8: 8B            ADC A,E
4DA9: 8B            ADC A,E
4DAA: 8B            ADC A,E
4DAB: 8D            ADC A,L
4DAC: 8D            ADC A,L
4DAD: 86            ADD A,(HL)
4DAE: 86            ADD A,(HL)
4DAF: 86            ADD A,(HL)
4DB0: 86            ADD A,(HL)

loc_4DB1:
4DB1: 86            ADD A,(HL)
4DB2: 86            ADD A,(HL)
4DB3: 86            ADD A,(HL)
4DB4: 86            ADD A,(HL)
4DB5: 86            ADD A,(HL)
4DB6: E6 E6         AND E6h
4DB8: 0C            INC C
4DB9: C5            PUSH BC
4DBA: 24            INC H
4DBB: 8B            ADC A,E
4DBC: 8B            ADC A,E
4DBD: 8B            ADC A,E
4DBE: 8B            ADC A,E
4DBF: 8B            ADC A,E
4DC0: AE            XOR (HL)
4DC1: 80            ADD A,B
4DC2: 8E            ADC A,(HL)
4DC3: AD            XOR L
4DC4: 80            ADD A,B
4DC5: 8D            ADC A,L
4DC6: 8D            ADC A,L
4DC7: 8D            ADC A,L
4DC8: 8D            ADC A,L
4DC9: 8D            ADC A,L
4DCA: 8D            ADC A,L
4DCB: 8D            ADC A,L
4DCC: 8D            ADC A,L
4DCD: 8D            ADC A,L
4DCE: 8D            ADC A,L
4DCF: 90            SUB B
4DD0: 8D            ADC A,L
4DD1: 90            SUB B
4DD2: 8D            ADC A,L
4DD3: 90            SUB B
4DD4: 94            SUB H
4DD5: E3            EX (SP),HL
4DD6: 02            LD (BC),A
4DD7: 0C            INC C
4DD8: C5            PUSH BC
4DD9: 24            INC H
4DDA: 86            ADD A,(HL)
4DDB: 86            ADD A,(HL)
4DDC: 84            ADD A,H
4DDD: DE DE         SBC A,DEh
4DDF: 8B            ADC A,E
4DE0: DE A9         SBC A,A9h
4DE2: 80            ADD A,B
4DE3: 89            ADC A,C
4DE4: 89            ADC A,C
4DE5: 89            ADC A,C
4DE6: 89            ADC A,C
4DE7: 8B            ADC A,E
4DE8: 84            ADD A,H
4DE9: 84            ADD A,H
4DEA: 85            ADD A,L
4DEB: E5            PUSH HL
4DEC: 01 18 00      LD BC,0018h
4DEF: 0C            INC C
4DF0: C5            PUSH BC
4DF1: 24            INC H
4DF2: 86            ADD A,(HL)
4DF3: 86            ADD A,(HL)
4DF4: 84            ADD A,H
4DF5: DE DE         SBC A,DEh
4DF7: 8B            ADC A,E
4DF8: DE A9         SBC A,A9h
4DFA: 80            ADD A,B

loc_4DFB:
4DFB: 89            ADC A,C
4DFC: 89            ADC A,C
4DFD: 89            ADC A,C
4DFE: AD            XOR L
4DFF: 80            ADD A,B
4E00: 8D            ADC A,L
4E01: 8D            ADC A,L
4E02: 8D            ADC A,L
4E03: 8D            ADC A,L
4E04: E6 E6         AND E6h
4E06: 0C            INC C
4E07: C5            PUSH BC
4E08: 24            INC H
4E09: 86            ADD A,(HL)
4E0A: 86            ADD A,(HL)
4E0B: 84            ADD A,H
4E0C: DE DE         SBC A,DEh
4E0E: 8B            ADC A,E
4E0F: DE AD         SBC A,ADh
4E11: 80            ADD A,B
4E12: 8D            ADC A,L

loc_4E13:
4E13: 8D            ADC A,L
4E14: 8D            ADC A,L
4E15: 8D            ADC A,L
4E16: 8D            ADC A,L
4E17: 8D            ADC A,L
4E18: 8D            ADC A,L
4E19: 8D            ADC A,L
4E1A: E0            RET PO
4E1B: 26 FF         LD H,FFh
4E1D: E7            RST 20h
4E1E: DF            RST 18h
4E1F: F7            RST 30h
4E20: 13            INC DE
4E21: C8            RET Z
4E22: 6E            LD L,(HL)
4E23: DB C8         IN A,(C8h)
4E25: E8            RET PE
4E26: 64            LD H,H
4E27: 0C            INC C

loc_4E28:
4E28: C5            PUSH BC
4E29: 18 86         JR loc_4DB1
4E2B: 86            ADD A,(HL)
4E2C: 86            ADD A,(HL)
4E2D: 86            ADD A,(HL)
4E2E: 86            ADD A,(HL)
4E2F: 86            ADD A,(HL)
4E30: 86            ADD A,(HL)
4E31: 86            ADD A,(HL)
4E32: 86            ADD A,(HL)
4E33: 86            ADD A,(HL)
4E34: 86            ADD A,(HL)
4E35: 86            ADD A,(HL)
4E36: 86            ADD A,(HL)
4E37: 86            ADD A,(HL)
4E38: 86            ADD A,(HL)
4E39: 86            ADD A,(HL)
4E3A: 86            ADD A,(HL)
4E3B: 86            ADD A,(HL)
4E3C: 86            ADD A,(HL)
4E3D: 86            ADD A,(HL)
4E3E: 86            ADD A,(HL)
4E3F: 86            ADD A,(HL)
4E40: 86            ADD A,(HL)
4E41: 86            ADD A,(HL)

loc_4E42:
4E42: 86            ADD A,(HL)
4E43: 86            ADD A,(HL)
4E44: 86            ADD A,(HL)
4E45: 86            ADD A,(HL)
4E46: 86            ADD A,(HL)
4E47: 86            ADD A,(HL)
4E48: 86            ADD A,(HL)
4E49: 86            ADD A,(HL)
4E4A: 86            ADD A,(HL)
4E4B: 86            ADD A,(HL)
4E4C: 86            ADD A,(HL)
4E4D: 86            ADD A,(HL)
4E4E: 86            ADD A,(HL)
4E4F: 86            ADD A,(HL)
4E50: 86            ADD A,(HL)
4E51: 86            ADD A,(HL)
4E52: 86            ADD A,(HL)
4E53: 86            ADD A,(HL)
4E54: 86            ADD A,(HL)
4E55: 86            ADD A,(HL)
4E56: 86            ADD A,(HL)
4E57: 86            ADD A,(HL)
4E58: 86            ADD A,(HL)
4E59: 86            ADD A,(HL)

loc_4E5A:
4E5A: 86            ADD A,(HL)
4E5B: 86            ADD A,(HL)
4E5C: 86            ADD A,(HL)
4E5D: 86            ADD A,(HL)
4E5E: 86            ADD A,(HL)
4E5F: 86            ADD A,(HL)
4E60: 86            ADD A,(HL)
4E61: 86            ADD A,(HL)
4E62: 86            ADD A,(HL)
4E63: 86            ADD A,(HL)
4E64: 86            ADD A,(HL)
4E65: 86            ADD A,(HL)
4E66: 86            ADD A,(HL)
4E67: 86            ADD A,(HL)
4E68: 86            ADD A,(HL)
4E69: 86            ADD A,(HL)
4E6A: E3            EX (SP),HL
4E6B: 02            LD (BC),A
4E6C: 0C            INC C
4E6D: C5            PUSH BC
4E6E: 18 8B         JR loc_4DFB
4E70: 8B            ADC A,E

loc_4E71:
4E71: 8B            ADC A,E
4E72: 8B            ADC A,E
4E73: 8B            ADC A,E
4E74: 89            ADC A,C
4E75: 89            ADC A,C
4E76: A6            AND (HL)
4E77: 80            ADD A,B
4E78: 86            ADD A,(HL)
4E79: 86            ADD A,(HL)
4E7A: 86            ADD A,(HL)
4E7B: 86            ADD A,(HL)
4E7C: 86            ADD A,(HL)
4E7D: 89            ADC A,C
4E7E: 89            ADC A,C
4E7F: 89            ADC A,C
4E80: E5            PUSH HL
4E81: 01 16 00      LD BC,0016h

sub_4E84:
4E84: 0C            INC C
4E85: C5            PUSH BC
4E86: 18 8B         JR loc_4E13
4E88: 8B            ADC A,E
4E89: 8B            ADC A,E
4E8A: 8B            ADC A,E
4E8B: 8B            ADC A,E
4E8C: 8D            ADC A,L
4E8D: 8D            ADC A,L
4E8E: 86            ADD A,(HL)
4E8F: 86            ADD A,(HL)
4E90: 86            ADD A,(HL)
4E91: 86            ADD A,(HL)
4E92: 86            ADD A,(HL)
4E93: 86            ADD A,(HL)
4E94: 86            ADD A,(HL)
4E95: 86            ADD A,(HL)
4E96: 86            ADD A,(HL)
4E97: E6 E6         AND E6h
4E99: 0C            INC C
4E9A: C5            PUSH BC
4E9B: 18 8B         JR loc_4E28
4E9D: 8B            ADC A,E
4E9E: 8B            ADC A,E
4E9F: 8B            ADC A,E
4EA0: 8B            ADC A,E
4EA1: AE            XOR (HL)
4EA2: 80            ADD A,B
4EA3: 8E            ADC A,(HL)
4EA4: AD            XOR L
4EA5: 80            ADD A,B
4EA6: 8D            ADC A,L
4EA7: 8D            ADC A,L
4EA8: 8D            ADC A,L
4EA9: 8D            ADC A,L
4EAA: 8D            ADC A,L
4EAB: 8D            ADC A,L
4EAC: 8D            ADC A,L
4EAD: 8D            ADC A,L
4EAE: 8D            ADC A,L
4EAF: 8D            ADC A,L
4EB0: 90            SUB B
4EB1: 8D            ADC A,L
4EB2: 90            SUB B
4EB3: 8D            ADC A,L
4EB4: 90            SUB B
4EB5: 94            SUB H
4EB6: E3            EX (SP),HL
4EB7: 02            LD (BC),A
4EB8: 0C            INC C
4EB9: C5            PUSH BC
4EBA: 18 86         JR loc_4E42
4EBC: 86            ADD A,(HL)
4EBD: 84            ADD A,H
4EBE: DE DE         SBC A,DEh
4EC0: 8B            ADC A,E
4EC1: DE A9         SBC A,A9h
4EC3: 80            ADD A,B
4EC4: 89            ADC A,C
4EC5: 89            ADC A,C
4EC6: 89            ADC A,C
4EC7: 89            ADC A,C
4EC8: 8B            ADC A,E
4EC9: 84            ADD A,H
4ECA: 84            ADD A,H
4ECB: 85            ADD A,L
4ECC: E5            PUSH HL
4ECD: 01 18 00      LD BC,0018h
4ED0: 0C            INC C
4ED1: C5            PUSH BC
4ED2: 18 86         JR loc_4E5A
4ED4: 86            ADD A,(HL)
4ED5: 84            ADD A,H
4ED6: DE DE         SBC A,DEh
4ED8: 8B            ADC A,E
4ED9: DE A9         SBC A,A9h
4EDB: 80            ADD A,B
4EDC: 89            ADC A,C
4EDD: 89            ADC A,C
4EDE: 89            ADC A,C
4EDF: AD            XOR L
4EE0: 80            ADD A,B
4EE1: 8D            ADC A,L
4EE2: 8D            ADC A,L
4EE3: 8D            ADC A,L
4EE4: 8D            ADC A,L
4EE5: E6 E6         AND E6h
4EE7: 0C            INC C
4EE8: C5            PUSH BC
4EE9: 18 86         JR loc_4E71
4EEB: 86            ADD A,(HL)
4EEC: 84            ADD A,H
4EED: DE DE         SBC A,DEh
4EEF: 8B            ADC A,E
4EF0: DE AD         SBC A,ADh
4EF2: 80            ADD A,B
4EF3: 8D            ADC A,L
4EF4: 8D            ADC A,L
4EF5: 8D            ADC A,L
4EF6: 8D            ADC A,L
4EF7: 8D            ADC A,L
4EF8: 8D            ADC A,L
4EF9: 8D            ADC A,L
4EFA: 8D            ADC A,L
4EFB: E0            RET PO
4EFC: 2B            DEC HL
4EFD: FF            RST 38h
4EFE: E7            RST 20h
4EFF: DF            RST 18h
4F00: FA 09 C8      JP M,C809h
4F03: 5F            LD E,A
4F04: E8            RET PE
4F05: 64            LD H,H
4F06: DB FA         IN A,(FAh)
4F08: 0C            INC C
4F09: C5            PUSH BC
4F0A: 3C            INC A
4F0B: 86            ADD A,(HL)
4F0C: 86            ADD A,(HL)
4F0D: 84            ADD A,H
4F0E: 86            ADD A,(HL)
4F0F: 89            ADC A,C
4F10: 86            ADD A,(HL)
4F11: 84            ADD A,H
4F12: AB            XOR E
4F13: 80            ADD A,B
4F14: 8B            ADC A,E
4F15: 8B            ADC A,E
4F16: 89            ADC A,C
4F17: DE 89         SBC A,89h
4F19: 86            ADD A,(HL)
4F1A: 84            ADD A,H
4F1B: 86            ADD A,(HL)
4F1C: 86            ADD A,(HL)
4F1D: 86            ADD A,(HL)
4F1E: 84            ADD A,H
4F1F: 86            ADD A,(HL)
4F20: 89            ADC A,C
4F21: 86            ADD A,(HL)
4F22: 84            ADD A,H
4F23: A6            AND (HL)
4F24: 80            ADD A,B
4F25: 86            ADD A,(HL)
4F26: 86            ADD A,(HL)
4F27: C7            RST 00h
4F28: 8B            ADC A,E
4F29: 8B            ADC A,E
4F2A: 8C            ADC A,H
4F2B: 8C            ADC A,H
4F2C: 8D            ADC A,L
4F2D: 8D            ADC A,L
4F2E: 92            SUB D
4F2F: 92            SUB D
4F30: 90            SUB B
4F31: 92            SUB D
4F32: 95            SUB L
4F33: 92            SUB D
4F34: 90            SUB B
4F35: B7            OR A
4F36: 80            ADD A,B
4F37: 97            SUB A
4F38: 97            SUB A
4F39: 95            SUB L
4F3A: DE 95         SBC A,95h

loc_4F3C:
4F3C: 92            SUB D
4F3D: 90            SUB B
4F3E: 92            SUB D

loc_4F3F:
4F3F: 92            SUB D
4F40: 92            SUB D
4F41: 90            SUB B
4F42: 92            SUB D

loc_4F43:
4F43: 95            SUB L
4F44: 92            SUB D
4F45: 90            SUB B
4F46: B2            OR D
4F47: 80            ADD A,B
4F48: 92            SUB D
4F49: 92            SUB D
4F4A: 8B            ADC A,E
4F4B: 8B            ADC A,E
4F4C: 8C            ADC A,H
4F4D: 8C            ADC A,H
4F4E: 8D            ADC A,L
4F4F: 8D            ADC A,L
4F50: E3            EX (SP),HL
4F51: 02            LD (BC),A
4F52: 0C            INC C

loc_4F53:
4F53: C5            PUSH BC
4F54: 3C            INC A
4F55: A6            AND (HL)
4F56: 80            ADD A,B
4F57: A6            AND (HL)
4F58: 80            ADD A,B
4F59: A6            AND (HL)
4F5A: 80            ADD A,B
4F5B: A6            AND (HL)

loc_4F5C:
4F5C: 80            ADD A,B
4F5D: 86            ADD A,(HL)
4F5E: A4            AND H
4F5F: 80            ADD A,B
4F60: 84            ADD A,H
4F61: A1            AND C
4F62: 80            ADD A,B
4F63: A1            AND C
4F64: 80            ADD A,B
4F65: A1            AND C
4F66: 80            ADD A,B

loc_4F67:
4F67: A1            AND C
4F68: 80            ADD A,B
4F69: A1            AND C
4F6A: 80            ADD A,B
4F6B: 81            ADD A,C
4F6C: A4            AND H
4F6D: 80            ADD A,B
4F6E: A4            AND H
4F6F: 80            ADD A,B
4F70: 84            ADD A,H
4F71: E5            PUSH HL
4F72: 01 23 00      LD BC,0023h

loc_4F75:
4F75: 0C            INC C
4F76: C5            PUSH BC
4F77: 3C            INC A
4F78: A6            AND (HL)
4F79: 80            ADD A,B
4F7A: A6            AND (HL)
4F7B: 80            ADD A,B
4F7C: A6            AND (HL)
4F7D: 80            ADD A,B
4F7E: A6            AND (HL)
4F7F: 80            ADD A,B
4F80: 86            ADD A,(HL)
4F81: A8            XOR B
4F82: 80            ADD A,B
4F83: 88            ADC A,B
4F84: A1            AND C
4F85: 80            ADD A,B
4F86: A1            AND C
4F87: 80            ADD A,B
4F88: A1            AND C
4F89: 80            ADD A,B
4F8A: A1            AND C
4F8B: 80            ADD A,B

loc_4F8C:
4F8C: A1            AND C
4F8D: 80            ADD A,B
4F8E: A1            AND C
4F8F: 80            ADD A,B
4F90: A1            AND C
4F91: 80            ADD A,B
4F92: A1            AND C
4F93: 80            ADD A,B
4F94: 81            ADD A,C
4F95: E6 E6         AND E6h
4F97: 0C            INC C
4F98: C5            PUSH BC
4F99: 3C            INC A
4F9A: A6            AND (HL)
4F9B: 80            ADD A,B
4F9C: A6            AND (HL)
4F9D: 80            ADD A,B
4F9E: A6            AND (HL)
4F9F: 80            ADD A,B

loc_4FA0:
4FA0: A6            AND (HL)
4FA1: 80            ADD A,B
4FA2: 86            ADD A,(HL)
4FA3: A9            XOR C
4FA4: 80            ADD A,B
4FA5: 89            ADC A,C
4FA6: A5            AND L
4FA7: 80            ADD A,B
4FA8: 60            LD H,B
4FA9: A5            AND L
4FAA: 80            ADD A,B
4FAB: 85            ADD A,L
4FAC: E3            EX (SP),HL
4FAD: 02            LD (BC),A
4FAE: 18 C5         JR loc_4F75
4FB0: 3C            INC A
4FB1: 86            ADD A,(HL)
4FB2: 24            INC H
4FB3: 84            ADD A,H
4FB4: 18 86         JR loc_4F3C
4FB6: 0C            INC C
4FB7: A4            AND H
4FB8: 80            ADD A,B
4FB9: 30 84         JR NC,loc_4F3F
4FBB: 0C            INC C
4FBC: 86            ADD A,(HL)
4FBD: 18 84         JR loc_4F43
4FBF: 0C            INC C
4FC0: 85            ADD A,L
4FC1: E5            PUSH HL
4FC2: 01 15 00      LD BC,0015h
4FC5: 18 C5         JR loc_4F8C
4FC7: 3C            INC A
4FC8: 86            ADD A,(HL)
4FC9: 24            INC H
4FCA: 84            ADD A,H
4FCB: 18 86         JR loc_4F53
4FCD: 0C            INC C
4FCE: A4            AND H
4FCF: 80            ADD A,B
4FD0: 24            INC H
4FD1: 84            ADD A,H
4FD2: 0C            INC C
4FD3: A5            AND L
4FD4: 80            ADD A,B
4FD5: 30 85         JR NC,loc_4F5C
4FD7: E6 E6         AND E6h
4FD9: 18 C5         JR loc_4FA0
4FDB: 3C            INC A
4FDC: 86            ADD A,(HL)
4FDD: 24            INC H
4FDE: 84            ADD A,H
4FDF: 18 86         JR loc_4F67
4FE1: 0C            INC C
4FE2: A5            AND L
4FE3: 80            ADD A,B
4FE4: 60            LD H,B
4FE5: 85            ADD A,L
4FE6: E0            RET PO
4FE7: 21 FF E7      LD HL,E7FFh
4FEA: DF            RST 18h
4FEB: 0F            RRCA

loc_4FEC:
4FEC: 09            ADD HL,BC
4FED: C8            RET Z
4FEE: 5F            LD E,A
4FEF: E8            RET PE
4FF0: 64            LD H,H
4FF1: DB FA         IN A,(FAh)
4FF3: 0C            INC C
4FF4: C5            PUSH BC
4FF5: 3C            INC A
4FF6: 81            ADD A,C
4FF7: 81            ADD A,C
4FF8: C7            RST 00h
4FF9: 8B            ADC A,E
4FFA: 8D            ADC A,L
4FFB: 90            SUB B
4FFC: 8D            ADC A,L
4FFD: 8B            ADC A,E
4FFE: B2            OR D
4FFF: 80            ADD A,B
5000: 92            SUB D
5001: 92            SUB D
5002: 90            SUB B
5003: DE 90         SBC A,90h
5005: 8D            ADC A,L
5006: 8B            ADC A,E
5007: 8D            ADC A,L
5008: 8D            ADC A,L
5009: 8D            ADC A,L
500A: 8B            ADC A,E
500B: 8D            ADC A,L
500C: 90            SUB B
500D: 8D            ADC A,L
500E: 8B            ADC A,E

loc_500F:
500F: AD            XOR L
5010: 80            ADD A,B
5011: 8D            ADC A,L
5012: 8D            ADC A,L
5013: 84            ADD A,H
5014: 84            ADD A,H
5015: 85            ADD A,L
5016: 85            ADD A,L
5017: 86            ADD A,(HL)
5018: 86            ADD A,(HL)
5019: 8D            ADC A,L
501A: 8D            ADC A,L
501B: 8B            ADC A,E
501C: 8D            ADC A,L
501D: 90            SUB B
501E: 8D            ADC A,L
501F: 8B            ADC A,E
5020: B2            OR D
5021: 80            ADD A,B
5022: 92            SUB D
5023: 92            SUB D
5024: 90            SUB B
5025: DE 90         SBC A,90h
5027: 8D            ADC A,L
5028: 8B            ADC A,E
5029: 8D            ADC A,L
502A: 8D            ADC A,L
502B: 8D            ADC A,L
502C: 8B            ADC A,E
502D: 8D            ADC A,L
502E: 90            SUB B
502F: 8D            ADC A,L
5030: 8B            ADC A,E

loc_5031:
5031: AD            XOR L
5032: 80            ADD A,B
5033: 8D            ADC A,L

loc_5034:
5034: 8D            ADC A,L
5035: 84            ADD A,H

loc_5036:
5036: 84            ADD A,H
5037: 85            ADD A,L
5038: 85            ADD A,L
5039: 86            ADD A,(HL)
503A: 86            ADD A,(HL)
503B: E3            EX (SP),HL
503C: 02            LD (BC),A
503D: 0C            INC C
503E: C5            PUSH BC
503F: 30 AB         JR NC,loc_4FEC
5041: 80            ADD A,B
5042: AB            XOR E
5043: 80            ADD A,B
5044: AB            XOR E
5045: 80            ADD A,B
5046: AB            XOR E
5047: 80            ADD A,B
5048: 8B            ADC A,E

loc_5049:
5049: A9            XOR C
504A: 80            ADD A,B
504B: 89            ADC A,C
504C: A6            AND (HL)
504D: 80            ADD A,B
504E: A6            AND (HL)
504F: 80            ADD A,B
5050: A6            AND (HL)

loc_5051:
5051: 80            ADD A,B
5052: A6            AND (HL)
5053: 80            ADD A,B
5054: A6            AND (HL)
5055: 80            ADD A,B
5056: 86            ADD A,(HL)
5057: A9            XOR C
5058: 80            ADD A,B
5059: A9            XOR C
505A: 80            ADD A,B
505B: 89            ADC A,C
505C: E5            PUSH HL
505D: 01 23 00      LD BC,0023h

loc_5060:
5060: 0C            INC C
5061: C5            PUSH BC
5062: 30 AB         JR NC,loc_500F
5064: 80            ADD A,B
5065: AB            XOR E
5066: 80            ADD A,B
5067: AB            XOR E
5068: 80            ADD A,B
5069: AB            XOR E
506A: 80            ADD A,B
506B: 8B            ADC A,E
506C: AD            XOR L
506D: 80            ADD A,B
506E: 8D            ADC A,L
506F: A6            AND (HL)
5070: 80            ADD A,B
5071: A6            AND (HL)
5072: 80            ADD A,B
5073: A6            AND (HL)
5074: 80            ADD A,B
5075: A6            AND (HL)
5076: 80            ADD A,B
5077: A6            AND (HL)

loc_5078:
5078: 80            ADD A,B
5079: A6            AND (HL)
507A: 80            ADD A,B
507B: A6            AND (HL)
507C: 80            ADD A,B
507D: A6            AND (HL)
507E: 80            ADD A,B
507F: 86            ADD A,(HL)
5080: E6 E6         AND E6h
5082: 0C            INC C
5083: C5            PUSH BC
5084: 30 AB         JR NC,loc_5031
5086: 80            ADD A,B
5087: AB            XOR E
5088: 80            ADD A,B
5089: AB            XOR E
508A: 80            ADD A,B
508B: AB            XOR E
508C: 80            ADD A,B

loc_508D:
508D: 8B            ADC A,E
508E: AE            XOR (HL)
508F: 80            ADD A,B
5090: 8E            ADC A,(HL)
5091: AD            XOR L
5092: 80            ADD A,B
5093: 60            LD H,B
5094: AD            XOR L

loc_5095:
5095: 80            ADD A,B
5096: 8D            ADC A,L
5097: E3            EX (SP),HL
5098: 02            LD (BC),A
5099: 18 C5         JR loc_5060

loc_509B:
509B: 3C            INC A
509C: 81            ADD A,C
509D: 24            INC H

loc_509E:
509E: C7            RST 00h
509F: 8B            ADC A,E
50A0: 18 8F         JR loc_5031
50A2: 0C            INC C
50A3: AD            XOR L
50A4: 80            ADD A,B
50A5: 30 8D         JR NC,loc_5034
50A7: 0C            INC C
50A8: 8F            ADC A,A

loc_50A9:
50A9: 18 8B         JR loc_5036
50AB: 0C            INC C

loc_50AC:
50AC: 8C            ADC A,H
50AD: E5            PUSH HL
50AE: 01 16 00      LD BC,0016h
50B1: 18 C5         JR loc_5078
50B3: 3C            INC A
50B4: 81            ADD A,C
50B5: 24            INC H
50B6: C7            RST 00h
50B7: 8B            ADC A,E
50B8: 18 8F         JR loc_5049
50BA: 0C            INC C
50BB: AD            XOR L
50BC: 80            ADD A,B
50BD: 24            INC H
50BE: 8D            ADC A,L
50BF: 0C            INC C

loc_50C0:
50C0: AD            XOR L
50C1: 80            ADD A,B
50C2: 30 8D         JR NC,loc_5051
50C4: E6 E6         AND E6h

loc_50C6:
50C6: 18 C5         JR loc_508D
50C8: 3C            INC A
50C9: 81            ADD A,C
50CA: 24            INC H
50CB: C7            RST 00h
50CC: 8B            ADC A,E
50CD: 18 8F         JR loc_505E

loc_50CF:
50CF: 0C            INC C
50D0: AD            XOR L
50D1: 80            ADD A,B
50D2: 60            LD H,B
50D3: 8D            ADC A,L
50D4: E0            RET PO
50D5: 1E FF         LD E,FFh
50D7: E7            RST 20h

loc_50D8:
50D8: DF            RST 18h
50D9: 21 08 C8      LD HL,C808h
50DC: 5F            LD E,A
50DD: E8            RET PE
50DE: 64            LD H,H
50DF: DB FA         IN A,(FAh)
50E1: 60            LD H,B
50E2: DE DE         SBC A,DEh
50E4: DE DE         SBC A,DEh

loc_50E6:
50E6: DE DE         SBC A,DEh
50E8: DE DE         SBC A,DEh
50EA: E3            EX (SP),HL
50EB: 02            LD (BC),A
50EC: 60            LD H,B
50ED: DE DE         SBC A,DEh
50EF: E5            PUSH HL
50F0: 01 06 00      LD BC,0006h
50F3: 60            LD H,B
50F4: DE DE         SBC A,DEh
50F6: E6 E6         AND E6h
50F8: 30 DE         JR NC,loc_50D8

loc_50FA:
50FA: 18 DE         JR loc_50DA
50FC: 0C            INC C
50FD: DE C5         SBC A,C5h
50FF: 30 A8         JR NC,loc_50A9
5101: 80            ADD A,B
5102: 60            LD H,B
5103: A8            XOR B
5104: 80            ADD A,B
5105: 88            ADC A,B
5106: E3            EX (SP),HL
5107: 02            LD (BC),A
5108: 18 C5         JR loc_50CF
510A: 30 89         JR NC,loc_5095
510C: 24            INC H
510D: 88            ADC A,B
510E: 18 8B         JR loc_509B
5110: 0C            INC C
5111: A9            XOR C
5112: 80            ADD A,B
5113: 30 89         JR NC,loc_509E
5115: 0C            INC C
5116: 8B            ADC A,E

loc_5117:
5117: 18 88         JR loc_50A1
5119: 0C            INC C
511A: 89            ADC A,C
511B: E5            PUSH HL
511C: 01 15 00      LD BC,0015h
511F: 18 C5         JR loc_50E6
5121: 30 89         JR NC,loc_50AC
5123: 24            INC H
5124: 88            ADC A,B
5125: 18 8B         JR loc_50B2
5127: 0C            INC C
5128: A9            XOR C
5129: 80            ADD A,B
512A: 24            INC H
512B: 89            ADC A,C
512C: 0C            INC C
512D: A8            XOR B
512E: 80            ADD A,B
512F: 30 88         JR NC,loc_50B9
5131: E6 E6         AND E6h
5133: 18 C5         JR loc_50FA
5135: 30 89         JR NC,loc_50C0
5137: 24            INC H
5138: 88            ADC A,B
5139: 18 8B         JR loc_50C6
513B: 0C            INC C
513C: A8            XOR B
513D: 80            ADD A,B

loc_513E:
513E: 60            LD H,B
513F: 88            ADC A,B
5140: E0            RET PO
5141: A0            AND B
5142: FF            RST 38h
5143: E7            RST 20h
5144: DF            RST 18h
5145: 75            LD (HL),L
5146: 15            DEC D
5147: C8            RET Z
5148: 6E            LD L,(HL)
5149: E8            RET PE
514A: 64            LD H,H
514B: DF            RST 18h
514C: 42            LD B,D
514D: 15            DEC D
514E: C8            RET Z
514F: 64            LD H,H
5150: 18 C5         JR loc_5117
5152: 24            INC H
5153: 8B            ADC A,E
5154: C8            RET Z
5155: 6E            LD L,(HL)
5156: DF            RST 18h
5157: BB            CP E
5158: 15            DEC D
5159: 0C            INC C
515A: 8B            ADC A,E
515B: DF            RST 18h
515C: 5E            LD E,(HL)
515D: 15            DEC D
515E: 97            SUB A
515F: 97            SUB A
5160: 97            SUB A
5161: DF            RST 18h
5162: B0            OR B
5163: 15            DEC D
5164: 8B            ADC A,E
5165: DF            RST 18h
5166: 54            LD D,H
5167: 15            DEC D
5168: 97            SUB A
5169: 97            SUB A
516A: 97            SUB A
516B: DF            RST 18h
516C: A6            AND (HL)
516D: 15            DEC D

loc_516E:
516E: 8B            ADC A,E
516F: DF            RST 18h
5170: 4A            LD C,D
5171: 15            DEC D
5172: 97            SUB A
5173: 97            SUB A
5174: 97            SUB A
5175: DF            RST 18h

loc_5176:
5176: 9C            SBC A,H
5177: 15            DEC D
5178: 8B            ADC A,E
5179: DF            RST 18h
517A: 40            LD B,B
517B: 15            DEC D
517C: 97            SUB A
517D: 97            SUB A
517E: 97            SUB A
517F: DF            RST 18h
5180: 92            SUB D
5181: 15            DEC D
5182: 8B            ADC A,E
5183: DF            RST 18h
5184: 36 15         LD (HL),15h
5186: 97            SUB A
5187: 97            SUB A
5188: 97            SUB A
5189: DF            RST 18h
518A: 88            ADC A,B
518B: 15            DEC D
518C: 8B            ADC A,E
518D: DF            RST 18h
518E: 2C            INC L
518F: 15            DEC D
5190: 97            SUB A
5191: 97            SUB A
5192: 97            SUB A
5193: DF            RST 18h
5194: 7E            LD A,(HL)
5195: 15            DEC D
5196: 8B            ADC A,E
5197: DF            RST 18h
5198: 22 15 97      LD (9715h),HL
519B: 97            SUB A
519C: 97            SUB A
519D: DF            RST 18h
519E: 74            LD (HL),H
519F: 15            DEC D
51A0: 8B            ADC A,E
51A1: DF            RST 18h
51A2: 18 15         JR loc_51B9
51A4: 97            SUB A
51A5: E0            RET PO
51A6: A5            AND L
51A7: FF            RST 38h

loc_51A8:
51A8: DF            RST 18h
51A9: 95            SUB L
51AA: 15            DEC D
51AB: C8            RET Z
51AC: 6E            LD L,(HL)
51AD: E8            RET PE
51AE: 64            LD H,H
51AF: 18 C5         JR loc_5176
51B1: 18 8B         JR loc_513E
51B3: 8B            ADC A,E
51B4: 8B            ADC A,E
51B5: 8B            ADC A,E
51B6: E0            RET PO
51B7: F8            RET M
51B8: FF            RST 38h

loc_51B9:
51B9: 00            NOP
51BA: FF            RST 38h
51BB: 1F            RRA
51BC: 00            NOP
51BD: 01 FF B2      LD BC,B2FFh
51C0: 00            NOP
51C1: 02            LD (BC),A
51C2: FF            RST 38h
51C3: 43            LD B,E
51C4: 01 03 FF      LD BC,FF03h
51C7: B7            OR A
51C8: 01 04 FF      LD BC,FF04h
51CB: 2B            DEC HL
51CC: 02            LD (BC),A
51CD: 05            DEC B
51CE: FF            RST 38h
51CF: 9F            SBC A,A
51D0: 02            LD (BC),A
51D1: 06 FF         LD B,FFh
51D3: 01 03 07      LD BC,0703h
51D6: FF            RST 38h
51D7: 61            LD H,C
51D8: 03            INC BC
51D9: FF            RST 38h
51DA: D0            RET NC
51DB: 9B            SBC A,E
51DC: DF            RST 18h
51DD: 0D            DEC C
51DE: 10 C8         DJNZ loc_51A8
51E0: 64            LD H,H
51E1: DB C8         IN A,(C8h)
51E3: E8            RET PE
51E4: 64            LD H,H
51E5: C4 00 0C      CALL NZ,sub_0C00
51E8: C5            PUSH BC
51E9: 18 83         JR loc_516E
51EB: 8A            ADC A,D
51EC: 8D            ADC A,L
51ED: 8F            ADC A,A
51EE: 8D            ADC A,L
51EF: 8A            ADC A,D
51F0: 91            SUB C
51F1: 8D            ADC A,L
51F2: 83            ADD A,E
51F3: 8A            ADC A,D
51F4: 8D            ADC A,L
51F5: 8E            ADC A,(HL)
51F6: 8F            ADC A,A
51F7: 8D            ADC A,L
51F8: 91            SUB C
51F9: 8D            ADC A,L
51FA: 83            ADD A,E
51FB: 8A            ADC A,D
51FC: 8D            ADC A,L
51FD: 8F            ADC A,A
51FE: 8D            ADC A,L
51FF: 8A            ADC A,D
5200: 91            SUB C
5201: 8D            ADC A,L
5202: 83            ADD A,E

loc_5203:
5203: 8A            ADC A,D
5204: 8D            ADC A,L
5205: 8E            ADC A,(HL)
5206: 8F            ADC A,A
5207: 8D            ADC A,L
5208: 91            SUB C
5209: 8D            ADC A,L
520A: 83            ADD A,E
520B: 8A            ADC A,D
520C: 8D            ADC A,L
520D: 8F            ADC A,A
520E: 8D            ADC A,L
520F: 8A            ADC A,D
5210: 91            SUB C
5211: 8D            ADC A,L
5212: 83            ADD A,E
5213: 8A            ADC A,D
5214: 8D            ADC A,L
5215: 8E            ADC A,(HL)
5216: 8F            ADC A,A
5217: 8D            ADC A,L
5218: 91            SUB C
5219: 8D            ADC A,L
521A: 83            ADD A,E
521B: 8A            ADC A,D
521C: 8D            ADC A,L
521D: 8F            ADC A,A
521E: 8D            ADC A,L
521F: 8A            ADC A,D
5220: 91            SUB C
5221: 8D            ADC A,L
5222: 83            ADD A,E
5223: 8A            ADC A,D
5224: 8D            ADC A,L
5225: 8E            ADC A,(HL)
5226: 8F            ADC A,A
5227: 8D            ADC A,L
5228: 91            SUB C
5229: 8D            ADC A,L
522A: C4 02 83      CALL NZ,8302h
522D: 8A            ADC A,D
522E: 8D            ADC A,L
522F: 8F            ADC A,A
5230: 8D            ADC A,L
5231: 8A            ADC A,D
5232: 91            SUB C
5233: 8D            ADC A,L
5234: 83            ADD A,E

loc_5235:
5235: 8A            ADC A,D
5236: 8D            ADC A,L
5237: 8E            ADC A,(HL)
5238: 8F            ADC A,A
5239: 8D            ADC A,L
523A: 91            SUB C
523B: 8D            ADC A,L
523C: 83            ADD A,E
523D: 8A            ADC A,D
523E: 8D            ADC A,L
523F: 8F            ADC A,A
5240: 8D            ADC A,L
5241: 8A            ADC A,D
5242: 91            SUB C
5243: 8D            ADC A,L
5244: 83            ADD A,E
5245: 8A            ADC A,D
5246: 8D            ADC A,L
5247: 8E            ADC A,(HL)
5248: 8F            ADC A,A
5249: 8D            ADC A,L
524A: 91            SUB C
524B: 8D            ADC A,L
524C: C4 03 83      CALL NZ,8303h
524F: 8A            ADC A,D
5250: 8D            ADC A,L
5251: 8F            ADC A,A
5252: 8D            ADC A,L
5253: 8A            ADC A,D
5254: 91            SUB C
5255: 8D            ADC A,L
5256: 83            ADD A,E
5257: 8A            ADC A,D
5258: 8D            ADC A,L
5259: 8E            ADC A,(HL)
525A: 8F            ADC A,A
525B: 8D            ADC A,L
525C: 91            SUB C
525D: 8D            ADC A,L
525E: 83            ADD A,E
525F: 8A            ADC A,D
5260: 8D            ADC A,L
5261: 8F            ADC A,A
5262: 8D            ADC A,L
5263: 8A            ADC A,D
5264: 91            SUB C
5265: 8D            ADC A,L
5266: 83            ADD A,E
5267: 8A            ADC A,D
5268: 8D            ADC A,L
5269: 8E            ADC A,(HL)
526A: 8F            ADC A,A
526B: 8D            ADC A,L
526C: 91            SUB C
526D: 8D            ADC A,L
526E: E0            RET PO
526F: 76            HALT
5270: FF            RST 38h
5271: DF            RST 18h
5272: 30 11         JR NC,loc_5285
5274: C8            RET Z
5275: 69            LD L,C
5276: DB FA         IN A,(FAh)
5278: E8            RET PE
5279: 64            LD H,H
527A: C4 00 0C      CALL NZ,sub_0C00
527D: C5            PUSH BC
527E: 18 83         JR loc_5203
5280: 8A            ADC A,D
5281: 8D            ADC A,L
5282: 8F            ADC A,A
5283: 8D            ADC A,L
5284: 8A            ADC A,D

loc_5285:
5285: 91            SUB C
5286: 8D            ADC A,L
5287: 83            ADD A,E
5288: 8A            ADC A,D
5289: 8D            ADC A,L
528A: 8E            ADC A,(HL)
528B: 8F            ADC A,A
528C: 8D            ADC A,L
528D: 91            SUB C
528E: 8D            ADC A,L
528F: 83            ADD A,E
5290: 8A            ADC A,D
5291: 8D            ADC A,L
5292: 8F            ADC A,A
5293: 8D            ADC A,L
5294: 8A            ADC A,D
5295: 91            SUB C
5296: 8D            ADC A,L
5297: 83            ADD A,E
5298: 8A            ADC A,D
5299: 8D            ADC A,L
529A: 8E            ADC A,(HL)
529B: 8F            ADC A,A
529C: 8D            ADC A,L

loc_529D:
529D: 91            SUB C
529E: 8D            ADC A,L
529F: 83            ADD A,E
52A0: 8A            ADC A,D
52A1: 8D            ADC A,L
52A2: 8F            ADC A,A
52A3: 8D            ADC A,L
52A4: 8A            ADC A,D
52A5: 91            SUB C
52A6: 8D            ADC A,L
52A7: 83            ADD A,E
52A8: 8A            ADC A,D
52A9: 8D            ADC A,L
52AA: 8E            ADC A,(HL)
52AB: 8F            ADC A,A
52AC: 8D            ADC A,L
52AD: 91            SUB C
52AE: 8D            ADC A,L
52AF: 83            ADD A,E
52B0: 8A            ADC A,D
52B1: 8D            ADC A,L
52B2: 8F            ADC A,A
52B3: 8D            ADC A,L
52B4: 8A            ADC A,D
52B5: 91            SUB C
52B6: 8D            ADC A,L
52B7: 83            ADD A,E
52B8: 8A            ADC A,D
52B9: 8D            ADC A,L
52BA: 8E            ADC A,(HL)
52BB: 8F            ADC A,A
52BC: 8D            ADC A,L
52BD: 91            SUB C
52BE: 8D            ADC A,L
52BF: C4 02 83      CALL NZ,8302h
52C2: 8A            ADC A,D
52C3: 8D            ADC A,L
52C4: 8F            ADC A,A
52C5: 8D            ADC A,L
52C6: 8A            ADC A,D
52C7: 91            SUB C
52C8: 8D            ADC A,L
52C9: 83            ADD A,E
52CA: 8A            ADC A,D
52CB: 8D            ADC A,L
52CC: 8E            ADC A,(HL)
52CD: 8F            ADC A,A
52CE: 8D            ADC A,L
52CF: 91            SUB C
52D0: 8D            ADC A,L
52D1: 83            ADD A,E
52D2: 8A            ADC A,D
52D3: 8D            ADC A,L
52D4: 8F            ADC A,A
52D5: 8D            ADC A,L
52D6: 8A            ADC A,D
52D7: 91            SUB C
52D8: 8D            ADC A,L
52D9: 83            ADD A,E
52DA: 8A            ADC A,D
52DB: 8D            ADC A,L
52DC: 8E            ADC A,(HL)
52DD: 8F            ADC A,A
52DE: 8D            ADC A,L
52DF: 91            SUB C
52E0: 8D            ADC A,L
52E1: C4 03 83      CALL NZ,8303h
52E4: 8A            ADC A,D
52E5: 8D            ADC A,L
52E6: 8F            ADC A,A
52E7: 8D            ADC A,L
52E8: 8A            ADC A,D
52E9: 91            SUB C
52EA: 8D            ADC A,L
52EB: 83            ADD A,E
52EC: 8A            ADC A,D
52ED: 8D            ADC A,L
52EE: 8E            ADC A,(HL)
52EF: 8F            ADC A,A
52F0: 8D            ADC A,L
52F1: 91            SUB C
52F2: 8D            ADC A,L
52F3: 83            ADD A,E
52F4: 8A            ADC A,D
52F5: 8D            ADC A,L
52F6: 8F            ADC A,A
52F7: 8D            ADC A,L

loc_52F8:
52F8: 8A            ADC A,D
52F9: 91            SUB C
52FA: 8D            ADC A,L
52FB: 83            ADD A,E
52FC: 8A            ADC A,D
52FD: 8D            ADC A,L
52FE: 8E            ADC A,(HL)

loc_52FF:
52FF: 8F            ADC A,A
5300: 8D            ADC A,L
5301: 91            SUB C
5302: 8D            ADC A,L
5303: E0            RET PO
5304: 76            HALT
5305: FF            RST 38h
5306: DF            RST 18h
5307: 7B            LD A,E

loc_5308:
5308: 0C            INC C
5309: C8            RET Z
530A: 5A            LD E,D
530B: DB B4         IN A,(B4h)
530D: E8            RET PE
530E: 6E            LD L,(HL)
530F: C4 00 0C      CALL NZ,sub_0C00

loc_5312:
5312: C5            PUSH BC
5313: 30 88         JR NC,loc_529D
5315: DE DE         SBC A,DEh
5317: 8A            ADC A,D

loc_5318:
5318: 30 DE         JR NC,loc_52F8
531A: 0C            INC C
531B: 91            SUB C
531C: DE DE         SBC A,DEh
531E: 8F            ADC A,A
531F: 18 DE         JR loc_52FF

loc_5321:
5321: 0C            INC C
5322: DE 91         SBC A,91h
5324: 88            ADC A,B
5325: DE DE         SBC A,DEh
5327: 8A            ADC A,D
5328: 30 DE         JR NC,loc_5308
532A: 60            LD H,B
532B: DE 0C         SBC A,0Ch
532D: 88            ADC A,B
532E: DE DE         SBC A,DEh
5330: 8A            ADC A,D
5331: 30 DE         JR NC,loc_5311

loc_5333:
5333: 0C            INC C
5334: 91            SUB C
5335: DE DE         SBC A,DEh
5337: 8F            ADC A,A
5338: 18 DE         JR loc_5318
533A: 0C            INC C
533B: DE 91         SBC A,91h
533D: 88            ADC A,B
533E: DE DE         SBC A,DEh
5340: 8A            ADC A,D
5341: 30 DE         JR NC,loc_5321
5343: 60            LD H,B
5344: DE C4         SBC A,C4h
5346: 02            LD (BC),A

loc_5347:
5347: 0C            INC C
5348: 88            ADC A,B
5349: DE DE         SBC A,DEh
534B: 8A            ADC A,D
534C: 30 DE         JR NC,loc_532C

loc_534E:
534E: 0C            INC C
534F: 91            SUB C
5350: DE DE         SBC A,DEh
5352: 8F            ADC A,A
5353: 18 DE         JR loc_5333
5355: 0C            INC C
5356: DE 91         SBC A,91h
5358: 88            ADC A,B
5359: DE DE         SBC A,DEh
535B: 8A            ADC A,D
535C: 30 DE         JR NC,loc_533C
535E: 60            LD H,B
535F: DE C4         SBC A,C4h
5361: 03            INC BC
5362: 0C            INC C
5363: 88            ADC A,B
5364: DE DE         SBC A,DEh
5366: 8A            ADC A,D
5367: 30 DE         JR NC,loc_5347
5369: 0C            INC C
536A: 91            SUB C
536B: DE DE         SBC A,DEh
536D: 8F            ADC A,A
536E: 18 DE         JR loc_534E

loc_5370:
5370: 0C            INC C
5371: DE 91         SBC A,91h
5373: 88            ADC A,B
5374: DE DE         SBC A,DEh
5376: 8A            ADC A,D

loc_5377:
5377: 30 DE         JR NC,loc_5357
5379: 60            LD H,B
537A: DE E0         SBC A,E0h
537C: 93            SUB E
537D: FF            RST 38h
537E: DF            RST 18h
537F: 03            INC BC

loc_5380:
5380: 0C            INC C
5381: C8            RET Z
5382: 5A            LD E,D
5383: DB B4         IN A,(B4h)
5385: E8            RET PE

loc_5386:
5386: 6E            LD L,(HL)
5387: C4 00 0C      CALL NZ,sub_0C00
538A: C5            PUSH BC
538B: 30 85         JR NC,loc_5312
538D: DE DE         SBC A,DEh
538F: 86            ADD A,(HL)

loc_5390:
5390: 30 DE         JR NC,loc_5370
5392: 0C            INC C
5393: 8D            ADC A,L
5394: DE DE         SBC A,DEh
5396: 8A            ADC A,D
5397: 18 DE         JR loc_5377

loc_5399:
5399: 0C            INC C
539A: DE 8D         SBC A,8Dh
539C: 85            ADD A,L
539D: DE DE         SBC A,DEh
539F: 86            ADD A,(HL)
53A0: 30 DE         JR NC,loc_5380
53A2: 60            LD H,B
53A3: DE 0C         SBC A,0Ch
53A5: 85            ADD A,L
53A6: DE DE         SBC A,DEh
53A8: 86            ADD A,(HL)
53A9: 30 DE         JR NC,loc_5389

loc_53AB:
53AB: 0C            INC C
53AC: 8D            ADC A,L
53AD: DE DE         SBC A,DEh
53AF: 8A            ADC A,D
53B0: 18 DE         JR loc_5390
53B2: 0C            INC C
53B3: DE 8D         SBC A,8Dh
53B5: 85            ADD A,L
53B6: DE DE         SBC A,DEh
53B8: 86            ADD A,(HL)
53B9: 30 DE         JR NC,loc_5399
53BB: 60            LD H,B
53BC: DE C4         SBC A,C4h
53BE: 02            LD (BC),A

loc_53BF:
53BF: 0C            INC C
53C0: 85            ADD A,L
53C1: DE DE         SBC A,DEh
53C3: 86            ADD A,(HL)
53C4: 30 DE         JR NC,loc_53A4

loc_53C6:
53C6: 0C            INC C
53C7: 8D            ADC A,L
53C8: DE DE         SBC A,DEh
53CA: 8A            ADC A,D
53CB: 18 DE         JR loc_53AB
53CD: 0C            INC C
53CE: DE 8D         SBC A,8Dh
53D0: 85            ADD A,L
53D1: DE DE         SBC A,DEh
53D3: 86            ADD A,(HL)
53D4: 30 DE         JR NC,loc_53B4
53D6: 60            LD H,B
53D7: DE C4         SBC A,C4h
53D9: 03            INC BC
53DA: 0C            INC C
53DB: 85            ADD A,L
53DC: DE DE         SBC A,DEh
53DE: 86            ADD A,(HL)
53DF: 30 DE         JR NC,loc_53BF
53E1: 0C            INC C
53E2: 8D            ADC A,L
53E3: DE DE         SBC A,DEh
53E5: 8A            ADC A,D
53E6: 18 DE         JR loc_53C6

loc_53E8:
53E8: 0C            INC C
53E9: DE 8D         SBC A,8Dh
53EB: 85            ADD A,L
53EC: DE DE         SBC A,DEh
53EE: 86            ADD A,(HL)

loc_53EF:
53EF: 30 DE         JR NC,loc_53CF
53F1: 60            LD H,B
53F2: DE E0         SBC A,E0h
53F4: 93            SUB E
53F5: FF            RST 38h
53F6: DF            RST 18h
53F7: 8B            ADC A,E

loc_53F8:
53F8: 0B            DEC BC
53F9: C8            RET Z
53FA: 5A            LD E,D
53FB: DB B4         IN A,(B4h)
53FD: E8            RET PE
53FE: 6E            LD L,(HL)
53FF: C4 00 0C      CALL NZ,sub_0C00
5402: C5            PUSH BC
5403: 30 81         JR NC,loc_5386
5405: DE DE         SBC A,DEh
5407: 83            ADD A,E

loc_5408:
5408: 30 DE         JR NC,loc_53E8
540A: 0C            INC C
540B: 88            ADC A,B
540C: DE DE         SBC A,DEh
540E: 86            ADD A,(HL)
540F: 18 DE         JR loc_53EF

loc_5411:
5411: 0C            INC C
5412: DE 88         SBC A,88h
5414: 81            ADD A,C
5415: DE DE         SBC A,DEh
5417: 83            ADD A,E
5418: 30 DE         JR NC,loc_53F8
541A: 60            LD H,B
541B: DE 0C         SBC A,0Ch
541D: 81            ADD A,C
541E: DE DE         SBC A,DEh
5420: 83            ADD A,E
5421: 30 DE         JR NC,loc_5401

loc_5423:
5423: 0C            INC C
5424: 88            ADC A,B
5425: DE DE         SBC A,DEh
5427: 86            ADD A,(HL)
5428: 18 DE         JR loc_5408
542A: 0C            INC C
542B: DE 88         SBC A,88h
542D: 81            ADD A,C
542E: DE DE         SBC A,DEh
5430: 83            ADD A,E
5431: 30 DE         JR NC,loc_5411
5433: 60            LD H,B
5434: DE C4         SBC A,C4h
5436: 02            LD (BC),A

loc_5437:
5437: 0C            INC C
5438: 81            ADD A,C
5439: DE DE         SBC A,DEh
543B: 83            ADD A,E
543C: 30 DE         JR NC,loc_541C

loc_543E:
543E: 0C            INC C
543F: 88            ADC A,B
5440: DE DE         SBC A,DEh
5442: 86            ADD A,(HL)
5443: 18 DE         JR loc_5423
5445: 0C            INC C
5446: DE 88         SBC A,88h
5448: 81            ADD A,C
5449: DE DE         SBC A,DEh
544B: 83            ADD A,E
544C: 30 DE         JR NC,loc_542C
544E: 60            LD H,B
544F: DE C4         SBC A,C4h
5451: 03            INC BC
5452: 0C            INC C
5453: 81            ADD A,C
5454: DE DE         SBC A,DEh
5456: 83            ADD A,E
5457: 30 DE         JR NC,loc_5437
5459: 0C            INC C
545A: 88            ADC A,B
545B: DE DE         SBC A,DEh
545D: 86            ADD A,(HL)
545E: 18 DE         JR loc_543E
5460: 0C            INC C
5461: DE 88         SBC A,88h
5463: 81            ADD A,C
5464: DE DE         SBC A,DEh
5466: 83            ADD A,E
5467: 30 DE         JR NC,loc_5447
5469: 60            LD H,B
546A: DE E0         SBC A,E0h
546C: 93            SUB E
546D: FF            RST 38h
546E: DF            RST 18h
546F: FF            RST 38h
5470: 0D            DEC C
5471: C8            RET Z
5472: 5A            LD E,D
5473: DB AA         IN A,(AAh)
5475: E8            RET PE
5476: 73            LD (HL),E
5477: C4 00 60      CALL NZ,sub_6000
547A: DE DE         SBC A,DEh
547C: DE 0C         SBC A,0Ch
547E: DE C5         SBC A,C5h
5480: 24            INC H
5481: 8A            ADC A,D
5482: 06 88         LD B,88h
5484: 8A            ADC A,D
5485: DE 8A         SBC A,8Ah
5487: DE 8A         SBC A,8Ah
5489: 88            ADC A,B
548A: 8A            ADC A,D
548B: 83            ADD A,E
548C: 85            ADD A,L
548D: 8A            ADC A,D
548E: 83            ADD A,E
548F: 60            LD H,B
5490: DE DE         SBC A,DEh
5492: DE 06         SBC A,06h
5494: DE 8A         SBC A,8Ah
5496: DE 8A         SBC A,8Ah
5498: 88            ADC A,B
5499: DE 8A         SBC A,8Ah
549B: 83            ADD A,E
549C: 8A            ADC A,D
549D: DE 8A         SBC A,8Ah
549F: 83            ADD A,E
54A0: 85            ADD A,L
54A1: 88            ADC A,B
54A2: 8A            ADC A,D
54A3: DE C4         SBC A,C4h
54A5: 02            LD (BC),A
54A6: 60            LD H,B

loc_54A7:
54A7: DE DE         SBC A,DEh
54A9: DE 0C         SBC A,0Ch
54AB: DE 8A         SBC A,8Ah
54AD: 06 88         LD B,88h
54AF: 8A            ADC A,D
54B0: DE 8A         SBC A,8Ah
54B2: DE 8A         SBC A,8Ah
54B4: 88            ADC A,B
54B5: 8A            ADC A,D
54B6: 83            ADD A,E
54B7: 85            ADD A,L
54B8: 8A            ADC A,D
54B9: 83            ADD A,E
54BA: C4 03 60      CALL NZ,sub_6003
54BD: DE DE         SBC A,DEh
54BF: DE 06         SBC A,06h
54C1: DE 8A         SBC A,8Ah
54C3: DE 8A         SBC A,8Ah
54C5: 88            ADC A,B
54C6: DE 8A         SBC A,8Ah
54C8: 83            ADD A,E
54C9: 8A            ADC A,D
54CA: DE 8A         SBC A,8Ah
54CC: 83            ADD A,E
54CD: 85            ADD A,L

loc_54CE:
54CE: 88            ADC A,B
54CF: 8A            ADC A,D
54D0: DE E0         SBC A,E0h
54D2: A5            AND L
54D3: FF            RST 38h
54D4: DF            RST 18h
54D5: E5            PUSH HL
54D6: 11 C8 6E      LD DE,6EC8h
54D9: E8            RET PE
54DA: 64            LD H,H
54DB: DF            RST 18h
54DC: B2            OR D
54DD: 11 C8 64      LD DE,64C8h
54E0: 18 C5         JR loc_54A7
54E2: 24            INC H
54E3: 8B            ADC A,E
54E4: C8            RET Z
54E5: 6E            LD L,(HL)
54E6: DF            RST 18h
54E7: 2B            DEC HL
54E8: 12            LD (DE),A
54E9: 0C            INC C
54EA: 8B            ADC A,E
54EB: DF            RST 18h
54EC: CE 11         ADC A,11h
54EE: 97            SUB A
54EF: 97            SUB A
54F0: 97            SUB A
54F1: DF            RST 18h
54F2: 20 12         JR NZ,loc_5506
54F4: 8B            ADC A,E
54F5: DF            RST 18h
54F6: C4 11 97      CALL NZ,9711h
54F9: 97            SUB A
54FA: 97            SUB A
54FB: DF            RST 18h
54FC: 16 12         LD D,12h
54FE: 8B            ADC A,E
54FF: DF            RST 18h
5500: BA            CP D
5501: 11 97 97      LD DE,9797h
5504: 97            SUB A
5505: DF            RST 18h

loc_5506:
5506: 0C            INC C
5507: 12            LD (DE),A
5508: 8B            ADC A,E
5509: DF            RST 18h
550A: B0            OR B
550B: 11 97 97      LD DE,9797h
550E: 97            SUB A
550F: DF            RST 18h
5510: 02            LD (BC),A
5511: 12            LD (DE),A
5512: 8B            ADC A,E
5513: DF            RST 18h
5514: A6            AND (HL)
5515: 11 97 97      LD DE,9797h
5518: 97            SUB A
5519: DF            RST 18h
551A: F8            RET M
551B: 11 8B DF      LD DE,DF8Bh
551E: 9C            SBC A,H
551F: 11 97 97      LD DE,9797h
5522: 97            SUB A
5523: DF            RST 18h
5524: EE 11         XOR 11h
5526: 8B            ADC A,E
5527: DF            RST 18h
5528: 92            SUB D
5529: 11 97 97      LD DE,9797h
552C: 97            SUB A
552D: DF            RST 18h
552E: E4 11 8B      CALL PO,8B11h
5531: DF            RST 18h
5532: 88            ADC A,B
5533: 11 97 E0      LD DE,E097h
5536: A5            AND L
5537: FF            RST 38h
5538: DF            RST 18h
5539: 05            DEC B
553A: 12            LD (DE),A
553B: C8            RET Z
553C: 6E            LD L,(HL)
553D: E8            RET PE
553E: 64            LD H,H
553F: 18 C5         JR loc_5506
5541: 18 8B         JR loc_54CE
5543: 8B            ADC A,E
5544: 8B            ADC A,E
5545: 8B            ADC A,E
5546: E0            RET PO
5547: F8            RET M
5548: FF            RST 38h
5549: 00            NOP
554A: FF            RST 38h
554B: 1F            RRA
554C: 00            NOP
554D: 01 FF 40      LD BC,40FFh
5550: 00            NOP
5551: 02            LD (BC),A
5552: FF            RST 38h
5553: 5E            LD E,(HL)
5554: 00            NOP
5555: 03            INC BC
5556: FF            RST 38h
5557: 7D            LD A,L
5558: 00            NOP
5559: 04            INC B
555A: FF            RST 38h
555B: 9B            SBC A,E
555C: 00            NOP
555D: 05            DEC B
555E: FF            RST 38h
555F: C7            RST 00h
5560: 00            NOP
5561: 06 FF         LD B,FFh
5563: C4 00 07      CALL NZ,sub_0700
5566: FF            RST 38h
5567: C1            POP BC
5568: 00            NOP
5569: FF            RST 38h
556A: D0            RET NC
556B: 64            LD H,H
556C: DF            RST 18h
556D: 35            DEC (HL)
556E: 0E C8         LD C,C8h
5570: 69            LD L,C
5571: DB F0         IN A,(F0h)
5573: E8            RET PE
5574: 73            LD (HL),E
5575: 60            LD H,B
5576: C5            PUSH BC
5577: 30 A4         JR NC,loc_551D
5579: 80            ADD A,B
557A: 84            ADD A,H
557B: A8            XOR B
557C: 80            ADD A,B
557D: 88            ADC A,B
557E: AA            XOR D
557F: 80            ADD A,B
5580: 8A            ADC A,D
5581: AD            XOR L
5582: 80            ADD A,B
5583: 8D            ADC A,L
5584: C7            RST 00h
5585: AB            XOR E
5586: 80            ADD A,B
5587: 8B            ADC A,E
5588: A8            XOR B
5589: 80            ADD A,B
558A: 88            ADC A,B
558B: 94            SUB H
558C: E0            RET PO
558D: E8            RET PE

loc_558E:
558E: FF            RST 38h
558F: DF            RST 18h
5590: 12            LD (DE),A
5591: 0E C8         LD C,C8h
5593: 69            LD L,C
5594: DB F0         IN A,(F0h)
5596: E8            RET PE
5597: 73            LD (HL),E
5598: 60            LD H,B
5599: C5            PUSH BC
559A: 24            INC H
559B: 88            ADC A,B
559C: B7            OR A
559D: 80            ADD A,B
559E: 97            SUB A
559F: AD            XOR L
55A0: 80            ADD A,B
55A1: 8D            ADC A,L
55A2: B2            OR D
55A3: 80            ADD A,B
55A4: 92            SUB D
55A5: A8            XOR B
55A6: 80            ADD A,B
55A7: 88            ADC A,B
55A8: B0            OR B
55A9: 80            ADD A,B

loc_55AA:
55AA: 90            SUB B

loc_55AB:
55AB: B6            OR (HL)
55AC: 80            ADD A,B
55AD: 96            SUB (HL)
55AE: E0            RET PO
55AF: E9            JP (HL)
55B0: FF            RST 38h
55B1: DF            RST 18h
55B2: F0            RET P
55B3: 0D            DEC C
55B4: C8            RET Z
55B5: 6E            LD L,(HL)
55B6: DB F0         IN A,(F0h)
55B8: E8            RET PE
55B9: 73            LD (HL),E
55BA: 60            LD H,B
55BB: C5            PUSH BC

loc_55BC:
55BC: 30 A4         JR NC,loc_5562
55BE: 80            ADD A,B
55BF: 84            ADD A,H
55C0: A8            XOR B
55C1: 80            ADD A,B
55C2: 88            ADC A,B
55C3: AA            XOR D
55C4: 80            ADD A,B
55C5: 8A            ADC A,D
55C6: AD            XOR L
55C7: 80            ADD A,B
55C8: 8D            ADC A,L
55C9: C7            RST 00h

loc_55CA:
55CA: AB            XOR E

loc_55CB:
55CB: 80            ADD A,B
55CC: 8B            ADC A,E
55CD: A8            XOR B
55CE: 80            ADD A,B
55CF: 88            ADC A,B
55D0: 94            SUB H
55D1: E0            RET PO
55D2: E8            RET PE
55D3: FF            RST 38h
55D4: DF            RST 18h
55D5: CD 0D C8      CALL C80Dh
55D8: 6E            LD L,(HL)
55D9: DB F0         IN A,(F0h)
55DB: E8            RET PE
55DC: 73            LD (HL),E
55DD: 60            LD H,B
55DE: C5            PUSH BC
55DF: 24            INC H
55E0: 88            ADC A,B
55E1: B7            OR A
55E2: 80            ADD A,B
55E3: 97            SUB A
55E4: AD            XOR L
55E5: 80            ADD A,B
55E6: 8D            ADC A,L
55E7: B2            OR D
55E8: 80            ADD A,B
55E9: 92            SUB D
55EA: A8            XOR B
55EB: 80            ADD A,B
55EC: 88            ADC A,B
55ED: B0            OR B
55EE: 80            ADD A,B
55EF: 90            SUB B
55F0: B6            OR (HL)
55F1: 80            ADD A,B
55F2: 96            SUB (HL)
55F3: E0            RET PO
55F4: E9            JP (HL)
55F5: FF            RST 38h
55F6: DF            RST 18h
55F7: AB            XOR E
55F8: 0D            DEC C
55F9: C8            RET Z

loc_55FA:
55FA: 6E            LD L,(HL)
55FB: DB F0         IN A,(F0h)
55FD: E8            RET PE
55FE: 73            LD (HL),E
55FF: 60            LD H,B
5600: DE DE         SBC A,DEh
5602: DE DE         SBC A,DEh
5604: 30 C5         JR NC,loc_55CB
5606: 18 86         JR loc_558E
5608: 24            INC H
5609: 86            ADD A,(HL)
560A: 0C            INC C
560B: AD            XOR L
560C: 80            ADD A,B
560D: 30 AD         JR NC,loc_55BC

loc_560F:
560F: 80            ADD A,B
5610: 0C            INC C
5611: 8D            ADC A,L
5612: B4            OR H
5613: 80            ADD A,B
5614: 18 B4         JR loc_55CA
5616: 80            ADD A,B
5617: 24            INC H
5618: 94            SUB H
5619: 0C            INC C
561A: AD            XOR L
561B: 80            ADD A,B
561C: 18 8D         JR loc_55AB
561E: A8            XOR B
561F: 80            ADD A,B
5620: 30 88         JR NC,loc_55AA
5622: DE E0         SBC A,E0h
5624: DB FF         IN A,(FFh)
5626: E7            RST 20h
5627: E7            RST 20h
5628: E7            RST 20h

loc_5629:
5629: 00            NOP
562A: FF            RST 38h
562B: 1F            RRA
562C: 00            NOP
562D: 01 FF 63      LD BC,63FFh
5630: 00            NOP
5631: 02            LD (BC),A
5632: FF            RST 38h
5633: 78            LD A,B
5634: 00            NOP
5635: 03            INC BC
5636: FF            RST 38h
5637: 8F            ADC A,A
5638: 00            NOP
5639: 04            INC B
563A: FF            RST 38h
563B: A7            AND A
563C: 00            NOP
563D: 05            DEC B
563E: FF            RST 38h
563F: D4 00 06      CALL NC,sub_0600

loc_5642:
5642: FF            RST 38h
5643: D1            POP DE
5644: 00            NOP
5645: 07            RLCA
5646: FF            RST 38h
5647: CE 00         ADC A,00h
5649: FF            RST 38h
564A: D0            RET NC
564B: 6E            LD L,(HL)
564C: DF            RST 18h
564D: 0D            DEC C
564E: 0F            RRCA
564F: C8            RET Z
5650: 64            LD H,H
5651: E8            RET PE
5652: 64            LD H,H
5653: DB F0         IN A,(F0h)
5655: C4 00 E1      CALL NZ,E100h
5658: 14            INC D
5659: 00            NOP
565A: C4 03 E1      CALL NZ,E103h
565D: 0F            RRCA
565E: 00            NOP
565F: C4 06 E1      CALL NZ,E106h
5662: 0A            LD A,(BC)
5663: 00            NOP
5664: C4 09 E1      CALL NZ,E109h
5667: 05            DEC B
5668: 00            NOP
5669: E0            RET PO
566A: EB            EX DE,HL
566B: FF            RST 38h
566C: 60            LD H,B
566D: DE DE         SBC A,DEh
566F: DF            RST 18h
5670: EA 0E 18      JP PE,loc_180E
5673: C5            PUSH BC
5674: 18 84         JR loc_55FA
5676: 87            ADD A,A
5677: 0C            INC C
5678: 86            ADD A,(HL)
5679: AA            XOR D
567A: 80            ADD A,B
567B: 8A            ADC A,D
567C: A9            XOR C
567D: 80            ADD A,B
567E: 30 A9         JR NC,loc_5629
5680: 80            ADD A,B
5681: 0C            INC C
5682: 89            ADC A,C
5683: A8            XOR B
5684: 80            ADD A,B
5685: 18 88         JR loc_560F
5687: 84            ADD A,H
5688: DE 30         SBC A,30h
568A: DE 60         SBC A,60h
568C: DE DE         SBC A,DEh

loc_568E:
568E: DE DE         SBC A,DEh
5690: DE E2         SBC A,E2h
5692: DF            RST 18h
5693: EB            EX DE,HL

loc_5694:
5694: 0D            DEC C
5695: C8            RET Z
5696: 69            LD L,C
5697: DB FF         IN A,(FFh)
5699: E8            RET PE
569A: 78            LD A,B
569B: 60            LD H,B
569C: C5            PUSH BC
569D: 24            INC H
569E: 83            ADD A,E
569F: 8B            ADC A,E
56A0: 84            ADD A,H
56A1: 84            ADD A,H
56A2: 84            ADD A,H
56A3: 84            ADD A,H
56A4: 84            ADD A,H
56A5: 84            ADD A,H
56A6: 84            ADD A,H
56A7: 84            ADD A,H

loc_56A8:
56A8: E0            RET PO
56A9: F2 FF DF      JP P,DFFFh
56AC: D2 0D C8      JP NC,C80Dh
56AF: 69            LD L,C
56B0: DB FF         IN A,(FFh)
56B2: E8            RET PE
56B3: 78            LD A,B
56B4: 18 DE         JR loc_5694
56B6: 60            LD H,B
56B7: C5            PUSH BC
56B8: 18 88         JR loc_5642
56BA: 8B            ADC A,E
56BB: 8D            ADC A,L
56BC: 8D            ADC A,L
56BD: 92            SUB D
56BE: 96            SUB (HL)
56BF: 8A            ADC A,D
56C0: 8D            ADC A,L
56C1: 94            SUB H
56C2: 92            SUB D
56C3: E0            RET PO
56C4: F2 FF DF      JP P,DFFFh
56C7: B7            OR A
56C8: 0D            DEC C
56C9: C8            RET Z
56CA: 69            LD L,C
56CB: DB FA         IN A,(FAh)
56CD: E8            RET PE
56CE: 73            LD (HL),E
56CF: 60            LD H,B
56D0: DE DE         SBC A,DEh
56D2: DE DE         SBC A,DEh
56D4: DE DF         SBC A,DFh
56D6: A8            XOR B
56D7: 0D            DEC C
56D8: C5            PUSH BC
56D9: 3C            INC A
56DA: 88            ADC A,B
56DB: DE 86         SBC A,86h
56DD: 84            ADD A,H
56DE: 8A            ADC A,D
56DF: E0            RET PO
56E0: EF            RST 28h
56E1: FF            RST 38h
56E2: DF            RST 18h
56E3: 77            LD (HL),A
56E4: 0E C8         LD C,C8h
56E6: 64            LD H,H
56E7: E8            RET PE
56E8: 64            LD H,H
56E9: DB F0         IN A,(F0h)
56EB: 60            LD H,B
56EC: DE DE         SBC A,DEh
56EE: DF            RST 18h
56EF: 6B            LD L,E
56F0: 0E 18         LD C,18h
56F2: C5            PUSH BC
56F3: 0C            INC C
56F4: 84            ADD A,H
56F5: 87            ADD A,A
56F6: 0C            INC C
56F7: 86            ADD A,(HL)
56F8: AA            XOR D
56F9: 80            ADD A,B
56FA: 8A            ADC A,D
56FB: A9            XOR C
56FC: 80            ADD A,B
56FD: 30 A9         JR NC,loc_56A8
56FF: 80            ADD A,B
5700: 0C            INC C
5701: 89            ADC A,C
5702: A8            XOR B
5703: 80            ADD A,B
5704: 18 88         JR loc_568E
5706: 84            ADD A,H
5707: DE 30         SBC A,30h
5709: DE 60         SBC A,60h

loc_570B:
570B: DE DE         SBC A,DEh
570D: DE DE         SBC A,DEh
570F: DE E0         SBC A,E0h
5711: DA FF E7      JP C,E7FFh
5714: E7            RST 20h
5715: E7            RST 20h
5716: FA 01 01      JP M,loc_0101
5719: 23            INC HL
571A: 11 8D 15      LD DE,158Dh
571D: 4F            LD C,A
571E: 52            LD D,D
571F: 06 0E         LD B,0Eh
5721: 08            EX AF,AF'
5722: 83            ADD A,E
5723: 02            LD (BC),A
5724: 00            NOP
5725: 00            NOP
5726: 00            NOP
5727: 18 28         JR loc_5751
5729: 18 28         JR loc_5753
572B: 00            NOP
572C: C8            RET Z
572D: 80            ADD A,B
572E: 1E 20         LD E,20h
5730: 82            ADD A,D
5731: 0F            RRCA
5732: 17            RLA
5733: 20 00         JR NZ,loc_5735

loc_5735:
5735: 05            DEC B
5736: 04            INC B

loc_5737:
5737: 04            INC B
5738: 82            ADD A,D
5739: 0A            LD A,(BC)
573A: 0A            LD A,(BC)
573B: 0A            LD A,(BC)
573C: 8A            ADC A,D
573D: 20 01         JR NZ,loc_5740
573F: 10 10         DJNZ loc_5751
5741: 00            NOP
5742: F4 01 01      CALL P,loc_0101
5745: 01 01 0E      LD BC,0E01h
5748: 12            LD (DE),A
5749: 12            LD (DE),A
574A: 12            LD (DE),A
574B: 08            EX AF,AF'
574C: 08            EX AF,AF'
574D: 82            ADD A,D
574E: 85            ADD A,L
574F: 00            NOP
5750: 00            NOP

loc_5751:
5751: 00            NOP
5752: 00            NOP

loc_5753:
5753: 38 38         JR C,loc_578D
5755: 18 28         JR loc_577F
5757: 00            NOP
5758: C8            RET Z
5759: 00            NOP
575A: 00            NOP
575B: 00            NOP
575C: 02            LD (BC),A
575D: 10 16         DJNZ loc_5775
575F: 01 01 00      LD BC,0001h
5762: 00            NOP

loc_5763:
5763: 82            ADD A,D
5764: 82            ADD A,D
5765: 08            EX AF,AF'
5766: 08            EX AF,AF'
5767: 88            ADC A,B
5768: 8A            ADC A,D
5769: 20 01         JR NZ,loc_576C
576B: 10 10         DJNZ loc_577D
576D: F4 FA 01      CALL P,sub_01FA
5770: 01 07 01      LD BC,0107h
5773: 8E            ADC A,(HL)
5774: 8D            ADC A,L

loc_5775:
5775: 8E            ADC A,(HL)
5776: 53            LD D,E
5777: 0E 0E         LD C,0Eh
5779: 0E 83         LD C,83h
577B: 00            NOP
577C: 00            NOP

loc_577D:
577D: 40            LD B,B
577E: 00            NOP

loc_577F:
577F: 13            INC DE
5780: 13            INC DE
5781: FA 0A 00      JP M,loc_000A
5784: C8            RET Z
5785: 80            ADD A,B
5786: 23            INC HL
5787: 30 82         JR NC,loc_570B
5789: 11 20 21      LD DE,2120h
578C: 00            NOP

loc_578D:
578D: 01 00 08      LD BC,0800h
5790: 00            NOP
5791: 04            INC B
5792: 06 06         LD B,06h
5794: 8A            ADC A,D
5795: 20 01         JR NZ,loc_5798
5797: 10 10         DJNZ loc_57A9
5799: 00            NOP
579A: FA 11 01      JP M,loc_0111
579D: 15            DEC D
579E: 11 59 5C      LD DE,5C59h
57A1: 59            LD E,C
57A2: 4E            LD C,(HL)
57A3: 0A            LD A,(BC)
57A4: 0D            DEC C
57A5: 0B            DEC BC
57A6: 84            ADD A,H
57A7: 00            NOP
57A8: 00            NOP

loc_57A9:
57A9: 00            NOP
57AA: 00            NOP
57AB: 15            DEC D
57AC: 26 58         LD H,58h
57AE: 06 00         LD B,00h
57B0: CA 80 3C      JP Z,loc_3C80
57B3: 30 82         JR NC,loc_5737
57B5: 13            INC DE
57B6: 27            DAA
57B7: 07            RLCA
57B8: 00            NOP
57B9: 02            LD (BC),A
57BA: 04            INC B
57BB: 05            DEC B
57BC: 81            ADD A,C
57BD: 04            INC B
57BE: 04            INC B
57BF: 02            LD (BC),A
57C0: 8A            ADC A,D
57C1: 20 01         JR NZ,loc_57C4
57C3: 10 10         DJNZ loc_57D5
57C5: F4 FA 20      CALL P,sub_20FA
57C8: 31 32 71      LD SP,7132h
57CB: 5E            LD E,(HL)
57CC: 5E            LD E,(HL)
57CD: 5F            LD E,A
57CE: 4D            LD C,L
57CF: 01 01 01      LD BC,0101h
57D2: 82            ADD A,D
57D3: 00            NOP
57D4: 00            NOP

loc_57D5:
57D5: 00            NOP
57D6: 00            NOP
57D7: 15            DEC D
57D8: 15            DEC D
57D9: 15            DEC D
57DA: 06 00         LD B,00h
57DC: CD 80 46      CALL sub_4680
57DF: 30 82         JR NC,loc_5763
57E1: 13            INC DE
57E2: 1B            DEC DE
57E3: 00            NOP
57E4: 00            NOP
57E5: 84            ADD A,H
57E6: 0F            RRCA
57E7: 0F            RRCA
57E8: 08            EX AF,AF'
57E9: 0A            LD A,(BC)
57EA: 0A            LD A,(BC)
57EB: 08            EX AF,AF'
57EC: 8C            ADC A,H
57ED: 20 01         JR NZ,loc_57F0
57EF: 10 10         DJNZ loc_5801
57F1: 0C            INC C
57F2: FB            EI
57F3: 05            DEC B
57F4: 31 23 71      LD SP,7123h
57F7: 5C            LD E,H
57F8: 5E            LD E,(HL)
57F9: 5C            LD E,H
57FA: 59            LD E,C
57FB: 06 07         LD B,07h
57FD: 07            RLCA
57FE: 86            ADD A,(HL)
57FF: 05            DEC B
5800: 06 06         LD B,06h
5802: 05            DEC B
5803: 54            LD D,H
5804: 46            LD B,(HL)
5805: 45            LD B,L
5806: 36 00         LD (HL),00h
5808: CD 84 1D      CALL sub_1D84
580B: 21 82 1A      LD HL,1A82h
580E: 16 1B         LD D,1Bh
5810: 00            NOP
5811: 0F            RRCA
5812: 05            DEC B
5813: 0F            RRCA
5814: 04            INC B
5815: 0E 0E         LD C,0Eh
5817: 0E 8E         LD C,8Eh
5819: 20 01         JR NZ,loc_581C
581B: 10 10         DJNZ loc_582D
581D: 00            NOP
581E: DC 6F 21      CALL C,sub_216F
5821: 01 71 9F      LD BC,9F71h
5824: 9E            SBC A,(HL)
5825: DB 5E         IN A,(5Eh)
5827: 0F            RRCA
5828: 06 87         LD B,87h
582A: 87            ADD A,A
582B: 08            EX AF,AF'
582C: 0B            DEC BC

loc_582D:
582D: 0A            LD A,(BC)
582E: 00            NOP
582F: 8A            ADC A,D
5830: F6 86         OR 86h
5832: F7            RST 30h
5833: 00            NOP
5834: C8            RET Z
5835: 00            NOP
5836: 00            NOP
5837: 00            NOP
5838: 02            LD (BC),A
5839: 21 21 0D      LD HL,0D21h
583C: 00            NOP
583D: 04            INC B
583E: 04            INC B
583F: 80            ADD A,B
5840: 00            NOP
5841: 0E 0E         LD C,0Eh
5843: 8E            ADC A,(HL)
5844: 8E            ADC A,(HL)
5845: 20 01         JR NZ,loc_5848
5847: 10 10         DJNZ loc_5859
5849: 00            NOP
584A: FA 31 64      JP M,loc_6431
584D: 4C            LD C,H
584E: 01 9C 9C      LD BC,9C9Ch
5851: DB DA         IN A,(DAh)
5853: 04            INC B
5854: 04            INC B
5855: 09            ADD HL,BC
5856: 83            ADD A,E
5857: 03            INC BC
5858: 03            INC BC

loc_5859:
5859: 01 00 17      LD BC,1700h
585C: 06 02         LD B,02h
585E: A5            AND L
585F: 07            RLCA
5860: C8            RET Z
5861: 00            NOP
5862: 00            NOP
5863: 00            NOP
5864: 02            LD (BC),A
5865: 19            ADD HL,DE
5866: 1D            DEC E
5867: 2B            DEC HL
5868: 00            NOP
5869: 06 0F         LD B,0Fh
586B: 0F            RRCA
586C: 00            NOP
586D: 0E 0E         LD C,0Eh
586F: 0E 8C         LD C,8Ch
5871: 20 01         JR NZ,loc_5874
5873: 10 10         DJNZ loc_5885
5875: 00            NOP
5876: E1            POP HL
5877: 32 33 33      LD (3333h),A
587A: 31 DF DF      LD SP,DFDFh
587D: DF            RST 18h
587E: 9F            SBC A,A
587F: 07            RLCA
5880: 04            INC B
5881: 04            INC B
5882: 8A            ADC A,D
5883: 04            INC B
5884: 04            INC B

loc_5885:
5885: 04            INC B
5886: 03            INC BC
5887: F7            RST 30h
5888: FB            EI
5889: FB            EI
588A: 0B            DEC BC
588B: 00            NOP
588C: C8            RET Z
588D: 00            NOP
588E: 00            NOP
588F: 00            NOP
5890: 02            LD (BC),A
5891: 1F            RRA
5892: 21 19 00      LD HL,0019h
5895: 04            INC B
5896: 06 08         LD B,08h
5898: 00            NOP
5899: 0E 0E         LD C,0Eh
589B: 0E 8C         LD C,8Ch
589D: 20 01         JR NZ,loc_58A0
589F: 10 10         DJNZ loc_58B1
58A1: 00            NOP
58A2: E0            RET PO
58A3: 36 30         LD (HL),30h
58A5: 35            DEC (HL)
58A6: 31 DF 9F      LD SP,9FDFh
58A9: DF            RST 18h
58AA: 9F            SBC A,A
58AB: 07            RLCA
58AC: 09            ADD HL,BC
58AD: 06 86         LD B,86h
58AF: 07            RLCA
58B0: 06 06         LD B,06h
58B2: 08            EX AF,AF'
58B3: 29            ADD HL,HL
58B4: 19            ADD HL,DE
58B5: 19            ADD HL,DE
58B6: F9            LD SP,HL
58B7: 00            NOP
58B8: 00            NOP
58B9: 00            NOP
58BA: 00            NOP
58BB: 00            NOP
58BC: 00            NOP
58BD: 12            LD (DE),A
58BE: 0C            INC C
58BF: 30 00         JR NC,loc_58C1

loc_58C1:
58C1: 06 04         LD B,04h
58C3: 04            INC B
58C4: 00            NOP
58C5: 0E 0E         LD C,0Eh
58C7: 0E 8C         LD C,8Ch
58C9: 20 01         JR NZ,loc_58CC
58CB: 10 10         DJNZ loc_58DD
58CD: F4 F0 30      CALL P,sub_30F0
58D0: 30 30         JR NC,loc_5902
58D2: 30 9E         JR NC,loc_5872
58D4: DC D8 DC      CALL C,DCD8h
58D7: 0E 04         LD C,04h
58D9: 0A            LD A,(BC)
58DA: 85            ADD A,L
58DB: 08            EX AF,AF'
58DC: 08            EX AF,AF'

loc_58DD:
58DD: 08            EX AF,AF'
58DE: 08            EX AF,AF'
58DF: B6            OR (HL)
58E0: B6            OR (HL)
58E1: B6            OR (HL)
58E2: B6            OR (HL)
58E3: 00            NOP
58E4: C8            RET Z
58E5: 00            NOP
58E6: 00            NOP
58E7: 00            NOP
58E8: 02            LD (BC),A
58E9: 0D            DEC C
58EA: 0D            DEC C
58EB: 35            DEC (HL)

loc_58EC:
58EC: 00            NOP
58ED: 04            INC B
58EE: 04            INC B
58EF: 04            INC B
58F0: 00            NOP
58F1: 0E 0E         LD C,0Eh
58F3: 0E 8E         LD C,8Eh
58F5: 20 01         JR NZ,loc_58F8
58F7: 10 10         DJNZ loc_5909
58F9: F4 E4 71      CALL P,sub_71E4
58FC: 30 32         JR NC,loc_5930
58FE: 31 19 14      LD SP,1419h
5901: 1C            INC E

loc_5902:
5902: 1C            INC E
5903: 12            LD (DE),A
5904: 0F            RRCA
5905: 84            ADD A,H
5906: 8F            ADC A,A
5907: 00            NOP
5908: 00            NOP

loc_5909:
5909: 00            NOP
590A: 00            NOP
590B: 0F            RRCA
590C: 0F            RRCA
590D: 0F            RRCA
590E: 0F            RRCA
590F: 00            NOP
5910: AF            XOR A
5911: 80            ADD A,B
5912: 50            LD D,B
5913: 20 82         JR NZ,loc_5897
5915: 1D            DEC E
5916: 16 07         LD D,07h
5918: 07            RLCA
5919: 00            NOP
591A: 01 00 01      LD BC,0100h
591D: 0E 0A         LD C,0Ah
591F: 8C            ADC A,H
5920: 8C            ADC A,H
5921: 20 01         JR NZ,loc_5924
5923: 10 10         DJNZ loc_5935
5925: 00            NOP
5926: DF            RST 18h
5927: 66            LD H,(HL)
5928: 73            LD (HL),E
5929: 31 22 1C      LD SP,1C22h
592C: 1F            RRA
592D: 98            SBC A,B
592E: 1F            RRA
592F: 92            SUB D

loc_5930:
5930: 8F            ADC A,A
5931: 8F            ADC A,A
5932: 8F            ADC A,A
5933: 00            NOP
5934: 00            NOP

loc_5935:
5935: 00            NOP
5936: 00            NOP
5937: FF            RST 38h
5938: 0F            RRCA
5939: 0F            RRCA
593A: 0F            RRCA

loc_593B:
593B: 00            NOP
593C: C8            RET Z
593D: 85            ADD A,L
593E: 46            LD B,(HL)
593F: 21 82 0C      LD HL,0C82h
5942: 05            DEC B
5943: 05            DEC B
5944: 0B            DEC BC
5945: 01 01 00      LD BC,0001h
5948: 00            NOP
5949: 8E            ADC A,(HL)
594A: 8C            ADC A,H
594B: 8C            ADC A,H
594C: 8A            ADC A,D
594D: 20 01         JR NZ,loc_5950
594F: 10 10         DJNZ loc_5961
5951: 00            NOP
5952: C4 78 60      CALL NZ,sub_6078
5955: 74            LD (HL),H
5956: 10 94         DJNZ loc_58EC
5958: 92            SUB D
5959: 90            SUB B
595A: 92            SUB D
595B: 02            LD (BC),A
595C: 02            LD (BC),A
595D: 82            ADD A,D
595E: 82            ADD A,D
595F: 00            NOP
5960: 00            NOP

loc_5961:
5961: 00            NOP
5962: 00            NOP
5963: 07            RLCA
5964: 05            DEC B
5965: 07            RLCA
5966: 06 00         LD B,00h
5968: C8            RET Z
5969: 00            NOP
596A: 00            NOP
596B: 00            NOP
596C: 02            LD (BC),A
596D: 15            DEC D
596E: 15            DEC D
596F: 12            LD (DE),A
5970: 01 04 0A      LD BC,0A04h
5973: 04            INC B
5974: 04            INC B
5975: 0A            LD A,(BC)
5976: 0A            LD A,(BC)
5977: 8E            ADC A,(HL)
5978: 8A            ADC A,D
5979: 20 01         JR NZ,loc_597C
597B: 10 10         DJNZ loc_598D
597D: 00            NOP
597E: F4 73 60      CALL P,sub_6073
5981: 75            LD (HL),L
5982: 11 8F 8F      LD DE,8F8Fh
5985: 90            SUB B
5986: 8F            ADC A,A
5987: 02            LD (BC),A
5988: 02            LD (BC),A
5989: 82            ADD A,D
598A: 82            ADD A,D
598B: 00            NOP
598C: 00            NOP

loc_598D:
598D: 00            NOP
598E: 00            NOP
598F: 03            INC BC
5990: 03            INC BC
5991: 06 07         LD B,07h
5993: 00            NOP
5994: C8            RET Z
5995: 00            NOP
5996: 00            NOP
5997: 00            NOP
5998: 02            LD (BC),A
5999: 0C            INC C
599A: 02            LD (BC),A
599B: 12            LD (DE),A
599C: 01 0C 0C      LD BC,0C0Ch
599F: 8C            ADC A,H
59A0: 0A            LD A,(BC)
59A1: 0A            LD A,(BC)
59A2: 0A            LD A,(BC)
59A3: 8E            ADC A,(HL)
59A4: 8A            ADC A,D
59A5: 20 01         JR NZ,loc_59A8
59A7: 10 10         DJNZ loc_59B9
59A9: 00            NOP
59AA: FB            EI
59AB: 71            LD (HL),C
59AC: 31 02 01      LD SP,0102h
59AF: 52            LD D,D
59B0: 8B            ADC A,E
59B1: 51            LD D,C
59B2: 4F            LD C,A
59B3: 0E 04         LD C,04h
59B5: 10 84         DJNZ loc_593B
59B7: C3 00 02      JP loc_0200
59BA: 00            NOP
59BB: 65            LD H,L
59BC: 25            DEC H
59BD: 55            LD D,L
59BE: 08            EX AF,AF'
59BF: 00            NOP
59C0: C6 80         ADD A,80h
59C2: 2D            DEC L
59C3: 30 82         JR NC,loc_5947
59C5: 00            NOP
59C6: 1C            INC E
59C7: 2F            CPL
59C8: 00            NOP
59C9: 04            INC B
59CA: 03            INC BC

loc_59CB:
59CB: 04            INC B
59CC: 00            NOP
59CD: 0E 0E         LD C,0Eh
59CF: 0E 8E         LD C,8Eh
59D1: 20 01         JR NZ,loc_59D4
59D3: 10 10         DJNZ loc_59E5
59D5: 0C            INC C
59D6: FE 01         CP 01h
59D8: 01 01 01      LD BC,0101h
59DB: 1F            RRA
59DC: 14            INC D
59DD: 14            INC D
59DE: 14            INC D
59DF: 0A            LD A,(BC)
59E0: 8B            ADC A,E
59E1: 86            ADD A,(HL)
59E2: 8B            ADC A,E
59E3: 0F            RRCA
59E4: 00            NOP

loc_59E5:
59E5: 00            NOP
59E6: 00            NOP
59E7: 59            LD E,C
59E8: 19            ADD HL,DE
59E9: F9            LD SP,HL
59EA: 19            ADD HL,DE
59EB: 00            NOP
59EC: CD 84 1D      CALL sub_1D84
59EF: 21 82 21      LD HL,2182h
59F2: 06 0B         LD B,0Bh
59F4: 04            INC B
59F5: 04            INC B
59F6: 06 02         LD B,02h
59F8: 06 0E         LD B,0Eh
59FA: 8E            ADC A,(HL)
59FB: 8E            ADC A,(HL)
59FC: 8E            ADC A,(HL)

loc_59FD:
59FD: 20 01         JR NZ,loc_5A00
59FF: 10 10         DJNZ loc_5A11
5A01: 18 FA         JR loc_59FD
5A03: 31 32 39      LD SP,3932h
5A06: 34            INC (HL)
5A07: D9            EXX
5A08: 56            LD D,(HL)
5A09: DC 54 0B      CALL C,sub_0B54
5A0C: 00            NOP
5A0D: 0C            INC C
5A0E: 86            ADD A,(HL)
5A0F: 00            NOP
5A10: 00            NOP

loc_5A11:
5A11: 0C            INC C
5A12: 00            NOP
5A13: 13            INC DE
5A14: 1B            DEC DE
5A15: 5B            LD E,E
5A16: 0B            DEC BC
5A17: 00            NOP
5A18: C8            RET Z
5A19: 83            ADD A,E
5A1A: 1E 31         LD E,31h
5A1C: 82            ADD A,D
5A1D: 12            LD (DE),A
5A1E: 25            DEC H
5A1F: 1B            DEC DE
5A20: 00            NOP
5A21: 06 06         LD B,06h
5A23: 08            EX AF,AF'
5A24: 03            INC BC
5A25: 0C            INC C
5A26: 0C            INC C
5A27: 0C            INC C
5A28: 8A            ADC A,D
5A29: 20 01         JR NZ,loc_5A2C
5A2B: 10 10         DJNZ loc_5A3D
5A2D: 00            NOP
5A2E: FB            EI
5A2F: 01 04 02      LD BC,0204h
5A32: 01 5F 5F      LD BC,5F5Fh
5A35: 13            INC DE
5A36: 53            LD D,E
5A37: 00            NOP
5A38: 0F            RRCA
5A39: 0B            DEC BC
5A3A: 8F            ADC A,A
5A3B: 00            NOP
5A3C: 00            NOP

loc_5A3D:
5A3D: 00            NOP
5A3E: 00            NOP
5A3F: 00            NOP
5A40: 09            ADD HL,BC
5A41: 4B            LD C,E
5A42: 09            ADD HL,BC
5A43: 00            NOP
5A44: C8            RET Z
5A45: 80            ADD A,B
5A46: 23            INC HL
5A47: 30 82         JR NC,loc_59CB
5A49: 1C            INC E
5A4A: 22 19 00      LD (0019h),HL
5A4D: 04            INC B
5A4E: 0F            RRCA
5A4F: 05            DEC B
5A50: 04            INC B
5A51: 0E 0C         LD C,0Ch
5A53: 0C            INC C
5A54: 8A            ADC A,D
5A55: 20 01         JR NZ,loc_5A58
5A57: 10 10         DJNZ loc_5A69
5A59: 00            NOP
5A5A: DC 3B 07      CALL C,sub_073B
5A5D: 01 71 DF      LD BC,DF71h
5A60: 5F            LD E,A
5A61: DE DE         SBC A,DEh
5A63: 0E 10         LD C,10h
5A65: 89            ADC A,C
5A66: 87            ADD A,A
5A67: 00            NOP
5A68: 05            DEC B

loc_5A69:
5A69: 07            RLCA
5A6A: 04            INC B
5A6B: FF            RST 38h
5A6C: A0            AND B
5A6D: 16 17         LD D,17h
5A6F: 00            NOP
5A70: C8            RET Z
5A71: 84            ADD A,H
5A72: 1E 22         LD E,22h
5A74: 82            ADD A,D
5A75: 17            RLA
5A76: 0D            DEC C
5A77: 0B            DEC BC
5A78: 00            NOP
5A79: 04            INC B
5A7A: 03            INC BC
5A7B: 01 81 0C      LD BC,0C81h
5A7E: 0C            INC C
5A7F: 8E            ADC A,(HL)
5A80: 8C            ADC A,H
5A81: 20 01         JR NZ,loc_5A84
5A83: 10 10         DJNZ loc_5A95
5A85: 0C            INC C
5A86: E4 39 05      CALL PO,sub_0539
5A89: 56            LD D,(HL)
5A8A: 01 5F 9E      LD BC,9E5Fh
5A8D: DB 9E         IN A,(9Eh)
5A8F: 10 0C         DJNZ loc_5A9D
5A91: 87            ADD A,A
5A92: 85            ADD A,L
5A93: 00            NOP
5A94: 0B            DEC BC

loc_5A95:
5A95: 0A            LD A,(BC)
5A96: 0A            LD A,(BC)
5A97: BA            CP D
5A98: F6 85         OR 85h
5A9A: F5            PUSH AF
5A9B: 00            NOP
5A9C: B9            CP C

loc_5A9D:
5A9D: 99            SBC A,C
5A9E: 0D            DEC C
5A9F: 12            LD (DE),A
5AA0: 82            ADD A,D
5AA1: 14            INC D
5AA2: 37            SCF
5AA3: 0F            RRCA
5AA4: 00            NOP
5AA5: 06 07         LD B,07h

loc_5AA7:
5AA7: 00            NOP
5AA8: 82            ADD A,D
5AA9: 0E 0E         LD C,0Eh
5AAB: 8E            ADC A,(HL)
5AAC: 8E            ADC A,(HL)
5AAD: 20 01         JR NZ,loc_5AB0
5AAF: 10 10         DJNZ loc_5AC1
5AB1: 00            NOP
5AB2: FC 35 33      CALL M,sub_3335
5AB5: 21 31 59      LD HL,5931h
5AB8: 59            LD E,C
5AB9: 59            LD E,C
5ABA: 59            LD E,C
5ABB: 17            RLA
5ABC: 14            INC D
5ABD: 8E            ADC A,(HL)
5ABE: 8E            ADC A,(HL)
5ABF: 0A            LD A,(BC)
5AC0: 2B            DEC HL

loc_5AC1:
5AC1: 0B            DEC BC
5AC2: 0C            INC C
5AC3: E8            RET PE
5AC4: E8            RET PE
5AC5: F8            RET M
5AC6: F8            RET M
5AC7: 00            NOP
5AC8: C3 84 0C      JP loc_0C84
5ACB: 12            LD (DE),A
5ACC: 82            ADD A,D
5ACD: 19            ADD HL,DE
5ACE: 1B            DEC DE
5ACF: 0C            INC C
5AD0: 00            NOP
5AD1: 00            NOP
5AD2: 00            NOP

loc_5AD3:
5AD3: 81            ADD A,C
5AD4: 82            ADD A,D
5AD5: 08            EX AF,AF'
5AD6: 08            EX AF,AF'
5AD7: 8E            ADC A,(HL)
5AD8: 8A            ADC A,D
5AD9: 20 01         JR NZ,loc_5ADC
5ADB: 10 10         DJNZ loc_5AED
5ADD: 0C            INC C
5ADE: F8            RET M
5ADF: 33            INC SP
5AE0: 31 34 31      LD SP,3134h
5AE3: DA DC DD      JP C,DDDCh
5AE6: DF            RST 18h
5AE7: 08            EX AF,AF'
5AE8: 04            INC B
5AE9: 05            DEC B
5AEA: 8A            ADC A,D
5AEB: 05            DEC B
5AEC: 02            LD (BC),A

loc_5AED:
5AED: 04            INC B
5AEE: 03            INC BC
5AEF: 27            DAA
5AF0: 36 14         LD (HL),14h
5AF2: 13            INC DE
5AF3: 00            NOP
5AF4: CD 00 00      CALL sub_0000
5AF7: 00            NOP
5AF8: 02            LD (BC),A
5AF9: 18 17         JR loc_5B12
5AFB: 18 04         JR loc_5B01
5AFD: 00            NOP
5AFE: 00            NOP
5AFF: 00            NOP
5B00: 82            ADD A,D

loc_5B01:
5B01: 08            EX AF,AF'
5B02: 08            EX AF,AF'
5B03: 08            EX AF,AF'
5B04: 8C            ADC A,H
5B05: 20 01         JR NZ,loc_5B08
5B07: 10 10         DJNZ loc_5B19
5B09: 00            NOP
5B0A: C2 37 21      JP NZ,loc_2137
5B0D: 39            ADD HL,SP
5B0E: 31 9F 9F      LD SP,9F9Fh
5B11: 9F            SBC A,A

loc_5B12:
5B12: 9F            SBC A,A
5B13: 06 0C         LD B,0Ch
5B15: 06 8C         LD B,8Ch
5B17: 06 06         LD B,06h

loc_5B19:
5B19: 06 06         LD B,06h
5B1B: 01 01 01      LD BC,0101h
5B1E: 05            DEC B
5B1F: 00            NOP
5B20: C8            RET Z
5B21: 80            ADD A,B
5B22: 0A            LD A,(BC)
5B23: 30 82         JR NC,loc_5AA7
5B25: 16 17         LD D,17h
5B27: 3F            CCF
5B28: 04            INC B
5B29: 04            INC B
5B2A: 04            INC B
5B2B: 04            INC B
5B2C: 04            INC B
5B2D: 08            EX AF,AF'
5B2E: 04            INC B
5B2F: 04            INC B
5B30: 88            ADC A,B
5B31: 20 01         JR NZ,loc_5B34
5B33: 10 10         DJNZ loc_5B45
5B35: 00            NOP
5B36: FB            EI
5B37: 3C            INC A
5B38: 30 39         JR NC,loc_5B73
5B3A: 31 D4 DF      LD SP,DFD4h
5B3D: 9F            SBC A,A
5B3E: 5F            LD E,A
5B3F: 04            INC B
5B40: 07            RLCA
5B41: 08            EX AF,AF'
5B42: 85            ADD A,L
5B43: 04            INC B
5B44: 04            INC B

loc_5B45:
5B45: 05            DEC B
5B46: 02            LD (BC),A
5B47: F7            RST 30h
5B48: 37            SCF
5B49: 27            DAA
5B4A: AC            XOR H
5B4B: 00            NOP
5B4C: BE            CP (HL)
5B4D: 80            ADD A,B
5B4E: 14            INC D
5B4F: 30 82         JR NC,loc_5AD3
5B51: 16 07         LD D,07h
5B53: 19            ADD HL,DE
5B54: 02            LD (BC),A
5B55: 04            INC B
5B56: 04            INC B
5B57: 04            INC B
5B58: 03            INC BC
5B59: 08            EX AF,AF'
5B5A: 08            EX AF,AF'
5B5B: 08            EX AF,AF'
5B5C: 8C            ADC A,H
5B5D: 20 01         JR NZ,loc_5B60
5B5F: 10 10         DJNZ loc_5B71
5B61: 00            NOP
5B62: FA 0C 41      JP M,loc_410C
5B65: 1F            RRA
5B66: 53            LD D,E
5B67: 1F            RRA
5B68: 1F            RRA
5B69: DF            RST 18h
5B6A: 9F            SBC A,A
5B6B: 0C            INC C
5B6C: 0C            INC C
5B6D: 02            LD (BC),A
5B6E: 85            ADD A,L
5B6F: 04            INC B
5B70: 04            INC B

loc_5B71:
5B71: 04            INC B
5B72: 07            RLCA

loc_5B73:
5B73: 1A            LD A,(DE)
5B74: 06 F6         LD B,F6h
5B76: 27            DAA
5B77: 00            NOP
5B78: 00            NOP
5B79: 00            NOP
5B7A: 00            NOP
5B7B: 00            NOP
5B7C: 00            NOP
5B7D: 16 14         LD D,14h
5B7F: 2F            CPL
5B80: 06 0A         LD B,0Ah
5B82: 04            INC B
5B83: 05            DEC B
5B84: 00            NOP
5B85: 08            EX AF,AF'
5B86: 06 02         LD B,02h
5B88: 8A            ADC A,D
5B89: 20 01         JR NZ,loc_5B8C
5B8B: 10 10         DJNZ loc_5B9D
5B8D: 00            NOP
5B8E: ED 33         DB EDh,33h
5B90: 30 22         JR NC,loc_5BB4
5B92: 31 1D 5B      LD SP,5B1Dh
5B95: 1D            DEC E
5B96: 5E            LD E,(HL)
5B97: 04            INC B
5B98: 8F            ADC A,A
5B99: 8F            ADC A,A
5B9A: 82            ADD A,D
5B9B: 81            ADD A,C
5B9C: 60            LD H,B

loc_5B9D:
5B9D: 43            LD B,E
5B9E: 43            LD B,E
5B9F: 22 13 13      LD (1313h),HL
5BA2: 13            INC DE
5BA3: 00            NOP
5BA4: 96            SUB (HL)
5BA5: 80            ADD A,B
5BA6: 8A            ADC A,D
5BA7: 50            LD D,B
5BA8: C2 12 11      JP NZ,loc_1112
5BAB: 09            ADD HL,BC
5BAC: 00            NOP
5BAD: 05            DEC B
5BAE: 04            INC B
5BAF: 0F            RRCA
5BB0: 04            INC B
5BB1: 08            EX AF,AF'
5BB2: 86            ADD A,(HL)
5BB3: 8A            ADC A,D

loc_5BB4:
5BB4: 8E            ADC A,(HL)
5BB5: 20 01         JR NZ,loc_5BB8
5BB7: 10 10         DJNZ loc_5BC9
5BB9: F4 F9 02      CALL P,sub_02F9
5BBC: 02            LD (BC),A
5BBD: 01 01 5F      LD BC,5F01h
5BC0: 1F            RRA
5BC1: 5F            LD E,A
5BC2: 9F            SBC A,A
5BC3: 0C            INC C
5BC4: 06 0D         LD B,0Dh
5BC6: 8C            ADC A,H
5BC7: 00            NOP
5BC8: 05            DEC B

loc_5BC9:
5BC9: 06 07         LD B,07h
5BCB: F4 15 15      CALL P,sub_1515
5BCE: 14            INC D
5BCF: 00            NOP
5BD0: 00            NOP
5BD1: 00            NOP
5BD2: 00            NOP
5BD3: 00            NOP
5BD4: 00            NOP
5BD5: 0E 22         LD C,22h
5BD7: 1C            INC E
5BD8: 05            DEC B
5BD9: 0C            INC C
5BDA: 0A            LD A,(BC)
5BDB: 04            INC B
5BDC: 04            INC B
5BDD: 0E 0C         LD C,0Ch
5BDF: 0C            INC C
5BE0: 8C            ADC A,H
5BE1: 20 01         JR NZ,loc_5BE4
5BE3: 10 10         DJNZ loc_5BF5
5BE5: 0C            INC C
5BE6: C7            RST 00h
5BE7: 04            INC B
5BE8: 02            LD (BC),A
5BE9: 03            INC BC
5BEA: 01 05 0F      LD BC,0F05h
5BED: 0A            LD A,(BC)
5BEE: 14            INC D
5BEF: 82            ADD A,D
5BF0: 82            ADD A,D
5BF1: 82            ADD A,D
5BF2: 82            ADD A,D
5BF3: 05            DEC B
5BF4: 09            ADD HL,BC

loc_5BF5:
5BF5: 07            RLCA
5BF6: 0B            DEC BC
5BF7: 3A 3A 3A      LD A,(3A3Ah)
5BFA: 3A 00 00      LD A,(0000h)
5BFD: 00            NOP
5BFE: 00            NOP
5BFF: 00            NOP
5C00: 00            NOP
5C01: 00            NOP
5C02: 00            NOP

loc_5C03:
5C03: 00            NOP
5C04: 00            NOP
5C05: 00            NOP
5C06: 00            NOP
5C07: 00            NOP
5C08: 00            NOP
5C09: 8C            ADC A,H
5C0A: 8C            ADC A,H
5C0B: 8C            ADC A,H
5C0C: 8C            ADC A,H
5C0D: 20 01         JR NZ,loc_5C10
5C0F: 10 10         DJNZ loc_5C21
5C11: 00            NOP
5C12: F8            RET M
5C13: 35            DEC (HL)
5C14: 10 05         DJNZ loc_5C1B
5C16: 01 14 10      LD BC,1014h
5C19: 14            INC D
5C1A: 0E 05         LD C,05h
5C1C: 02            LD (BC),A
5C1D: 08            EX AF,AF'
5C1E: 88            ADC A,B
5C1F: 00            NOP
5C20: 00            NOP

loc_5C21:
5C21: 00            NOP
5C22: 00            NOP
5C23: 99            SBC A,C
5C24: 09            ADD HL,BC
5C25: 09            ADD HL,BC
5C26: 19            ADD HL,DE
5C27: 00            NOP
5C28: C8            RET Z
5C29: 8A            ADC A,D
5C2A: 32 31 82      LD (8231h),A
5C2D: 1E 13         LD E,13h
5C2F: 2A 00 00      LD HL,(0000h)
5C32: 04            INC B
5C33: 02            LD (BC),A
5C34: 04            INC B
5C35: 0A            LD A,(BC)
5C36: 06 08         LD B,08h
5C38: 8A            ADC A,D
5C39: 20 01         JR NZ,loc_5C3C
5C3B: 10 10         DJNZ loc_5C4D
5C3D: 18 C4         JR loc_5C03
5C3F: 71            LD (HL),C
5C40: 42            LD B,D
5C41: 01 31 56      LD BC,5631h
5C44: 54            LD D,H
5C45: 99            SBC A,C
5C46: 99            SBC A,C

loc_5C47:
5C47: 05            DEC B
5C48: 07            RLCA
5C49: 8C            ADC A,H
5C4A: 8C            ADC A,H
5C4B: 06 66         LD B,66h

loc_5C4D:
5C4D: 06 26         LD B,26h
5C4F: 64            LD H,H
5C50: 64            LD H,H
5C51: 15            DEC D
5C52: 65            LD H,L
5C53: 00            NOP
5C54: 00            NOP
5C55: 00            NOP
5C56: 00            NOP
5C57: 00            NOP
5C58: 00            NOP
5C59: 19            ADD HL,DE
5C5A: 12            LD (DE),A
5C5B: 00            NOP
5C5C: 07            RLCA
5C5D: 03            INC BC
5C5E: 07            RLCA
5C5F: 00            NOP
5C60: 00            NOP
5C61: 08            EX AF,AF'
5C62: 0C            INC C
5C63: 8A            ADC A,D
5C64: 8A            ADC A,D
5C65: 20 01         JR NZ,loc_5C68
5C67: 10 10         DJNZ loc_5C79
5C69: 00            NOP
5C6A: F9            LD SP,HL
5C6B: 70            LD (HL),B
5C6C: 70            LD (HL),B
5C6D: 50            LD D,B
5C6E: 00            NOP
5C6F: 1D            DEC E
5C70: 1D            DEC E
5C71: 1D            DEC E
5C72: 1F            RRA
5C73: 06 0D         LD B,0Dh
5C75: 00            NOP
5C76: 80            ADD A,B
5C77: 20 26         JR NZ,loc_5C9F

loc_5C79:
5C79: 46            LD B,(HL)
5C7A: 07            RLCA
5C7B: F4 24 04      CALL P,sub_0424
5C7E: 05            DEC B
5C7F: 00            NOP
5C80: 93            SUB E
5C81: 80            ADD A,B

loc_5C82:
5C82: B2            OR D
5C83: 30 C2         JR NC,loc_5C47
5C85: 20 1B         JR NZ,loc_5CA2
5C87: 20 00         JR NZ,loc_5C89

loc_5C89:
5C89: 00            NOP
5C8A: 05            DEC B
5C8B: 00            NOP
5C8C: 00            NOP
5C8D: 08            EX AF,AF'
5C8E: 06 06         LD B,06h
5C90: 8E            ADC A,(HL)
5C91: 20 01         JR NZ,loc_5C94
5C93: 10 10         DJNZ loc_5CA5
5C95: 00            NOP
5C96: F2 30 30      JP P,loc_3030
5C99: 75            LD (HL),L
5C9A: 70            LD (HL),B
5C9B: 5E            LD E,(HL)
5C9C: 10 5F         DJNZ loc_5CFD
5C9E: 0B            DEC BC

loc_5C9F:
5C9F: 04            INC B
5CA0: 05            DEC B
5CA1: 08            EX AF,AF'

loc_5CA2:
5CA2: 85            ADD A,L
5CA3: 02            LD (BC),A
5CA4: 02            LD (BC),A

loc_5CA5:
5CA5: 00            NOP
5CA6: 00            NOP
5CA7: 26 26         LD H,26h
5CA9: C8            RET Z
5CAA: 06 00         LD B,00h
5CAC: C8            RET Z
5CAD: 80            ADD A,B
5CAE: A8            XOR B
5CAF: 40            LD B,B
5CB0: C2 10 11      JP NZ,loc_1110
5CB3: 0C            INC C
5CB4: 00            NOP
5CB5: 85            ADD A,L
5CB6: 0F            RRCA
5CB7: 0F            RRCA
5CB8: 08            EX AF,AF'
5CB9: 08            EX AF,AF'
5CBA: 08            EX AF,AF'
5CBB: 08            EX AF,AF'
5CBC: 8A            ADC A,D
5CBD: 20 01         JR NZ,loc_5CC0
5CBF: 10 10         DJNZ loc_5CD1
5CC1: 00            NOP
5CC2: FD            DB FDh ; prefix (nop)
5CC3: 01 02 01      LD BC,0102h
5CC6: 01 4C 50      LD BC,504Ch
5CC9: 0F            RRCA
5CCA: 12            LD (DE),A
5CCB: 0B            DEC BC
5CCC: 81            ADD A,C
5CCD: 85            ADD A,L
5CCE: 82            ADD A,D
5CCF: 01 00 00      LD BC,0000h
5CD2: 00            NOP
5CD3: 28 2A         JR Z,loc_5CFF
5CD5: 29            ADD HL,HL
5CD6: 19            ADD HL,DE
5CD7: 00            NOP
5CD8: BE            CP (HL)
5CD9: 80            ADD A,B
5CDA: 28 30         JR Z,loc_5D0C
5CDC: 82            ADD A,D
5CDD: 11 00 00      LD DE,0000h
5CE0: 01 05 00      LD BC,0005h
5CE3: 82            ADD A,D
5CE4: 82            ADD A,D
5CE5: 08            EX AF,AF'
5CE6: 88            ADC A,B
5CE7: 88            ADC A,B
5CE8: 8A            ADC A,D
5CE9: 20 01         JR NZ,loc_5CEC
5CEB: 10 10         DJNZ loc_5CFD
5CED: F4 FC 31      CALL P,sub_31FC
5CF0: 30 02         JR NC,loc_5CF4
5CF2: 02            LD (BC),A
5CF3: 1F            RRA

loc_5CF4:
5CF4: 19            ADD HL,DE
5CF5: 0F            RRCA
5CF6: 0D            DEC C
5CF7: 0F            RRCA
5CF8: 10 88         DJNZ loc_5C82
5CFA: 88            ADC A,B
5CFB: C0            RET NZ
5CFC: 40            LD B,B

loc_5CFD:
5CFD: 00            NOP
5CFE: 00            NOP

loc_5CFF:
5CFF: F9            LD SP,HL
5D00: 79            LD A,C
5D01: 09            ADD HL,BC
5D02: 19            ADD HL,DE
5D03: 00            NOP
5D04: C8            RET Z
5D05: 8A            ADC A,D
5D06: 46            LD B,(HL)
5D07: 50            LD D,B
5D08: 82            ADD A,D
5D09: 25            DEC H
5D0A: 25            DEC H
5D0B: 1B            DEC DE

loc_5D0C:
5D0C: 07            RLCA
5D0D: 00            NOP
5D0E: 04            INC B
5D0F: 02            LD (BC),A
5D10: 04            INC B
5D11: 08            EX AF,AF'
5D12: 04            INC B
5D13: 84            ADD A,H
5D14: 8E            ADC A,(HL)
5D15: 20 01         JR NZ,loc_5D18
5D17: 10 10         DJNZ loc_5D29
5D19: 0C            INC C
5D1A: F3            DI
5D1B: 71            LD (HL),C
5D1C: 36 70         LD (HL),70h
5D1E: 30 08         JR NC,loc_5D28
5D20: 0A            LD A,(BC)
5D21: 14            INC D
5D22: 0F            RRCA
5D23: 08            EX AF,AF'
5D24: 09            ADD HL,BC
5D25: 07            RLCA
5D26: 86            ADD A,(HL)
5D27: C1            POP BC

loc_5D28:
5D28: 40            LD B,B

loc_5D29:
5D29: 41            LD B,C
5D2A: 00            NOP
5D2B: A3            AND E
5D2C: 61            LD H,C
5D2D: A4            AND H
5D2E: 31 07 D2      LD SP,D207h
5D31: 80            ADD A,B
5D32: FF            RST 38h
5D33: 70            LD (HL),B
5D34: C3 1B 11      JP loc_111B
5D37: 00 00 00 00...DB 00h ; x9
5D40: 80            ADD A,B
5D41: 20 01         JR NZ,loc_5D44
5D43: 10 10         DJNZ loc_5D55
5D45: E8            RET PE
5D46: C4 21 11      CALL NZ,sub_1121
5D49: 31 21 12      LD SP,1221h
5D4C: 12            LD (DE),A
5D4D: 12            LD (DE),A
5D4E: 12            LD (DE),A
5D4F: 02            LD (BC),A
5D50: 02            LD (BC),A
5D51: 83            ADD A,E
5D52: 83            ADD A,E
5D53: 00            NOP
5D54: 00            NOP

loc_5D55:
5D55: 00            NOP
5D56: 00            NOP
5D57: 2C            INC L
5D58: 2C            INC L
5D59: 2C            INC L
5D5A: 2C            INC L
5D5B: 00            NOP
5D5C: 00            NOP
5D5D: 00            NOP
5D5E: 00            NOP
5D5F: 00            NOP
5D60: 00            NOP
5D61: 0F            RRCA
5D62: 0F            RRCA
5D63: 05            DEC B
5D64: 05            DEC B
5D65: 00            NOP
5D66: 00            NOP
5D67: 86            ADD A,(HL)
5D68: 86            ADD A,(HL)
5D69: 08            EX AF,AF'
5D6A: 08            EX AF,AF'
5D6B: 88            ADC A,B
5D6C: 88            ADC A,B
5D6D: 20 01         JR NZ,loc_5D70
5D6F: 10 10         DJNZ loc_5D81
5D71: 0C            INC C
5D72: C4 01 71      CALL NZ,sub_7101
5D75: 01 01 13      LD BC,1301h
5D78: 13            INC DE
5D79: 13            INC DE
5D7A: 13            INC DE
5D7B: 07            RLCA
5D7C: 07            RLCA
5D7D: 84            ADD A,H
5D7E: 84            ADD A,H
5D7F: 00            NOP
5D80: 00            NOP

loc_5D81:
5D81: 00            NOP
5D82: 00            NOP
5D83: A7            AND A
5D84: A7            AND A
5D85: 6A            LD L,D
5D86: 6A            LD L,D
5D87: 00            NOP
5D88: 00            NOP
5D89: 00            NOP
5D8A: 00            NOP
5D8B: 00            NOP
5D8C: 00            NOP
5D8D: 1B            DEC DE
5D8E: 1B            DEC DE
5D8F: 00            NOP
5D90: 00            NOP
5D91: 01 01 81      LD BC,8101h
5D94: 81            ADD A,C
5D95: 08            EX AF,AF'
5D96: 08            EX AF,AF'
5D97: 88            ADC A,B
5D98: 88            ADC A,B
5D99: 20 01         JR NZ,loc_5D9C
5D9B: 10 10         DJNZ loc_5DAD
5D9D: 0C            INC C
5D9E: C4 01 01      CALL NZ,loc_0101
5DA1: 01 01 1E      LD BC,1E01h
5DA4: 1E 1D         LD E,1Dh
5DA6: 1D            DEC E
5DA7: 08            EX AF,AF'
5DA8: 08            EX AF,AF'
5DA9: 88            ADC A,B
5DAA: 88            ADC A,B
5DAB: 07            RLCA
5DAC: 07            RLCA

loc_5DAD:
5DAD: 0B            DEC BC
5DAE: 0B            DEC BC
5DAF: FA FA FF      JP M,FFFAh
5DB2: FF            RST 38h
5DB3: 00            NOP
5DB4: 00            NOP
5DB5: 00            NOP
5DB6: 00            NOP
5DB7: 00            NOP
5DB8: 00            NOP
5DB9: 11 11 04      LD DE,0411h
5DBC: 04            INC B
5DBD: 00            NOP
5DBE: 00            NOP
5DBF: 82            ADD A,D
5DC0: 82            ADD A,D
5DC1: 08            EX AF,AF'
5DC2: 08            EX AF,AF'
5DC3: 88            ADC A,B
5DC4: 88            ADC A,B
5DC5: 20 01         JR NZ,loc_5DC8
5DC7: 10 10         DJNZ loc_5DD9
5DC9: 0C            INC C
5DCA: F4 01 01      CALL P,loc_0101
5DCD: 01 01 10      LD BC,1001h
5DD0: 10 10         DJNZ loc_5DE2
5DD2: 10 01         DJNZ loc_5DD5
5DD4: 01 82 82      LD BC,8282h
5DD7: 00            NOP
5DD8: 00            NOP

loc_5DD9:
5DD9: 00            NOP
5DDA: 00            NOP
5DDB: 18 18         JR loc_5DF5
5DDD: 18 18         JR loc_5DF7
5DDF: 00            NOP
5DE0: 00            NOP
5DE1: 00            NOP

loc_5DE2:
5DE2: 00            NOP
5DE3: 00            NOP
5DE4: 00            NOP
5DE5: 16 16         LD D,16h
5DE7: 01 01 00      LD BC,0001h
5DEA: 00            NOP
5DEB: 82            ADD A,D
5DEC: 82            ADD A,D
5DED: 08            EX AF,AF'
5DEE: 08            EX AF,AF'
5DEF: 88            ADC A,B
5DF0: 88            ADC A,B
5DF1: 20 01         JR NZ,loc_5DF4
5DF3: 10 10         DJNZ loc_5E05

loc_5DF5:
5DF5: 00            NOP
5DF6: E0            RET PO

loc_5DF7:
5DF7: 36 30         LD (HL),30h
5DF9: 35            DEC (HL)
5DFA: 31 DF 9F      LD SP,9FDFh
5DFD: DF            RST 18h
5DFE: 9F            SBC A,A
5DFF: 07            RLCA
5E00: 09            ADD HL,BC
5E01: 06 87         LD B,87h
5E03: 07            RLCA
5E04: 06 06         LD B,06h
5E06: 0D            DEC C
5E07: 29            ADD HL,HL
5E08: 19            ADD HL,DE
5E09: 19            ADD HL,DE
5E0A: F9            LD SP,HL
5E0B: 00            NOP
5E0C: 00            NOP
5E0D: 00            NOP
5E0E: 00            NOP
5E0F: 00            NOP
5E10: 00            NOP
5E11: 12            LD (DE),A
5E12: 0C            INC C
5E13: 30 04         JR NC,loc_5E19
5E15: 06 04         LD B,04h
5E17: 04            INC B
5E18: 00            NOP

loc_5E19:
5E19: 0E 0C         LD C,0Ch
5E1B: 0C            INC C
5E1C: 8C            ADC A,H
5E1D: 20 01         JR NZ,loc_5E20
5E1F: 10 10         DJNZ loc_5E31
5E21: 00            NOP
5E22: E8            RET PE
5E23: 30 30         JR NC,loc_5E55
5E25: 30 30         JR NC,loc_5E57
5E27: 9E            SBC A,(HL)
5E28: DC D8 DC      CALL C,DCD8h
5E2B: 0E 04         LD C,04h
5E2D: 0A            LD A,(BC)
5E2E: 85            ADD A,L
5E2F: 09            ADD HL,BC
5E30: 06 08         LD B,08h
5E32: 03            INC BC
5E33: B6            OR (HL)
5E34: B6            OR (HL)
5E35: B6            OR (HL)
5E36: B7            OR A
5E37: 00            NOP
5E38: 00            NOP
5E39: 00            NOP
5E3A: 00            NOP
5E3B: 00            NOP
5E3C: 00            NOP
5E3D: 06 0F         LD B,0Fh
5E3F: 33            INC SP
5E40: 00            NOP
5E41: 04            INC B
5E42: 04            INC B
5E43: 04            INC B
5E44: 00            NOP
5E45: 0E 0E         LD C,0Eh
5E47: 0E 8C         LD C,8Ch
5E49: 20 01         JR NZ,loc_5E4C
5E4B: 10 10         DJNZ loc_5E5D
5E4D: 00            NOP
5E4E: FC 0F 00      CALL M,sub_000F
5E51: 00            NOP
5E52: 00            NOP
5E53: 1F            RRA
5E54: 18 1A         JR loc_5E70
5E56: 1C            INC E

loc_5E57:
5E57: 17            RLA
5E58: 1A            LD A,(DE)
5E59: 91            SUB C
5E5A: 8E            ADC A,(HL)
5E5B: 00            NOP
5E5C: 54            LD D,H

loc_5E5D:
5E5D: 0F            RRCA
5E5E: 10 18         DJNZ loc_5E78
5E60: 98            SBC A,B
5E61: 9C            SBC A,H
5E62: 29            ADD HL,HL
5E63: 17            RLA
5E64: 00            NOP
5E65: 00            NOP
5E66: 00            NOP
5E67: 00            NOP
5E68: 00            NOP
5E69: 00            NOP
5E6A: 0F            RRCA
5E6B: 00            NOP
5E6C: 00            NOP
5E6D: 00            NOP
5E6E: 00            NOP
5E6F: 00            NOP

loc_5E70:
5E70: 00            NOP
5E71: 00            NOP
5E72: 08            EX AF,AF'
5E73: 8A            ADC A,D
5E74: 8E            ADC A,(HL)
5E75: 20 01         JR NZ,loc_5E78
5E77: 10 10         DJNZ loc_5E89
5E79: 00            NOP
5E7A: FC 03 71      CALL M,sub_7103
5E7D: 05            DEC B
5E7E: 07            RLCA
5E7F: 1F            RRA
5E80: 19            ADD HL,DE
5E81: 9F            SBC A,A
5E82: 9F            SBC A,A
5E83: 1F            RRA
5E84: 1C            INC E
5E85: 9F            SBC A,A
5E86: 9F            SBC A,A
5E87: 40            LD B,B
5E88: A5            AND L

loc_5E89:
5E89: A4            AND H
5E8A: C5            PUSH BC
5E8B: 10 33         DJNZ loc_5EC0
5E8D: 12            LD (DE),A
5E8E: 72            LD (HL),D
5E8F: 00            NOP
5E90: 00            NOP
5E91: 00            NOP
5E92: 00            NOP
5E93: 00            NOP
5E94: 00            NOP
5E95: 02            LD (BC),A
5E96: 07            RLCA
5E97: 1F            RRA
5E98: 04            INC B
5E99: 00            NOP
5E9A: 00            NOP
5E9B: 00            NOP
5E9C: 00            NOP
5E9D: 00            NOP
5E9E: 00            NOP
5E9F: 8A            ADC A,D
5EA0: 8A            ADC A,D
5EA1: 20 01         JR NZ,loc_5EA4
5EA3: 10 10         DJNZ loc_5EB5
5EA5: 00            NOP
5EA6: F4 00 70      CALL P,sub_7000
5EA9: 0E 00         LD C,00h
5EAB: 1F            RRA
5EAC: 1F            RRA
5EAD: 1F            RRA
5EAE: 5F            LD E,A
5EAF: 01 16 8D      LD BC,8D16h
5EB2: 94            SUB H
5EB3: C0            RET NZ
5EB4: 27            DAA

loc_5EB5:
5EB5: 6F            LD L,A
5EB6: 54            LD D,H
5EB7: 25            DEC H
5EB8: 68            LD L,B
5EB9: FA F8 00      JP M,loc_00F8
5EBC: 00            NOP
5EBD: 00            NOP
5EBE: 00            NOP
5EBF: 00            NOP

loc_5EC0:
5EC0: 00            NOP
5EC1: 00            NOP
5EC2: 13            INC DE
5EC3: 12            LD (DE),A
5EC4: 04            INC B
5EC5: 00            NOP
5EC6: 00            NOP
5EC7: 00            NOP
5EC8: 00            NOP
5EC9: 00            NOP
5ECA: 00            NOP
5ECB: 88            ADC A,B
5ECC: 88            ADC A,B
5ECD: 20 01         JR NZ,loc_5ED0
5ECF: 10 10         DJNZ loc_5EE1
5ED1: 40            LD B,B
5ED2: EC 00 72      CALL PE,sub_7200
5ED5: 00            NOP
5ED6: 32 1E DF      LD (DF1Eh),A
5ED9: 1F            RRA
5EDA: DF            RST 18h
5EDB: 13            INC DE
5EDC: 13            INC DE
5EDD: 8E            ADC A,(HL)
5EDE: 8F            ADC A,A
5EDF: 5E            LD E,(HL)
5EE0: 2D            DEC L

loc_5EE1:
5EE1: 3C            INC A
5EE2: 6A            LD L,D
5EE3: D8            RET C
5EE4: 4C            LD C,H
5EE5: 1B            DEC DE
5EE6: 19            ADD HL,DE
5EE7: 00            NOP
5EE8: 00            NOP
5EE9: 00            NOP
5EEA: 00            NOP
5EEB: 00            NOP
5EEC: 00            NOP
5EED: 0D            DEC C
5EEE: 0C            INC C
5EEF: 00            NOP
5EF0: 04            INC B
5EF1: 00            NOP
5EF2: 00            NOP
5EF3: 00            NOP
5EF4: 00            NOP
5EF5: 00            NOP
5EF6: 00            NOP
5EF7: 8E            ADC A,(HL)
5EF8: 88            ADC A,B
5EF9: 20 01         JR NZ,loc_5EFC
5EFB: 10 10         DJNZ loc_5F0D
5EFD: 21 47 01      LD HL,0147h
5F00: 01 01 01      LD BC,0101h
5F03: 1F            RRA
5F04: 00            NOP
5F05: 00            NOP
5F06: 00            NOP
5F07: 1F            RRA
5F08: 00            NOP
5F09: 00            NOP
5F0A: 00            NOP
5F0B: 1F            RRA
5F0C: 00            NOP

loc_5F0D:
5F0D: 00            NOP
5F0E: 00            NOP
5F0F: 0A            LD A,(BC)
5F10: 00            NOP
5F11: 00            NOP
5F12: 00            NOP
5F13: 00            NOP
5F14: 00            NOP
5F15: 80            ADD A,B
5F16: 00            NOP
5F17: 00            NOP
5F18: 80            ADD A,B
5F19: 7F            LD A,A
5F1A: 7F            LD A,A
5F1B: 7F            LD A,A
5F1C: 7F            LD A,A
5F1D: 00 00 00 00...DB 00h ; x8
5F25: 20 01         JR NZ,loc_5F28
5F27: 10 10         DJNZ loc_5F39
5F29: 00            NOP
5F2A: 00 00 00 00...DB 00h ; x9

loc_5F33:
5F33: 00            NOP
5F34: 00            NOP
5F35: 00            NOP
5F36: 00            NOP
5F37: 00            NOP
5F38: 00            NOP

loc_5F39:
5F39: 00            NOP
5F3A: 00            NOP
5F3B: 00 00 00 00...DB 00h ; x22
5F51: 20 01         JR NZ,loc_5F54
5F53: 10 10         DJNZ loc_5F65
5F55: 00            NOP
5F56: FB            EI
5F57: 72            LD (HL),D
5F58: 31 31 71      LD SP,7131h
5F5B: 12            LD (DE),A
5F5C: 12            LD (DE),A
5F5D: 14            INC D
5F5E: 1B            DEC DE
5F5F: 0E 0E         LD C,0Eh
5F61: 00            NOP
5F62: 9F            SBC A,A
5F63: 00            NOP
5F64: 00            NOP

loc_5F65:
5F65: 00            NOP
5F66: 00            NOP
5F67: 16 52         LD D,52h
5F69: 02            LD (BC),A
5F6A: 07            RLCA
5F6B: 00            NOP
5F6C: D2 80 FF      JP NC,FF80h
5F6F: 20 C2         JR NZ,loc_5F33
5F71: 15            DEC D
5F72: 16 16         LD D,16h
5F74: 00            NOP
5F75: 00            NOP
5F76: 00            NOP
5F77: 00            NOP
5F78: 00            NOP
5F79: 0E 0E         LD C,0Eh
5F7B: 0E 8E         LD C,8Eh
5F7D: 20 01         JR NZ,loc_5F80
5F7F: 10 10         DJNZ loc_5F91
5F81: 00            NOP
5F82: FB            EI
5F83: 72            LD (HL),D
5F84: 31 31 71      LD SP,7131h
5F87: 12            LD (DE),A
5F88: 12            LD (DE),A
5F89: 14            INC D
5F8A: 14            INC D
5F8B: 0E 0E         LD C,0Eh
5F8D: 00            NOP
5F8E: 82            ADD A,D
5F8F: 00            NOP
5F90: 00            NOP

loc_5F91:
5F91: 00            NOP
5F92: 01 4A 5A      LD BC,5A4Ah
5F95: 0A            LD A,(BC)
5F96: 3A 00 CA      LD A,(CA00h)
5F99: 80            ADD A,B
5F9A: 1E 30         LD E,30h
5F9C: 82            ADD A,D
5F9D: 18 18         JR loc_5FB7
5F9F: 0F            RRCA
5FA0: 00            NOP
5FA1: 00            NOP
5FA2: 00            NOP

loc_5FA3:
5FA3: 00            NOP
5FA4: 00            NOP
5FA5: 08            EX AF,AF'
5FA6: 08            EX AF,AF'
5FA7: 06 8E         LD B,8Eh
5FA9: 20 01         JR NZ,loc_5FAC
5FAB: 10 10         DJNZ loc_5FBD
5FAD: 00            NOP
5FAE: FA 30 63      JP M,loc_6330
5FB1: 70            LD (HL),B
5FB2: 21 9F 9F      LD HL,9F9Fh
5FB5: 5F            LD E,A
5FB6: 1F            RRA

loc_5FB7:
5FB7: 1F            RRA
5FB8: 00            NOP
5FB9: 08            EX AF,AF'
5FBA: 80            ADD A,B
5FBB: 03            INC BC
5FBC: 03            INC BC

loc_5FBD:
5FBD: 0E 06         LD C,06h
5FBF: 17            RLA
5FC0: 05            DEC B
5FC1: F8            RET M
5FC2: 98            SBC A,B
5FC3: 00            NOP
5FC4: C8            RET Z
5FC5: 81            ADD A,C
5FC6: 83            ADD A,E
5FC7: 00            NOP
5FC8: C2 09 1B      JP NZ,loc_1B09
5FCB: 00            NOP
5FCC: 00            NOP
5FCD: 05            DEC B
5FCE: 07            RLCA
5FCF: 03            INC BC
5FD0: 00            NOP
5FD1: 00            NOP
5FD2: 00            NOP
5FD3: 00            NOP
5FD4: 8E            ADC A,(HL)
5FD5: 20 01         JR NZ,loc_5FD8
5FD7: 10 10         DJNZ loc_5FE9
5FD9: 00            NOP
5FDA: F8            RET M
5FDB: 01 01 01      LD BC,0101h
5FDE: 01 17 1A      LD BC,1A17h
5FE1: 18 11         JR loc_5FF4
5FE3: 17            RLA
5FE4: 0B            DEC BC
5FE5: 16 80         LD D,80h
5FE7: 00            NOP
5FE8: 00            NOP

loc_5FE9:
5FE9: 00            NOP
5FEA: 00            NOP
5FEB: 10 00         DJNZ loc_5FED

loc_5FED:
5FED: 10 06         DJNZ loc_5FF5
5FEF: 00            NOP
5FF0: C4 84 4E      CALL NZ,sub_4E84
5FF3: 31 82 19      LD SP,1982h
5FF6: 1A            LD A,(DE)
5FF7: 0A            LD A,(BC)
5FF8: 00 00 00 00...DB 00h ; x8

sub_6000:
6000: 8E            ADC A,(HL)
6001: 20 01         JR NZ,loc_6004

sub_6003:
6003: 10 10         DJNZ loc_6015
6005: 00            NOP
6006: FC 31 71      CALL M,sub_7131
6009: 32 71 0F      LD (0F71h),A
600C: 0F            RRCA
600D: 0D            DEC C
600E: 0D            DEC C
600F: 1F            RRA
6010: 1F            RRA
6011: 85            ADD A,L
6012: 85            ADD A,L
6013: 01 01 01      LD BC,0101h
6016: 01 02 02      LD BC,0202h
6019: 26 26         LD H,26h
601B: 00            NOP
601C: CD 80 64      CALL sub_6480
601F: 30 82         JR NC,loc_5FA3
6021: 14            INC D
6022: 0A            LD A,(BC)
6023: 00            NOP
6024: 00            NOP
6025: 03            INC BC
6026: 03            INC BC
6027: 83            ADD A,E
6028: 83            ADD A,E
6029: 04            INC B
602A: 04            INC B
602B: 8E            ADC A,(HL)
602C: 8E            ADC A,(HL)
602D: 20 01         JR NZ,loc_6030
602F: 10 10         DJNZ loc_6041
6031: 00            NOP
6032: FD            DB FDh ; prefix (nop)
6033: 01 01 01      LD BC,0101h
6036: 01 12 8A      LD BC,8A12h
6039: 0C            INC C
603A: 0A            LD A,(BC)
603B: 00            NOP
603C: 88            ADC A,B
603D: 88            ADC A,B
603E: 88            ADC A,B
603F: 00            NOP
6040: 00            NOP

loc_6041:
6041: 01 00 02      LD BC,0200h
6044: 17            RLA
6045: 14            INC D
6046: 1E 00         LD E,00h
6048: CB 86         RES 0,(HL)
604A: D0            RET NC
604B: 31 C2 13      LD SP,13C2h
604E: 17            RLA
604F: 1A            LD A,(DE)
6050: 00            NOP
6051: 00            NOP
6052: 03            INC BC
6053: 00            NOP
6054: 00            NOP
6055: 00            NOP
6056: 8E            ADC A,(HL)
6057: 8E            ADC A,(HL)
6058: 8E            ADC A,(HL)
6059: 20 01         JR NZ,loc_605C
605B: 10 10         DJNZ loc_606D
605D: 0C            INC C
605E: FA 01 04      JP M,loc_0401
6061: 02            LD (BC),A
6062: 01 1B 1A      LD BC,1A1Bh
6065: 1D            DEC E
6066: 18 0B         JR sub_6073
6068: 0A            LD A,(BC)
6069: 08            EX AF,AF'
606A: 89            ADC A,C
606B: 05            DEC B
606C: 07            RLCA

loc_606D:
606D: 07            RLCA
606E: 06 16         LD B,16h
6070: 06 07         LD B,07h
6072: 07            RLCA

sub_6073:
6073: 00            NOP
6074: 00            NOP
6075: 00            NOP
6076: 00            NOP
6077: 00            NOP

sub_6078:
6078: 00            NOP
6079: 1A            LD A,(DE)
607A: 24            INC H
607B: 16 00         LD D,00h
607D: 00            NOP
607E: 00            NOP
607F: 00            NOP
6080: 00            NOP
6081: 08            EX AF,AF'
6082: 00            NOP
6083: 0A            LD A,(BC)
6084: 8E            ADC A,(HL)
6085: 20 01         JR NZ,loc_6088
6087: 10 10         DJNZ loc_6099
6089: F4 FA 31      CALL P,sub_31FA
608C: 64            LD H,H
608D: 0C            INC C
608E: 01 9C 9C      LD BC,9C9Ch
6091: DB D9         IN A,(D9h)
6093: 04            INC B
6094: 04            INC B
6095: 09            ADD HL,BC
6096: 83            ADD A,E
6097: 03            INC BC
6098: 03            INC BC

loc_6099:
6099: 01 00 17      LD BC,1700h
609C: 06 02         LD B,02h
609E: A5            AND L
609F: 00            NOP
60A0: 00            NOP
60A1: 00            NOP
60A2: 00            NOP
60A3: 00            NOP
60A4: 00            NOP
60A5: 17            RLA
60A6: 13            INC DE
60A7: 22 00 06      LD (0600h),HL
60AA: 0F            RRCA
60AB: 0F            RRCA
60AC: 00            NOP
60AD: 08            EX AF,AF'
60AE: 0C            INC C
60AF: 08            EX AF,AF'
60B0: 8E            ADC A,(HL)
60B1: 20 01         JR NZ,loc_60B4
60B3: 10 10         DJNZ loc_60C5
60B5: 00            NOP
60B6: DC 3F 71      CALL C,sub_713F
60B9: 01 31 1F      LD BC,1F31h
60BC: 1E 1B         LD E,1Bh
60BE: 1E 0F         LD E,0Fh
60C0: 06 87         LD B,87h
60C2: 87            ADD A,A
60C3: 00            NOP
60C4: 00            NOP

loc_60C5:
60C5: 0A            LD A,(BC)
60C6: 00            NOP
60C7: 8A            ADC A,D
60C8: F6 86         OR 86h
60CA: F7            RST 30h
60CB: 00            NOP
60CC: C3 92 0C      JP loc_0C92
60CF: 31 82 1F      LD SP,1F82h
60D2: 11 12 00      LD DE,0012h
60D5: 00            NOP
60D6: 00            NOP
60D7: 00            NOP
60D8: 00            NOP
60D9: 0E 0E         LD C,0Eh
60DB: 8E            ADC A,(HL)
60DC: 8E            ADC A,(HL)
60DD: 20 01         JR NZ,loc_60E0
60DF: 10 10         DJNZ loc_60F1
60E1: 00            NOP
60E2: FC 7C 35      CALL M,sub_357C
60E5: 34            INC (HL)
60E6: 71            LD (HL),C
60E7: 9F            SBC A,A
60E8: 9F            SBC A,A
60E9: 9F            SBC A,A
60EA: 9F            SBC A,A
60EB: 0A            LD A,(BC)
60EC: 0A            LD A,(BC)
60ED: 86            ADD A,(HL)
60EE: 86            ADD A,(HL)
60EF: 00            NOP
60F0: 00            NOP

loc_60F1:
60F1: 00            NOP
60F2: 00            NOP
60F3: F4 F4 F4      CALL P,F4F4h
60F6: F4 00 C4      CALL P,C400h
60F9: 80            ADD A,B
60FA: E4 30 C2      CALL PO,C230h
60FD: 16 1B         LD D,1Bh
60FF: 00            NOP
6100: 00            NOP
6101: 0F            RRCA
6102: 0F            RRCA

loc_6103:
6103: 05            DEC B
6104: 05            DEC B
6105: 0E 0E         LD C,0Eh
6107: 8E            ADC A,(HL)
6108: 8E            ADC A,(HL)
6109: 20 01         JR NZ,loc_610C
610B: 10 10         DJNZ loc_611D
610D: 00            NOP
610E: FA 31 64      JP M,loc_6431
6111: 0C            INC C
6112: 01 9C 9C      LD BC,9C9Ch
6115: DB D9         IN A,(D9h)

loc_6117:
6117: 04            INC B
6118: 04            INC B
6119: 09            ADD HL,BC
611A: 83            ADD A,E
611B: 03            INC BC
611C: 03            INC BC

loc_611D:
611D: 01 00 17      LD BC,1700h
6120: 06 02         LD B,02h
6122: A5            AND L
6123: 00            NOP
6124: CA 83 00      JP Z,loc_0083
6127: 02            LD (BC),A
6128: 82            ADD A,D
6129: 15            DEC D
612A: 11 1F 00      LD DE,001Fh
612D: 06 0F         LD B,0Fh

loc_612F:
612F: 0F            RRCA
6130: 00            NOP
6131: 08            EX AF,AF'
6132: 0C            INC C
6133: 08            EX AF,AF'
6134: 8E            ADC A,(HL)
6135: 20 01         JR NZ,loc_6138
6137: 10 10         DJNZ loc_6149
6139: F4 EF 63      CALL P,sub_63EF
613C: 71            LD (HL),C
613D: 22 31 1F      LD (1F31h),HL
6140: 1F            RRA
6141: 1F            RRA
6142: 1F            RRA
6143: 94            SUB H
6144: 9F            SBC A,A
6145: 9F            SBC A,A
6146: 9F            SBC A,A
6147: C0            RET NZ
6148: 00            NOP

loc_6149:
6149: 00            NOP
614A: 00            NOP
614B: 0F            RRCA
614C: 0F            RRCA
614D: 0F            RRCA
614E: 0F            RRCA
614F: 00            NOP
6150: 8C            ADC A,H
6151: 80            ADD A,B
6152: BD            CP L
6153: 20 C2         JR NZ,loc_6117
6155: 0A            LD A,(BC)
6156: 00            NOP
6157: 00            NOP
6158: 00            NOP
6159: 00            NOP
615A: 00            NOP
615B: 00            NOP
615C: 00            NOP
615D: 80            ADD A,B
615E: 80            ADD A,B
615F: 80            ADD A,B
6160: 80            ADD A,B
6161: 20 01         JR NZ,loc_6164
6163: 10 10         DJNZ loc_6175
6165: 00            NOP
6166: F4 01 03      CALL P,loc_0301
6169: 01 00 1F      LD BC,1F00h
616C: 18 1D         JR loc_618B
616E: 19            ADD HL,DE
616F: 00            NOP
6170: 16 99         LD D,99h
6172: 8D            ADC A,L
6173: 00            NOP
6174: 42            LD B,D

loc_6175:
6175: 00            NOP
6176: 03            INC BC
6177: 00            NOP
6178: 15            DEC D
6179: 06 16         LD B,16h
617B: 00            NOP
617C: CB 80         RES 0,B
617E: 3F            CCF
617F: 30 82         JR NC,loc_6103
6181: 1A            LD A,(DE)
6182: 0C            INC C
6183: 00 00 00 00...DB 00h ; x8

loc_618B:
618B: 80            ADD A,B
618C: 80            ADD A,B
618D: 20 01         JR NZ,loc_6190
618F: 10 10         DJNZ loc_61A1
6191: 0C            INC C
6192: FE 05         CP 05h
6194: 01 31 71      LD BC,7131h
6197: 1F            RRA
6198: 1D            DEC E
6199: 1E 1E         LD E,1Eh
619B: 0C            INC C
619C: 8A            ADC A,D
619D: 8C            ADC A,H
619E: 8B            ADC A,E
619F: 00            NOP
61A0: 07            RLCA

loc_61A1:
61A1: 0A            LD A,(BC)
61A2: 08            EX AF,AF'
61A3: 10 14         DJNZ loc_61B9
61A5: 34            INC (HL)
61A6: 25            DEC H
61A7: 00            NOP
61A8: A0            AND B
61A9: 80            ADD A,B
61AA: 3C            INC A
61AB: 30 82         JR NC,loc_612F
61AD: 21 00 01      LD HL,0100h
61B0: 15            DEC D
61B1: 00            NOP
61B2: 00            NOP
61B3: 00            NOP
61B4: 00            NOP
61B5: 06 8E         LD B,8Eh
61B7: 8E            ADC A,(HL)
61B8: 8E            ADC A,(HL)

loc_61B9:
61B9: 20 01         JR NZ,loc_61BC
61BB: 10 10         DJNZ loc_61CD
61BD: 0C            INC C
61BE: FB            EI
61BF: 05            DEC B
61C0: 03            INC BC
61C1: 07            RLCA
61C2: 01 1F 1F      LD BC,1F1Fh
61C5: 1F            RRA
61C6: 1F            RRA
61C7: 11 0D 14      LD DE,140Dh
61CA: 88            ADC A,B
61CB: 09            ADD HL,BC
61CC: 0A            LD A,(BC)

loc_61CD:
61CD: 0B            DEC BC
61CE: 00            NOP
61CF: 16 06         LD D,06h
61D1: 27            DAA
61D2: FA 00 00      JP M,sub_0000
61D5: 00            NOP
61D6: 00            NOP
61D7: 00            NOP
61D8: 00            NOP
61D9: 11 11 18      LD DE,1811h
61DC: 00            NOP
61DD: 00            NOP
61DE: 00            NOP
61DF: 00            NOP
61E0: 00            NOP
61E1: 00            NOP
61E2: 0C            INC C
61E3: 00            NOP
61E4: 8E            ADC A,(HL)
61E5: 20 01         JR NZ,loc_61E8
61E7: 10 10         DJNZ loc_61F9
61E9: F4 FB 79      CALL P,sub_79FB
61EC: 70            LD (HL),B
61ED: 33            INC SP
61EE: 70            LD (HL),B
61EF: 1F            RRA
61F0: 1F            RRA
61F1: 1F            RRA
61F2: 1F            RRA
61F3: 0E 1F         LD C,1Fh
61F5: 0D            DEC C
61F6: 9F            SBC A,A
61F7: 00            NOP
61F8: 00            NOP

loc_61F9:
61F9: 00            NOP
61FA: 00            NOP
61FB: 57            LD D,A
61FC: 07            RLCA
61FD: 67            LD H,A
61FE: 08            EX AF,AF'
61FF: 00            NOP
6200: 00            NOP
6201: 00            NOP
6202: 00            NOP
6203: 00            NOP
6204: 00            NOP
6205: 1B            DEC DE
6206: 11 1B 00      LD DE,001Bh
6209: 0F            RRCA
620A: 00            NOP
620B: 03            INC BC
620C: 00            NOP
620D: 0E 0E         LD C,0Eh
620F: 0E 8E         LD C,8Eh
6211: 20 01         JR NZ,loc_6214
6213: 10 10         DJNZ loc_6225
6215: 00            NOP
6216: F1            POP AF
6217: 30 00         JR NC,loc_6219

loc_6219:
6219: 08            EX AF,AF'
621A: 01 CE 9F      LD BC,9FCEh
621D: CE 9F         ADC A,9Fh
621F: 06 12         LD B,12h
6221: 07            RLCA
6222: 86            ADD A,(HL)
6223: 09            ADD HL,BC
6224: 06 09         LD B,09h
6226: 08            EX AF,AF'
6227: 49            LD C,C
6228: 69            LD L,C
6229: 59            LD E,C
622A: F9            LD SP,HL
622B: 00            NOP
622C: 00            NOP
622D: 00            NOP
622E: 00            NOP
622F: 00            NOP
6230: 00            NOP
6231: 0C            INC C
6232: 07            RLCA
6233: 1B            DEC DE
6234: 00            NOP
6235: 03            INC BC
6236: 03            INC BC
6237: 0B            DEC BC
6238: 00            NOP
6239: 06 06         LD B,06h
623B: 06 8C         LD B,8Ch
623D: 20 01         JR NZ,loc_6240
623F: 10 10         DJNZ loc_6251
6241: 00            NOP
6242: F8            RET M
6243: 0F            RRCA
6244: 00            NOP
6245: 05            DEC B
6246: 01 1F 1E      LD BC,1E1Fh
6249: 1F            RRA
624A: 1D            DEC E
624B: 0F            RRCA
624C: 08            EX AF,AF'
624D: 0B            DEC BC
624E: 8C            ADC A,H
624F: 50            LD D,B
6250: 09            ADD HL,BC

loc_6251:
6251: 0A            LD A,(BC)
6252: 0A            LD A,(BC)
6253: 07            RLCA
6254: 07            RLCA
6255: 07            RLCA
6256: 08            EX AF,AF'
6257: 00            NOP
6258: 00            NOP
6259: 00            NOP
625A: 00            NOP
625B: 00            NOP
625C: 00            NOP
625D: 2A 0B 21      LD HL,(210Bh)
6260: 00            NOP
6261: 00            NOP
6262: 00            NOP

loc_6263:
6263: 00            NOP
6264: 00            NOP
6265: 0E 04         LD C,04h
6267: 0E 8A         LD C,8Ah
6269: 20 01         JR NZ,loc_626C
626B: 10 10         DJNZ loc_627D
626D: 00            NOP
626E: E0            RET PO
626F: 23            INC HL
6270: 61            LD H,C
6271: 31 71 CC      LD SP,CC71h
6274: 1B            DEC DE
6275: 13            INC DE
6276: 1F            RRA
6277: 0F            RRCA
6278: 0C            INC C
6279: 0F            RRCA
627A: 85            ADD A,L
627B: 0F            RRCA
627C: 0D            DEC C

loc_627D:
627D: 0F            RRCA
627E: 01 00 00      LD BC,0000h
6281: 00            NOP
6282: 08            EX AF,AF'
6283: 00            NOP
6284: F0            RET P
6285: 83            ADD A,E
6286: 00            NOP
6287: 01 82 0C      LD BC,0C82h
628A: 0C            INC C
628B: 0A            LD A,(BC)
628C: 00 00 00 00...DB 00h ; x8
6294: 8E            ADC A,(HL)
6295: 20 01         JR NZ,loc_6298
6297: 10 10         DJNZ loc_62A9
6299: 00            NOP
629A: FA 32 72      JP M,loc_7232
629D: 71            LD (HL),C
629E: 01 1F 1F      LD BC,1F1Fh
62A1: 1F            RRA
62A2: 1F            RRA
62A3: 00            NOP
62A4: 00            NOP
62A5: 00            NOP
62A6: 80            ADD A,B
62A7: 00            NOP
62A8: 00            NOP

loc_62A9:
62A9: 00            NOP
62AA: 01 03 03      LD BC,0303h
62AD: 03            INC BC
62AE: 08            EX AF,AF'
62AF: 00            NOP
62B0: 00            NOP
62B1: 00            NOP
62B2: 00            NOP
62B3: 00            NOP
62B4: 00            NOP
62B5: 16 11         LD D,11h
62B7: 11 00 00      LD DE,0000h
62BA: 00            NOP
62BB: 00            NOP
62BC: 00            NOP
62BD: 0E 0E         LD C,0Eh
62BF: 0E 8E         LD C,8Eh
62C1: 20 01         JR NZ,loc_62C4
62C3: 10 10         DJNZ loc_62D5
62C5: F4 FA 74      CALL P,sub_74FA
62C8: 51            LD D,C
62C9: 10 71         DJNZ loc_633C
62CB: 9F            SBC A,A
62CC: 5F            LD E,A
62CD: 1F            RRA
62CE: 1F            RRA

loc_62CF:
62CF: 1F            RRA
62D0: 1F            RRA
62D1: 1F            RRA
62D2: 9F            SBC A,A
62D3: 04            INC B
62D4: 00            NOP

loc_62D5:
62D5: 04            INC B
62D6: 00            NOP
62D7: 03            INC BC
62D8: 03            INC BC
62D9: 03            INC BC
62DA: 08            EX AF,AF'
62DB: 00            NOP
62DC: B9            CP C
62DD: 80            ADD A,B
62DE: 7F            LD A,A
62DF: 30 82         JR NC,loc_6263
62E1: 07            RLCA
62E2: 0B            DEC BC
62E3: 02            LD (BC),A
62E4: 00            NOP
62E5: 0C            INC C
62E6: 08            EX AF,AF'
62E7: 08            EX AF,AF'
62E8: 00            NOP
62E9: 00            NOP
62EA: 00            NOP
62EB: 00            NOP
62EC: 8E            ADC A,(HL)
62ED: 20 01         JR NZ,loc_62F0
62EF: 10 10         DJNZ loc_6301
62F1: F4 EB 35      CALL P,sub_35EB
62F4: 71            LD (HL),C
62F5: 03            INC BC
62F6: 01 9F 9F      LD BC,9F9Fh
62F9: 9F            SBC A,A
62FA: 9F            SBC A,A
62FB: 05            DEC B
62FC: 06 0B         LD B,0Bh
62FE: 8B            ADC A,E
62FF: 04            INC B
6300: 03            INC BC

loc_6301:
6301: 06 04         LD B,04h
6303: F3            DI
6304: 56            LD D,(HL)
6305: B3            OR E
6306: 14            INC D
6307: 00            NOP
6308: C8            RET Z
6309: 80            ADD A,B
630A: FF            RST 38h
630B: 10 C2         DJNZ loc_62CF
630D: 0C            INC C
630E: 11 19 00      LD DE,0019h
6311: 0F            RRCA
6312: 0F            RRCA

loc_6313:
6313: 0F            RRCA
6314: 83            ADD A,E
6315: 06 0A         LD B,0Ah
6317: 08            EX AF,AF'
6318: 8E            ADC A,(HL)
6319: 20 01         JR NZ,loc_631C
631B: 10 10         DJNZ loc_632D
631D: 00            NOP
631E: F2 35 52      JP P,loc_5235
6321: 60            LD H,B
6322: 01 9F 9C      LD BC,9C9Fh
6325: DE DA         SBC A,DAh
6327: 0A            LD A,(BC)
6328: 0A            LD A,(BC)
6329: 19            ADD HL,DE
632A: 82            ADD A,D
632B: 05            DEC B
632C: 03            INC BC

loc_632D:
632D: 0A            LD A,(BC)
632E: 00            NOP
632F: 13            INC DE

loc_6330:
6330: 02            LD (BC),A
6331: F3            DI
6332: 53            LD D,E
6333: 00            NOP
6334: 00            NOP
6335: 00            NOP
6336: 00            NOP
6337: 00            NOP
6338: 00            NOP
6339: 0F            RRCA
633A: 0C            INC C
633B: 00            NOP

loc_633C:
633C: 00            NOP
633D: 06 0F         LD B,0Fh
633F: 0F            RRCA
6340: 00            NOP
6341: 0C            INC C
6342: 0C            INC C
6343: 0C            INC C
6344: 8E            ADC A,(HL)
6345: 20 01         JR NZ,loc_6348
6347: 10 10         DJNZ loc_6359
6349: 00            NOP
634A: FA 04 01      JP M,loc_0104
634D: 0C            INC C
634E: 01 1F 1F      LD BC,1F1Fh
6351: 1F            RRA
6352: 1F            RRA
6353: 0D            DEC C
6354: 10 15         DJNZ loc_636B
6356: 8B            ADC A,E
6357: C0            RET NZ
6358: 80            ADD A,B

loc_6359:
6359: 80            ADD A,B
635A: 00            NOP
635B: F5            PUSH AF
635C: F5            PUSH AF
635D: F5            PUSH AF
635E: F7            RST 30h
635F: 00            NOP
6360: D4 87 3D      CALL NC,sub_3D87
6363: 31 83 1C      LD SP,1C83h
6366: 1E 27         LD E,27h
6368: 00            NOP
6369: 00            NOP
636A: 00            NOP

loc_636B:
636B: 00            NOP
636C: 00            NOP
636D: 00            NOP
636E: 00            NOP
636F: 00            NOP
6370: 8E            ADC A,(HL)
6371: 20 01         JR NZ,loc_6374
6373: 10 10         DJNZ loc_6385
6375: 00            NOP
6376: FC 36 7D      CALL M,sub_7D36
6379: 31 72 1F      LD SP,1F72h
637C: 1F            RRA
637D: 1A            LD A,(DE)
637E: 1B            DEC DE
637F: 0D            DEC C
6380: 0B            DEC BC
6381: 8C            ADC A,H
6382: 8B            ADC A,E
6383: 4A            LD C,D
6384: 49            LD C,C

loc_6385:
6385: 0B            DEC BC
6386: 0C            INC C
6387: 71            LD (HL),C
6388: 52            LD D,D
6389: 36 37         LD (HL),37h
638B: 00            NOP
638C: A0            AND B
638D: 80            ADD A,B
638E: 13            INC DE
638F: 30 82         JR NC,loc_6313
6391: 0E 15         LD C,15h
6393: 08            EX AF,AF'
6394: 00            NOP
6395: 00            NOP
6396: 00            NOP
6397: 00            NOP
6398: 00            NOP
6399: 08            EX AF,AF'
639A: 04            INC B
639B: 8E            ADC A,(HL)
639C: 8A            ADC A,D
639D: 20 01         JR NZ,loc_63A0
639F: 10 10         DJNZ loc_63B1
63A1: 0C            INC C
63A2: C6 77         ADD A,77h
63A4: 74            LD (HL),H
63A5: 32 74 07      LD (0774h),A
63A8: 07            RLCA
63A9: 07            RLCA
63AA: 08            EX AF,AF'
63AB: 05            DEC B
63AC: 85            ADD A,L
63AD: 85            ADD A,L
63AE: 85            ADD A,L
63AF: 01 61 81      LD BC,8161h
63B2: 01 55 55      LD BC,5555h
63B5: 55            LD D,L
63B6: 45            LD B,L
63B7: 00            NOP
63B8: C8            RET Z
63B9: 80            ADD A,B
63BA: FF            RST 38h
63BB: 40            LD B,B
63BC: C3 1B 11      JP loc_111B
63BF: 11 00 0A      LD DE,0A00h
63C2: 8A            ADC A,D
63C3: 00            NOP
63C4: 00            NOP
63C5: 00            NOP
63C6: 8E            ADC A,(HL)
63C7: 8E            ADC A,(HL)
63C8: 8E            ADC A,(HL)
63C9: 20 01         JR NZ,loc_63CC
63CB: 10 10         DJNZ loc_63DD
63CD: 00            NOP
63CE: C4 02 31      CALL NZ,sub_3102
63D1: 01 71 1F      LD BC,1F71h
63D4: 1A            LD A,(DE)
63D5: 18 12         JR loc_63E9
63D7: 18 02         JR loc_63DB
63D9: 99            SBC A,C
63DA: 8F            ADC A,A

loc_63DB:
63DB: 14            INC D
63DC: 0C            INC C

loc_63DD:
63DD: 0C            INC C
63DE: 0D            DEC C
63DF: 2A 3A 57      LD HL,(573Ah)
63E2: 36 00         LD (HL),00h
63E4: CF            RST 08h
63E5: 80            ADD A,B
63E6: 26 30         LD H,30h
63E8: 82            ADD A,D

loc_63E9:
63E9: 00            NOP
63EA: 31 00 00      LD SP,0000h
63ED: 00            NOP
63EE: 00            NOP

sub_63EF:
63EF: 00            NOP
63F0: 00            NOP
63F1: 00            NOP
63F2: 00            NOP
63F3: 8E            ADC A,(HL)
63F4: 8E            ADC A,(HL)
63F5: 20 01         JR NZ,loc_63F8
63F7: 10 10         DJNZ loc_6409
63F9: 00            NOP
63FA: F6 09         OR 09h
63FC: 01 01 01      LD BC,0101h
63FF: 1F            RRA
6400: 1F            RRA
6401: 1F            RRA
6402: 1F            RRA
6403: 11 8B 8B      LD DE,8B8Bh
6406: 8B            ADC A,E
6407: 00            NOP
6408: 00            NOP

loc_6409:
6409: 00            NOP
640A: 00            NOP
640B: F0            RET P
640C: F7            RST 30h
640D: F5            PUSH AF
640E: F5            PUSH AF
640F: 00            NOP
6410: C8            RET Z
6411: 93            SUB E
6412: 00            NOP
6413: 02            LD (BC),A
6414: 82            ADD A,D
6415: 1A            LD A,(DE)
6416: 03            INC BC
6417: 03            INC BC
6418: 03            INC BC
6419: 00            NOP
641A: 00            NOP
641B: 00            NOP
641C: 00            NOP
641D: 0E 8A         LD C,8Ah
641F: 8A            ADC A,D
6420: 8A            ADC A,D
6421: 20 01         JR NZ,loc_6424
6423: 10 10         DJNZ loc_6435
6425: 00            NOP
6426: FD            DB FDh ; prefix (nop)
6427: 03            INC BC
6428: 0A            LD A,(BC)
6429: 02            LD (BC),A
642A: 0F            RRCA
642B: 1F            RRA
642C: 1F            RRA
642D: 1F            RRA
642E: 1F            RRA
642F: 1D            DEC E
6430: 8D            ADC A,L

loc_6431:
6431: 8C            ADC A,H
6432: 8E            ADC A,(HL)
6433: 40            LD B,B
6434: 00            NOP

loc_6435:
6435: 00            NOP
6436: 40            LD B,B
6437: F6 F6         OR F6h
6439: F5            PUSH AF
643A: F6 00         OR 00h
643C: 9E            SBC A,(HL)
643D: 80            ADD A,B
643E: 1E 30         LD E,30h
6440: 82            ADD A,D
6441: 00            NOP
6442: 00            NOP
6443: 00            NOP
6444: 11 80 8A      LD DE,8A80h
6447: 8F            ADC A,A
6448: 80            ADD A,B
6449: 0E 8E         LD C,8Eh
644B: 8E            ADC A,(HL)
644C: 8E            ADC A,(HL)
644D: 20 01         JR NZ,loc_6450
644F: 10 10         DJNZ loc_6461
6451: 0C            INC C
6452: FC 28 08      CALL M,sub_0828
6455: 61            LD H,C
6456: 01 1F 1F      LD BC,1F1Fh
6459: 1E 1E         LD E,1Eh
645B: 0A            LD A,(BC)
645C: 0A            LD A,(BC)
645D: 8B            ADC A,E
645E: 8B            ADC A,E
645F: 8A            ADC A,D
6460: 0A            LD A,(BC)

loc_6461:
6461: 09            ADD HL,BC
6462: 09            ADD HL,BC
6463: 65            LD H,L
6464: 65            LD H,L
6465: 26 26         LD H,26h
6467: 00            NOP
6468: F8            RET M
6469: 00            NOP
646A: 7B            LD A,E
646B: 20 03         JR NZ,loc_6470
646D: 1E 11         LD E,11h
646F: 00            NOP

loc_6470:
6470: 00            NOP
6471: 00            NOP
6472: 00            NOP
6473: 00            NOP
6474: 00            NOP
6475: 00            NOP
6476: 00            NOP
6477: 88            ADC A,B
6478: 8E            ADC A,(HL)
6479: 20 01         JR NZ,loc_647C
647B: 10 10         DJNZ loc_648D
647D: 00            NOP
647E: FF            RST 38h
647F: 02            LD (BC),A

sub_6480:
6480: 01 0C 01      LD BC,010Ch
6483: 07            RLCA
6484: 09            ADD HL,BC
6485: 0A            LD A,(BC)
6486: 08            EX AF,AF'
6487: 80            ADD A,B
6488: 80            ADD A,B
6489: 80            ADD A,B
648A: 80            ADD A,B
648B: 85            ADD A,L
648C: 09            ADD HL,BC

loc_648D:
648D: 08            EX AF,AF'
648E: 0A            LD A,(BC)
648F: 05            DEC B
6490: 04            INC B
6491: 06 04         LD B,04h
6493: 00            NOP
6494: FF            RST 38h
6495: 80            ADD A,B
6496: FF            RST 38h
6497: 70            LD (HL),B
6498: C3 1B 00      JP loc_001B
649B: 1B            DEC DE
649C: 00            NOP
649D: 00            NOP
649E: 00            NOP
649F: 00            NOP
64A0: 00            NOP
64A1: 8E            ADC A,(HL)
64A2: 8E            ADC A,(HL)
64A3: 8E            ADC A,(HL)
64A4: 8E            ADC A,(HL)
64A5: 20 01         JR NZ,loc_64A8
64A7: 10 10         DJNZ loc_64B9
64A9: F6 FC         OR FCh
64AB: 71            LD (HL),C
64AC: 31 31 72      LD SP,7231h
64AF: 0C            INC C
64B0: 0D            DEC C
64B1: 0D            DEC C
64B2: 0F            RRCA
64B3: 0E 0E         LD C,0Eh
64B5: 8C            ADC A,H
64B6: 8E            ADC A,(HL)
64B7: 00            NOP
64B8: 00            NOP

loc_64B9:
64B9: 00            NOP
64BA: 00            NOP
64BB: 07            RLCA
64BC: 07            RLCA
64BD: 08            EX AF,AF'
64BE: 08            EX AF,AF'
64BF: 00            NOP
64C0: C8            RET Z
64C1: 85            ADD A,L
64C2: 50            LD D,B
64C3: 42            LD B,D
64C4: 82            ADD A,D
64C5: 24            INC H
64C6: 2B            DEC HL
64C7: 00            NOP
64C8: 00            NOP
64C9: 00            NOP
64CA: 00            NOP

loc_64CB:
64CB: 00            NOP

loc_64CC:
64CC: 00            NOP
64CD: 00            NOP
64CE: 00            NOP
64CF: 8E            ADC A,(HL)
64D0: 8E            ADC A,(HL)
64D1: 20 01         JR NZ,loc_64D4
64D3: 10 10         DJNZ loc_64E5
64D5: 00            NOP
64D6: FA 31 71      JP M,sub_7131
64D9: 65            LD H,L
64DA: 51            LD D,C
64DB: 8D            ADC A,L
64DC: 15            DEC D
64DD: 4F            LD C,A
64DE: 52            LD D,D
64DF: 06 0E         LD B,0Eh
64E1: 08            EX AF,AF'
64E2: 83            ADD A,E
64E3: 02            LD (BC),A
64E4: 01 01 01      LD BC,0101h
64E7: 18 28         JR loc_6511
64E9: 18 28         JR loc_6513
64EB: 00            NOP
64EC: C8            RET Z
64ED: 80            ADD A,B
64EE: 1E 21         LD E,21h
64F0: 82            ADD A,D
64F1: 2F            CPL
64F2: 13            INC DE
64F3: 11 00 05      LD DE,0500h
64F6: 04            INC B
64F7: 04            INC B
64F8: 82            ADD A,D
64F9: 0A            LD A,(BC)
64FA: 0A            LD A,(BC)
64FB: 0A            LD A,(BC)
64FC: 88            ADC A,B
64FD: 20 01         JR NZ,loc_6500
64FF: 10 10         DJNZ loc_6511
6501: 00            NOP
6502: F4 32 72      CALL P,loc_7232
6505: 71            LD (HL),C
6506: 31 1F 1F      LD SP,1F1Fh
6509: 17            RLA
650A: 17            RLA
650B: 00            NOP
650C: 00            NOP
650D: 80            ADD A,B
650E: 80            ADD A,B
650F: 00            NOP
6510: 00            NOP

loc_6511:
6511: 00            NOP
6512: 00            NOP

loc_6513:
6513: 03            INC BC
6514: 03            INC BC
6515: 0A            LD A,(BC)
6516: 0A            LD A,(BC)
6517: 00            NOP
6518: CB 85         RES 0,L
651A: EE 21         XOR 21h
651C: C2 1B 11      JP NZ,loc_111B
651F: 00            NOP
6520: 00            NOP
6521: 00            NOP
6522: 00            NOP
6523: 83            ADD A,E
6524: 83            ADD A,E
6525: 00            NOP
6526: 00            NOP
6527: 8E            ADC A,(HL)
6528: 8E            ADC A,(HL)
6529: 20 01         JR NZ,loc_652C
652B: 10 10         DJNZ loc_653D
652D: 00            NOP
652E: E1            POP HL
652F: 36 73         LD (HL),73h
6531: 73            LD (HL),E
6532: 71            LD (HL),C
6533: 10 14         DJNZ loc_6549
6535: 14            INC D
6536: 54            LD D,H
6537: 0C            INC C
6538: 0D            DEC C
6539: 0F            RRCA
653A: 89            ADC A,C
653B: 1F            RRA
653C: 01 01 0B      LD BC,0B01h
653F: 9F            SBC A,A
6540: 28 8A         JR Z,loc_64CC
6542: D9            EXX
6543: 00            NOP
6544: CA 85 43      JP Z,loc_4385
6547: 20 82         JR NZ,loc_64CB

loc_6549:
6549: 26 1B         LD H,1Bh
654B: 24            INC H
654C: 00            NOP
654D: 00            NOP
654E: 07            RLCA
654F: 00            NOP
6550: 00            NOP
6551: 04            INC B
6552: 0C            INC C
6553: 0A            LD A,(BC)
6554: 8E            ADC A,(HL)
6555: 20 01         JR NZ,loc_6558
6557: 10 10         DJNZ loc_6569
6559: 0C            INC C
655A: C8            RET Z
655B: 77            LD (HL),A
655C: 37            SCF
655D: 32 72 1F      LD (1F72h),A
6560: 1F            RRA
6561: 1F            RRA
6562: 1F            RRA

loc_6563:
6563: 00            NOP
6564: 00            NOP
6565: 00            NOP
6566: 80            ADD A,B
6567: 00            NOP
6568: 00            NOP

loc_6569:
6569: 00            NOP
656A: 00            NOP
656B: 00            NOP
656C: 00            NOP
656D: F5            PUSH AF
656E: F5            PUSH AF
656F: 00            NOP
6570: 00            NOP
6571: 00            NOP
6572: 00            NOP
6573: 00            NOP
6574: 00            NOP
6575: 16 16         LD D,16h
6577: 1B            DEC DE
6578: 00            NOP
6579: 00            NOP
657A: 00            NOP
657B: 00            NOP
657C: 00            NOP
657D: 00            NOP
657E: 00            NOP
657F: 0E 8E         LD C,8Eh
6581: 20 01         JR NZ,loc_6584
6583: 10 10         DJNZ loc_6595
6585: F4 FC 7A      CALL P,sub_7AFC
6588: 3C            INC A
6589: 22 24 1F      LD (1F24h),HL
658C: 1F            RRA
658D: 1F            RRA
658E: 1F            RRA
658F: 11 0B 8B      LD DE,8B0Bh
6592: 8B            ADC A,E
6593: 00            NOP
6594: 00            NOP

loc_6595:
6595: 00            NOP
6596: 00            NOP
6597: F1            POP AF
6598: F5            PUSH AF
6599: F5            PUSH AF
659A: F5            PUSH AF
659B: 00            NOP
659C: B5            OR L
659D: 80            ADD A,B
659E: DD            DB DDh ; prefix (nop)
659F: 20 C2         JR NZ,loc_6563
65A1: 0E 04         LD C,04h
65A3: 00            NOP
65A4: 00            NOP
65A5: 00            NOP
65A6: 00            NOP
65A7: 00            NOP
65A8: 00            NOP
65A9: 0E 0A         LD C,0Ah
65AB: 8A            ADC A,D
65AC: 8A            ADC A,D
65AD: 20 01         JR NZ,loc_65B0
65AF: 10 10         DJNZ loc_65C1
65B1: 00            NOP
65B2: C4 77 37      CALL NZ,sub_3777
65B5: 72            LD (HL),D
65B6: 32 12 12      LD (1212h),A
65B9: 12            LD (DE),A
65BA: 12            LD (DE),A
65BB: 0A            LD A,(BC)
65BC: 0A            LD A,(BC)
65BD: 8A            ADC A,D
65BE: 8A            ADC A,D
65BF: 00            NOP
65C0: 00            NOP

loc_65C1:
65C1: 00            NOP
65C2: 00            NOP
65C3: F5            PUSH AF
65C4: F5            PUSH AF
65C5: F5            PUSH AF
65C6: F5            PUSH AF
65C7: 00            NOP
65C8: 9F            SBC A,A
65C9: 80            ADD A,B
65CA: 28 30         JR Z,loc_65FC
65CC: 82            ADD A,D
65CD: 1B            DEC DE
65CE: 1B            DEC DE
65CF: 00            NOP
65D0: 00            NOP
65D1: 00            NOP
65D2: 00            NOP
65D3: 00            NOP
65D4: 00            NOP
65D5: 0E 0E         LD C,0Eh
65D7: 8E            ADC A,(HL)
65D8: 8E            ADC A,(HL)
65D9: 20 01         JR NZ,loc_65DC
65DB: 10 10         DJNZ loc_65ED
65DD: 00            NOP
65DE: EC 74 34      CALL PE,sub_3474
65E1: 72            LD (HL),D
65E2: 32 1F 1F      LD (1F1Fh),A
65E5: 10 10         DJNZ loc_65F7
65E7: 00            NOP
65E8: 00            NOP
65E9: 88            ADC A,B
65EA: 88            ADC A,B
65EB: 00            NOP
65EC: 00            NOP

loc_65ED:
65ED: 00            NOP
65EE: 00            NOP
65EF: 05            DEC B
65F0: 05            DEC B
65F1: 56            LD D,(HL)
65F2: 56            LD D,(HL)
65F3: 00            NOP
65F4: BC            CP H
65F5: 89            ADC A,C
65F6: 00            NOP

loc_65F7:
65F7: 02            LD (BC),A
65F8: 82            ADD A,D
65F9: 1B            DEC DE
65FA: 1B            DEC DE
65FB: 00            NOP

loc_65FC:
65FC: 00            NOP
65FD: 05            DEC B
65FE: 05            DEC B
65FF: 85            ADD A,L
6600: 85            ADD A,L
6601: 00            NOP
6602: 00            NOP
6603: 8E            ADC A,(HL)
6604: 8E            ADC A,(HL)
6605: 20 01         JR NZ,loc_6608
6607: 10 10         DJNZ loc_6619
6609: 00            NOP
660A: FE 0F         CP 0Fh
660C: 04            INC B
660D: 03            INC BC
660E: 01 1F 1F      LD BC,1F1Fh
6611: 1F            RRA
6612: 1F            RRA
6613: 00            NOP
6614: 8C            ADC A,H
6615: 8A            ADC A,D
6616: 8D            ADC A,L
6617: C0            RET NZ
6618: 40            LD B,B

loc_6619:
6619: 40            LD B,B
661A: 00            NOP
661B: 02            LD (BC),A
661C: F7            RST 30h
661D: F7            RST 30h
661E: F7            RST 30h
661F: 00            NOP
6620: FF            RST 38h
6621: 80            ADD A,B
6622: FF            RST 38h
6623: 70            LD (HL),B
6624: C3 1B 00      JP loc_001B
6627: 00            NOP
6628: 00            NOP
6629: 00            NOP
662A: 00            NOP
662B: 00            NOP
662C: 00            NOP
662D: 0E 8E         LD C,8Eh
662F: 8E            ADC A,(HL)
6630: 8E            ADC A,(HL)
6631: 20 01         JR NZ,loc_6634
6633: 10 10         DJNZ loc_6645
6635: 0C            INC C
6636: C7            RST 00h
6637: 01 01 01      LD BC,0101h
663A: 00            NOP
663B: 1F            RRA
663C: 1F            RRA
663D: 1F            RRA
663E: 1F            RRA
663F: 8A            ADC A,D
6640: 8A            ADC A,D
6641: 8A            ADC A,D
6642: 8A            ADC A,D
6643: 00            NOP
6644: 00            NOP

loc_6645:
6645: 00            NOP
6646: 00            NOP
6647: F6 F6         OR F6h
6649: F6 F6         OR F6h
664B: 00            NOP
664C: C8            RET Z
664D: 80            ADD A,B
664E: FF            RST 38h
664F: 70            LD (HL),B
6650: C3 00 00      JP sub_0000
6653: 00            NOP
6654: 00            NOP
6655: 00            NOP
6656: 00            NOP
6657: 00            NOP
6658: 00            NOP
6659: 80            ADD A,B
665A: 8E            ADC A,(HL)
665B: 8E            ADC A,(HL)
665C: 8E            ADC A,(HL)
665D: 20 01         JR NZ,loc_6660
665F: 10 10         DJNZ loc_6671
6661: 0C            INC C
6662: F4 33 35      CALL P,sub_3533
6665: 21 12 14      LD HL,1412h
6668: 14            INC D
6669: 1F            RRA
666A: 1F            RRA
666B: 17            RLA
666C: 19            ADD HL,DE
666D: 8F            ADC A,A
666E: 8F            ADC A,A
666F: 1C            INC E
6670: 40            LD B,B

loc_6671:
6671: 0A            LD A,(BC)
6672: 08            EX AF,AF'
6673: 08            EX AF,AF'
6674: F0            RET P
6675: 08            EX AF,AF'
6676: 08            EX AF,AF'
6677: 00            NOP
6678: 8C            ADC A,H
6679: 80            ADD A,B
667A: E4 11 C2      CALL PO,C211h
667D: 07            RLCA
667E: 00 00 00 00...DB 00h ; x9
6687: 84            ADD A,H
6688: 84            ADD A,H
6689: 20 01         JR NZ,loc_668C
668B: 10 10         DJNZ loc_669D
668D: E8            RET PE
668E: FD 34 60      INC (IY+60h)
6691: 30 70         JR NC,loc_6703
6693: 1F            RRA
6694: 1C            INC E
6695: 1F            RRA
6696: 1F            RRA
6697: 14            INC D
6698: 90            SUB B
6699: 90            SUB B
669A: 90            SUB B
669B: C6 4C         ADD A,4Ch

loc_669D:
669D: 92            SUB D
669E: 4C            LD C,H
669F: 02            LD (BC),A
66A0: 06 06         LD B,06h
66A2: 06 00         LD B,00h
66A4: 00            NOP
66A5: 00            NOP
66A6: 00            NOP
66A7: 00            NOP
66A8: 00            NOP
66A9: 00            NOP
66AA: 04            INC B
66AB: 04            INC B
66AC: 04            INC B
66AD: 00            NOP
66AE: 00            NOP
66AF: 00            NOP
66B0: 00            NOP
66B1: 00            NOP
66B2: 86            ADD A,(HL)
66B3: 86            ADD A,(HL)
66B4: 86            ADD A,(HL)
66B5: 20 01         JR NZ,loc_66B8
66B7: 10 10         DJNZ loc_66C9
66B9: 00            NOP
66BA: FD            DB FDh ; prefix (nop)
66BB: 3F            CCF
66BC: 2F            CPL
66BD: 0F            RRCA
66BE: 01 1A 17      LD BC,171Ah
66C1: 1F            RRA
66C2: 1F            RRA
66C3: 0E 94         LD C,94h
66C5: 98            SBC A,B
66C6: 97            SUB A
66C7: C9            RET
66C8: 40            LD B,B

loc_66C9:
66C9: 99            SBC A,C
66CA: 52            LD D,D
66CB: C2 F9 A8      JP NZ,A8F9h
66CE: F9            LD SP,HL
66CF: 00 00 00 00...DB 00h ; x8
66D7: 01 00 00      LD BC,0000h
66DA: 00            NOP
66DB: 00            NOP
66DC: 00            NOP
66DD: 00            NOP
66DE: 88            ADC A,B
66DF: 8A            ADC A,D
66E0: 8E            ADC A,(HL)
66E1: 20 01         JR NZ,loc_66E4
66E3: 10 10         DJNZ loc_66F5
66E5: 18 FD         JR loc_66E4
66E7: 30 20         JR NC,loc_6709
66E9: 70            LD (HL),B
66EA: 30 1A         JR NC,loc_6706
66EC: 17            RLA
66ED: 1F            RRA
66EE: 1F            RRA
66EF: 02            LD (BC),A
66F0: 8F            ADC A,A
66F1: 8F            ADC A,A
66F2: 90            SUB B
66F3: C9            RET

loc_66F4:
66F4: 40            LD B,B

loc_66F5:
66F5: 99            SBC A,C
66F6: 52            LD D,D
66F7: 02            LD (BC),A
66F8: F9            LD SP,HL
66F9: 28 F9         JR Z,loc_66F4
66FB: 00            NOP
66FC: 00            NOP
66FD: 00            NOP
66FE: 00            NOP
66FF: 00            NOP
6700: 00            NOP
6701: 00            NOP
6702: 02            LD (BC),A

loc_6703:
6703: 02            LD (BC),A
6704: 01 00 00      LD BC,0000h
6707: 00            NOP
6708: 00            NOP

loc_6709:
6709: 00            NOP
670A: 88            ADC A,B
670B: 80            ADD A,B
670C: 8E            ADC A,(HL)
670D: 20 01         JR NZ,loc_6710
670F: 10 10         DJNZ loc_6721
6711: 00            NOP
6712: FC 2F 33      CALL M,sub_332F
6715: 30 31         JR NC,loc_6748
6717: 1F            RRA
6718: 1F            RRA
6719: 1F            RRA
671A: 1F            RRA
671B: 14            INC D
671C: 1F            RRA

loc_671D:
671D: 91            SUB C
671E: 92            SUB D
671F: 04            INC B
6720: 40            LD B,B

loc_6721:
6721: 14            INC D
6722: 11 08 F8      LD DE,F808h
6725: 6C            LD L,H
6726: FA 00 00      JP M,sub_0000
6729: 00            NOP
672A: 00            NOP
672B: 00            NOP
672C: 00            NOP
672D: 00            NOP
672E: 00            NOP
672F: 02            LD (BC),A
6730: 00            NOP
6731: 00            NOP
6732: 00            NOP
6733: 00            NOP
6734: 00            NOP
6735: 00            NOP
6736: 00            NOP

loc_6737:
6737: 8E            ADC A,(HL)
6738: 8E            ADC A,(HL)
6739: 20 01         JR NZ,loc_673C
673B: 10 10         DJNZ loc_674D
673D: F8            RET M
673E: C1            POP BC
673F: 00            NOP
6740: 30 3F         JR NC,loc_6781
6742: 70            LD (HL),B
6743: 0A            LD A,(BC)
6744: 1F            RRA
6745: 1F            RRA
6746: 1F            RRA
6747: 1F            RRA

loc_6748:
6748: 0F            RRCA
6749: 1F            RRA
674A: 90            SUB B
674B: E0            RET PO
674C: 60            LD H,B

loc_674D:
674D: C0            RET NZ
674E: 00            NOP
674F: FF            RST 38h
6750: F0            RET P
6751: FF            RST 38h
6752: FF            RST 38h
6753: 00            NOP
6754: 00            NOP
6755: 00            NOP
6756: 00            NOP
6757: 00            NOP
6758: 00            NOP
6759: 11 00 25      LD DE,2500h
675C: 00 00 00 00...DB 00h ; x8
6764: 8E            ADC A,(HL)
6765: 20 01         JR NZ,loc_6768
6767: 10 10         DJNZ loc_6779
6769: B0            OR B
676A: C7            RST 00h
676B: 01 01 01      LD BC,0101h
676E: 00            NOP
676F: 1F            RRA
6770: 1F            RRA
6771: 1F            RRA
6772: 1F            RRA
6773: 8A            ADC A,D
6774: 8A            ADC A,D
6775: 8A            ADC A,D
6776: 8A            ADC A,D
6777: 00            NOP
6778: 00            NOP

loc_6779:
6779: 00            NOP
677A: 00            NOP
677B: F6 F6         OR F6h
677D: 06 F6         LD B,F6h
677F: 00            NOP
6780: B4            OR H

loc_6781:
6781: 80            ADD A,B
6782: FF            RST 38h
6783: 70            LD (HL),B
6784: C3 00 00      JP sub_0000
6787: 00            NOP
6788: 00            NOP
6789: 00            NOP
678A: 00            NOP
678B: 00            NOP
678C: 00            NOP
678D: 80            ADD A,B
678E: 8E            ADC A,(HL)
678F: 8E            ADC A,(HL)
6790: 8E            ADC A,(HL)
6791: 20 01         JR NZ,loc_6794
6793: 10 10         DJNZ loc_67A5
6795: F4 40 80      CALL P,8040h
6798: 16 74         LD D,74h
679A: 00            NOP
679B: 10 80         DJNZ loc_671D
679D: 16 7C         LD D,7Ch
679F: 10 40         DJNZ loc_67E1
67A1: 80            ADD A,B
67A2: 16 7E         LD D,7Eh
67A4: 10 20         DJNZ loc_67C6
67A6: 00            NOP
67A7: 16 80         LD D,80h
67A9: 10 08         DJNZ loc_67B3
67AB: 09            ADD HL,BC
67AC: 00            NOP
67AD: 16 86         LD D,86h
67AF: F0            RET P
67B0: 48            LD C,B
67B1: 80            ADD A,B
67B2: 16 6E         LD D,6Eh
67B4: F0            RET P
67B5: 30 80         JR NC,loc_6737
67B7: 16 70         LD D,70h
67B9: F0            RET P
67BA: 10 80         DJNZ loc_673C
67BC: 16 76         LD D,76h
67BE: 00            NOP
67BF: 40            LD B,B
67C0: 80            ADD A,B
67C1: 16 78         LD D,78h
67C3: 00            NOP
67C4: 20 00         JR NZ,loc_67C6

loc_67C6:
67C6: 16 7A         LD D,7Ah
67C8: 00            NOP
67C9: 08            EX AF,AF'
67CA: 00            NOP
67CB: 16 81         LD D,81h
67CD: 10 48         DJNZ loc_6817
67CF: 80            ADD A,B
67D0: 16 82         LD D,82h
67D2: 10 30         DJNZ loc_6804
67D4: 80            ADD A,B
67D5: 16 84         LD D,84h
67D7: 10 10         DJNZ loc_67E9
67D9: 00 00 00 00...DB 00h ; x8

loc_67E1:
67E1: 00            NOP
67E2: 00            NOP
67E3: 00            NOP
67E4: 00            NOP
67E5: 00            NOP
67E6: 00            NOP
67E7: 00            NOP
67E8: 00            NOP

loc_67E9:
67E9: 00            NOP
67EA: 00            NOP
67EB: 00 00 00 00...DB 00h ; x25

loc_6804:
6804: 00            NOP
6805: 00            NOP
6806: 00 00 00 00...DB 00h ; x17

loc_6817:
6817: 00            NOP
6818: 00            NOP
6819: 00 00 00 00...DB 00h ; x119

loc_6890:
6890: 00            NOP

loc_6891:
6891: 00            NOP
6892: 00            NOP
6893: 00            NOP
6894: 00            NOP
6895: 00            NOP

loc_6896:
6896: 00            NOP
6897: 00            NOP
6898: 00            NOP
6899: 00            NOP
689A: 00            NOP

loc_689B:
689B: 00            NOP
689C: 00            NOP
689D: 00            NOP
689E: 00            NOP
689F: 00            NOP

sub_68A0:
68A0: 00            NOP
68A1: 00            NOP
68A2: 00 00 00 00...DB 00h ; x9

loc_68AB:
68AB: 00            NOP
68AC: 00            NOP
68AD: 00 00 00 00...DB 00h ; x8

loc_68B5:
68B5: 00            NOP
68B6: 00            NOP
68B7: 00 00 00 00...DB 00h ; x8

loc_68BF:
68BF: 00            NOP
68C0: 00            NOP
68C1: 00 00 00 00...DB 00h ; x29

loc_68DE:
68DE: 00            NOP
68DF: 00            NOP
68E0: 00 00 00 00...DB 00h ; x8

loc_68E8:
68E8: 00            NOP
68E9: 00            NOP
68EA: 00 00 00 00...DB 00h ; x8

loc_68F2:
68F2: 00            NOP
68F3: 00            NOP
68F4: 00 00 00 00...DB 00h ; x12
6900: 0A            LD A,(BC)
6901: 69            LD L,C
6902: 1F            RRA
6903: 69            LD L,C
6904: 52            LD D,D
6905: 69            LD L,C
6906: 85            ADD A,L
6907: 69            LD L,C
6908: B8            CP B
6909: 69            LD L,C
690A: 04            INC B
690B: 80            ADD A,B

loc_690C:
690C: 16 14         LD D,14h
690E: F8            RET M
690F: 30 80         JR NC,loc_6891

loc_6911:
6911: 16 16         LD D,16h
6913: F8            RET M
6914: 10 80         DJNZ loc_6896

loc_6916:
6916: 16 18         LD D,18h
6918: 08            EX AF,AF'
6919: 30 80         JR NC,loc_689B
691B: 16 1A         LD D,1Ah
691D: 08            EX AF,AF'
691E: 10 0A         DJNZ loc_692A
6920: 80            ADD A,B
6921: 16 1C         LD D,1Ch
6923: E8            RET PE
6924: 40            LD B,B
6925: 80            ADD A,B
6926: 16 1E         LD D,1Eh
6928: E8            RET PE
6929: 20 80         JR NZ,loc_68AB
692B: 16 20         LD D,20h
692D: F8            RET M
692E: 40            LD B,B
692F: 80            ADD A,B
6930: 16 22         LD D,22h
6932: F8            RET M
6933: 20 80         JR NZ,loc_68B5
6935: 16 24         LD D,24h
6937: 08            EX AF,AF'
6938: 40            LD B,B
6939: 80            ADD A,B
693A: 16 26         LD D,26h
693C: 08            EX AF,AF'
693D: 20 80         JR NZ,loc_68BF
693F: 16 28         LD D,28h
6941: 18 40         JR loc_6983
6943: 80            ADD A,B
6944: 16 2A         LD D,2Ah
6946: 18 20         JR loc_6968
6948: 00            NOP
6949: 16 17         LD D,17h
694B: F8            RET M
694C: 08            EX AF,AF'
694D: 00            NOP
694E: 16 1B         LD D,1Bh
6950: 08            EX AF,AF'
6951: 08            EX AF,AF'
6952: 0A            LD A,(BC)
6953: 80            ADD A,B
6954: 16 2C         LD D,2Ch
6956: E8            RET PE
6957: 40            LD B,B
6958: 80            ADD A,B
6959: 16 2E         LD D,2Eh
695B: E8            RET PE
695C: 20 80         JR NZ,loc_68DE
695E: 16 30         LD D,30h
6960: F8            RET M
6961: 40            LD B,B
6962: 80            ADD A,B
6963: 16 32         LD D,32h
6965: F8            RET M
6966: 20 80         JR NZ,loc_68E8

loc_6968:
6968: 16 34         LD D,34h
696A: 08            EX AF,AF'
696B: 40            LD B,B
696C: 80            ADD A,B
696D: 16 36         LD D,36h
696F: 08            EX AF,AF'
6970: 20 80         JR NZ,loc_68F2
6972: 16 38         LD D,38h
6974: 18 40         JR loc_69B6
6976: 80            ADD A,B
6977: 16 3A         LD D,3Ah
6979: 18 20         JR loc_699B
697B: 00            NOP
697C: 16 17         LD D,17h
697E: F8            RET M
697F: 08            EX AF,AF'
6980: 00            NOP
6981: 16 1B         LD D,1Bh

loc_6983:
6983: 08            EX AF,AF'
6984: 08            EX AF,AF'
6985: 0A            LD A,(BC)
6986: 80            ADD A,B
6987: 16 3C         LD D,3Ch
6989: E8            RET PE
698A: 30 80         JR NC,loc_690C
698C: 16 3E         LD D,3Eh
698E: F8            RET M
698F: 30 80         JR NC,loc_6911
6991: 16 40         LD D,40h
6993: 08            EX AF,AF'
6994: 30 80         JR NC,loc_6916
6996: 16 42         LD D,42h
6998: 18 30         JR loc_69CA
699A: 00            NOP

loc_699B:
699B: 16 44         LD D,44h
699D: E8            RET PE
699E: 18 00         JR loc_69A0

loc_69A0:
69A0: 16 45         LD D,45h
69A2: F8            RET M
69A3: 18 00         JR loc_69A5

loc_69A5:
69A5: 16 46         LD D,46h
69A7: 08            EX AF,AF'
69A8: 18 00         JR loc_69AA

loc_69AA:
69AA: 16 47         LD D,47h
69AC: 18 18         JR loc_69C6
69AE: 00            NOP
69AF: 16 17         LD D,17h
69B1: F8            RET M
69B2: 08            EX AF,AF'
69B3: 00            NOP
69B4: 16 1B         LD D,1Bh

loc_69B6:
69B6: 08            EX AF,AF'
69B7: 08            EX AF,AF'
69B8: 04            INC B
69B9: 00            NOP
69BA: 16 48         LD D,48h
69BC: F8            RET M
69BD: 18 00         JR loc_69BF

loc_69BF:
69BF: 16 49         LD D,49h
69C1: 08            EX AF,AF'
69C2: 18 00         JR loc_69C4

loc_69C4:
69C4: 16 17         LD D,17h

loc_69C6:
69C6: F8            RET M
69C7: 08            EX AF,AF'
69C8: 00            NOP
69C9: 16 1B         LD D,1Bh
69CB: 08            EX AF,AF'
69CC: 08            EX AF,AF'
69CD: 00 00 00 00...DB 00h ; x190

loc_6A8B:
6A8B: 00            NOP
6A8C: 00            NOP
6A8D: 00 00 00 00...DB 00h ; x115
6B00: 04            INC B
6B01: 6B            LD L,E
6B02: 0F            RRCA
6B03: 6B            LD L,E
6B04: 02            LD (BC),A
6B05: 80            ADD A,B
6B06: 16 10         LD D,10h
6B08: 08            EX AF,AF'
6B09: 10 80         DJNZ loc_6A8B
6B0B: 16 0E         LD D,0Eh
6B0D: F8            RET M
6B0E: 10 01         DJNZ loc_6B11
6B10: 80            ADD A,B

loc_6B11:
6B11: 16 12         LD D,12h
6B13: 00            NOP
6B14: 10 00         DJNZ loc_6B16

loc_6B16:
6B16: 00            NOP
6B17: 00            NOP
6B18: 00 00 00 00...DB 00h ; x375

loc_6C8F:
6C8F: 00            NOP
6C90: 00            NOP
6C91: 00 00 00 00...DB 00h ; x44

loc_6CBD:
6CBD: 00            NOP
6CBE: 00            NOP
6CBF: 00 00 00 00...DB 00h ; x44

loc_6CEB:
6CEB: 00            NOP
6CEC: 00            NOP
6CED: 00 00 00 00...DB 00h ; x19
6D00: 08            EX AF,AF'
6D01: 6D            LD L,L
6D02: 31 6D 64      LD SP,646Dh
6D05: 6D            LD L,L
6D06: 8D            ADC A,L
6D07: 6D            LD L,L
6D08: 08            EX AF,AF'
6D09: 80            ADD A,B
6D0A: 15            DEC D
6D0B: F0            RET P
6D0C: 00            NOP
6D0D: 18 80         JR loc_6C8F
6D0F: 15            DEC D
6D10: F2 10 18      JP P,loc_1810
6D13: 00            NOP
6D14: 15            DEC D
6D15: EF            RST 28h
6D16: 20 10         JR NZ,loc_6D28
6D18: 80            ADD A,B
6D19: 15            DEC D
6D1A: FC F0 10      CALL M,sub_10F0
6D1D: 00            NOP
6D1E: 15            DEC D
6D1F: FE E0         CP E0h
6D21: F8            RET M
6D22: 00            NOP
6D23: 15            DEC D
6D24: FF            RST 38h
6D25: F0            RET P
6D26: F8            RET M
6D27: 00            NOP

loc_6D28:
6D28: 16 0C         LD D,0Ch
6D2A: D7            RST 10h
6D2B: F6 00         OR 00h
6D2D: 16 0D         LD D,0Dh
6D2F: C7            RST 00h
6D30: EE 0A         XOR 0Ah
6D32: 80            ADD A,B
6D33: 15            DEC D
6D34: F4 08 10      CALL P,sub_1008
6D37: 80            ADD A,B
6D38: 15            DEC D
6D39: F6 18         OR 18h
6D3B: 10 80         DJNZ loc_6CBD
6D3D: 16 00         LD D,00h
6D3F: D8            RET C
6D40: 00            NOP
6D41: 80            ADD A,B
6D42: 16 02         LD D,02h
6D44: E8            RET PE
6D45: 10 00         DJNZ loc_6D47

loc_6D47:
6D47: 16 06         LD D,06h
6D49: E8            RET PE
6D4A: F8            RET M
6D4B: 80            ADD A,B
6D4C: 16 04         LD D,04h
6D4E: F8            RET M
6D4F: 10 00         DJNZ loc_6D51

loc_6D51:
6D51: 16 0C         LD D,0Ch
6D53: C8            RET Z
6D54: EF            RST 28h
6D55: 00            NOP
6D56: 16 0C         LD D,0Ch
6D58: B8            CP B
6D59: E7            RST 20h
6D5A: 00            NOP
6D5B: 16 0C         LD D,0Ch
6D5D: A8            XOR B
6D5E: DF            RST 18h
6D5F: 00            NOP
6D60: 16 0D         LD D,0Dh
6D62: 98            SBC A,B
6D63: D7            RST 10h
6D64: 08            EX AF,AF'
6D65: 80            ADD A,B
6D66: 15            DEC D
6D67: F8            RET M
6D68: 08            EX AF,AF'
6D69: 18 80         JR loc_6CEB
6D6B: 15            DEC D
6D6C: FA 18 18      JP M,loc_1818
6D6F: 80            ADD A,B
6D70: 16 08         LD D,08h
6D72: E8            RET PE
6D73: 10 00         DJNZ loc_6D75

loc_6D75:
6D75: 16 07         LD D,07h
6D77: E8            RET PE
6D78: F8            RET M
6D79: 80            ADD A,B
6D7A: 16 0A         LD D,0Ah
6D7C: F8            RET M
6D7D: 10 00         DJNZ loc_6D7F

loc_6D7F:
6D7F: 16 0C         LD D,0Ch
6D81: D8            RET C
6D82: F6 00         OR 00h
6D84: 16 0C         LD D,0Ch
6D86: C8            RET Z
6D87: EE 00         XOR 00h
6D89: 16 0D         LD D,0Dh
6D8B: B8            CP B
6D8C: E6 04         AND 04h
6D8E: 00            NOP
6D8F: 16 0C         LD D,0Ch
6D91: C8            RET Z
6D92: EF            RST 28h
6D93: 00            NOP
6D94: 16 0C         LD D,0Ch
6D96: B8            CP B
6D97: E7            RST 20h
6D98: 00            NOP
6D99: 16 0C         LD D,0Ch
6D9B: A8            XOR B
6D9C: DF            RST 18h
6D9D: 00            NOP
6D9E: 16 0D         LD D,0Dh
6DA0: 98            SBC A,B
6DA1: D7            RST 10h
6DA2: 00 00 00 00...DB 00h ; x257

loc_6EA3:
6EA3: 00            NOP
6EA4: 00            NOP
6EA5: 00            NOP
6EA6: 00            NOP
6EA7: 00            NOP

loc_6EA8:
6EA8: 00            NOP
6EA9: 00            NOP
6EAA: 00            NOP
6EAB: 00            NOP
6EAC: 00            NOP

loc_6EAD:
6EAD: 00            NOP
6EAE: 00            NOP
6EAF: 00            NOP
6EB0: 00            NOP
6EB1: 00            NOP

loc_6EB2:
6EB2: 00            NOP
6EB3: 00            NOP
6EB4: 00            NOP
6EB5: 00            NOP
6EB6: 00            NOP

loc_6EB7:
6EB7: 00            NOP
6EB8: 00            NOP
6EB9: 00 00 00 00...DB 00h ; x9

loc_6EC2:
6EC2: 00            NOP
6EC3: 00            NOP
6EC4: 00            NOP
6EC5: 00            NOP
6EC6: 00            NOP

loc_6EC7:
6EC7: 00            NOP
6EC8: 00            NOP
6EC9: 00            NOP
6ECA: 00            NOP
6ECB: 00            NOP

loc_6ECC:
6ECC: 00            NOP
6ECD: 00            NOP
6ECE: 00            NOP
6ECF: 00            NOP
6ED0: 00            NOP

loc_6ED1:
6ED1: 00            NOP
6ED2: 00            NOP
6ED3: 00            NOP
6ED4: 00            NOP
6ED5: 00            NOP

loc_6ED6:
6ED6: 00            NOP
6ED7: 00            NOP
6ED8: 00            NOP
6ED9: 00            NOP
6EDA: 00            NOP

loc_6EDB:
6EDB: 00            NOP
6EDC: 00            NOP
6EDD: 00 00 00 00...DB 00h ; x35
6F00: 1C            INC E
6F01: 6F            LD L,A
6F02: 3B            DEC SP
6F03: 6F            LD L,A
6F04: 82            ADD A,D
6F05: 6F            LD L,A
6F06: C9            RET
6F07: 6F            LD L,A
6F08: 1F            RRA

loc_6F09:
6F09: 70            LD (HL),B
6F0A: 75            LD (HL),L
6F0B: 70            LD (HL),B
6F0C: CB 70         BIT 6,B

loc_6F0E:
6F0E: D6 70         SUB 70h
6F10: E1            POP HL
6F11: 70            LD (HL),B
6F12: EC 70 F7      CALL PE,F770h
6F15: 70            LD (HL),B
6F16: FD 70 08      LD (IY+08h),B
6F19: 71            LD (HL),C
6F1A: 13            INC DE
6F1B: 71            LD (HL),C
6F1C: 06 80         LD B,80h
6F1E: 15            DEC D
6F1F: 8A            ADC A,D
6F20: A9            XOR C
6F21: 30 80         JR NC,loc_6EA3
6F23: 15            DEC D
6F24: 8C            ADC A,H
6F25: B9            CP C
6F26: 30 80         JR NC,loc_6EA8
6F28: 15            DEC D
6F29: 8E            ADC A,(HL)
6F2A: C9            RET
6F2B: 30 80         JR NC,loc_6EAD
6F2D: 15            DEC D
6F2E: 90            SUB B
6F2F: D9            EXX
6F30: 30 80         JR NC,loc_6EB2
6F32: 15            DEC D
6F33: 8E            ADC A,(HL)
6F34: E9            JP (HL)
6F35: 30 80         JR NC,loc_6EB7
6F37: 15            DEC D
6F38: 8C            ADC A,H
6F39: F9            LD SP,HL
6F3A: 30 0E         JR NC,loc_6F4A
6F3C: 80            ADD A,B
6F3D: 15            DEC D
6F3E: 92            SUB D
6F3F: 99            SBC A,C
6F40: 30 80         JR NC,loc_6EC2
6F42: 15            DEC D
6F43: 94            SUB H
6F44: A9            XOR C
6F45: 30 80         JR NC,loc_6EC7
6F47: 15            DEC D
6F48: 96            SUB (HL)
6F49: B9            CP C

loc_6F4A:
6F4A: 30 80         JR NC,loc_6ECC
6F4C: 15            DEC D
6F4D: 98            SBC A,B
6F4E: C9            RET
6F4F: 30 80         JR NC,loc_6ED1
6F51: 15            DEC D
6F52: 9A            SBC A,D
6F53: D9            EXX
6F54: 30 80         JR NC,loc_6ED6
6F56: 15            DEC D
6F57: 98            SBC A,B
6F58: E9            JP (HL)
6F59: 30 80         JR NC,loc_6EDB
6F5B: 15            DEC D
6F5C: 98            SBC A,B
6F5D: F9            LD SP,HL
6F5E: 30 00         JR NC,loc_6F60

loc_6F60:
6F60: 15            DEC D
6F61: 9C            SBC A,H
6F62: 99            SBC A,C
6F63: 18 00         JR loc_6F65

loc_6F65:
6F65: 15            DEC D
6F66: 9D            SBC A,L
6F67: A9            XOR C
6F68: 18 00         JR loc_6F6A

loc_6F6A:
6F6A: 15            DEC D
6F6B: 9E            SBC A,(HL)
6F6C: B9            CP C
6F6D: 18 00         JR loc_6F6F

loc_6F6F:
6F6F: 15            DEC D
6F70: 9F            SBC A,A
6F71: C9            RET
6F72: 18 00         JR loc_6F74

loc_6F74:
6F74: 15            DEC D
6F75: A0            AND B
6F76: D9            EXX
6F77: 18 00         JR loc_6F79

loc_6F79:
6F79: 15            DEC D
6F7A: 9F            SBC A,A
6F7B: E9            JP (HL)
6F7C: 18 00         JR loc_6F7E

loc_6F7E:
6F7E: 15            DEC D
6F7F: 9F            SBC A,A
6F80: F9            LD SP,HL
6F81: 18 0E         JR loc_6F91
6F83: 00            NOP
6F84: 15            DEC D
6F85: A1            AND C
6F86: 99            SBC A,C
6F87: 28 80         JR Z,loc_6F09
6F89: 15            DEC D
6F8A: A3            AND E
6F8B: 99            SBC A,C
6F8C: 10 80         DJNZ loc_6F0E
6F8E: 15            DEC D
6F8F: A4            AND H
6F90: A9            XOR C

loc_6F91:
6F91: 20 80         JR NZ,loc_6F13
6F93: 15            DEC D
6F94: A6            AND (HL)
6F95: B9            CP C
6F96: 20 80         JR NZ,loc_6F18
6F98: 15            DEC D
6F99: A4            AND H
6F9A: C9            RET
6F9B: 20 80         JR NZ,loc_6F1D
6F9D: 15            DEC D
6F9E: AA            XOR D
6F9F: D9            EXX
6FA0: 30 80         JR NC,loc_6F22
6FA2: 15            DEC D
6FA3: AC            XOR H
6FA4: D9            EXX
6FA5: 10 80         DJNZ loc_6F27
6FA7: 15            DEC D
6FA8: A4            AND H
6FA9: E9            JP (HL)
6FAA: 20 80         JR NZ,loc_6F2C
6FAC: 15            DEC D
6FAD: A4            AND H
6FAE: F9            LD SP,HL
6FAF: 20 00         JR NZ,loc_6FB1

loc_6FB1:
6FB1: 15            DEC D
6FB2: A8            XOR B
6FB3: A9            XOR C
6FB4: 08            EX AF,AF'
6FB5: 00            NOP
6FB6: 15            DEC D
6FB7: A9            XOR C
6FB8: B9            CP C
6FB9: 08            EX AF,AF'
6FBA: 00            NOP
6FBB: 15            DEC D
6FBC: A8            XOR B
6FBD: C9            RET
6FBE: 08            EX AF,AF'
6FBF: 00            NOP
6FC0: 15            DEC D
6FC1: A8            XOR B
6FC2: E9            JP (HL)
6FC3: 08            EX AF,AF'
6FC4: 00            NOP
6FC5: 15            DEC D
6FC6: A8            XOR B
6FC7: F9            LD SP,HL
6FC8: 08            EX AF,AF'
6FC9: 11 80 15      LD DE,1580h
6FCC: AE            XOR (HL)
6FCD: 89            ADC A,C
6FCE: 20 00         JR NZ,loc_6FD0

loc_6FD0:
6FD0: 15            DEC D
6FD1: BA            CP D
6FD2: 89            ADC A,C
6FD3: 08            EX AF,AF'
6FD4: 80            ADD A,B
6FD5: 15            DEC D
6FD6: B0            OR B
6FD7: 99            SBC A,C
6FD8: 20 00         JR NZ,loc_6FDA

loc_6FDA:
6FDA: 15            DEC D
6FDB: BB            CP E
6FDC: 99            SBC A,C
6FDD: 08            EX AF,AF'
6FDE: 80            ADD A,B
6FDF: 15            DEC D
6FE0: B2            OR D
6FE1: A9            XOR C
6FE2: 20 00         JR NZ,loc_6FE4

loc_6FE4:
6FE4: 15            DEC D
6FE5: BC            CP H
6FE6: A9            XOR C
6FE7: 08            EX AF,AF'
6FE8: 80            ADD A,B
6FE9: 15            DEC D
6FEA: B4            OR H
6FEB: B9            CP C
6FEC: 20 00         JR NZ,loc_6FEE

loc_6FEE:
6FEE: 15            DEC D
6FEF: BD            CP L
6FF0: B9            CP C
6FF1: 08            EX AF,AF'
6FF2: 80            ADD A,B
6FF3: 15            DEC D
6FF4: B6            OR (HL)
6FF5: C9            RET
6FF6: 20 00         JR NZ,loc_6FF8

loc_6FF8:
6FF8: 15            DEC D
6FF9: BE            CP (HL)
6FFA: C9            RET
6FFB: 08            EX AF,AF'
6FFC: 80            ADD A,B
6FFD: 15            DEC D
6FFE: B8            CP B
6FFF: D9            EXX

sub_7000:
7000: 20 00         JR NZ,loc_7002

loc_7002:
7002: 15            DEC D
7003: BF            CP A
7004: D9            EXX
7005: 08            EX AF,AF'
7006: C0            RET NZ
7007: 15            DEC D
7008: B4            OR H
7009: E9            JP (HL)
700A: 20 40         JR NZ,loc_704C
700C: 15            DEC D
700D: BD            CP L
700E: E9            JP (HL)
700F: 08            EX AF,AF'
7010: C0            RET NZ
7011: 15            DEC D
7012: B4            OR H
7013: F9            LD SP,HL
7014: 20 40         JR NZ,loc_7056
7016: 15            DEC D
7017: BD            CP L
7018: F9            LD SP,HL
7019: 08            EX AF,AF'
701A: 00            NOP
701B: 15            DEC D
701C: AA            XOR D
701D: D9            EXX
701E: 38 11         JR C,loc_7031
7020: 80            ADD A,B
7021: 15            DEC D
7022: C0            RET NZ
7023: 89            ADC A,C
7024: 20 00         JR NZ,loc_7026

loc_7026:
7026: 15            DEC D
7027: D4 89 08      CALL NC,sub_0889
702A: 80            ADD A,B
702B: 15            DEC D
702C: C2 99 20      JP NZ,loc_2099
702F: 00            NOP
7030: 15            DEC D

loc_7031:
7031: D5            PUSH DE
7032: 99            SBC A,C
7033: 08            EX AF,AF'
7034: 80            ADD A,B
7035: 15            DEC D
7036: C4 A9 20      CALL NZ,sub_20A9
7039: 00            NOP
703A: 15            DEC D
703B: D6 A9         SUB A9h
703D: 08            EX AF,AF'
703E: 80            ADD A,B
703F: 15            DEC D
7040: C2 B9 20      JP NZ,loc_20B9
7043: 00            NOP
7044: 15            DEC D
7045: D5            PUSH DE
7046: B9            CP C
7047: 08            EX AF,AF'
7048: 80            ADD A,B
7049: 15            DEC D
704A: C6 C9         ADD A,C9h

loc_704C:
704C: 20 00         JR NZ,loc_704E

loc_704E:
704E: 15            DEC D
704F: D7            RST 10h
7050: C9            RET
7051: 08            EX AF,AF'
7052: 80            ADD A,B
7053: 15            DEC D
7054: C8            RET Z
7055: D9            EXX

loc_7056:
7056: 20 00         JR NZ,loc_7058

loc_7058:
7058: 15            DEC D
7059: D8            RET C
705A: D9            EXX
705B: 08            EX AF,AF'
705C: C0            RET NZ
705D: 15            DEC D
705E: C2 E9 20      JP NZ,loc_20E9
7061: 00            NOP
7062: 15            DEC D
7063: D5            PUSH DE
7064: E9            JP (HL)
7065: 08            EX AF,AF'
7066: C0            RET NZ
7067: 15            DEC D
7068: C2 F9 20      JP NZ,loc_20F9
706B: 00            NOP
706C: 15            DEC D
706D: D5            PUSH DE
706E: F9            LD SP,HL
706F: 08            EX AF,AF'
7070: 00            NOP
7071: 15            DEC D
7072: AA            XOR D
7073: D9            EXX
7074: 38 11         JR C,loc_7087
7076: 80            ADD A,B
7077: 15            DEC D

loc_7078:
7078: CA 89 20      JP Z,loc_2089
707B: 00            NOP
707C: 15            DEC D
707D: D9            EXX
707E: 89            ADC A,C
707F: 08            EX AF,AF'
7080: 80            ADD A,B
7081: 15            DEC D
7082: CC 99 20      CALL Z,loc_2099
7085: 00            NOP
7086: 15            DEC D

loc_7087:
7087: DA 99 08      JP C,loc_0899
708A: 80            ADD A,B
708B: 15            DEC D
708C: CE A9         ADC A,A9h
708E: 20 00         JR NZ,loc_7090

loc_7090:
7090: 15            DEC D
7091: DB A9         IN A,(A9h)
7093: 08            EX AF,AF'
7094: 80            ADD A,B
7095: 15            DEC D
7096: CC B9 20      CALL Z,loc_20B9
7099: 00            NOP
709A: 15            DEC D
709B: DA B9 08      JP C,loc_08B9
709E: 80            ADD A,B
709F: 15            DEC D
70A0: D0            RET NC
70A1: C9            RET
70A2: 20 00         JR NZ,loc_70A4

loc_70A4:
70A4: 15            DEC D
70A5: DC C9 08      CALL C,sub_08C9
70A8: 80            ADD A,B
70A9: 15            DEC D
70AA: D2 D9 20      JP NC,loc_20D9
70AD: 00            NOP
70AE: 15            DEC D
70AF: DD            DB DDh ; prefix (nop)
70B0: D9            EXX
70B1: 08            EX AF,AF'
70B2: 00            NOP
70B3: 15            DEC D
70B4: AA            XOR D
70B5: D9            EXX
70B6: 38 C0         JR C,loc_7078
70B8: 15            DEC D
70B9: CC E9 20      CALL Z,loc_20E9
70BC: 40            LD B,B
70BD: 15            DEC D
70BE: DA E9 08      JP C,loc_08E9
70C1: C0            RET NZ
70C2: 15            DEC D
70C3: CC F9 20      CALL Z,loc_20F9
70C6: 00            NOP
70C7: 15            DEC D
70C8: DA F9 08      JP C,loc_08F9
70CB: 02            LD (BC),A
70CC: 00            NOP
70CD: 15            DEC D
70CE: DE F0         SBC A,F0h
70D0: 30 00         JR NC,loc_70D2

loc_70D2:
70D2: 15            DEC D
70D3: DE 29         SBC A,29h
70D5: 30 02         JR NC,loc_70D9
70D7: 00            NOP
70D8: 15            DEC D

loc_70D9:
70D9: DF            RST 18h
70DA: F0            RET P
70DB: 30 00         JR NC,loc_70DD

loc_70DD:
70DD: 15            DEC D
70DE: DF            RST 18h
70DF: 29            ADD HL,HL
70E0: 30 02         JR NC,loc_70E4
70E2: 00            NOP
70E3: 15            DEC D

loc_70E4:
70E4: E0            RET PO
70E5: F0            RET P
70E6: 30 00         JR NC,loc_70E8

loc_70E8:
70E8: 15            DEC D
70E9: E0            RET PO
70EA: 29            ADD HL,HL
70EB: 30 02         JR NC,loc_70EF
70ED: 00            NOP
70EE: 15            DEC D

loc_70EF:
70EF: E1            POP HL
70F0: F0            RET P
70F1: 30 00         JR NC,loc_70F3

loc_70F3:
70F3: 15            DEC D
70F4: E1            POP HL
70F5: 29            ADD HL,HL
70F6: 30 01         JR NC,loc_70F9
70F8: 00            NOP

loc_70F9:
70F9: 15            DEC D
70FA: EE A0         XOR A0h
70FC: 60            LD H,B
70FD: 02            LD (BC),A
70FE: 80            ADD A,B
70FF: 15            DEC D
7100: E2 90 68      JP PO,loc_6890

sub_7103:
7103: 80            ADD A,B
7104: 15            DEC D
7105: E4 A0 68      CALL PO,sub_68A0
7108: 02            LD (BC),A
7109: 80            ADD A,B
710A: 15            DEC D
710B: E6 90         AND 90h
710D: 68            LD L,B
710E: 80            ADD A,B
710F: 15            DEC D
7110: E8            RET PE
7111: A0            AND B
7112: 68            LD L,B
7113: 02            LD (BC),A
7114: 80            ADD A,B
7115: 15            DEC D
7116: EA 90 68      JP PE,loc_6890
7119: 80            ADD A,B
711A: 15            DEC D
711B: EC A0 68      CALL PE,sub_68A0
711E: 00 00 00 00...DB 00h ; x19

sub_7131:
7131: 00            NOP
7132: 00            NOP
7133: 00 00 00 00...DB 00h ; x12

sub_713F:
713F: 00            NOP
7140: 00            NOP
7141: 00 00 00 00...DB 00h ; x82

loc_7193:
7193: 00            NOP
7194: 00            NOP
7195: 00            NOP
7196: 00            NOP
7197: 00            NOP

loc_7198:
7198: 00            NOP
7199: 00            NOP
719A: 00 00 00 00...DB 00h ; x18

loc_71AC:
71AC: 00            NOP
71AD: 00            NOP
71AE: 00            NOP
71AF: 00            NOP
71B0: 00            NOP

loc_71B1:
71B1: 00            NOP
71B2: 00            NOP
71B3: 00            NOP
71B4: 00            NOP
71B5: 00            NOP

loc_71B6:
71B6: 00            NOP
71B7: 00            NOP
71B8: 00            NOP
71B9: 00            NOP
71BA: 00            NOP

loc_71BB:
71BB: 00            NOP
71BC: 00            NOP
71BD: 00 00 00 00...DB 00h ; x39

sub_71E4:
71E4: 00            NOP
71E5: 00            NOP
71E6: 00 00 00 00...DB 00h ; x26

sub_7200:
7200: 02            LD (BC),A
7201: 72            LD (HL),D
7202: 13            INC DE
7203: 80            ADD A,B
7204: 14            INC D
7205: 6C            LD L,H
7206: B0            OR B
7207: 20 00         JR NZ,loc_7209

loc_7209:
7209: 14            INC D
720A: 74            LD (HL),H
720B: B0            OR B
720C: 08            EX AF,AF'
720D: 80            ADD A,B
720E: 14            INC D
720F: 6E            LD L,(HL)
7210: C0            RET NZ
7211: 30 80         JR NC,loc_7193
7213: 14            INC D
7214: 70            LD (HL),B
7215: C0            RET NZ
7216: 10 80         DJNZ loc_7198
7218: 14            INC D
7219: 72            LD (HL),D
721A: D0            RET NC
721B: 30 00         JR NC,loc_721D

loc_721D:
721D: 14            INC D
721E: 75            LD (HL),L
721F: D0            RET NC
7220: 18 00         JR loc_7222

loc_7222:
7222: 14            INC D
7223: 76            HALT
7224: E0            RET PO
7225: 38 00         JR C,loc_7227

loc_7227:
7227: 15            DEC D
7228: 77            LD (HL),A
7229: E0            RET PO
722A: 28 80         JR Z,loc_71AC
722C: 15            DEC D
722D: 78            LD A,B
722E: E0            RET PO
722F: 10 80         DJNZ loc_71B1
7231: 15            DEC D

loc_7232:
7232: 7A            LD A,D
7233: F0            RET P
7234: 30 80         JR NC,loc_71B6
7236: 15            DEC D
7237: 7C            LD A,H
7238: F0            RET P
7239: 10 80         DJNZ loc_71BB
723B: 15            DEC D
723C: 7E            LD A,(HL)
723D: 00            NOP
723E: 20 00         JR NZ,loc_7240

loc_7240:
7240: 15            DEC D
7241: 89            ADC A,C
7242: 00            NOP
7243: 08            EX AF,AF'
7244: 80            ADD A,B
7245: 15            DEC D
7246: 80            ADD A,B
7247: 10 20         DJNZ loc_7269
7249: 80            ADD A,B
724A: 15            DEC D
724B: 82            ADD A,D
724C: 20 20         JR NZ,loc_726E
724E: 80            ADD A,B
724F: 15            DEC D
7250: 84            ADD A,H
7251: 30 20         JR NC,loc_7273
7253: 00            NOP
7254: 15            DEC D
7255: 88            ADC A,B
7256: 30 08         JR NC,loc_7260
7258: 80            ADD A,B
7259: 15            DEC D
725A: 86            ADD A,(HL)
725B: 40            LD B,B
725C: 20 00         JR NZ,loc_725E

loc_725E:
725E: 17            RLA
725F: F6 50         OR 50h
7261: 28 00         JR Z,loc_7263

loc_7263:
7263: 00            NOP
7264: 00            NOP
7265: 00            NOP
7266: 00            NOP
7267: 00            NOP
7268: 00            NOP

loc_7269:
7269: 00            NOP
726A: 00            NOP
726B: 00            NOP
726C: 00            NOP
726D: 00            NOP

loc_726E:
726E: 00            NOP
726F: 00            NOP
7270: 00            NOP
7271: 00            NOP
7272: 00            NOP

loc_7273:
7273: 00            NOP
7274: 00            NOP
7275: 00 00 00 00...DB 00h ; x395
7400: 2E 74         LD L,74h
7402: 39            ADD HL,SP
7403: 74            LD (HL),H
7404: 49            LD C,C
7405: 74            LD (HL),H
7406: 63            LD H,E
7407: 74            LD (HL),H
7408: 78            LD A,B

loc_7409:
7409: 74            LD (HL),H
740A: 8D            ADC A,L
740B: 74            LD (HL),H
740C: A2            AND D
740D: 74            LD (HL),H
740E: BC            CP H
740F: 74            LD (HL),H
7410: D1            POP DE
7411: 74            LD (HL),H
7412: E6 74         AND 74h
7414: FB            EI
7415: 74            LD (HL),H

loc_7416:
7416: 0B            DEC BC
7417: 75            LD (HL),L
7418: 1B            DEC DE
7419: 75            LD (HL),L
741A: 2B            DEC HL
741B: 75            LD (HL),L
741C: 36 75         LD (HL),75h

loc_741E:
741E: 3C            INC A
741F: 75            LD (HL),L
7420: 48            LD C,B
7421: 75            LD (HL),L
7422: 4E            LD C,(HL)
7423: 75            LD (HL),L
7424: 57            LD D,A
7425: 75            LD (HL),L
7426: 60            LD H,B
7427: 75            LD (HL),L
7428: 66            LD H,(HL)

loc_7429:
7429: 75            LD (HL),L
742A: 6F            LD L,A
742B: 75            LD (HL),L
742C: 75            LD (HL),L
742D: 75            LD (HL),L
742E: 02            LD (BC),A
742F: 00            NOP
7430: 17            RLA
7431: 2E D8         LD L,D8h
7433: 08            EX AF,AF'
7434: 00            NOP
7435: 17            RLA
7436: 2F            CPL
7437: E8            RET PE
7438: 08            EX AF,AF'
7439: 03            INC BC
743A: 00            NOP
743B: 17            RLA
743C: 30 D8         JR NC,loc_7416
743E: 08            EX AF,AF'
743F: 00            NOP

loc_7440:
7440: 17            RLA
7441: 31 E8 08      LD SP,08E8h
7444: 00            NOP
7445: 17            RLA
7446: 32 F8 08      LD (08F8h),A
7449: 05            DEC B
744A: 00            NOP
744B: 17            RLA
744C: 33            INC SP
744D: D0            RET NC
744E: 08            EX AF,AF'
744F: 00            NOP
7450: 17            RLA
7451: 34            INC (HL)
7452: E0            RET PO
7453: 08            EX AF,AF'
7454: 00            NOP
7455: 17            RLA
7456: 35            DEC (HL)
7457: F0            RET P
7458: 08            EX AF,AF'
7459: 00            NOP
745A: 17            RLA
745B: 36 00         LD (HL),00h
745D: 08            EX AF,AF'
745E: 00            NOP
745F: 17            RLA
7460: 37            SCF
7461: 10 08         DJNZ loc_746B
7463: 04            INC B
7464: 00            NOP
7465: 17            RLA
7466: 38 D8         JR C,loc_7440
7468: 08            EX AF,AF'
7469: 00            NOP
746A: 17            RLA

loc_746B:
746B: 39            ADD HL,SP
746C: E8            RET PE
746D: 08            EX AF,AF'
746E: 00            NOP
746F: 17            RLA
7470: 3A F8 08      LD A,(08F8h)
7473: 00            NOP
7474: 17            RLA
7475: 3B            DEC SP
7476: 08            EX AF,AF'
7477: 08            EX AF,AF'
7478: 04            INC B
7479: 00            NOP
747A: 17            RLA
747B: 3C            INC A
747C: D8            RET C
747D: 08            EX AF,AF'
747E: 00            NOP
747F: 17            RLA
7480: 3D            DEC A
7481: E8            RET PE
7482: 08            EX AF,AF'
7483: 80            ADD A,B
7484: 17            RLA
7485: 3E F8         LD A,F8h
7487: 10 80         DJNZ loc_7409
7489: 17            RLA
748A: 40            LD B,B
748B: 08            EX AF,AF'
748C: 10 04         DJNZ loc_7492
748E: 00            NOP
748F: 17            RLA
7490: 42            LD B,D
7491: D8            RET C

loc_7492:
7492: 08            EX AF,AF'
7493: 00            NOP
7494: 17            RLA
7495: 43            LD B,E
7496: E8            RET PE
7497: 08            EX AF,AF'
7498: 80            ADD A,B
7499: 17            RLA
749A: 44            LD B,H
749B: F8            RET M
749C: 10 80         DJNZ loc_741E
749E: 17            RLA
749F: 46            LD B,(HL)
74A0: 08            EX AF,AF'
74A1: 10 05         DJNZ loc_74A8
74A3: 80            ADD A,B
74A4: 17            RLA
74A5: 48            LD C,B
74A6: F8            RET M
74A7: 20 80         JR NZ,loc_7429
74A9: 17            RLA
74AA: 4A            LD C,D
74AB: 08            EX AF,AF'
74AC: 20 00         JR NZ,loc_74AE

loc_74AE:
74AE: 17            RLA
74AF: 4C            LD C,H
74B0: E8            RET PE
74B1: 08            EX AF,AF'
74B2: 00            NOP
74B3: 17            RLA
74B4: 4D            LD C,L
74B5: F8            RET M
74B6: 08            EX AF,AF'
74B7: 00            NOP
74B8: 17            RLA
74B9: 4E            LD C,(HL)
74BA: 08            EX AF,AF'
74BB: 08            EX AF,AF'
74BC: 04            INC B
74BD: 80            ADD A,B
74BE: 17            RLA
74BF: 50            LD D,B
74C0: EE 10         XOR 10h
74C2: 80            ADD A,B
74C3: 17            RLA
74C4: 52            LD D,D
74C5: FE 10         CP 10h
74C7: 80            ADD A,B
74C8: 17            RLA
74C9: 54            LD D,H
74CA: 0E 10         LD C,10h
74CC: 00            NOP
74CD: 17            RLA
74CE: 4F            LD C,A
74CF: FE 28         CP 28h
74D1: 04            INC B
74D2: 80            ADD A,B
74D3: 17            RLA
74D4: 56            LD D,(HL)
74D5: F6 30         OR 30h
74D7: 80            ADD A,B
74D8: 17            RLA
74D9: 58            LD E,B
74DA: F6 10         OR 10h
74DC: 80            ADD A,B
74DD: 17            RLA
74DE: 5A            LD E,D
74DF: 06 30         LD B,30h
74E1: 80            ADD A,B
74E2: 17            RLA
74E3: 5C            LD E,H
74E4: 06 10         LD B,10h
74E6: 04            INC B
74E7: 80            ADD A,B
74E8: 17            RLA
74E9: 5E            LD E,(HL)
74EA: F6 30         OR 30h
74EC: 80            ADD A,B
74ED: 17            RLA
74EE: 60            LD H,B
74EF: F6 10         OR 10h
74F1: 80            ADD A,B
74F2: 17            RLA
74F3: 62            LD H,D
74F4: 06 30         LD B,30h
74F6: 80            ADD A,B
74F7: 17            RLA
74F8: 64            LD H,H
74F9: 06 10         LD B,10h
74FB: 03            INC BC

loc_74FC:
74FC: 80            ADD A,B
74FD: 17            RLA
74FE: 66            LD H,(HL)
74FF: F0            RET P
7500: 00            NOP
7501: 80            ADD A,B
7502: 17            RLA
7503: 68            LD L,B
7504: 00            NOP
7505: 00            NOP
7506: 80            ADD A,B
7507: 17            RLA
7508: 6A            LD L,D
7509: 10 00         DJNZ loc_750B

loc_750B:
750B: 03            INC BC
750C: 80            ADD A,B
750D: 17            RLA
750E: 6C            LD L,H
750F: F0            RET P
7510: 00            NOP
7511: 80            ADD A,B
7512: 17            RLA
7513: 6E            LD L,(HL)
7514: 00            NOP
7515: 00            NOP
7516: 80            ADD A,B
7517: 17            RLA
7518: 70            LD (HL),B
7519: 10 00         DJNZ loc_751B

loc_751B:
751B: 03            INC BC
751C: 80            ADD A,B
751D: 17            RLA
751E: 72            LD (HL),D
751F: F0            RET P
7520: 00            NOP
7521: 80            ADD A,B
7522: 17            RLA
7523: 74            LD (HL),H
7524: 00            NOP
7525: 00            NOP
7526: 80            ADD A,B
7527: 17            RLA
7528: 76            HALT
7529: 10 00         DJNZ loc_752B

loc_752B:
752B: 02            LD (BC),A
752C: 00            NOP

loc_752D:
752D: 17            RLA
752E: 78            LD A,B
752F: F8            RET M
7530: 00            NOP
7531: 00            NOP
7532: 17            RLA
7533: 79            LD A,C
7534: 08            EX AF,AF'
7535: 00            NOP
7536: 01 00 17      LD BC,1700h
7539: 7A            LD A,D
753A: 08            EX AF,AF'

loc_753B:
753B: 00            NOP
753C: C4 80 00      CALL NZ,sub_0080
753F: 1A            LD A,(DE)
7540: F8            RET M
7541: 30 F8         JR NC,loc_753B
7543: 10 08         DJNZ loc_754D
7545: 30 08         JR NC,loc_754F
7547: 10 E4         DJNZ loc_752D
7549: 80            ADD A,B
754A: 00            NOP
754B: 22 40 75      LD (7540h),HL
754E: A4            AND H

loc_754F:
754F: 80            ADD A,B
7550: 00            NOP
7551: 40            LD B,B
7552: 75            LD (HL),L
7553: 22 2E 26      LD (262Eh),HL
7556: 30 A4         JR NC,loc_74FC
7558: 80            ADD A,B
7559: 00            NOP
755A: 40            LD B,B
755B: 75            LD (HL),L
755C: 1A            LD A,(DE)
755D: 2A 1E 2C      LD HL,(2C1Eh)
7560: E4 80 00      CALL PO,sub_0080
7563: 02            LD (BC),A
7564: 40            LD B,B
7565: 75            LD (HL),L
7566: A4            AND H
7567: 80            ADD A,B
7568: 00            NOP
7569: 40            LD B,B
756A: 75            LD (HL),L
756B: 02            LD (BC),A
756C: 12            LD (DE),A
756D: 06 14         LD B,14h
756F: E4 80 00      CALL PO,sub_0080
7572: 0A            LD A,(BC)
7573: 40            LD B,B
7574: 75            LD (HL),L
7575: A4            AND H
7576: 80            ADD A,B
7577: 00            NOP
7578: 40            LD B,B
7579: 75            LD (HL),L
757A: 0A            LD A,(BC)
757B: 16 0E         LD D,0Eh
757D: 18 00         JR loc_757F

loc_757F:
757F: 00            NOP
7580: 00            NOP
7581: 00 00 00 00...DB 00h ; x127
7600: 0E 76         LD C,76h
7602: 19            ADD HL,DE
7603: 76            HALT
7604: 24            INC H
7605: 76            HALT
7606: 2A 76 30      LD HL,(3076h)
7609: 76            HALT
760A: 36 76         LD (HL),76h
760C: 3C            INC A
760D: 76            HALT
760E: 02            LD (BC),A
760F: 80            ADD A,B
7610: 17            RLA
7611: F8            RET M
7612: 00            NOP
7613: 08            EX AF,AF'
7614: 00            NOP
7615: 17            RLA
7616: F7            RST 30h
7617: 10 10         DJNZ loc_7629
7619: 02            LD (BC),A
761A: 80            ADD A,B
761B: 17            RLA
761C: FC 00 08      CALL M,sub_0800
761F: 00            NOP
7620: 17            RLA
7621: FE 10         CP 10h
7623: 10 01         DJNZ loc_7626
7625: 00            NOP

loc_7626:
7626: 17            RLA
7627: FA 00 08      JP M,sub_0800
762A: 01 00 17      LD BC,1700h
762D: FB            EI
762E: 00            NOP
762F: 08            EX AF,AF'
7630: 01 01 11      LD BC,1101h
7633: 17            RLA
7634: 00            NOP
7635: 08            EX AF,AF'
7636: 01 01 17      LD BC,1701h
7639: FF            RST 38h
763A: 00            NOP
763B: 08            EX AF,AF'
763C: 09            ADD HL,BC
763D: 01 11 17      LD BC,1711h
7640: 18 10         JR loc_7652
7642: 41            LD B,C
7643: 11 17 40      LD DE,4017h
7646: 20 01         JR NZ,loc_7649
7648: 17            RLA

loc_7649:
7649: FF            RST 38h
764A: 58            LD E,B
764B: 20 01         JR NZ,loc_764E
764D: 17            RLA

loc_764E:
764E: FF            RST 38h
764F: 68            LD L,B
7650: 08            EX AF,AF'
7651: 01 17 FF      LD BC,FF17h
7654: 78            LD A,B
7655: 10 01         DJNZ loc_7658
7657: 11 17 98      LD DE,9817h
765A: 18 01         JR loc_765D
765C: 17            RLA

loc_765D:
765D: FF            RST 38h
765E: B8            CP B
765F: 18 01         JR loc_7662
7661: 17            RLA

loc_7662:
7662: FF            RST 38h
7663: C8            RET Z
7664: 08            EX AF,AF'
7665: 01 11 17      LD BC,1711h
7668: E8            RET PE
7669: 08            EX AF,AF'
766A: 00 00 00 00...DB 00h ; x406
7800: 0C            INC C
7801: 78            LD A,B
7802: 12            LD (DE),A
7803: 78            LD A,B
7804: 18 78         JR loc_787E
7806: 1E 78         LD E,78h
7808: 29            ADD HL,HL
7809: 78            LD A,B
780A: 2F            CPL
780B: 78            LD A,B
780C: 01 00 17      LD BC,1700h
780F: E0            RET PO
7810: 00            NOP
7811: 00            NOP
7812: 01 00 17      LD BC,1700h
7815: E2 00 00      JP PO,sub_0000
7818: 01 00 17      LD BC,1700h
781B: E1            POP HL
781C: 00            NOP
781D: 00            NOP
781E: 02            LD (BC),A
781F: 00            NOP
7820: 17            RLA
7821: E4 00 00      CALL PO,sub_0000
7824: 00            NOP
7825: 17            RLA
7826: E5            PUSH HL
7827: 00            NOP
7828: D7            RST 10h
7829: 01 00 17      LD BC,1700h
782C: E3            EX (SP),HL
782D: 00            NOP
782E: 00            NOP
782F: 02            LD (BC),A
7830: 80            ADD A,B
7831: 17            RLA
7832: E6 F8         AND F8h
7834: 00            NOP
7835: 80            ADD A,B
7836: 17            RLA
7837: E8            RET PE
7838: 08            EX AF,AF'
7839: 00 00 00 00...DB 00h ; x69

loc_787E:
787E: 00            NOP
787F: 00            NOP
7880: 00 00 00 00...DB 00h ; x379

sub_79FB:
79FB: 00            NOP
79FC: 00            NOP
79FD: 00            NOP
79FE: 00            NOP
79FF: 00            NOP
7A00: 12            LD (DE),A
7A01: 7A            LD A,D
7A02: 18 7A         JR loc_7A7E
7A04: 1E 7A         LD E,7Ah
7A06: 24            INC H
7A07: 7A            LD A,D
7A08: 2A 7A 30      LD HL,(307Ah)
7A0B: 7A            LD A,D
7A0C: 36 7A         LD (HL),7Ah
7A0E: 3C            INC A
7A0F: 7A            LD A,D
7A10: 47            LD B,A
7A11: 7A            LD A,D
7A12: 01 00 17      LD BC,1700h
7A15: EA 00 08      JP PE,sub_0800
7A18: 01 00 17      LD BC,1700h
7A1B: EB            EX DE,HL
7A1C: 00            NOP
7A1D: 08            EX AF,AF'
7A1E: 01 00 17      LD BC,1700h
7A21: EC 00 08      CALL PE,sub_0800
7A24: 01 00 17      LD BC,1700h
7A27: ED 00         DB EDh,00h
7A29: 08            EX AF,AF'
7A2A: 01 00 17      LD BC,1700h
7A2D: EF            RST 28h
7A2E: 00            NOP
7A2F: 08            EX AF,AF'
7A30: 01 00 17      LD BC,1700h
7A33: F0            RET P
7A34: 00            NOP
7A35: 08            EX AF,AF'
7A36: 01 00 17      LD BC,1700h
7A39: EE 00         XOR 00h
7A3B: 08            EX AF,AF'
7A3C: 02            LD (BC),A
7A3D: 00            NOP
7A3E: 17            RLA
7A3F: F1            POP AF
7A40: 00            NOP
7A41: 18 00         JR loc_7A43

loc_7A43:
7A43: 17            RLA
7A44: F2 00 08      JP P,sub_0800
7A47: 02            LD (BC),A
7A48: 80            ADD A,B
7A49: 17            RLA
7A4A: F4 F8 10      CALL P,sub_10F8
7A4D: 00            NOP
7A4E: 17            RLA
7A4F: F3            DI
7A50: 08            EX AF,AF'
7A51: 18 00         JR loc_7A53

loc_7A53:
7A53: 00            NOP
7A54: 00            NOP
7A55: 00 00 00 00...DB 00h ; x41

loc_7A7E:
7A7E: 00            NOP
7A7F: 00            NOP
7A80: 00 00 00 00...DB 00h ; x124

sub_7AFC:
7AFC: 00            NOP
7AFD: 00            NOP
7AFE: 00            NOP
7AFF: 00            NOP
7B00: 60            LD H,B
7B01: 7B            LD A,E
7B02: 60            LD H,B
7B03: 7B            LD A,E
7B04: 60            LD H,B
7B05: 7B            LD A,E
7B06: 60            LD H,B
7B07: 7B            LD A,E
7B08: 60            LD H,B
7B09: 7B            LD A,E
7B0A: 89            ADC A,C
7B0B: 7B            LD A,E
7B0C: B7            OR A
7B0D: 7B            LD A,E
7B0E: E5            PUSH HL
7B0F: 7B            LD A,E
7B10: 84            ADD A,H
7B11: 7E            LD A,(HL)
7B12: 84            ADD A,H
7B13: 7E            LD A,(HL)
7B14: 13            INC DE
7B15: 7C            LD A,H
7B16: 46            LD B,(HL)
7B17: 7C            LD A,H
7B18: 13            INC DE
7B19: 7C            LD A,H
7B1A: 46            LD B,(HL)
7B1B: 7C            LD A,H
7B1C: A8            XOR B
7B1D: 7C            LD A,H
7B1E: 84            ADD A,H
7B1F: 7E            LD A,(HL)
7B20: DB 7C         IN A,(7Ch)
7B22: F5            PUSH AF
7B23: 7C            LD A,H
7B24: 23            INC HL
7B25: 7D            LD A,L
7B26: 51            LD D,C
7B27: 7D            LD A,L
7B28: 84            ADD A,H
7B29: 7D            LD A,L
7B2A: A3            AND E
7B2B: 7D            LD A,L

loc_7B2C:
7B2C: A3            AND E
7B2D: 7D            LD A,L
7B2E: FA 7D 23      JP M,loc_237D
7B31: 7E            LD A,(HL)
7B32: 60            LD H,B
7B33: 7E            LD A,(HL)
7B34: 84            ADD A,H
7B35: 7E            LD A,(HL)
7B36: A3            AND E
7B37: 7E            LD A,(HL)
7B38: A3            AND E
7B39: 7E            LD A,(HL)
7B3A: A3            AND E
7B3B: 7E            LD A,(HL)
7B3C: A3            AND E
7B3D: 7E            LD A,(HL)
7B3E: A3            AND E
7B3F: 7E            LD A,(HL)
7B40: A3            AND E
7B41: 7E            LD A,(HL)
7B42: D1            POP DE
7B43: 7E            LD A,(HL)
7B44: FF            RST 38h
7B45: 7E            LD A,(HL)
7B46: FF            RST 38h
7B47: 7E            LD A,(HL)
7B48: FF            RST 38h
7B49: 7E            LD A,(HL)
7B4A: FF            RST 38h
7B4B: 7E            LD A,(HL)
7B4C: FF            RST 38h
7B4D: 7E            LD A,(HL)
7B4E: FF            RST 38h
7B4F: 7E            LD A,(HL)
7B50: FF            RST 38h
7B51: 7E            LD A,(HL)
7B52: FF            RST 38h
7B53: 7E            LD A,(HL)
7B54: FF            RST 38h
7B55: 7E            LD A,(HL)
7B56: FF            RST 38h
7B57: 7E            LD A,(HL)
7B58: 37            SCF
7B59: 7F            LD A,A
7B5A: 6F            LD L,A
7B5B: 7F            LD A,A
7B5C: 6F            LD L,A
7B5D: 7F            LD A,A
7B5E: FF            RST 38h
7B5F: 7E            LD A,(HL)
7B60: 08            EX AF,AF'
7B61: C0            RET NZ
7B62: 12            LD (DE),A
7B63: 40            LD B,B
7B64: 0C            INC C
7B65: 50            LD D,B
7B66: C0            RET NZ
7B67: 12            LD (DE),A
7B68: 42            LD B,D
7B69: 0C            INC C
7B6A: 30 C0         JR NC,loc_7B2C
7B6C: 12            LD (DE),A
7B6D: 44            LD B,H
7B6E: FC 50 C0      CALL M,C050h
7B71: 12            LD (DE),A
7B72: 46            LD B,(HL)
7B73: FC 30 C0      CALL M,C030h
7B76: 12            LD (DE),A
7B77: 48            LD C,B
7B78: FC 10 C0      CALL M,C010h
7B7B: 12            LD (DE),A
7B7C: 4A            LD C,D
7B7D: EC 40 40      CALL PE,sub_4040
7B80: 12            LD (DE),A
7B81: 4C            LD C,H
7B82: 0C            INC C
7B83: 18 40         JR loc_7BC5
7B85: 12            LD (DE),A
7B86: 4D            LD C,L
7B87: EC 28 09      CALL PE,sub_0928
7B8A: C0            RET NZ
7B8B: 12            LD (DE),A
7B8C: 4E            LD C,(HL)
7B8D: 0C            INC C
7B8E: 40            LD B,B
7B8F: C0            RET NZ
7B90: 12            LD (DE),A
7B91: 50            LD D,B
7B92: 0C            INC C
7B93: 20 40         JR NZ,loc_7BD5
7B95: 12            LD (DE),A
7B96: 5C            LD E,H
7B97: 0C            INC C
7B98: 08            EX AF,AF'
7B99: C0            RET NZ
7B9A: 12            LD (DE),A
7B9B: 52            LD D,D
7B9C: FC 50 C0      CALL M,C050h
7B9F: 12            LD (DE),A
7BA0: 54            LD D,H
7BA1: FC 30 C0      CALL M,C030h
7BA4: 12            LD (DE),A
7BA5: 56            LD D,(HL)
7BA6: FC 10 C0      CALL M,C010h
7BA9: 12            LD (DE),A
7BAA: 58            LD E,B
7BAB: EC 40 C0      CALL PE,C040h
7BAE: 12            LD (DE),A
7BAF: 5A            LD E,D
7BB0: EC 20 40      CALL PE,sub_4020
7BB3: 12            LD (DE),A
7BB4: 5D            LD E,L
7BB5: EC 08 09      CALL PE,sub_0908
7BB8: C0            RET NZ
7BB9: 12            LD (DE),A
7BBA: 5E            LD E,(HL)
7BBB: 0C            INC C
7BBC: 40            LD B,B
7BBD: C0            RET NZ
7BBE: 12            LD (DE),A
7BBF: 60            LD H,B

loc_7BC0:
7BC0: 0C            INC C
7BC1: 20 40         JR NZ,loc_7C03
7BC3: 12            LD (DE),A
7BC4: 6C            LD L,H

loc_7BC5:
7BC5: 0C            INC C
7BC6: 08            EX AF,AF'
7BC7: C0            RET NZ
7BC8: 12            LD (DE),A
7BC9: 62            LD H,D
7BCA: FC 50 C0      CALL M,C050h
7BCD: 12            LD (DE),A
7BCE: 64            LD H,H
7BCF: FC 30 C0      CALL M,C030h
7BD2: 12            LD (DE),A
7BD3: 66            LD H,(HL)
7BD4: FC 10 C0      CALL M,C010h
7BD7: 12            LD (DE),A
7BD8: 68            LD L,B
7BD9: EC 40 C0      CALL PE,C040h
7BDC: 12            LD (DE),A
7BDD: 6A            LD L,D
7BDE: EC 20 40      CALL PE,sub_4020
7BE1: 12            LD (DE),A
7BE2: 6D            LD L,L
7BE3: EC 08 08      CALL PE,sub_0808
7BE6: C0            RET NZ
7BE7: 12            LD (DE),A
7BE8: 6E            LD L,(HL)

loc_7BE9:
7BE9: 0F            RRCA
7BEA: 40            LD B,B
7BEB: C0            RET NZ
7BEC: 12            LD (DE),A
7BED: 70            LD (HL),B

loc_7BEE:
7BEE: 0F            RRCA
7BEF: 20 40         JR NZ,loc_7C31
7BF1: 12            LD (DE),A
7BF2: 5C            LD E,H
7BF3: 0F            RRCA
7BF4: 08            EX AF,AF'
7BF5: C0            RET NZ
7BF6: 12            LD (DE),A
7BF7: 72            LD (HL),D
7BF8: FF            RST 38h
7BF9: 50            LD D,B
7BFA: C0            RET NZ
7BFB: 12            LD (DE),A
7BFC: 74            LD (HL),H
7BFD: FF            RST 38h
7BFE: 30 C0         JR NC,loc_7BC0
7C00: 12            LD (DE),A
7C01: 76            HALT
7C02: FF            RST 38h

loc_7C03:
7C03: 10 C0         DJNZ loc_7BC5
7C05: 12            LD (DE),A
7C06: 78            LD A,B
7C07: EF            RST 28h
7C08: 40            LD B,B
7C09: C0            RET NZ
7C0A: 12            LD (DE),A
7C0B: 7A            LD A,D
7C0C: EF            RST 28h

loc_7C0D:
7C0D: 20 40         JR NZ,loc_7C4F
7C0F: 12            LD (DE),A

loc_7C10:
7C10: FF            RST 38h
7C11: EF            RST 28h

loc_7C12:
7C12: 08            EX AF,AF'
7C13: 0A            LD A,(BC)
7C14: C0            RET NZ
7C15: 12            LD (DE),A
7C16: B6            OR (HL)
7C17: 08            EX AF,AF'
7C18: 50            LD D,B
7C19: C0            RET NZ
7C1A: 12            LD (DE),A
7C1B: B8            CP B
7C1C: 08            EX AF,AF'
7C1D: 20 C0         JR NZ,loc_7BDF
7C1F: 12            LD (DE),A
7C20: BA            CP D

loc_7C21:
7C21: F8            RET M
7C22: 50            LD D,B
7C23: C0            RET NZ
7C24: 12            LD (DE),A
7C25: BC            CP H

loc_7C26:
7C26: F8            RET M
7C27: 30 C0         JR NC,loc_7BE9
7C29: 12            LD (DE),A
7C2A: BE            CP (HL)
7C2B: F8            RET M
7C2C: 10 C0         DJNZ loc_7BEE
7C2E: 12            LD (DE),A

loc_7C2F:
7C2F: C0            RET NZ
7C30: E8            RET PE

loc_7C31:
7C31: 50            LD D,B
7C32: C0            RET NZ
7C33: 12            LD (DE),A
7C34: C2 E8 30      JP NZ,loc_30E8
7C37: C0            RET NZ
7C38: 12            LD (DE),A
7C39: C4 D8 30      CALL NZ,sub_30D8
7C3C: 40            LD B,B
7C3D: 12            LD (DE),A

loc_7C3E:
7C3E: C6 08         ADD A,08h
7C40: 08            EX AF,AF'
7C41: 40            LD B,B
7C42: 12            LD (DE),A
7C43: C7            RST 00h
7C44: E8            RET PE
7C45: 18 08         JR loc_7C4F
7C47: 40            LD B,B
7C48: 12            LD (DE),A
7C49: D7            RST 10h
7C4A: 00            NOP
7C4B: 28 C0         JR Z,loc_7C0D
7C4D: 12            LD (DE),A
7C4E: D8            RET C

loc_7C4F:
7C4F: 00            NOP
7C50: 10 C0         DJNZ loc_7C12
7C52: 12            LD (DE),A
7C53: DA F0 30      JP C,sub_30F0
7C56: C0            RET NZ
7C57: 12            LD (DE),A
7C58: DC F0 10      CALL C,sub_10F0
7C5B: C0            RET NZ
7C5C: 12            LD (DE),A
7C5D: DE E0         SBC A,E0h
7C5F: 30 C0         JR NC,loc_7C21
7C61: 12            LD (DE),A
7C62: E0            RET PO
7C63: E0            RET PO
7C64: 10 C0         DJNZ loc_7C26
7C66: 12            LD (DE),A
7C67: E2 D0 30      JP PO,loc_30D0
7C6A: C0            RET NZ
7C6B: 12            LD (DE),A
7C6C: E4 D0 10      CALL PO,sub_10D0
7C6F: C6 C0         ADD A,C0h
7C71: 12            LD (DE),A

loc_7C72:
7C72: E6 08         AND 08h
7C74: 50            LD D,B
7C75: 08            EX AF,AF'

loc_7C76:
7C76: 30 08         JR NC,loc_7C80
7C78: 10 F8         DJNZ loc_7C72
7C7A: 50            LD D,B
7C7B: F8            RET M
7C7C: 30 F8         JR NC,loc_7C76
7C7E: 10 08         DJNZ loc_7C88

loc_7C80:
7C80: 80            ADD A,B
7C81: 12            LD (DE),A
7C82: F2 00 10      JP P,loc_1000
7C85: 80            ADD A,B
7C86: 12            LD (DE),A
7C87: F4 10 20      CALL P,sub_2010
7C8A: 80            ADD A,B
7C8B: 12            LD (DE),A
7C8C: F6 20         OR 20h
7C8E: 20 80         JR NZ,loc_7C10
7C90: 12            LD (DE),A
7C91: F8            RET M
7C92: 30 20         JR NC,loc_7CB4
7C94: 80            ADD A,B
7C95: 12            LD (DE),A
7C96: FA 40 20      JP M,loc_2040
7C99: 00            NOP
7C9A: 12            LD (DE),A
7C9B: FC 10 08      CALL M,sub_0810
7C9E: 00            NOP
7C9F: 12            LD (DE),A
7CA0: FD            DB FDh ; prefix (nop)
7CA1: 20 08         JR NZ,loc_7CAB
7CA3: 00            NOP
7CA4: 12            LD (DE),A
7CA5: FE 30         CP 30h
7CA7: 08            EX AF,AF'
7CA8: 0A            LD A,(BC)
7CA9: 80            ADD A,B
7CAA: 12            LD (DE),A

loc_7CAB:
7CAB: C8            RET Z

loc_7CAC:
7CAC: 00            NOP
7CAD: 18 80         JR loc_7C2F
7CAF: 12            LD (DE),A
7CB0: CA 10 18      JP Z,loc_1810
7CB3: 80            ADD A,B

loc_7CB4:
7CB4: 12            LD (DE),A
7CB5: CC 20 18      CALL Z,sub_1820
7CB8: 80            ADD A,B
7CB9: 12            LD (DE),A
7CBA: CE 30         ADC A,30h
7CBC: 18 80         JR loc_7C3E
7CBE: 12            LD (DE),A
7CBF: D0            RET NC
7CC0: 40            LD B,B
7CC1: 18 00         JR loc_7CC3

loc_7CC3:
7CC3: 12            LD (DE),A
7CC4: D2 00 00      JP NC,sub_0000
7CC7: 00            NOP
7CC8: 12            LD (DE),A
7CC9: D3 10         OUT (10h),A
7CCB: 00            NOP
7CCC: 00            NOP
7CCD: 12            LD (DE),A
7CCE: D4 20 00      CALL NC,sub_0020
7CD1: 00            NOP
7CD2: 12            LD (DE),A
7CD3: D5            PUSH DE
7CD4: 30 00         JR NC,loc_7CD6

loc_7CD6:
7CD6: 00            NOP
7CD7: 12            LD (DE),A
7CD8: D6 40         SUB 40h
7CDA: 00            NOP
7CDB: 05            DEC B
7CDC: C0            RET NZ
7CDD: 12            LD (DE),A
7CDE: AC            XOR H
7CDF: 10 30         DJNZ loc_7D11
7CE1: C0            RET NZ
7CE2: 12            LD (DE),A
7CE3: AE            XOR (HL)
7CE4: 10 10         DJNZ loc_7CF6
7CE6: C0            RET NZ
7CE7: 12            LD (DE),A
7CE8: B0            OR B
7CE9: 00            NOP
7CEA: 30 C0         JR NC,loc_7CAC
7CEC: 12            LD (DE),A
7CED: B2            OR D
7CEE: 00            NOP
7CEF: 10 C0         DJNZ loc_7CB1
7CF1: 12            LD (DE),A
7CF2: B4            OR H
7CF3: F0            RET P
7CF4: 10 09         DJNZ loc_7CFF

loc_7CF6:
7CF6: 40            LD B,B
7CF7: 13            INC DE
7CF8: D9            EXX
7CF9: 10 44         DJNZ loc_7D3F
7CFB: C0            RET NZ
7CFC: 13            INC DE
7CFD: DA 10 2C      JP C,loc_2C10
7D00: C0            RET NZ
7D01: 13            INC DE
7D02: DC 10 0C      CALL C,sub_0C10
7D05: C0            RET NZ
7D06: 13            INC DE
7D07: DE 00         SBC A,00h
7D09: 4C            LD C,H
7D0A: C0            RET NZ
7D0B: 13            INC DE
7D0C: E0            RET PO
7D0D: 00            NOP
7D0E: 2C            INC L
7D0F: C0            RET NZ
7D10: 13            INC DE

loc_7D11:
7D11: E2 00 0C      JP PO,sub_0C00
7D14: C0            RET NZ
7D15: 13            INC DE
7D16: E4 F0 4C      CALL PO,sub_4CF0
7D19: C0            RET NZ
7D1A: 13            INC DE
7D1B: E6 F0         AND F0h
7D1D: 2C            INC L
7D1E: C0            RET NZ
7D1F: 13            INC DE
7D20: E8            RET PE
7D21: F0            RET P
7D22: 0C            INC C
7D23: 09            ADD HL,BC
7D24: C0            RET NZ
7D25: 13            INC DE
7D26: EA 10 4C      JP PE,loc_4C10
7D29: C0            RET NZ
7D2A: 13            INC DE
7D2B: EC 10 2C      CALL PE,loc_2C10
7D2E: C0            RET NZ
7D2F: 13            INC DE
7D30: EE 10         XOR 10h
7D32: 0C            INC C
7D33: C0            RET NZ
7D34: 13            INC DE
7D35: F0            RET P

sub_7D36:
7D36: 00            NOP
7D37: 4C            LD C,H
7D38: C0            RET NZ
7D39: 13            INC DE
7D3A: F2 00 2C      JP P,loc_2C00
7D3D: C0            RET NZ
7D3E: 13            INC DE

loc_7D3F:
7D3F: F4 00 0C      CALL P,sub_0C00
7D42: C0            RET NZ
7D43: 13            INC DE
7D44: F6 F0         OR F0h
7D46: 3C            INC A
7D47: C0            RET NZ
7D48: 13            INC DE
7D49: F8            RET M
7D4A: F0            RET P
7D4B: 1C            INC E
7D4C: 40            LD B,B
7D4D: 13            INC DE
7D4E: FA F0 04      JP M,loc_04F0
7D51: 0A            LD A,(BC)
7D52: C0            RET NZ
7D53: 13            INC DE
7D54: C6 20         ADD A,20h
7D56: 3C            INC A
7D57: C0            RET NZ
7D58: 13            INC DE
7D59: C8            RET Z

loc_7D5A:
7D5A: 10 4C         DJNZ loc_7DA8
7D5C: C0            RET NZ
7D5D: 13            INC DE
7D5E: CA 10 2C      JP Z,loc_2C10
7D61: C0            RET NZ
7D62: 13            INC DE
7D63: CC 10 0C      CALL Z,sub_0C10
7D66: C0            RET NZ
7D67: 13            INC DE
7D68: CE 00         ADC A,00h
7D6A: 4C            LD C,H
7D6B: C0            RET NZ
7D6C: 13            INC DE
7D6D: D0            RET NC
7D6E: 00            NOP
7D6F: 2C            INC L
7D70: C0            RET NZ
7D71: 13            INC DE
7D72: D2 00 0C      JP NC,sub_0C00
7D75: C0            RET NZ
7D76: 13            INC DE
7D77: D4 F0 3C      CALL NC,sub_3CF0
7D7A: C0            RET NZ
7D7B: 13            INC DE
7D7C: D6 F0         SUB F0h
7D7E: 1C            INC E
7D7F: 40            LD B,B
7D80: 13            INC DE
7D81: D8            RET C
7D82: F0            RET P
7D83: 04            INC B
7D84: 06 40         LD B,40h
7D86: 13            INC DE
7D87: 6D            LD L,L
7D88: 08            EX AF,AF'
7D89: 48            LD C,B
7D8A: C0            RET NZ
7D8B: 13            INC DE
7D8C: 6E            LD L,(HL)
7D8D: 08            EX AF,AF'
7D8E: 30 C0         JR NC,loc_7D50
7D90: 13            INC DE
7D91: 70            LD (HL),B
7D92: 08            EX AF,AF'
7D93: 10 40         DJNZ loc_7DD5
7D95: 13            INC DE
7D96: 73            LD (HL),E
7D97: F8            RET M
7D98: 38 C0         JR C,loc_7D5A
7D9A: 13            INC DE
7D9B: 74            LD (HL),H
7D9C: F8            RET M
7D9D: 20 40         JR NZ,loc_7DDF
7D9F: 13            INC DE
7DA0: 76            HALT
7DA1: F8            RET M
7DA2: 08            EX AF,AF'
7DA3: 08            EX AF,AF'
7DA4: C0            RET NZ
7DA5: 13            INC DE
7DA6: 5E            LD E,(HL)
7DA7: 20 50         JR NZ,loc_7DF9
7DA9: C0            RET NZ
7DAA: 13            INC DE
7DAB: 60            LD H,B
7DAC: 20 30         JR NZ,loc_7DDE
7DAE: C0            RET NZ

loc_7DAF:
7DAF: 13            INC DE
7DB0: 62            LD H,D
7DB1: 10 50         DJNZ loc_7E03
7DB3: C0            RET NZ
7DB4: 13            INC DE
7DB5: 64            LD H,H

loc_7DB6:
7DB6: 10 30         DJNZ loc_7DE8
7DB8: C0            RET NZ
7DB9: 13            INC DE
7DBA: 66            LD H,(HL)
7DBB: 10 10         DJNZ loc_7DCD
7DBD: C0            RET NZ
7DBE: 13            INC DE
7DBF: 68            LD L,B
7DC0: 00            NOP
7DC1: 40            LD B,B
7DC2: C0            RET NZ
7DC3: 13            INC DE
7DC4: 6A            LD L,D
7DC5: 00            NOP
7DC6: 20 40         JR NZ,loc_7E08

loc_7DC8:
7DC8: 13            INC DE
7DC9: 6C            LD L,H
7DCA: 00            NOP
7DCB: 08            EX AF,AF'
7DCC: 09            ADD HL,BC

loc_7DCD:
7DCD: 40            LD B,B
7DCE: 13            INC DE
7DCF: 4D            LD C,L
7DD0: 00            NOP
7DD1: 00            NOP
7DD2: C0            RET NZ
7DD3: 13            INC DE
7DD4: 4E            LD C,(HL)

loc_7DD5:
7DD5: 20 48         JR NZ,loc_7E1F
7DD7: C0            RET NZ
7DD8: 13            INC DE
7DD9: 50            LD D,B
7DDA: 20 28         JR NZ,loc_7E04
7DDC: C0            RET NZ
7DDD: 13            INC DE

loc_7DDE:
7DDE: 52            LD D,D

loc_7DDF:
7DDF: 20 08         JR NZ,loc_7DE9
7DE1: C0            RET NZ
7DE2: 13            INC DE
7DE3: 54            LD D,H
7DE4: 10 48         DJNZ loc_7E2E
7DE6: C0            RET NZ
7DE7: 13            INC DE

loc_7DE8:
7DE8: 56            LD D,(HL)

loc_7DE9:
7DE9: 10 28         DJNZ loc_7E13
7DEB: C0            RET NZ

loc_7DEC:
7DEC: 13            INC DE
7DED: 58            LD E,B
7DEE: 10 08         DJNZ loc_7DF8
7DF0: C0            RET NZ

loc_7DF1:
7DF1: 13            INC DE
7DF2: 5A            LD E,D
7DF3: 00            NOP
7DF4: 38 C0         JR C,loc_7DB6

loc_7DF6:
7DF6: 13            INC DE
7DF7: 5C            LD E,H

loc_7DF8:
7DF8: 00            NOP

loc_7DF9:
7DF9: 18 08         JR loc_7E03

loc_7DFB:
7DFB: 80            ADD A,B
7DFC: 12            LD (DE),A
7DFD: 7C            LD A,H
7DFE: EC 48 80      CALL PE,8048h
7E01: 12            LD (DE),A
7E02: 7E            LD A,(HL)

loc_7E03:
7E03: EC 28 80      CALL PE,8028h
7E06: 12            LD (DE),A
7E07: 80            ADD A,B

loc_7E08:
7E08: FC 48 80      CALL M,8048h
7E0B: 12            LD (DE),A
7E0C: 82            ADD A,D
7E0D: FC 28 80      CALL M,8028h
7E10: 12            LD (DE),A
7E11: 84            ADD A,H
7E12: FC 08 80      CALL M,8008h
7E15: 12            LD (DE),A
7E16: 86            ADD A,(HL)
7E17: 0C            INC C
7E18: 48            LD C,B
7E19: 80            ADD A,B
7E1A: 12            LD (DE),A
7E1B: 88            ADC A,B
7E1C: 0C            INC C
7E1D: 28 00         JR Z,loc_7E1F

loc_7E1F:
7E1F: 12            LD (DE),A
7E20: 8A            ADC A,D
7E21: 0C            INC C
7E22: 10 0C         DJNZ loc_7E30
7E24: 80            ADD A,B
7E25: 12            LD (DE),A
7E26: 8C            ADC A,H
7E27: F8            RET M
7E28: 58            LD E,B
7E29: 80            ADD A,B
7E2A: 12            LD (DE),A
7E2B: 8E            ADC A,(HL)
7E2C: F8            RET M
7E2D: 38 80         JR C,loc_7DAF
7E2F: 12            LD (DE),A

loc_7E30:
7E30: 90            SUB B
7E31: F8            RET M
7E32: 18 00         JR loc_7E34

loc_7E34:
7E34: 12            LD (DE),A
7E35: 92            SUB D
7E36: F8            RET M
7E37: 00            NOP
7E38: 00            NOP
7E39: 12            LD (DE),A
7E3A: 93            SUB E
7E3B: 08            EX AF,AF'
7E3C: 60            LD H,B
7E3D: 80            ADD A,B
7E3E: 12            LD (DE),A
7E3F: 94            SUB H
7E40: 08            EX AF,AF'
7E41: 48            LD C,B
7E42: 80            ADD A,B
7E43: 12            LD (DE),A
7E44: 96            SUB (HL)
7E45: 08            EX AF,AF'
7E46: 28 80         JR Z,loc_7DC8
7E48: 12            LD (DE),A
7E49: 98            SBC A,B
7E4A: 08            EX AF,AF'
7E4B: 08            EX AF,AF'
7E4C: 80            ADD A,B
7E4D: 12            LD (DE),A
7E4E: 9A            SBC A,D
7E4F: 18 58         JR loc_7EA9
7E51: 80            ADD A,B
7E52: 12            LD (DE),A
7E53: 9C            SBC A,H
7E54: 18 38         JR loc_7E8E
7E56: 00            NOP
7E57: 12            LD (DE),A
7E58: 9E            SBC A,(HL)
7E59: 18 20         JR loc_7E7B
7E5B: 00            NOP
7E5C: 12            LD (DE),A
7E5D: 8B            ADC A,E
7E5E: 18 10         JR loc_7E70
7E60: 07            RLCA
7E61: 00            NOP
7E62: 12            LD (DE),A
7E63: 9F            SBC A,A
7E64: 00            NOP
7E65: 48            LD C,B
7E66: 80            ADD A,B
7E67: 12            LD (DE),A
7E68: A0            AND B
7E69: F0            RET P
7E6A: 30 80         JR NC,loc_7DEC
7E6C: 12            LD (DE),A
7E6D: A2            AND D
7E6E: F0            RET P
7E6F: 10 80         DJNZ loc_7DF1
7E71: 12            LD (DE),A
7E72: A4            AND H
7E73: 00            NOP
7E74: 30 80         JR NC,loc_7DF6
7E76: 12            LD (DE),A
7E77: A6            AND (HL)
7E78: 00            NOP
7E79: 10 80         DJNZ loc_7DFB

loc_7E7B:
7E7B: 12            LD (DE),A
7E7C: A8            XOR B
7E7D: 10 30         DJNZ loc_7EAF
7E7F: 80            ADD A,B
7E80: 12            LD (DE),A
7E81: AA            XOR D
7E82: 10 10         DJNZ loc_7E94
7E84: 06 C0         LD B,C0h
7E86: 13            INC DE
7E87: 00            NOP
7E88: 08            EX AF,AF'
7E89: 50            LD D,B
7E8A: C0            RET NZ
7E8B: 13            INC DE
7E8C: 02            LD (BC),A

loc_7E8D:
7E8D: 08            EX AF,AF'

loc_7E8E:
7E8E: 30 C0         JR NC,loc_7E50
7E90: 13            INC DE
7E91: 04            INC B
7E92: 08            EX AF,AF'
7E93: 10 C0         DJNZ loc_7E55
7E95: 13            INC DE
7E96: 06 F8         LD B,F8h
7E98: 40            LD B,B
7E99: C0            RET NZ
7E9A: 13            INC DE
7E9B: 08            EX AF,AF'
7E9C: F8            RET M
7E9D: 20 40         JR NZ,loc_7EDF
7E9F: 13            INC DE
7EA0: 0A            LD A,(BC)
7EA1: F8            RET M
7EA2: 08            EX AF,AF'
7EA3: 09            ADD HL,BC
7EA4: C0            RET NZ
7EA5: 13            INC DE
7EA6: 2C            INC L

loc_7EA7:
7EA7: 10 40         DJNZ loc_7EE9

loc_7EA9:
7EA9: C0            RET NZ
7EAA: 13            INC DE
7EAB: 2E 10         LD L,10h
7EAD: 20 40         JR NZ,loc_7EEF

loc_7EAF:
7EAF: 13            INC DE
7EB0: 2B            DEC HL
7EB1: 10 08         DJNZ loc_7EBB
7EB3: C0            RET NZ
7EB4: 13            INC DE
7EB5: 30 00         JR NC,loc_7EB7

loc_7EB7:
7EB7: 50            LD D,B
7EB8: C0            RET NZ
7EB9: 13            INC DE
7EBA: 32 00 30      LD (3000h),A
7EBD: C0            RET NZ
7EBE: 13            INC DE
7EBF: 34            INC (HL)
7EC0: 00            NOP
7EC1: 10 C0         DJNZ loc_7E83
7EC3: 13            INC DE
7EC4: 36 F0         LD (HL),F0h
7EC6: 50            LD D,B
7EC7: C0            RET NZ
7EC8: 13            INC DE
7EC9: 38 F0         JR C,loc_7EBB
7ECB: 30 C0         JR NC,loc_7E8D
7ECD: 13            INC DE
7ECE: 3A F0 10      LD A,(10F0h)
7ED1: 09            ADD HL,BC
7ED2: C0            RET NZ
7ED3: 13            INC DE
7ED4: 3C            INC A
7ED5: 20 30         JR NZ,loc_7F07
7ED7: 40            LD B,B
7ED8: 13            INC DE
7ED9: 4C            LD C,H
7EDA: 10 28         DJNZ loc_7F04
7EDC: C0            RET NZ
7EDD: 13            INC DE
7EDE: 3E 00         LD A,00h
7EE0: 50            LD D,B
7EE1: C0            RET NZ
7EE2: 13            INC DE
7EE3: 40            LD B,B
7EE4: 00            NOP
7EE5: 30 C0         JR NC,loc_7EA7
7EE7: 13            INC DE
7EE8: 42            LD B,D

loc_7EE9:
7EE9: 00            NOP
7EEA: 10 C0         DJNZ loc_7EAC
7EEC: 13            INC DE
7EED: 44            LD B,H
7EEE: F0            RET P

loc_7EEF:
7EEF: 50            LD D,B
7EF0: C0            RET NZ
7EF1: 13            INC DE
7EF2: 46            LD B,(HL)
7EF3: F0            RET P
7EF4: 30 C0         JR NC,loc_7EB6
7EF6: 13            INC DE
7EF7: 48            LD C,B
7EF8: F0            RET P
7EF9: 10 C0         DJNZ loc_7EBB
7EFB: 13            INC DE
7EFC: 4A            LD C,D
7EFD: E0            RET PO
7EFE: 40            LD B,B
7EFF: 0B            DEC BC
7F00: C0            RET NZ
7F01: 13            INC DE
7F02: 8A            ADC A,D
7F03: 18 5C         JR loc_7F61
7F05: C0            RET NZ
7F06: 13            INC DE

loc_7F07:
7F07: 8C            ADC A,H
7F08: 18 3C         JR loc_7F46
7F0A: C0            RET NZ
7F0B: 13            INC DE
7F0C: 8E            ADC A,(HL)
7F0D: 18 1C         JR loc_7F2B
7F0F: 40            LD B,B
7F10: 13            INC DE
7F11: 9A            SBC A,D
7F12: 18 04         JR loc_7F18
7F14: C0            RET NZ
7F15: 13            INC DE
7F16: 90            SUB B
7F17: 08            EX AF,AF'

loc_7F18:
7F18: 5C            LD E,H
7F19: C0            RET NZ
7F1A: 13            INC DE
7F1B: 92            SUB D
7F1C: 08            EX AF,AF'
7F1D: 3C            INC A
7F1E: C0            RET NZ
7F1F: 13            INC DE
7F20: 94            SUB H
7F21: 08            EX AF,AF'
7F22: 1C            INC E
7F23: 40            LD B,B
7F24: 13            INC DE
7F25: 9B            SBC A,E
7F26: 08            EX AF,AF'
7F27: 04            INC B
7F28: C0            RET NZ
7F29: 13            INC DE
7F2A: 96            SUB (HL)

loc_7F2B:
7F2B: F8            RET M
7F2C: 3C            INC A
7F2D: C0            RET NZ
7F2E: 13            INC DE
7F2F: 98            SBC A,B
7F30: F8            RET M
7F31: 1C            INC E
7F32: 40            LD B,B
7F33: 13            INC DE
7F34: 9C            SBC A,H
7F35: F8            RET M
7F36: 04            INC B
7F37: 0B            DEC BC
7F38: 40            LD B,B
7F39: 13            INC DE
7F3A: 9D            SBC A,L
7F3B: 18 3C         JR loc_7F79
7F3D: C0            RET NZ
7F3E: 13            INC DE
7F3F: 9E            SBC A,(HL)
7F40: 18 2C         JR loc_7F6E
7F42: C0            RET NZ
7F43: 13            INC DE
7F44: A0            AND B
7F45: 18 0C         JR loc_7F53
7F47: C0            RET NZ
7F48: 13            INC DE
7F49: A2            AND D
7F4A: 08            EX AF,AF'
7F4B: 5C            LD E,H
7F4C: C0            RET NZ
7F4D: 13            INC DE
7F4E: A4            AND H
7F4F: 08            EX AF,AF'
7F50: 3C            INC A
7F51: C0            RET NZ
7F52: 13            INC DE

loc_7F53:
7F53: A6            AND (HL)
7F54: 08            EX AF,AF'
7F55: 1C            INC E
7F56: 40            LD B,B
7F57: 13            INC DE
7F58: A8            XOR B
7F59: 08            EX AF,AF'
7F5A: 04            INC B
7F5B: 40            LD B,B
7F5C: 13            INC DE
7F5D: A9            XOR C
7F5E: F8            RET M
7F5F: 64            LD H,H
7F60: C0            RET NZ

loc_7F61:
7F61: 13            INC DE
7F62: AA            XOR D
7F63: F8            RET M
7F64: 4C            LD C,H
7F65: C0            RET NZ
7F66: 13            INC DE
7F67: AC            XOR H
7F68: F8            RET M
7F69: 2C            INC L
7F6A: C0            RET NZ
7F6B: 13            INC DE
7F6C: AE            XOR (HL)
7F6D: F8            RET M

loc_7F6E:
7F6E: 0C            INC C
7F6F: 0B            DEC BC
7F70: C0            RET NZ
7F71: 13            INC DE
7F72: B2            OR D
7F73: 30 3C         JR NC,loc_7FB1
7F75: C0            RET NZ
7F76: 13            INC DE
7F77: B4            OR H
7F78: 20 3C         JR NZ,loc_7FB6
7F7A: C0            RET NZ
7F7B: 13            INC DE
7F7C: B6            OR (HL)
7F7D: 20 1C         JR NZ,loc_7F9B
7F7F: 40            LD B,B
7F80: 13            INC DE
7F81: C4 20 04      CALL NZ,sub_0420
7F84: C0            RET NZ
7F85: 13            INC DE
7F86: B8            CP B
7F87: 10 5C         DJNZ loc_7FE5
7F89: C0            RET NZ
7F8A: 13            INC DE
7F8B: BA            CP D
7F8C: 10 3C         DJNZ loc_7FCA
7F8E: C0            RET NZ
7F8F: 13            INC DE
7F90: BC            CP H
7F91: 10 1C         DJNZ loc_7FAF
7F93: 40            LD B,B
7F94: 13            INC DE
7F95: C5            PUSH BC
7F96: 10 04         DJNZ loc_7F9C
7F98: C0            RET NZ
7F99: 13            INC DE
7F9A: BE            CP (HL)

loc_7F9B:
7F9B: 00            NOP

loc_7F9C:
7F9C: 4C            LD C,H
7F9D: C0            RET NZ
7F9E: 13            INC DE
7F9F: C0            RET NZ
7FA0: 00            NOP
7FA1: 2C            INC L
7FA2: C0            RET NZ
7FA3: 13            INC DE
7FA4: C2 00 0C      JP NZ,sub_0C00
7FA7: 00 00 00 00...DB 00h ; x8

loc_7FAF:
7FAF: 00            NOP
7FB0: 00            NOP

loc_7FB1:
7FB1: 00            NOP
7FB2: 00            NOP
7FB3: 00            NOP
7FB4: 00            NOP
7FB5: 00            NOP

loc_7FB6:
7FB6: 00            NOP
7FB7: 00            NOP
7FB8: 00 00 00 00...DB 00h ; x18

loc_7FCA:
7FCA: 00            NOP
7FCB: 00            NOP
7FCC: 00 00 00 00...DB 00h ; x25

loc_7FE5:
7FE5: 00            NOP
7FE6: 00            NOP
7FE7: 00 00 00 00...DB 00h ; x25
